
LPC1768/YOZAKURA_BODY.elf:     file format elf32-littlearm
architecture: arm, flags 0x00000112:
EXEC_P, HAS_SYMS, D_PAGED
start address 0x00004dd1


Disassembly of section .text:

00000000 <__isr_vector>:
       0:	10008000 	.word	0x10008000
       4:	00004dd1 	.word	0x00004dd1
       8:	00004e01 	.word	0x00004e01
       c:	00004e03 	.word	0x00004e03
      10:	00004e05 	.word	0x00004e05
      14:	00004e07 	.word	0x00004e07
      18:	00004e09 	.word	0x00004e09
	...
      2c:	00004e0b 	.word	0x00004e0b
      30:	00004e0d 	.word	0x00004e0d
      34:	00000000 	.word	0x00000000
      38:	00004e0f 	.word	0x00004e0f
      3c:	00004e11 	.word	0x00004e11
      40:	00004e13 	.word	0x00004e13
      44:	00004e13 	.word	0x00004e13
      48:	00004e13 	.word	0x00004e13
      4c:	00004e13 	.word	0x00004e13
      50:	00004e13 	.word	0x00004e13
      54:	00004e13 	.word	0x00004e13
      58:	00004e13 	.word	0x00004e13
      5c:	00004e13 	.word	0x00004e13
      60:	00004e13 	.word	0x00004e13
      64:	00004e13 	.word	0x00004e13
      68:	00004e13 	.word	0x00004e13
      6c:	00004e13 	.word	0x00004e13
      70:	00004e13 	.word	0x00004e13
      74:	00004e13 	.word	0x00004e13
      78:	00004e13 	.word	0x00004e13
      7c:	00004e13 	.word	0x00004e13
      80:	00004e13 	.word	0x00004e13
      84:	00004e13 	.word	0x00004e13
      88:	00004e13 	.word	0x00004e13
      8c:	00004e13 	.word	0x00004e13
      90:	00004e13 	.word	0x00004e13
      94:	00004e13 	.word	0x00004e13
      98:	00004e13 	.word	0x00004e13
      9c:	00004e13 	.word	0x00004e13
      a0:	00004e13 	.word	0x00004e13
      a4:	00004e13 	.word	0x00004e13
      a8:	00004e13 	.word	0x00004e13
      ac:	00004e13 	.word	0x00004e13
      b0:	00004e13 	.word	0x00004e13
      b4:	00004e13 	.word	0x00004e13
      b8:	00004e13 	.word	0x00004e13
      bc:	00004e13 	.word	0x00004e13
      c0:	00004e13 	.word	0x00004e13
      c4:	00004e13 	.word	0x00004e13
      c8:	00004e13 	.word	0x00004e13

000000cc <__do_global_dtors_aux>:
      cc:	b510      	push	{r4, lr}
      ce:	4c05      	ldr	r4, [pc, #20]	; (e4 <__do_global_dtors_aux+0x18>)
      d0:	7823      	ldrb	r3, [r4, #0]
      d2:	b933      	cbnz	r3, e2 <__do_global_dtors_aux+0x16>
      d4:	4b04      	ldr	r3, [pc, #16]	; (e8 <__do_global_dtors_aux+0x1c>)
      d6:	b113      	cbz	r3, de <__do_global_dtors_aux+0x12>
      d8:	4804      	ldr	r0, [pc, #16]	; (ec <__do_global_dtors_aux+0x20>)
      da:	f3af 8000 	nop.w
      de:	2301      	movs	r3, #1
      e0:	7023      	strb	r3, [r4, #0]
      e2:	bd10      	pop	{r4, pc}
      e4:	10000168 	.word	0x10000168
      e8:	00000000 	.word	0x00000000
      ec:	00007de4 	.word	0x00007de4

000000f0 <frame_dummy>:
      f0:	4b08      	ldr	r3, [pc, #32]	; (114 <frame_dummy+0x24>)
      f2:	b510      	push	{r4, lr}
      f4:	b11b      	cbz	r3, fe <frame_dummy+0xe>
      f6:	4808      	ldr	r0, [pc, #32]	; (118 <frame_dummy+0x28>)
      f8:	4908      	ldr	r1, [pc, #32]	; (11c <frame_dummy+0x2c>)
      fa:	f3af 8000 	nop.w
      fe:	4808      	ldr	r0, [pc, #32]	; (120 <frame_dummy+0x30>)
     100:	6803      	ldr	r3, [r0, #0]
     102:	b903      	cbnz	r3, 106 <frame_dummy+0x16>
     104:	bd10      	pop	{r4, pc}
     106:	4b07      	ldr	r3, [pc, #28]	; (124 <frame_dummy+0x34>)
     108:	2b00      	cmp	r3, #0
     10a:	d0fb      	beq.n	104 <frame_dummy+0x14>
     10c:	e8bd 4010 	ldmia.w	sp!, {r4, lr}
     110:	4718      	bx	r3
     112:	bf00      	nop
     114:	00000000 	.word	0x00000000
     118:	00007de4 	.word	0x00007de4
     11c:	1000016c 	.word	0x1000016c
     120:	10000168 	.word	0x10000168
     124:	00000000 	.word	0x00000000

00000128 <std_msgs::Time::serialize(unsigned char*) const>:
     128:	4603      	mov	r3, r0
     12a:	6842      	ldr	r2, [r0, #4]
     12c:	2008      	movs	r0, #8
     12e:	700a      	strb	r2, [r1, #0]
     130:	685a      	ldr	r2, [r3, #4]
     132:	40c2      	lsrs	r2, r0
     134:	704a      	strb	r2, [r1, #1]
     136:	88da      	ldrh	r2, [r3, #6]
     138:	708a      	strb	r2, [r1, #2]
     13a:	79da      	ldrb	r2, [r3, #7]
     13c:	70ca      	strb	r2, [r1, #3]
     13e:	689a      	ldr	r2, [r3, #8]
     140:	710a      	strb	r2, [r1, #4]
     142:	689a      	ldr	r2, [r3, #8]
     144:	40c2      	lsrs	r2, r0
     146:	714a      	strb	r2, [r1, #5]
     148:	895a      	ldrh	r2, [r3, #10]
     14a:	718a      	strb	r2, [r1, #6]
     14c:	7adb      	ldrb	r3, [r3, #11]
     14e:	71cb      	strb	r3, [r1, #7]
     150:	4770      	bx	lr
     152:	bf00      	nop

00000154 <std_msgs::Time::deserialize(unsigned char*)>:
     154:	4602      	mov	r2, r0
     156:	b410      	push	{r4}
     158:	780b      	ldrb	r3, [r1, #0]
     15a:	2008      	movs	r0, #8
     15c:	6053      	str	r3, [r2, #4]
     15e:	784c      	ldrb	r4, [r1, #1]
     160:	ea43 2304 	orr.w	r3, r3, r4, lsl #8
     164:	6053      	str	r3, [r2, #4]
     166:	788c      	ldrb	r4, [r1, #2]
     168:	ea43 4304 	orr.w	r3, r3, r4, lsl #16
     16c:	6053      	str	r3, [r2, #4]
     16e:	78cc      	ldrb	r4, [r1, #3]
     170:	ea43 6304 	orr.w	r3, r3, r4, lsl #24
     174:	6053      	str	r3, [r2, #4]
     176:	790b      	ldrb	r3, [r1, #4]
     178:	6093      	str	r3, [r2, #8]
     17a:	794c      	ldrb	r4, [r1, #5]
     17c:	ea43 2304 	orr.w	r3, r3, r4, lsl #8
     180:	6093      	str	r3, [r2, #8]
     182:	798c      	ldrb	r4, [r1, #6]
     184:	ea43 4304 	orr.w	r3, r3, r4, lsl #16
     188:	6093      	str	r3, [r2, #8]
     18a:	79c9      	ldrb	r1, [r1, #7]
     18c:	f85d 4b04 	ldr.w	r4, [sp], #4
     190:	ea43 6301 	orr.w	r3, r3, r1, lsl #24
     194:	6093      	str	r3, [r2, #8]
     196:	4770      	bx	lr

00000198 <std_msgs::Time::getType()>:
     198:	4800      	ldr	r0, [pc, #0]	; (19c <std_msgs::Time::getType()+0x4>)
     19a:	4770      	bx	lr
     19c:	00007568 	.word	0x00007568

000001a0 <std_msgs::Time::getMD5()>:
     1a0:	4800      	ldr	r0, [pc, #0]	; (1a4 <std_msgs::Time::getMD5()+0x4>)
     1a2:	4770      	bx	lr
     1a4:	00007578 	.word	0x00007578

000001a8 <rosserial_msgs::TopicInfo::getType()>:
     1a8:	4800      	ldr	r0, [pc, #0]	; (1ac <rosserial_msgs::TopicInfo::getType()+0x4>)
     1aa:	4770      	bx	lr
     1ac:	0000759c 	.word	0x0000759c

000001b0 <rosserial_msgs::TopicInfo::getMD5()>:
     1b0:	4800      	ldr	r0, [pc, #0]	; (1b4 <rosserial_msgs::TopicInfo::getMD5()+0x4>)
     1b2:	4770      	bx	lr
     1b4:	000075b8 	.word	0x000075b8

000001b8 <rosserial_msgs::Log::getType()>:
     1b8:	4800      	ldr	r0, [pc, #0]	; (1bc <rosserial_msgs::Log::getType()+0x4>)
     1ba:	4770      	bx	lr
     1bc:	000075dc 	.word	0x000075dc

000001c0 <rosserial_msgs::Log::getMD5()>:
     1c0:	4800      	ldr	r0, [pc, #0]	; (1c4 <rosserial_msgs::Log::getMD5()+0x4>)
     1c2:	4770      	bx	lr
     1c4:	000075f0 	.word	0x000075f0

000001c8 <rosserial_msgs::RequestParamResponse::getType()>:
     1c8:	4800      	ldr	r0, [pc, #0]	; (1cc <rosserial_msgs::RequestParamResponse::getType()+0x4>)
     1ca:	4770      	bx	lr
     1cc:	00007748 	.word	0x00007748

000001d0 <rosserial_msgs::RequestParamResponse::getMD5()>:
     1d0:	4800      	ldr	r0, [pc, #0]	; (1d4 <rosserial_msgs::RequestParamResponse::getMD5()+0x4>)
     1d2:	4770      	bx	lr
     1d4:	00007614 	.word	0x00007614

000001d8 <std_msgs::MultiArrayDimension::getType()>:
     1d8:	4800      	ldr	r0, [pc, #0]	; (1dc <std_msgs::MultiArrayDimension::getType()+0x4>)
     1da:	4770      	bx	lr
     1dc:	00007638 	.word	0x00007638

000001e0 <std_msgs::MultiArrayDimension::getMD5()>:
     1e0:	4800      	ldr	r0, [pc, #0]	; (1e4 <std_msgs::MultiArrayDimension::getMD5()+0x4>)
     1e2:	4770      	bx	lr
     1e4:	00007658 	.word	0x00007658

000001e8 <std_msgs::MultiArrayLayout::getType()>:
     1e8:	4800      	ldr	r0, [pc, #0]	; (1ec <std_msgs::MultiArrayLayout::getType()+0x4>)
     1ea:	4770      	bx	lr
     1ec:	0000767c 	.word	0x0000767c

000001f0 <std_msgs::MultiArrayLayout::getMD5()>:
     1f0:	4800      	ldr	r0, [pc, #0]	; (1f4 <std_msgs::MultiArrayLayout::getMD5()+0x4>)
     1f2:	4770      	bx	lr
     1f4:	00007698 	.word	0x00007698

000001f8 <std_msgs::Float32MultiArray::getType()>:
     1f8:	4800      	ldr	r0, [pc, #0]	; (1fc <std_msgs::Float32MultiArray::getType()+0x4>)
     1fa:	4770      	bx	lr
     1fc:	000076bc 	.word	0x000076bc

00000200 <std_msgs::Float32MultiArray::getMD5()>:
     200:	4800      	ldr	r0, [pc, #0]	; (204 <std_msgs::Float32MultiArray::getMD5()+0x4>)
     202:	4770      	bx	lr
     204:	000076d8 	.word	0x000076d8

00000208 <Motor::rise_()>:
     208:	69c2      	ldr	r2, [r0, #28]
     20a:	68c3      	ldr	r3, [r0, #12]
     20c:	6811      	ldr	r1, [r2, #0]
     20e:	f8d0 20ac 	ldr.w	r2, [r0, #172]	; 0xac
     212:	4219      	tst	r1, r3
     214:	bf0c      	ite	eq
     216:	f04f 33ff 	moveq.w	r3, #4294967295
     21a:	2301      	movne	r3, #1
     21c:	4413      	add	r3, r2
     21e:	f8c0 30ac 	str.w	r3, [r0, #172]	; 0xac
     222:	4770      	bx	lr

00000224 <Motor::calcVelocity_()>:
     224:	b570      	push	{r4, r5, r6, lr}
     226:	f8d0 50b4 	ldr.w	r5, [r0, #180]	; 0xb4
     22a:	4604      	mov	r4, r0
     22c:	f8d0 00ac 	ldr.w	r0, [r0, #172]	; 0xac
     230:	f004 feb2 	bl	4f98 <__aeabi_i2f>
     234:	4601      	mov	r1, r0
     236:	4628      	mov	r0, r5
     238:	f004 ff02 	bl	5040 <__aeabi_fmul>
     23c:	4629      	mov	r1, r5
     23e:	4606      	mov	r6, r0
     240:	f04f 507e 	mov.w	r0, #1065353216	; 0x3f800000
     244:	f004 fdf2 	bl	4e2c <__aeabi_fsub>
     248:	f8d4 10b0 	ldr.w	r1, [r4, #176]	; 0xb0
     24c:	f004 fef8 	bl	5040 <__aeabi_fmul>
     250:	4601      	mov	r1, r0
     252:	4630      	mov	r0, r6
     254:	f004 fdec 	bl	4e30 <__addsf3>
     258:	2300      	movs	r3, #0
     25a:	f8c4 00b0 	str.w	r0, [r4, #176]	; 0xb0
     25e:	f8c4 30ac 	str.w	r3, [r4, #172]	; 0xac
     262:	bd70      	pop	{r4, r5, r6, pc}

00000264 <void mbed::FunctionPointerArg1<void, void>::membercaller<Motor>(void*, unsigned int*)>:
     264:	684b      	ldr	r3, [r1, #4]
     266:	07da      	lsls	r2, r3, #31
     268:	d505      	bpl.n	276 <void mbed::FunctionPointerArg1<void, void>::membercaller<Motor>(void*, unsigned int*)+0x12>
     26a:	105b      	asrs	r3, r3, #1
     26c:	680a      	ldr	r2, [r1, #0]
     26e:	58c1      	ldr	r1, [r0, r3]
     270:	4418      	add	r0, r3
     272:	588a      	ldr	r2, [r1, r2]
     274:	4710      	bx	r2
     276:	680a      	ldr	r2, [r1, #0]
     278:	eb00 0063 	add.w	r0, r0, r3, asr #1
     27c:	4710      	bx	r2
     27e:	bf00      	nop

00000280 <ros::Subscriber<std_msgs::Float32MultiArray>::getEndpointType()>:
     280:	6c00      	ldr	r0, [r0, #64]	; 0x40
     282:	4770      	bx	lr

00000284 <ros::Subscriber<std_msgs::Float32MultiArray>::getMsgType()>:
     284:	4800      	ldr	r0, [pc, #0]	; (288 <ros::Subscriber<std_msgs::Float32MultiArray>::getMsgType()+0x4>)
     286:	4770      	bx	lr
     288:	000076bc 	.word	0x000076bc

0000028c <ros::Subscriber<std_msgs::Float32MultiArray>::getMsgMD5()>:
     28c:	4800      	ldr	r0, [pc, #0]	; (290 <ros::Subscriber<std_msgs::Float32MultiArray>::getMsgMD5()+0x4>)
     28e:	4770      	bx	lr
     290:	000076d8 	.word	0x000076d8

00000294 <ros::NodeHandle_<MbedHardware, 25, 25, 512, 512>::connected()>:
     294:	f890 05fc 	ldrb.w	r0, [r0, #1532]	; 0x5fc
     298:	4770      	bx	lr
     29a:	bf00      	nop

0000029c <commandCb(std_msgs::Float32MultiArray const&)>:
     29c:	e92d 41f0 	stmdb	sp!, {r4, r5, r6, r7, r8, lr}
     2a0:	4680      	mov	r8, r0
     2a2:	4c14      	ldr	r4, [pc, #80]	; (2f4 <commandCb(std_msgs::Float32MultiArray const&)+0x58>)
     2a4:	4f14      	ldr	r7, [pc, #80]	; (2f8 <commandCb(std_msgs::Float32MultiArray const&)+0x5c>)
     2a6:	2500      	movs	r5, #0
     2a8:	f8d8 302c 	ldr.w	r3, [r8, #44]	; 0x2c
     2ac:	6839      	ldr	r1, [r7, #0]
     2ae:	5958      	ldr	r0, [r3, r5]
     2b0:	f004 fec6 	bl	5040 <__aeabi_fmul>
     2b4:	f894 3020 	ldrb.w	r3, [r4, #32]
     2b8:	4606      	mov	r6, r0
     2ba:	2100      	movs	r1, #0
     2bc:	b18b      	cbz	r3, 2e2 <commandCb(std_msgs::Float32MultiArray const&)+0x46>
     2be:	f005 f85d 	bl	537c <__aeabi_fcmplt>
     2c2:	b998      	cbnz	r0, 2ec <commandCb(std_msgs::Float32MultiArray const&)+0x50>
     2c4:	69a3      	ldr	r3, [r4, #24]
     2c6:	68e2      	ldr	r2, [r4, #12]
     2c8:	601a      	str	r2, [r3, #0]
     2ca:	4620      	mov	r0, r4
     2cc:	f026 4100 	bic.w	r1, r6, #2147483648	; 0x80000000
     2d0:	3504      	adds	r5, #4
     2d2:	f003 fbd9 	bl	3a88 <pwmout_write>
     2d6:	2d10      	cmp	r5, #16
     2d8:	f104 04b8 	add.w	r4, r4, #184	; 0xb8
     2dc:	d1e4      	bne.n	2a8 <commandCb(std_msgs::Float32MultiArray const&)+0xc>
     2de:	e8bd 81f0 	ldmia.w	sp!, {r4, r5, r6, r7, r8, pc}
     2e2:	2100      	movs	r1, #0
     2e4:	f005 f84a 	bl	537c <__aeabi_fcmplt>
     2e8:	2800      	cmp	r0, #0
     2ea:	d1eb      	bne.n	2c4 <commandCb(std_msgs::Float32MultiArray const&)+0x28>
     2ec:	6963      	ldr	r3, [r4, #20]
     2ee:	68e2      	ldr	r2, [r4, #12]
     2f0:	601a      	str	r2, [r3, #0]
     2f2:	e7ea      	b.n	2ca <commandCb(std_msgs::Float32MultiArray const&)+0x2e>
     2f4:	10000800 	.word	0x10000800
     2f8:	100000cc 	.word	0x100000cc

000002fc <std_msgs::MultiArrayDimension::deserialize(unsigned char*)>:
     2fc:	b4f0      	push	{r4, r5, r6, r7}
     2fe:	4605      	mov	r5, r0
     300:	6808      	ldr	r0, [r1, #0]
     302:	b082      	sub	sp, #8
     304:	9001      	str	r0, [sp, #4]
     306:	9801      	ldr	r0, [sp, #4]
     308:	1ccf      	adds	r7, r1, #3
     30a:	1d06      	adds	r6, r0, #4
     30c:	2e04      	cmp	r6, #4
     30e:	d908      	bls.n	322 <std_msgs::MultiArrayDimension::deserialize(unsigned char*)+0x26>
     310:	463b      	mov	r3, r7
     312:	1cc4      	adds	r4, r0, #3
     314:	440c      	add	r4, r1
     316:	f813 2f01 	ldrb.w	r2, [r3, #1]!
     31a:	42a3      	cmp	r3, r4
     31c:	f803 2c01 	strb.w	r2, [r3, #-1]
     320:	d1f9      	bne.n	316 <std_msgs::MultiArrayDimension::deserialize(unsigned char*)+0x1a>
     322:	180a      	adds	r2, r1, r0
     324:	2300      	movs	r3, #0
     326:	70d3      	strb	r3, [r2, #3]
     328:	606f      	str	r7, [r5, #4]
     32a:	5d8b      	ldrb	r3, [r1, r6]
     32c:	300c      	adds	r0, #12
     32e:	60ab      	str	r3, [r5, #8]
     330:	7951      	ldrb	r1, [r2, #5]
     332:	ea43 2301 	orr.w	r3, r3, r1, lsl #8
     336:	60ab      	str	r3, [r5, #8]
     338:	7991      	ldrb	r1, [r2, #6]
     33a:	ea43 4301 	orr.w	r3, r3, r1, lsl #16
     33e:	60ab      	str	r3, [r5, #8]
     340:	79d1      	ldrb	r1, [r2, #7]
     342:	ea43 6301 	orr.w	r3, r3, r1, lsl #24
     346:	60ab      	str	r3, [r5, #8]
     348:	7a13      	ldrb	r3, [r2, #8]
     34a:	60eb      	str	r3, [r5, #12]
     34c:	7a51      	ldrb	r1, [r2, #9]
     34e:	ea43 2301 	orr.w	r3, r3, r1, lsl #8
     352:	60eb      	str	r3, [r5, #12]
     354:	7a91      	ldrb	r1, [r2, #10]
     356:	ea43 4301 	orr.w	r3, r3, r1, lsl #16
     35a:	60eb      	str	r3, [r5, #12]
     35c:	7ad2      	ldrb	r2, [r2, #11]
     35e:	ea43 6302 	orr.w	r3, r3, r2, lsl #24
     362:	60eb      	str	r3, [r5, #12]
     364:	b002      	add	sp, #8
     366:	bcf0      	pop	{r4, r5, r6, r7}
     368:	4770      	bx	lr
     36a:	bf00      	nop

0000036c <rosserial_msgs::Log::deserialize(unsigned char*)>:
     36c:	460b      	mov	r3, r1
     36e:	b4f0      	push	{r4, r5, r6, r7}
     370:	f813 2b01 	ldrb.w	r2, [r3], #1
     374:	4606      	mov	r6, r0
     376:	7102      	strb	r2, [r0, #4]
     378:	6818      	ldr	r0, [r3, #0]
     37a:	b082      	sub	sp, #8
     37c:	9001      	str	r0, [sp, #4]
     37e:	9d01      	ldr	r5, [sp, #4]
     380:	1d0f      	adds	r7, r1, #4
     382:	1d68      	adds	r0, r5, #5
     384:	2805      	cmp	r0, #5
     386:	d908      	bls.n	39a <rosserial_msgs::Log::deserialize(unsigned char*)+0x2e>
     388:	463b      	mov	r3, r7
     38a:	1d2c      	adds	r4, r5, #4
     38c:	440c      	add	r4, r1
     38e:	f813 2f01 	ldrb.w	r2, [r3, #1]!
     392:	42a3      	cmp	r3, r4
     394:	f803 2c01 	strb.w	r2, [r3, #-1]
     398:	d1f9      	bne.n	38e <rosserial_msgs::Log::deserialize(unsigned char*)+0x22>
     39a:	440d      	add	r5, r1
     39c:	2300      	movs	r3, #0
     39e:	712b      	strb	r3, [r5, #4]
     3a0:	60b7      	str	r7, [r6, #8]
     3a2:	b002      	add	sp, #8
     3a4:	bcf0      	pop	{r4, r5, r6, r7}
     3a6:	4770      	bx	lr

000003a8 <rosserial_msgs::TopicInfo::deserialize(unsigned char*)>:
     3a8:	b4f0      	push	{r4, r5, r6, r7}
     3aa:	780b      	ldrb	r3, [r1, #0]
     3ac:	4605      	mov	r5, r0
     3ae:	8083      	strh	r3, [r0, #4]
     3b0:	784a      	ldrb	r2, [r1, #1]
     3b2:	b084      	sub	sp, #16
     3b4:	ea43 2302 	orr.w	r3, r3, r2, lsl #8
     3b8:	8083      	strh	r3, [r0, #4]
     3ba:	f8d1 0002 	ldr.w	r0, [r1, #2]
     3be:	1d4f      	adds	r7, r1, #5
     3c0:	9001      	str	r0, [sp, #4]
     3c2:	9a01      	ldr	r2, [sp, #4]
     3c4:	1d96      	adds	r6, r2, #6
     3c6:	2e06      	cmp	r6, #6
     3c8:	d908      	bls.n	3dc <rosserial_msgs::TopicInfo::deserialize(unsigned char*)+0x34>
     3ca:	463b      	mov	r3, r7
     3cc:	1d54      	adds	r4, r2, #5
     3ce:	440c      	add	r4, r1
     3d0:	f813 0f01 	ldrb.w	r0, [r3, #1]!
     3d4:	42a3      	cmp	r3, r4
     3d6:	f803 0c01 	strb.w	r0, [r3, #-1]
     3da:	d1f9      	bne.n	3d0 <rosserial_msgs::TopicInfo::deserialize(unsigned char*)+0x28>
     3dc:	188b      	adds	r3, r1, r2
     3de:	2000      	movs	r0, #0
     3e0:	7158      	strb	r0, [r3, #5]
     3e2:	60af      	str	r7, [r5, #8]
     3e4:	5988      	ldr	r0, [r1, r6]
     3e6:	3604      	adds	r6, #4
     3e8:	9002      	str	r0, [sp, #8]
     3ea:	9b02      	ldr	r3, [sp, #8]
     3ec:	4433      	add	r3, r6
     3ee:	429e      	cmp	r6, r3
     3f0:	d209      	bcs.n	406 <rosserial_msgs::TopicInfo::deserialize(unsigned char*)+0x5e>
     3f2:	4630      	mov	r0, r6
     3f4:	3209      	adds	r2, #9
     3f6:	440a      	add	r2, r1
     3f8:	f812 4f01 	ldrb.w	r4, [r2, #1]!
     3fc:	3001      	adds	r0, #1
     3fe:	4298      	cmp	r0, r3
     400:	f802 4c01 	strb.w	r4, [r2, #-1]
     404:	d3f8      	bcc.n	3f8 <rosserial_msgs::TopicInfo::deserialize(unsigned char*)+0x50>
     406:	3e01      	subs	r6, #1
     408:	440e      	add	r6, r1
     40a:	18ca      	adds	r2, r1, r3
     40c:	2000      	movs	r0, #0
     40e:	f802 0c01 	strb.w	r0, [r2, #-1]
     412:	60ee      	str	r6, [r5, #12]
     414:	6810      	ldr	r0, [r2, #0]
     416:	1d1e      	adds	r6, r3, #4
     418:	9003      	str	r0, [sp, #12]
     41a:	9803      	ldr	r0, [sp, #12]
     41c:	4430      	add	r0, r6
     41e:	4286      	cmp	r6, r0
     420:	d209      	bcs.n	436 <rosserial_msgs::TopicInfo::deserialize(unsigned char*)+0x8e>
     422:	4632      	mov	r2, r6
     424:	3303      	adds	r3, #3
     426:	440b      	add	r3, r1
     428:	f813 4f01 	ldrb.w	r4, [r3, #1]!
     42c:	3201      	adds	r2, #1
     42e:	4282      	cmp	r2, r0
     430:	f803 4c01 	strb.w	r4, [r3, #-1]
     434:	d3f8      	bcc.n	428 <rosserial_msgs::TopicInfo::deserialize(unsigned char*)+0x80>
     436:	3e01      	subs	r6, #1
     438:	180c      	adds	r4, r1, r0
     43a:	440e      	add	r6, r1
     43c:	2300      	movs	r3, #0
     43e:	f804 3c01 	strb.w	r3, [r4, #-1]
     442:	612e      	str	r6, [r5, #16]
     444:	78a3      	ldrb	r3, [r4, #2]
     446:	7866      	ldrb	r6, [r4, #1]
     448:	5c0a      	ldrb	r2, [r1, r0]
     44a:	041b      	lsls	r3, r3, #16
     44c:	78e1      	ldrb	r1, [r4, #3]
     44e:	ea43 2306 	orr.w	r3, r3, r6, lsl #8
     452:	4313      	orrs	r3, r2
     454:	ea43 6301 	orr.w	r3, r3, r1, lsl #24
     458:	3004      	adds	r0, #4
     45a:	616b      	str	r3, [r5, #20]
     45c:	b004      	add	sp, #16
     45e:	bcf0      	pop	{r4, r5, r6, r7}
     460:	4770      	bx	lr
     462:	bf00      	nop

00000464 <rosserial_msgs::RequestParamResponse::deserialize(unsigned char*)>:
     464:	e92d 41f0 	stmdb	sp!, {r4, r5, r6, r7, r8, lr}
     468:	7903      	ldrb	r3, [r0, #4]
     46a:	780c      	ldrb	r4, [r1, #0]
     46c:	b082      	sub	sp, #8
     46e:	42a3      	cmp	r3, r4
     470:	4605      	mov	r5, r0
     472:	460e      	mov	r6, r1
     474:	f0c0 8082 	bcc.w	57c <rosserial_msgs::RequestParamResponse::deserialize(unsigned char*)+0x118>
     478:	712c      	strb	r4, [r5, #4]
     47a:	2c00      	cmp	r4, #0
     47c:	f000 8087 	beq.w	58e <rosserial_msgs::RequestParamResponse::deserialize(unsigned char*)+0x12a>
     480:	4633      	mov	r3, r6
     482:	f105 0708 	add.w	r7, r5, #8
     486:	2000      	movs	r0, #0
     488:	2404      	movs	r4, #4
     48a:	799a      	ldrb	r2, [r3, #6]
     48c:	f893 e005 	ldrb.w	lr, [r3, #5]
     490:	7919      	ldrb	r1, [r3, #4]
     492:	0412      	lsls	r2, r2, #16
     494:	ea42 220e 	orr.w	r2, r2, lr, lsl #8
     498:	f893 e007 	ldrb.w	lr, [r3, #7]
     49c:	430a      	orrs	r2, r1
     49e:	ea42 620e 	orr.w	r2, r2, lr, lsl #24
     4a2:	60aa      	str	r2, [r5, #8]
     4a4:	f8d7 e000 	ldr.w	lr, [r7]
     4a8:	68ea      	ldr	r2, [r5, #12]
     4aa:	1c41      	adds	r1, r0, #1
     4ac:	f842 e020 	str.w	lr, [r2, r0, lsl #2]
     4b0:	792a      	ldrb	r2, [r5, #4]
     4b2:	b2c8      	uxtb	r0, r1
     4b4:	4282      	cmp	r2, r0
     4b6:	f104 0404 	add.w	r4, r4, #4
     4ba:	f103 0304 	add.w	r3, r3, #4
     4be:	d8e4      	bhi.n	48a <rosserial_msgs::RequestParamResponse::deserialize(unsigned char*)+0x26>
     4c0:	4623      	mov	r3, r4
     4c2:	f816 8003 	ldrb.w	r8, [r6, r3]
     4c6:	7c2b      	ldrb	r3, [r5, #16]
     4c8:	1d27      	adds	r7, r4, #4
     4ca:	4543      	cmp	r3, r8
     4cc:	463c      	mov	r4, r7
     4ce:	d366      	bcc.n	59e <rosserial_msgs::RequestParamResponse::deserialize(unsigned char*)+0x13a>
     4d0:	f885 8010 	strb.w	r8, [r5, #16]
     4d4:	f1b8 0f00 	cmp.w	r8, #0
     4d8:	d01f      	beq.n	51a <rosserial_msgs::RequestParamResponse::deserialize(unsigned char*)+0xb6>
     4da:	1933      	adds	r3, r6, r4
     4dc:	f105 0e14 	add.w	lr, r5, #20
     4e0:	2000      	movs	r0, #0
     4e2:	f1c6 0704 	rsb	r7, r6, #4
     4e6:	789a      	ldrb	r2, [r3, #2]
     4e8:	785c      	ldrb	r4, [r3, #1]
     4ea:	7819      	ldrb	r1, [r3, #0]
     4ec:	0412      	lsls	r2, r2, #16
     4ee:	ea42 2204 	orr.w	r2, r2, r4, lsl #8
     4f2:	78dc      	ldrb	r4, [r3, #3]
     4f4:	430a      	orrs	r2, r1
     4f6:	ea42 6204 	orr.w	r2, r2, r4, lsl #24
     4fa:	616a      	str	r2, [r5, #20]
     4fc:	f8de 4000 	ldr.w	r4, [lr]
     500:	69aa      	ldr	r2, [r5, #24]
     502:	1c41      	adds	r1, r0, #1
     504:	f842 4020 	str.w	r4, [r2, r0, lsl #2]
     508:	7c2a      	ldrb	r2, [r5, #16]
     50a:	b2c8      	uxtb	r0, r1
     50c:	4282      	cmp	r2, r0
     50e:	eb07 0403 	add.w	r4, r7, r3
     512:	f103 0304 	add.w	r3, r3, #4
     516:	d8e6      	bhi.n	4e6 <rosserial_msgs::RequestParamResponse::deserialize(unsigned char*)+0x82>
     518:	4627      	mov	r7, r4
     51a:	5df7      	ldrb	r7, [r6, r7]
     51c:	7f2b      	ldrb	r3, [r5, #28]
     51e:	42bb      	cmp	r3, r7
     520:	d344      	bcc.n	5ac <rosserial_msgs::RequestParamResponse::deserialize(unsigned char*)+0x148>
     522:	1d23      	adds	r3, r4, #4
     524:	772f      	strb	r7, [r5, #28]
     526:	b32f      	cbz	r7, 574 <rosserial_msgs::RequestParamResponse::deserialize(unsigned char*)+0x110>
     528:	2700      	movs	r7, #0
     52a:	46bc      	mov	r12, r7
     52c:	f105 0e20 	add.w	lr, r5, #32
     530:	58f0      	ldr	r0, [r6, r3]
     532:	1d1c      	adds	r4, r3, #4
     534:	9001      	str	r0, [sp, #4]
     536:	9801      	ldr	r0, [sp, #4]
     538:	4420      	add	r0, r4
     53a:	4284      	cmp	r4, r0
     53c:	d209      	bcs.n	552 <rosserial_msgs::RequestParamResponse::deserialize(unsigned char*)+0xee>
     53e:	4622      	mov	r2, r4
     540:	3303      	adds	r3, #3
     542:	4433      	add	r3, r6
     544:	f813 1f01 	ldrb.w	r1, [r3, #1]!
     548:	3201      	adds	r2, #1
     54a:	4282      	cmp	r2, r0
     54c:	f803 1c01 	strb.w	r1, [r3, #-1]
     550:	d3f8      	bcc.n	544 <rosserial_msgs::RequestParamResponse::deserialize(unsigned char*)+0xe0>
     552:	3c01      	subs	r4, #1
     554:	1833      	adds	r3, r6, r0
     556:	4434      	add	r4, r6
     558:	f803 cc01 	strb.w	r12, [r3, #-1]
     55c:	622c      	str	r4, [r5, #32]
     55e:	6a6a      	ldr	r2, [r5, #36]	; 0x24
     560:	f8de 1000 	ldr.w	r1, [lr]
     564:	1c7b      	adds	r3, r7, #1
     566:	f842 1027 	str.w	r1, [r2, r7, lsl #2]
     56a:	7f2a      	ldrb	r2, [r5, #28]
     56c:	b2df      	uxtb	r7, r3
     56e:	42ba      	cmp	r2, r7
     570:	4603      	mov	r3, r0
     572:	d8dd      	bhi.n	530 <rosserial_msgs::RequestParamResponse::deserialize(unsigned char*)+0xcc>
     574:	4618      	mov	r0, r3
     576:	b002      	add	sp, #8
     578:	e8bd 81f0 	ldmia.w	sp!, {r4, r5, r6, r7, r8, pc}
     57c:	68c0      	ldr	r0, [r0, #12]
     57e:	00a1      	lsls	r1, r4, #2
     580:	f002 fb24 	bl	2bcc <__wrap_realloc>
     584:	712c      	strb	r4, [r5, #4]
     586:	60e8      	str	r0, [r5, #12]
     588:	2c00      	cmp	r4, #0
     58a:	f47f af79 	bne.w	480 <rosserial_msgs::RequestParamResponse::deserialize(unsigned char*)+0x1c>
     58e:	2304      	movs	r3, #4
     590:	f816 8003 	ldrb.w	r8, [r6, r3]
     594:	7c2b      	ldrb	r3, [r5, #16]
     596:	2708      	movs	r7, #8
     598:	4543      	cmp	r3, r8
     59a:	463c      	mov	r4, r7
     59c:	d298      	bcs.n	4d0 <rosserial_msgs::RequestParamResponse::deserialize(unsigned char*)+0x6c>
     59e:	69a8      	ldr	r0, [r5, #24]
     5a0:	ea4f 0188 	mov.w	r1, r8, lsl #2
     5a4:	f002 fb12 	bl	2bcc <__wrap_realloc>
     5a8:	61a8      	str	r0, [r5, #24]
     5aa:	e791      	b.n	4d0 <rosserial_msgs::RequestParamResponse::deserialize(unsigned char*)+0x6c>
     5ac:	6a68      	ldr	r0, [r5, #36]	; 0x24
     5ae:	00b9      	lsls	r1, r7, #2
     5b0:	f002 fb0c 	bl	2bcc <__wrap_realloc>
     5b4:	6268      	str	r0, [r5, #36]	; 0x24
     5b6:	e7b4      	b.n	522 <rosserial_msgs::RequestParamResponse::deserialize(unsigned char*)+0xbe>

000005b8 <std_msgs::MultiArrayDimension::serialize(unsigned char*) const>:
     5b8:	b570      	push	{r4, r5, r6, lr}
     5ba:	4605      	mov	r5, r0
     5bc:	b082      	sub	sp, #8
     5be:	460c      	mov	r4, r1
     5c0:	6840      	ldr	r0, [r0, #4]
     5c2:	f006 f978 	bl	68b6 <strlen>
     5c6:	4623      	mov	r3, r4
     5c8:	4606      	mov	r6, r0
     5ca:	aa02      	add	r2, sp, #8
     5cc:	f842 0d04 	str.w	r0, [r2, #-4]!
     5d0:	6810      	ldr	r0, [r2, #0]
     5d2:	4632      	mov	r2, r6
     5d4:	f843 0b04 	str.w	r0, [r3], #4
     5d8:	6869      	ldr	r1, [r5, #4]
     5da:	4618      	mov	r0, r3
     5dc:	f005 fab8 	bl	5b50 <memcpy>
     5e0:	68ab      	ldr	r3, [r5, #8]
     5e2:	19a1      	adds	r1, r4, r6
     5e4:	710b      	strb	r3, [r1, #4]
     5e6:	68ab      	ldr	r3, [r5, #8]
     5e8:	f106 000c 	add.w	r0, r6, #12
     5ec:	0a1b      	lsrs	r3, r3, #8
     5ee:	714b      	strb	r3, [r1, #5]
     5f0:	896b      	ldrh	r3, [r5, #10]
     5f2:	718b      	strb	r3, [r1, #6]
     5f4:	7aeb      	ldrb	r3, [r5, #11]
     5f6:	71cb      	strb	r3, [r1, #7]
     5f8:	68eb      	ldr	r3, [r5, #12]
     5fa:	720b      	strb	r3, [r1, #8]
     5fc:	68eb      	ldr	r3, [r5, #12]
     5fe:	0a1b      	lsrs	r3, r3, #8
     600:	724b      	strb	r3, [r1, #9]
     602:	89eb      	ldrh	r3, [r5, #14]
     604:	728b      	strb	r3, [r1, #10]
     606:	7beb      	ldrb	r3, [r5, #15]
     608:	72cb      	strb	r3, [r1, #11]
     60a:	b002      	add	sp, #8
     60c:	bd70      	pop	{r4, r5, r6, pc}
     60e:	bf00      	nop

00000610 <rosserial_msgs::RequestParamResponse::serialize(unsigned char*) const>:
     610:	e92d 43f0 	stmdb	sp!, {r4, r5, r6, r7, r8, r9, lr}
     614:	7903      	ldrb	r3, [r0, #4]
     616:	2400      	movs	r4, #0
     618:	700b      	strb	r3, [r1, #0]
     61a:	704c      	strb	r4, [r1, #1]
     61c:	708c      	strb	r4, [r1, #2]
     61e:	70cc      	strb	r4, [r1, #3]
     620:	7903      	ldrb	r3, [r0, #4]
     622:	b083      	sub	sp, #12
     624:	2b00      	cmp	r3, #0
     626:	d06f      	beq.n	708 <rosserial_msgs::RequestParamResponse::serialize(unsigned char*) const+0xf8>
     628:	460b      	mov	r3, r1
     62a:	2504      	movs	r5, #4
     62c:	68c2      	ldr	r2, [r0, #12]
     62e:	1c66      	adds	r6, r4, #1
     630:	f852 2024 	ldr.w	r2, [r2, r4, lsl #2]
     634:	b2f4      	uxtb	r4, r6
     636:	ea4f 2e12 	mov.w	lr, r2, lsr #8
     63a:	0c17      	lsrs	r7, r2, #16
     63c:	0e16      	lsrs	r6, r2, #24
     63e:	711a      	strb	r2, [r3, #4]
     640:	f883 e005 	strb.w	lr, [r3, #5]
     644:	719f      	strb	r7, [r3, #6]
     646:	71de      	strb	r6, [r3, #7]
     648:	7902      	ldrb	r2, [r0, #4]
     64a:	3504      	adds	r5, #4
     64c:	42a2      	cmp	r2, r4
     64e:	f103 0304 	add.w	r3, r3, #4
     652:	d8eb      	bhi.n	62c <rosserial_msgs::RequestParamResponse::serialize(unsigned char*) const+0x1c>
     654:	1d2a      	adds	r2, r5, #4
     656:	4616      	mov	r6, r2
     658:	f105 0c01 	add.w	r12, r5, #1
     65c:	f105 0e02 	add.w	lr, r5, #2
     660:	1cef      	adds	r7, r5, #3
     662:	7c03      	ldrb	r3, [r0, #16]
     664:	2400      	movs	r4, #0
     666:	554b      	strb	r3, [r1, r5]
     668:	f801 400c 	strb.w	r4, [r1, r12]
     66c:	f801 400e 	strb.w	r4, [r1, lr]
     670:	55cc      	strb	r4, [r1, r7]
     672:	7c03      	ldrb	r3, [r0, #16]
     674:	b1eb      	cbz	r3, 6b2 <rosserial_msgs::RequestParamResponse::serialize(unsigned char*) const+0xa2>
     676:	eb01 0806 	add.w	r8, r1, r6
     67a:	4643      	mov	r3, r8
     67c:	6982      	ldr	r2, [r0, #24]
     67e:	b2e5      	uxtb	r5, r4
     680:	f852 2025 	ldr.w	r2, [r2, r5, lsl #2]
     684:	1c65      	adds	r5, r4, #1
     686:	0e17      	lsrs	r7, r2, #24
     688:	ea4f 2c12 	mov.w	r12, r2, lsr #8
     68c:	ea4f 4e12 	mov.w	lr, r2, lsr #16
     690:	f808 2024 	strb.w	r2, [r8, r4, lsl #2]
     694:	f883 c001 	strb.w	r12, [r3, #1]
     698:	f883 e002 	strb.w	lr, [r3, #2]
     69c:	70df      	strb	r7, [r3, #3]
     69e:	7c07      	ldrb	r7, [r0, #16]
     6a0:	b2ea      	uxtb	r2, r5
     6a2:	4297      	cmp	r7, r2
     6a4:	f106 0604 	add.w	r6, r6, #4
     6a8:	f103 0304 	add.w	r3, r3, #4
     6ac:	462c      	mov	r4, r5
     6ae:	d8e5      	bhi.n	67c <rosserial_msgs::RequestParamResponse::serialize(unsigned char*) const+0x6c>
     6b0:	4632      	mov	r2, r6
     6b2:	7f05      	ldrb	r5, [r0, #28]
     6b4:	198b      	adds	r3, r1, r6
     6b6:	2400      	movs	r4, #0
     6b8:	548d      	strb	r5, [r1, r2]
     6ba:	705c      	strb	r4, [r3, #1]
     6bc:	709c      	strb	r4, [r3, #2]
     6be:	70dc      	strb	r4, [r3, #3]
     6c0:	7f03      	ldrb	r3, [r0, #28]
     6c2:	3604      	adds	r6, #4
     6c4:	b1e3      	cbz	r3, 700 <rosserial_msgs::RequestParamResponse::serialize(unsigned char*) const+0xf0>
     6c6:	4688      	mov	r8, r1
     6c8:	4607      	mov	r7, r0
     6ca:	6a7b      	ldr	r3, [r7, #36]	; 0x24
     6cc:	f106 0904 	add.w	r9, r6, #4
     6d0:	f853 0024 	ldr.w	r0, [r3, r4, lsl #2]
     6d4:	f006 f8ef 	bl	68b6 <strlen>
     6d8:	4605      	mov	r5, r0
     6da:	9001      	str	r0, [sp, #4]
     6dc:	9801      	ldr	r0, [sp, #4]
     6de:	462a      	mov	r2, r5
     6e0:	f848 0006 	str.w	r0, [r8, r6]
     6e4:	6a7b      	ldr	r3, [r7, #36]	; 0x24
     6e6:	eb08 0009 	add.w	r0, r8, r9
     6ea:	f853 1024 	ldr.w	r1, [r3, r4, lsl #2]
     6ee:	f005 fa2f 	bl	5b50 <memcpy>
     6f2:	3401      	adds	r4, #1
     6f4:	7f3b      	ldrb	r3, [r7, #28]
     6f6:	b2e4      	uxtb	r4, r4
     6f8:	42a3      	cmp	r3, r4
     6fa:	eb09 0605 	add.w	r6, r9, r5
     6fe:	d8e4      	bhi.n	6ca <rosserial_msgs::RequestParamResponse::serialize(unsigned char*) const+0xba>
     700:	4630      	mov	r0, r6
     702:	b003      	add	sp, #12
     704:	e8bd 83f0 	ldmia.w	sp!, {r4, r5, r6, r7, r8, r9, pc}
     708:	2208      	movs	r2, #8
     70a:	4616      	mov	r6, r2
     70c:	2707      	movs	r7, #7
     70e:	f04f 0e06 	mov.w	lr, #6
     712:	f04f 0c05 	mov.w	r12, #5
     716:	2504      	movs	r5, #4
     718:	e7a3      	b.n	662 <rosserial_msgs::RequestParamResponse::serialize(unsigned char*) const+0x52>
     71a:	bf00      	nop

0000071c <rosserial_msgs::Log::serialize(unsigned char*) const>:
     71c:	b570      	push	{r4, r5, r6, lr}
     71e:	7903      	ldrb	r3, [r0, #4]
     720:	b082      	sub	sp, #8
     722:	700b      	strb	r3, [r1, #0]
     724:	4606      	mov	r6, r0
     726:	6880      	ldr	r0, [r0, #8]
     728:	460d      	mov	r5, r1
     72a:	f006 f8c4 	bl	68b6 <strlen>
     72e:	4604      	mov	r4, r0
     730:	ab02      	add	r3, sp, #8
     732:	f843 0d04 	str.w	r0, [r3, #-4]!
     736:	6818      	ldr	r0, [r3, #0]
     738:	4622      	mov	r2, r4
     73a:	f8c5 0001 	str.w	r0, [r5, #1]
     73e:	68b1      	ldr	r1, [r6, #8]
     740:	1d68      	adds	r0, r5, #5
     742:	f005 fa05 	bl	5b50 <memcpy>
     746:	1d60      	adds	r0, r4, #5
     748:	b002      	add	sp, #8
     74a:	bd70      	pop	{r4, r5, r6, pc}

0000074c <rosserial_msgs::TopicInfo::serialize(unsigned char*) const>:
     74c:	8883      	ldrh	r3, [r0, #4]
     74e:	e92d 41f0 	stmdb	sp!, {r4, r5, r6, r7, r8, lr}
     752:	700b      	strb	r3, [r1, #0]
     754:	8883      	ldrh	r3, [r0, #4]
     756:	b084      	sub	sp, #16
     758:	0a1b      	lsrs	r3, r3, #8
     75a:	704b      	strb	r3, [r1, #1]
     75c:	4606      	mov	r6, r0
     75e:	6880      	ldr	r0, [r0, #8]
     760:	460c      	mov	r4, r1
     762:	f006 f8a8 	bl	68b6 <strlen>
     766:	4607      	mov	r7, r0
     768:	ab04      	add	r3, sp, #16
     76a:	f843 0d0c 	str.w	r0, [r3, #-12]!
     76e:	6818      	ldr	r0, [r3, #0]
     770:	463a      	mov	r2, r7
     772:	f8c4 0002 	str.w	r0, [r4, #2]
     776:	68b1      	ldr	r1, [r6, #8]
     778:	1da0      	adds	r0, r4, #6
     77a:	f005 f9e9 	bl	5b50 <memcpy>
     77e:	68f0      	ldr	r0, [r6, #12]
     780:	f006 f899 	bl	68b6 <strlen>
     784:	4605      	mov	r5, r0
     786:	ab04      	add	r3, sp, #16
     788:	f843 0d08 	str.w	r0, [r3, #-8]!
     78c:	6818      	ldr	r0, [r3, #0]
     78e:	1dbb      	adds	r3, r7, #6
     790:	50e0      	str	r0, [r4, r3]
     792:	f107 080a 	add.w	r8, r7, #10
     796:	68f1      	ldr	r1, [r6, #12]
     798:	462a      	mov	r2, r5
     79a:	eb04 0008 	add.w	r0, r4, r8
     79e:	f005 f9d7 	bl	5b50 <memcpy>
     7a2:	6930      	ldr	r0, [r6, #16]
     7a4:	f006 f887 	bl	68b6 <strlen>
     7a8:	4607      	mov	r7, r0
     7aa:	ab04      	add	r3, sp, #16
     7ac:	f843 0d04 	str.w	r0, [r3, #-4]!
     7b0:	6818      	ldr	r0, [r3, #0]
     7b2:	4445      	add	r5, r8
     7b4:	5160      	str	r0, [r4, r5]
     7b6:	3504      	adds	r5, #4
     7b8:	6931      	ldr	r1, [r6, #16]
     7ba:	463a      	mov	r2, r7
     7bc:	1960      	adds	r0, r4, r5
     7be:	f005 f9c7 	bl	5b50 <memcpy>
     7c2:	6973      	ldr	r3, [r6, #20]
     7c4:	19e8      	adds	r0, r5, r7
     7c6:	1822      	adds	r2, r4, r0
     7c8:	5423      	strb	r3, [r4, r0]
     7ca:	0a1f      	lsrs	r7, r3, #8
     7cc:	0c1e      	lsrs	r6, r3, #16
     7ce:	0e19      	lsrs	r1, r3, #24
     7d0:	3004      	adds	r0, #4
     7d2:	7057      	strb	r7, [r2, #1]
     7d4:	7096      	strb	r6, [r2, #2]
     7d6:	70d1      	strb	r1, [r2, #3]
     7d8:	b004      	add	sp, #16
     7da:	e8bd 81f0 	ldmia.w	sp!, {r4, r5, r6, r7, r8, pc}
     7de:	bf00      	nop

000007e0 <std_msgs::MultiArrayLayout::serialize(unsigned char*) const>:
     7e0:	e92d 4ff0 	stmdb	sp!, {r4, r5, r6, r7, r8, r9, r10, r11, lr}
     7e4:	7903      	ldrb	r3, [r0, #4]
     7e6:	2600      	movs	r6, #0
     7e8:	700b      	strb	r3, [r1, #0]
     7ea:	704e      	strb	r6, [r1, #1]
     7ec:	708e      	strb	r6, [r1, #2]
     7ee:	70ce      	strb	r6, [r1, #3]
     7f0:	7903      	ldrb	r3, [r0, #4]
     7f2:	b083      	sub	sp, #12
     7f4:	4683      	mov	r11, r0
     7f6:	4689      	mov	r9, r1
     7f8:	2b00      	cmp	r3, #0
     7fa:	d059      	beq.n	8b0 <Heap_Size+0xb0>
     7fc:	f8df a0c0 	ldr.w	r10, [pc, #192]	; 8c0 <Heap_Size+0xc0>
     800:	f04f 0804 	mov.w	r8, #4
     804:	e02a      	b.n	85c <Heap_Size+0x5c>
     806:	6860      	ldr	r0, [r4, #4]
     808:	f006 f855 	bl	68b6 <strlen>
     80c:	4607      	mov	r7, r0
     80e:	ab02      	add	r3, sp, #8
     810:	f843 0d04 	str.w	r0, [r3, #-4]!
     814:	6818      	ldr	r0, [r3, #0]
     816:	463a      	mov	r2, r7
     818:	f849 0008 	str.w	r0, [r9, r8]
     81c:	6861      	ldr	r1, [r4, #4]
     81e:	1d28      	adds	r0, r5, #4
     820:	f005 f996 	bl	5b50 <memcpy>
     824:	68a3      	ldr	r3, [r4, #8]
     826:	19e9      	adds	r1, r5, r7
     828:	710b      	strb	r3, [r1, #4]
     82a:	68a3      	ldr	r3, [r4, #8]
     82c:	f107 000c 	add.w	r0, r7, #12
     830:	0a1b      	lsrs	r3, r3, #8
     832:	714b      	strb	r3, [r1, #5]
     834:	8963      	ldrh	r3, [r4, #10]
     836:	718b      	strb	r3, [r1, #6]
     838:	7ae3      	ldrb	r3, [r4, #11]
     83a:	71cb      	strb	r3, [r1, #7]
     83c:	68e3      	ldr	r3, [r4, #12]
     83e:	720b      	strb	r3, [r1, #8]
     840:	68e3      	ldr	r3, [r4, #12]
     842:	0a1b      	lsrs	r3, r3, #8
     844:	724b      	strb	r3, [r1, #9]
     846:	89e3      	ldrh	r3, [r4, #14]
     848:	728b      	strb	r3, [r1, #10]
     84a:	7be3      	ldrb	r3, [r4, #15]
     84c:	72cb      	strb	r3, [r1, #11]
     84e:	3601      	adds	r6, #1
     850:	f89b 3004 	ldrb.w	r3, [r11, #4]
     854:	b2f6      	uxtb	r6, r6
     856:	42b3      	cmp	r3, r6
     858:	4480      	add	r8, r0
     85a:	d90d      	bls.n	878 <Heap_Size+0x78>
     85c:	f8db 4018 	ldr.w	r4, [r11, #24]
     860:	0133      	lsls	r3, r6, #4
     862:	58e2      	ldr	r2, [r4, r3]
     864:	441c      	add	r4, r3
     866:	6813      	ldr	r3, [r2, #0]
     868:	eb09 0508 	add.w	r5, r9, r8
     86c:	4553      	cmp	r3, r10
     86e:	d0ca      	beq.n	806 <Heap_Size+0x6>
     870:	4620      	mov	r0, r4
     872:	4629      	mov	r1, r5
     874:	4798      	blx	r3
     876:	e7ea      	b.n	84e <Heap_Size+0x4e>
     878:	f108 0401 	add.w	r4, r8, #1
     87c:	f108 0102 	add.w	r1, r8, #2
     880:	f108 0203 	add.w	r2, r8, #3
     884:	f108 0004 	add.w	r0, r8, #4
     888:	f8db 301c 	ldr.w	r3, [r11, #28]
     88c:	f809 3008 	strb.w	r3, [r9, r8]
     890:	f8db 301c 	ldr.w	r3, [r11, #28]
     894:	0a1b      	lsrs	r3, r3, #8
     896:	f809 3004 	strb.w	r3, [r9, r4]
     89a:	f8bb 301e 	ldrh.w	r3, [r11, #30]
     89e:	f809 3001 	strb.w	r3, [r9, r1]
     8a2:	f89b 301f 	ldrb.w	r3, [r11, #31]
     8a6:	f809 3002 	strb.w	r3, [r9, r2]
     8aa:	b003      	add	sp, #12
     8ac:	e8bd 8ff0 	ldmia.w	sp!, {r4, r5, r6, r7, r8, r9, r10, r11, pc}
     8b0:	2008      	movs	r0, #8
     8b2:	2207      	movs	r2, #7
     8b4:	2106      	movs	r1, #6
     8b6:	2405      	movs	r4, #5
     8b8:	f04f 0804 	mov.w	r8, #4
     8bc:	e7e4      	b.n	888 <Heap_Size+0x88>
     8be:	bf00      	nop
     8c0:	000005b9 	.word	0x000005b9

000008c4 <std_msgs::MultiArrayLayout::deserialize(unsigned char*)>:
     8c4:	e92d 47f0 	stmdb	sp!, {r4, r5, r6, r7, r8, r9, r10, lr}
     8c8:	7903      	ldrb	r3, [r0, #4]
     8ca:	780d      	ldrb	r5, [r1, #0]
     8cc:	b082      	sub	sp, #8
     8ce:	42ab      	cmp	r3, r5
     8d0:	4604      	mov	r4, r0
     8d2:	460f      	mov	r7, r1
     8d4:	d378      	bcc.n	9c8 <std_msgs::MultiArrayLayout::deserialize(unsigned char*)+0x104>
     8d6:	7125      	strb	r5, [r4, #4]
     8d8:	2d00      	cmp	r5, #0
     8da:	d07d      	beq.n	9d8 <std_msgs::MultiArrayLayout::deserialize(unsigned char*)+0x114>
     8dc:	2500      	movs	r5, #0
     8de:	46ac      	mov	r12, r5
     8e0:	f104 0608 	add.w	r6, r4, #8
     8e4:	f04f 0e04 	mov.w	lr, #4
     8e8:	eb07 080e 	add.w	r8, r7, lr
     8ec:	f8d8 0000 	ldr.w	r0, [r8]
     8f0:	f108 0a03 	add.w	r10, r8, #3
     8f4:	9001      	str	r0, [sp, #4]
     8f6:	9801      	ldr	r0, [sp, #4]
     8f8:	f100 0904 	add.w	r9, r0, #4
     8fc:	f1b9 0f04 	cmp.w	r9, #4
     900:	d908      	bls.n	914 <std_msgs::MultiArrayLayout::deserialize(unsigned char*)+0x50>
     902:	4653      	mov	r3, r10
     904:	1cc1      	adds	r1, r0, #3
     906:	4441      	add	r1, r8
     908:	f813 2f01 	ldrb.w	r2, [r3, #1]!
     90c:	428b      	cmp	r3, r1
     90e:	f803 2c01 	strb.w	r2, [r3, #-1]
     912:	d1f9      	bne.n	908 <std_msgs::MultiArrayLayout::deserialize(unsigned char*)+0x44>
     914:	eb08 0200 	add.w	r2, r8, r0
     918:	f882 c003 	strb.w	r12, [r2, #3]
     91c:	f8c4 a00c 	str.w	r10, [r4, #12]
     920:	f818 3009 	ldrb.w	r3, [r8, r9]
     924:	f8d4 8018 	ldr.w	r8, [r4, #24]
     928:	6123      	str	r3, [r4, #16]
     92a:	f892 9005 	ldrb.w	r9, [r2, #5]
     92e:	0129      	lsls	r1, r5, #4
     930:	ea43 2309 	orr.w	r3, r3, r9, lsl #8
     934:	6123      	str	r3, [r4, #16]
     936:	f892 9006 	ldrb.w	r9, [r2, #6]
     93a:	300c      	adds	r0, #12
     93c:	ea43 4309 	orr.w	r3, r3, r9, lsl #16
     940:	6123      	str	r3, [r4, #16]
     942:	f892 9007 	ldrb.w	r9, [r2, #7]
     946:	4486      	add	lr, r0
     948:	ea43 6309 	orr.w	r3, r3, r9, lsl #24
     94c:	6123      	str	r3, [r4, #16]
     94e:	7a13      	ldrb	r3, [r2, #8]
     950:	eb08 0001 	add.w	r0, r8, r1
     954:	6163      	str	r3, [r4, #20]
     956:	f892 9009 	ldrb.w	r9, [r2, #9]
     95a:	3501      	adds	r5, #1
     95c:	ea43 2309 	orr.w	r3, r3, r9, lsl #8
     960:	6163      	str	r3, [r4, #20]
     962:	f892 900a 	ldrb.w	r9, [r2, #10]
     966:	b2ed      	uxtb	r5, r5
     968:	ea43 4309 	orr.w	r3, r3, r9, lsl #16
     96c:	6163      	str	r3, [r4, #20]
     96e:	7ad2      	ldrb	r2, [r2, #11]
     970:	ea43 6302 	orr.w	r3, r3, r2, lsl #24
     974:	6163      	str	r3, [r4, #20]
     976:	68f3      	ldr	r3, [r6, #12]
     978:	f8d6 a000 	ldr.w	r10, [r6]
     97c:	f8d6 9004 	ldr.w	r9, [r6, #4]
     980:	68b2      	ldr	r2, [r6, #8]
     982:	f848 a001 	str.w	r10, [r8, r1]
     986:	f8c0 9004 	str.w	r9, [r0, #4]
     98a:	6082      	str	r2, [r0, #8]
     98c:	60c3      	str	r3, [r0, #12]
     98e:	7923      	ldrb	r3, [r4, #4]
     990:	42ab      	cmp	r3, r5
     992:	d8a9      	bhi.n	8e8 <std_msgs::MultiArrayLayout::deserialize(unsigned char*)+0x24>
     994:	f10e 0501 	add.w	r5, lr, #1
     998:	f10e 0102 	add.w	r1, lr, #2
     99c:	f10e 0203 	add.w	r2, lr, #3
     9a0:	f10e 0004 	add.w	r0, lr, #4
     9a4:	f817 300e 	ldrb.w	r3, [r7, lr]
     9a8:	61e3      	str	r3, [r4, #28]
     9aa:	5d7d      	ldrb	r5, [r7, r5]
     9ac:	ea43 2305 	orr.w	r3, r3, r5, lsl #8
     9b0:	61e3      	str	r3, [r4, #28]
     9b2:	5c79      	ldrb	r1, [r7, r1]
     9b4:	ea43 4301 	orr.w	r3, r3, r1, lsl #16
     9b8:	61e3      	str	r3, [r4, #28]
     9ba:	5cba      	ldrb	r2, [r7, r2]
     9bc:	ea43 6302 	orr.w	r3, r3, r2, lsl #24
     9c0:	61e3      	str	r3, [r4, #28]
     9c2:	b002      	add	sp, #8
     9c4:	e8bd 87f0 	ldmia.w	sp!, {r4, r5, r6, r7, r8, r9, r10, pc}
     9c8:	6980      	ldr	r0, [r0, #24]
     9ca:	0129      	lsls	r1, r5, #4
     9cc:	f002 f8fe 	bl	2bcc <__wrap_realloc>
     9d0:	7125      	strb	r5, [r4, #4]
     9d2:	61a0      	str	r0, [r4, #24]
     9d4:	2d00      	cmp	r5, #0
     9d6:	d181      	bne.n	8dc <std_msgs::MultiArrayLayout::deserialize(unsigned char*)+0x18>
     9d8:	2008      	movs	r0, #8
     9da:	2207      	movs	r2, #7
     9dc:	2106      	movs	r1, #6
     9de:	2505      	movs	r5, #5
     9e0:	f04f 0e04 	mov.w	lr, #4
     9e4:	e7de      	b.n	9a4 <std_msgs::MultiArrayLayout::deserialize(unsigned char*)+0xe0>
     9e6:	bf00      	nop

000009e8 <std_msgs::Float32MultiArray::serialize(unsigned char*) const>:
     9e8:	e92d 4ff0 	stmdb	sp!, {r4, r5, r6, r7, r8, r9, r10, r11, lr}
     9ec:	7a03      	ldrb	r3, [r0, #8]
     9ee:	2600      	movs	r6, #0
     9f0:	700b      	strb	r3, [r1, #0]
     9f2:	704e      	strb	r6, [r1, #1]
     9f4:	708e      	strb	r6, [r1, #2]
     9f6:	70ce      	strb	r6, [r1, #3]
     9f8:	7a03      	ldrb	r3, [r0, #8]
     9fa:	b083      	sub	sp, #12
     9fc:	4680      	mov	r8, r0
     9fe:	4689      	mov	r9, r1
     a00:	2b00      	cmp	r3, #0
     a02:	f000 8089 	beq.w	b18 <std_msgs::Float32MultiArray::serialize(unsigned char*) const+0x130>
     a06:	f8df a12c 	ldr.w	r10, [pc, #300]	; b34 <std_msgs::Float32MultiArray::serialize(unsigned char*) const+0x14c>
     a0a:	f04f 0b04 	mov.w	r11, #4
     a0e:	e02a      	b.n	a66 <std_msgs::Float32MultiArray::serialize(unsigned char*) const+0x7e>
     a10:	6860      	ldr	r0, [r4, #4]
     a12:	f005 ff50 	bl	68b6 <strlen>
     a16:	4607      	mov	r7, r0
     a18:	ab02      	add	r3, sp, #8
     a1a:	f843 0d04 	str.w	r0, [r3, #-4]!
     a1e:	6818      	ldr	r0, [r3, #0]
     a20:	463a      	mov	r2, r7
     a22:	f849 000b 	str.w	r0, [r9, r11]
     a26:	6861      	ldr	r1, [r4, #4]
     a28:	1d28      	adds	r0, r5, #4
     a2a:	f005 f891 	bl	5b50 <memcpy>
     a2e:	68a3      	ldr	r3, [r4, #8]
     a30:	19e9      	adds	r1, r5, r7
     a32:	710b      	strb	r3, [r1, #4]
     a34:	68a3      	ldr	r3, [r4, #8]
     a36:	f107 000c 	add.w	r0, r7, #12
     a3a:	0a1b      	lsrs	r3, r3, #8
     a3c:	714b      	strb	r3, [r1, #5]
     a3e:	8963      	ldrh	r3, [r4, #10]
     a40:	718b      	strb	r3, [r1, #6]
     a42:	7ae3      	ldrb	r3, [r4, #11]
     a44:	71cb      	strb	r3, [r1, #7]
     a46:	68e3      	ldr	r3, [r4, #12]
     a48:	720b      	strb	r3, [r1, #8]
     a4a:	68e3      	ldr	r3, [r4, #12]
     a4c:	0a1b      	lsrs	r3, r3, #8
     a4e:	724b      	strb	r3, [r1, #9]
     a50:	89e3      	ldrh	r3, [r4, #14]
     a52:	728b      	strb	r3, [r1, #10]
     a54:	7be3      	ldrb	r3, [r4, #15]
     a56:	72cb      	strb	r3, [r1, #11]
     a58:	3601      	adds	r6, #1
     a5a:	f898 3008 	ldrb.w	r3, [r8, #8]
     a5e:	b2f6      	uxtb	r6, r6
     a60:	42b3      	cmp	r3, r6
     a62:	4483      	add	r11, r0
     a64:	d90d      	bls.n	a82 <std_msgs::Float32MultiArray::serialize(unsigned char*) const+0x9a>
     a66:	f8d8 401c 	ldr.w	r4, [r8, #28]
     a6a:	0133      	lsls	r3, r6, #4
     a6c:	58e2      	ldr	r2, [r4, r3]
     a6e:	441c      	add	r4, r3
     a70:	6813      	ldr	r3, [r2, #0]
     a72:	eb09 050b 	add.w	r5, r9, r11
     a76:	4553      	cmp	r3, r10
     a78:	d0ca      	beq.n	a10 <std_msgs::Float32MultiArray::serialize(unsigned char*) const+0x28>
     a7a:	4620      	mov	r0, r4
     a7c:	4629      	mov	r1, r5
     a7e:	4798      	blx	r3
     a80:	e7ea      	b.n	a58 <std_msgs::Float32MultiArray::serialize(unsigned char*) const+0x70>
     a82:	f10b 0204 	add.w	r2, r11, #4
     a86:	1d10      	adds	r0, r2, #4
     a88:	f10b 0605 	add.w	r6, r11, #5
     a8c:	f10b 0506 	add.w	r5, r11, #6
     a90:	f10b 0407 	add.w	r4, r11, #7
     a94:	f10b 0c01 	add.w	r12, r11, #1
     a98:	f10b 0e02 	add.w	lr, r11, #2
     a9c:	f10b 0703 	add.w	r7, r11, #3
     aa0:	f8d8 3020 	ldr.w	r3, [r8, #32]
     aa4:	2100      	movs	r1, #0
     aa6:	f809 300b 	strb.w	r3, [r9, r11]
     aaa:	f8d8 3020 	ldr.w	r3, [r8, #32]
     aae:	0a1b      	lsrs	r3, r3, #8
     ab0:	f809 300c 	strb.w	r3, [r9, r12]
     ab4:	f8b8 3022 	ldrh.w	r3, [r8, #34]	; 0x22
     ab8:	f809 300e 	strb.w	r3, [r9, lr]
     abc:	f898 3023 	ldrb.w	r3, [r8, #35]	; 0x23
     ac0:	f809 3007 	strb.w	r3, [r9, r7]
     ac4:	f898 3024 	ldrb.w	r3, [r8, #36]	; 0x24
     ac8:	f809 3002 	strb.w	r3, [r9, r2]
     acc:	f809 1006 	strb.w	r1, [r9, r6]
     ad0:	f809 1005 	strb.w	r1, [r9, r5]
     ad4:	f809 1004 	strb.w	r1, [r9, r4]
     ad8:	f898 3024 	ldrb.w	r3, [r8, #36]	; 0x24
     adc:	b1cb      	cbz	r3, b12 <std_msgs::Float32MultiArray::serialize(unsigned char*) const+0x12a>
     ade:	4481      	add	r9, r0
     ae0:	464b      	mov	r3, r9
     ae2:	f8d8 202c 	ldr.w	r2, [r8, #44]	; 0x2c
     ae6:	b2cc      	uxtb	r4, r1
     ae8:	f852 2024 	ldr.w	r2, [r2, r4, lsl #2]
     aec:	1c4c      	adds	r4, r1, #1
     aee:	0e15      	lsrs	r5, r2, #24
     af0:	0a17      	lsrs	r7, r2, #8
     af2:	0c16      	lsrs	r6, r2, #16
     af4:	f809 2021 	strb.w	r2, [r9, r1, lsl #2]
     af8:	705f      	strb	r7, [r3, #1]
     afa:	709e      	strb	r6, [r3, #2]
     afc:	70dd      	strb	r5, [r3, #3]
     afe:	f898 5024 	ldrb.w	r5, [r8, #36]	; 0x24
     b02:	b2e2      	uxtb	r2, r4
     b04:	4295      	cmp	r5, r2
     b06:	f100 0004 	add.w	r0, r0, #4
     b0a:	f103 0304 	add.w	r3, r3, #4
     b0e:	4621      	mov	r1, r4
     b10:	d8e7      	bhi.n	ae2 <std_msgs::Float32MultiArray::serialize(unsigned char*) const+0xfa>
     b12:	b003      	add	sp, #12
     b14:	e8bd 8ff0 	ldmia.w	sp!, {r4, r5, r6, r7, r8, r9, r10, r11, pc}
     b18:	2208      	movs	r2, #8
     b1a:	2707      	movs	r7, #7
     b1c:	f04f 0e06 	mov.w	lr, #6
     b20:	f04f 0c05 	mov.w	r12, #5
     b24:	f04f 0b04 	mov.w	r11, #4
     b28:	240b      	movs	r4, #11
     b2a:	200c      	movs	r0, #12
     b2c:	250a      	movs	r5, #10
     b2e:	2609      	movs	r6, #9
     b30:	e7b6      	b.n	aa0 <std_msgs::Float32MultiArray::serialize(unsigned char*) const+0xb8>
     b32:	bf00      	nop
     b34:	000005b9 	.word	0x000005b9

00000b38 <ros::Subscriber<std_msgs::Float32MultiArray>::callback(unsigned char*)>:
     b38:	e92d 4ff0 	stmdb	sp!, {r4, r5, r6, r7, r8, r9, r10, r11, lr}
     b3c:	7d03      	ldrb	r3, [r0, #20]
     b3e:	780d      	ldrb	r5, [r1, #0]
     b40:	b083      	sub	sp, #12
     b42:	42ab      	cmp	r3, r5
     b44:	4604      	mov	r4, r0
     b46:	4688      	mov	r8, r1
     b48:	f100 090c 	add.w	r9, r0, #12
     b4c:	f0c0 80a5 	bcc.w	c9a <Stack_Size+0x9a>
     b50:	7525      	strb	r5, [r4, #20]
     b52:	2d00      	cmp	r5, #0
     b54:	f000 80aa 	beq.w	cac <Stack_Size+0xac>
     b58:	2500      	movs	r5, #0
     b5a:	46aa      	mov	r10, r5
     b5c:	f104 0718 	add.w	r7, r4, #24
     b60:	f04f 0e04 	mov.w	lr, #4
     b64:	eb08 060e 	add.w	r6, r8, lr
     b68:	6830      	ldr	r0, [r6, #0]
     b6a:	f106 0b03 	add.w	r11, r6, #3
     b6e:	9001      	str	r0, [sp, #4]
     b70:	9801      	ldr	r0, [sp, #4]
     b72:	f100 0c04 	add.w	r12, r0, #4
     b76:	f1bc 0f04 	cmp.w	r12, #4
     b7a:	d908      	bls.n	b8e <ros::Subscriber<std_msgs::Float32MultiArray>::callback(unsigned char*)+0x56>
     b7c:	465b      	mov	r3, r11
     b7e:	1cc1      	adds	r1, r0, #3
     b80:	4431      	add	r1, r6
     b82:	f813 2f01 	ldrb.w	r2, [r3, #1]!
     b86:	428b      	cmp	r3, r1
     b88:	f803 2c01 	strb.w	r2, [r3, #-1]
     b8c:	d1f9      	bne.n	b82 <ros::Subscriber<std_msgs::Float32MultiArray>::callback(unsigned char*)+0x4a>
     b8e:	1832      	adds	r2, r6, r0
     b90:	f882 a003 	strb.w	r10, [r2, #3]
     b94:	f8c4 b01c 	str.w	r11, [r4, #28]
     b98:	f816 300c 	ldrb.w	r3, [r6, r12]
     b9c:	6aa6      	ldr	r6, [r4, #40]	; 0x28
     b9e:	6223      	str	r3, [r4, #32]
     ba0:	f892 c005 	ldrb.w	r12, [r2, #5]
     ba4:	0129      	lsls	r1, r5, #4
     ba6:	ea43 230c 	orr.w	r3, r3, r12, lsl #8
     baa:	6223      	str	r3, [r4, #32]
     bac:	f892 c006 	ldrb.w	r12, [r2, #6]
     bb0:	300c      	adds	r0, #12
     bb2:	ea43 430c 	orr.w	r3, r3, r12, lsl #16
     bb6:	6223      	str	r3, [r4, #32]
     bb8:	f892 c007 	ldrb.w	r12, [r2, #7]
     bbc:	4486      	add	lr, r0
     bbe:	ea43 630c 	orr.w	r3, r3, r12, lsl #24
     bc2:	6223      	str	r3, [r4, #32]
     bc4:	7a13      	ldrb	r3, [r2, #8]
     bc6:	1870      	adds	r0, r6, r1
     bc8:	6263      	str	r3, [r4, #36]	; 0x24
     bca:	f892 c009 	ldrb.w	r12, [r2, #9]
     bce:	3501      	adds	r5, #1
     bd0:	ea43 230c 	orr.w	r3, r3, r12, lsl #8
     bd4:	6263      	str	r3, [r4, #36]	; 0x24
     bd6:	f892 c00a 	ldrb.w	r12, [r2, #10]
     bda:	b2ed      	uxtb	r5, r5
     bdc:	ea43 430c 	orr.w	r3, r3, r12, lsl #16
     be0:	6263      	str	r3, [r4, #36]	; 0x24
     be2:	7ad2      	ldrb	r2, [r2, #11]
     be4:	ea43 6302 	orr.w	r3, r3, r2, lsl #24
     be8:	6263      	str	r3, [r4, #36]	; 0x24
     bea:	68fb      	ldr	r3, [r7, #12]
     bec:	f8d7 b000 	ldr.w	r11, [r7]
     bf0:	f8d7 c004 	ldr.w	r12, [r7, #4]
     bf4:	68ba      	ldr	r2, [r7, #8]
     bf6:	f846 b001 	str.w	r11, [r6, r1]
     bfa:	f8c0 c004 	str.w	r12, [r0, #4]
     bfe:	6082      	str	r2, [r0, #8]
     c00:	60c3      	str	r3, [r0, #12]
     c02:	7d23      	ldrb	r3, [r4, #20]
     c04:	42ab      	cmp	r3, r5
     c06:	d8ad      	bhi.n	b64 <ros::Subscriber<std_msgs::Float32MultiArray>::callback(unsigned char*)+0x2c>
     c08:	f10e 0204 	add.w	r2, lr, #4
     c0c:	1d16      	adds	r6, r2, #4
     c0e:	f10e 0501 	add.w	r5, lr, #1
     c12:	f10e 0002 	add.w	r0, lr, #2
     c16:	f10e 0103 	add.w	r1, lr, #3
     c1a:	f818 300e 	ldrb.w	r3, [r8, lr]
     c1e:	f894 7030 	ldrb.w	r7, [r4, #48]	; 0x30
     c22:	62e3      	str	r3, [r4, #44]	; 0x2c
     c24:	f818 5005 	ldrb.w	r5, [r8, r5]
     c28:	ea43 2305 	orr.w	r3, r3, r5, lsl #8
     c2c:	62e3      	str	r3, [r4, #44]	; 0x2c
     c2e:	f818 0000 	ldrb.w	r0, [r8, r0]
     c32:	ea43 4300 	orr.w	r3, r3, r0, lsl #16
     c36:	62e3      	str	r3, [r4, #44]	; 0x2c
     c38:	f818 1001 	ldrb.w	r1, [r8, r1]
     c3c:	ea43 6301 	orr.w	r3, r3, r1, lsl #24
     c40:	62e3      	str	r3, [r4, #44]	; 0x2c
     c42:	f818 5002 	ldrb.w	r5, [r8, r2]
     c46:	42af      	cmp	r7, r5
     c48:	d338      	bcc.n	cbc <Stack_Size+0xbc>
     c4a:	f884 5030 	strb.w	r5, [r4, #48]	; 0x30
     c4e:	b1f5      	cbz	r5, c8e <Stack_Size+0x8e>
     c50:	44b0      	add	r8, r6
     c52:	f104 0034 	add.w	r0, r4, #52	; 0x34
     c56:	2100      	movs	r1, #0
     c58:	f898 3002 	ldrb.w	r3, [r8, #2]
     c5c:	f898 5001 	ldrb.w	r5, [r8, #1]
     c60:	f898 2000 	ldrb.w	r2, [r8]
     c64:	041b      	lsls	r3, r3, #16
     c66:	ea43 2305 	orr.w	r3, r3, r5, lsl #8
     c6a:	f898 5003 	ldrb.w	r5, [r8, #3]
     c6e:	4313      	orrs	r3, r2
     c70:	ea43 6305 	orr.w	r3, r3, r5, lsl #24
     c74:	6363      	str	r3, [r4, #52]	; 0x34
     c76:	6805      	ldr	r5, [r0, #0]
     c78:	6ba3      	ldr	r3, [r4, #56]	; 0x38
     c7a:	1c4a      	adds	r2, r1, #1
     c7c:	f843 5021 	str.w	r5, [r3, r1, lsl #2]
     c80:	f894 3030 	ldrb.w	r3, [r4, #48]	; 0x30
     c84:	b2d1      	uxtb	r1, r2
     c86:	428b      	cmp	r3, r1
     c88:	f108 0804 	add.w	r8, r8, #4
     c8c:	d8e4      	bhi.n	c58 <Stack_Size+0x58>
     c8e:	4648      	mov	r0, r9
     c90:	6be3      	ldr	r3, [r4, #60]	; 0x3c
     c92:	b003      	add	sp, #12
     c94:	e8bd 4ff0 	ldmia.w	sp!, {r4, r5, r6, r7, r8, r9, r10, r11, lr}
     c98:	4718      	bx	r3
     c9a:	6a80      	ldr	r0, [r0, #40]	; 0x28
     c9c:	0129      	lsls	r1, r5, #4
     c9e:	f001 ff95 	bl	2bcc <__wrap_realloc>
     ca2:	7525      	strb	r5, [r4, #20]
     ca4:	62a0      	str	r0, [r4, #40]	; 0x28
     ca6:	2d00      	cmp	r5, #0
     ca8:	f47f af56 	bne.w	b58 <ros::Subscriber<std_msgs::Float32MultiArray>::callback(unsigned char*)+0x20>
     cac:	2208      	movs	r2, #8
     cae:	2107      	movs	r1, #7
     cb0:	2006      	movs	r0, #6
     cb2:	2505      	movs	r5, #5
     cb4:	f04f 0e04 	mov.w	lr, #4
     cb8:	260c      	movs	r6, #12
     cba:	e7ae      	b.n	c1a <Stack_Size+0x1a>
     cbc:	6ba0      	ldr	r0, [r4, #56]	; 0x38
     cbe:	00a9      	lsls	r1, r5, #2
     cc0:	f001 ff84 	bl	2bcc <__wrap_realloc>
     cc4:	63a0      	str	r0, [r4, #56]	; 0x38
     cc6:	e7c0      	b.n	c4a <Stack_Size+0x4a>

00000cc8 <std_msgs::Float32MultiArray::deserialize(unsigned char*)>:
     cc8:	e92d 47f0 	stmdb	sp!, {r4, r5, r6, r7, r8, r9, r10, lr}
     ccc:	7a03      	ldrb	r3, [r0, #8]
     cce:	780d      	ldrb	r5, [r1, #0]
     cd0:	b082      	sub	sp, #8
     cd2:	42ab      	cmp	r3, r5
     cd4:	4604      	mov	r4, r0
     cd6:	460f      	mov	r7, r1
     cd8:	f0c0 80a3 	bcc.w	e22 <std_msgs::Float32MultiArray::deserialize(unsigned char*)+0x15a>
     cdc:	7225      	strb	r5, [r4, #8]
     cde:	2d00      	cmp	r5, #0
     ce0:	f000 80a8 	beq.w	e34 <std_msgs::Float32MultiArray::deserialize(unsigned char*)+0x16c>
     ce4:	2500      	movs	r5, #0
     ce6:	46ac      	mov	r12, r5
     ce8:	f104 060c 	add.w	r6, r4, #12
     cec:	f04f 0e04 	mov.w	lr, #4
     cf0:	eb07 080e 	add.w	r8, r7, lr
     cf4:	f8d8 0000 	ldr.w	r0, [r8]
     cf8:	f108 0a03 	add.w	r10, r8, #3
     cfc:	9001      	str	r0, [sp, #4]
     cfe:	9801      	ldr	r0, [sp, #4]
     d00:	f100 0904 	add.w	r9, r0, #4
     d04:	f1b9 0f04 	cmp.w	r9, #4
     d08:	d908      	bls.n	d1c <std_msgs::Float32MultiArray::deserialize(unsigned char*)+0x54>
     d0a:	4653      	mov	r3, r10
     d0c:	1cc1      	adds	r1, r0, #3
     d0e:	4441      	add	r1, r8
     d10:	f813 2f01 	ldrb.w	r2, [r3, #1]!
     d14:	428b      	cmp	r3, r1
     d16:	f803 2c01 	strb.w	r2, [r3, #-1]
     d1a:	d1f9      	bne.n	d10 <std_msgs::Float32MultiArray::deserialize(unsigned char*)+0x48>
     d1c:	eb08 0200 	add.w	r2, r8, r0
     d20:	f882 c003 	strb.w	r12, [r2, #3]
     d24:	f8c4 a010 	str.w	r10, [r4, #16]
     d28:	f818 3009 	ldrb.w	r3, [r8, r9]
     d2c:	f8d4 801c 	ldr.w	r8, [r4, #28]
     d30:	6163      	str	r3, [r4, #20]
     d32:	f892 9005 	ldrb.w	r9, [r2, #5]
     d36:	0129      	lsls	r1, r5, #4
     d38:	ea43 2309 	orr.w	r3, r3, r9, lsl #8
     d3c:	6163      	str	r3, [r4, #20]
     d3e:	f892 9006 	ldrb.w	r9, [r2, #6]
     d42:	300c      	adds	r0, #12
     d44:	ea43 4309 	orr.w	r3, r3, r9, lsl #16
     d48:	6163      	str	r3, [r4, #20]
     d4a:	f892 9007 	ldrb.w	r9, [r2, #7]
     d4e:	4486      	add	lr, r0
     d50:	ea43 6309 	orr.w	r3, r3, r9, lsl #24
     d54:	6163      	str	r3, [r4, #20]
     d56:	7a13      	ldrb	r3, [r2, #8]
     d58:	eb08 0001 	add.w	r0, r8, r1
     d5c:	61a3      	str	r3, [r4, #24]
     d5e:	f892 9009 	ldrb.w	r9, [r2, #9]
     d62:	3501      	adds	r5, #1
     d64:	ea43 2309 	orr.w	r3, r3, r9, lsl #8
     d68:	61a3      	str	r3, [r4, #24]
     d6a:	f892 900a 	ldrb.w	r9, [r2, #10]
     d6e:	b2ed      	uxtb	r5, r5
     d70:	ea43 4309 	orr.w	r3, r3, r9, lsl #16
     d74:	61a3      	str	r3, [r4, #24]
     d76:	7ad2      	ldrb	r2, [r2, #11]
     d78:	ea43 6302 	orr.w	r3, r3, r2, lsl #24
     d7c:	61a3      	str	r3, [r4, #24]
     d7e:	68f3      	ldr	r3, [r6, #12]
     d80:	f8d6 a000 	ldr.w	r10, [r6]
     d84:	f8d6 9004 	ldr.w	r9, [r6, #4]
     d88:	68b2      	ldr	r2, [r6, #8]
     d8a:	f848 a001 	str.w	r10, [r8, r1]
     d8e:	f8c0 9004 	str.w	r9, [r0, #4]
     d92:	6082      	str	r2, [r0, #8]
     d94:	60c3      	str	r3, [r0, #12]
     d96:	7a23      	ldrb	r3, [r4, #8]
     d98:	42ab      	cmp	r3, r5
     d9a:	d8a9      	bhi.n	cf0 <std_msgs::Float32MultiArray::deserialize(unsigned char*)+0x28>
     d9c:	f10e 0204 	add.w	r2, lr, #4
     da0:	1d16      	adds	r6, r2, #4
     da2:	f10e 0501 	add.w	r5, lr, #1
     da6:	f10e 0002 	add.w	r0, lr, #2
     daa:	f10e 0103 	add.w	r1, lr, #3
     dae:	f817 300e 	ldrb.w	r3, [r7, lr]
     db2:	f894 e024 	ldrb.w	lr, [r4, #36]	; 0x24
     db6:	6223      	str	r3, [r4, #32]
     db8:	5d7d      	ldrb	r5, [r7, r5]
     dba:	ea43 2305 	orr.w	r3, r3, r5, lsl #8
     dbe:	6223      	str	r3, [r4, #32]
     dc0:	5c38      	ldrb	r0, [r7, r0]
     dc2:	ea43 4300 	orr.w	r3, r3, r0, lsl #16
     dc6:	6223      	str	r3, [r4, #32]
     dc8:	5c79      	ldrb	r1, [r7, r1]
     dca:	ea43 6301 	orr.w	r3, r3, r1, lsl #24
     dce:	6223      	str	r3, [r4, #32]
     dd0:	5cbd      	ldrb	r5, [r7, r2]
     dd2:	45ae      	cmp	lr, r5
     dd4:	d336      	bcc.n	e44 <std_msgs::Float32MultiArray::deserialize(unsigned char*)+0x17c>
     dd6:	f884 5024 	strb.w	r5, [r4, #36]	; 0x24
     dda:	b1f5      	cbz	r5, e1a <std_msgs::Float32MultiArray::deserialize(unsigned char*)+0x152>
     ddc:	19bb      	adds	r3, r7, r6
     dde:	f104 0528 	add.w	r5, r4, #40	; 0x28
     de2:	f1c7 0704 	rsb	r7, r7, #4
     de6:	2000      	movs	r0, #0
     de8:	789a      	ldrb	r2, [r3, #2]
     dea:	785e      	ldrb	r6, [r3, #1]
     dec:	7819      	ldrb	r1, [r3, #0]
     dee:	0412      	lsls	r2, r2, #16
     df0:	ea42 2206 	orr.w	r2, r2, r6, lsl #8
     df4:	78de      	ldrb	r6, [r3, #3]
     df6:	430a      	orrs	r2, r1
     df8:	ea42 6206 	orr.w	r2, r2, r6, lsl #24
     dfc:	62a2      	str	r2, [r4, #40]	; 0x28
     dfe:	682e      	ldr	r6, [r5, #0]
     e00:	6ae2      	ldr	r2, [r4, #44]	; 0x2c
     e02:	1c41      	adds	r1, r0, #1
     e04:	f842 6020 	str.w	r6, [r2, r0, lsl #2]
     e08:	f894 2024 	ldrb.w	r2, [r4, #36]	; 0x24
     e0c:	b2c8      	uxtb	r0, r1
     e0e:	4282      	cmp	r2, r0
     e10:	eb07 0603 	add.w	r6, r7, r3
     e14:	f103 0304 	add.w	r3, r3, #4
     e18:	d8e6      	bhi.n	de8 <std_msgs::Float32MultiArray::deserialize(unsigned char*)+0x120>
     e1a:	4630      	mov	r0, r6
     e1c:	b002      	add	sp, #8
     e1e:	e8bd 87f0 	ldmia.w	sp!, {r4, r5, r6, r7, r8, r9, r10, pc}
     e22:	69c0      	ldr	r0, [r0, #28]
     e24:	0129      	lsls	r1, r5, #4
     e26:	f001 fed1 	bl	2bcc <__wrap_realloc>
     e2a:	7225      	strb	r5, [r4, #8]
     e2c:	61e0      	str	r0, [r4, #28]
     e2e:	2d00      	cmp	r5, #0
     e30:	f47f af58 	bne.w	ce4 <std_msgs::Float32MultiArray::deserialize(unsigned char*)+0x1c>
     e34:	2208      	movs	r2, #8
     e36:	2107      	movs	r1, #7
     e38:	2006      	movs	r0, #6
     e3a:	2505      	movs	r5, #5
     e3c:	f04f 0e04 	mov.w	lr, #4
     e40:	260c      	movs	r6, #12
     e42:	e7b4      	b.n	dae <std_msgs::Float32MultiArray::deserialize(unsigned char*)+0xe6>
     e44:	6ae0      	ldr	r0, [r4, #44]	; 0x2c
     e46:	00a9      	lsls	r1, r5, #2
     e48:	f001 fec0 	bl	2bcc <__wrap_realloc>
     e4c:	62e0      	str	r0, [r4, #44]	; 0x2c
     e4e:	e7c2      	b.n	dd6 <std_msgs::Float32MultiArray::deserialize(unsigned char*)+0x10e>

00000e50 <ros::NodeHandle_<MbedHardware, 25, 25, 512, 512>::publish(int, ros::Msg const*)>:
     e50:	e92d 47f0 	stmdb	sp!, {r4, r5, r6, r7, r8, r9, r10, lr}
     e54:	2963      	cmp	r1, #99	; 0x63
     e56:	b084      	sub	sp, #16
     e58:	460f      	mov	r7, r1
     e5a:	4604      	mov	r4, r0
     e5c:	dd03      	ble.n	e66 <ros::NodeHandle_<MbedHardware, 25, 25, 512, 512>::publish(int, ros::Msg const*)+0x16>
     e5e:	f890 55fc 	ldrb.w	r5, [r0, #1532]	; 0x5fc
     e62:	2d00      	cmp	r5, #0
     e64:	d04a      	beq.n	efc <ros::NodeHandle_<MbedHardware, 25, 25, 512, 512>::publish(int, ros::Msg const*)+0xac>
     e66:	6813      	ldr	r3, [r2, #0]
     e68:	4610      	mov	r0, r2
     e6a:	681b      	ldr	r3, [r3, #0]
     e6c:	f204 3127 	addw	r1, r4, #807	; 0x327
     e70:	4798      	blx	r3
     e72:	b285      	uxth	r5, r0
     e74:	b2c2      	uxtb	r2, r0
     e76:	ea4f 2c15 	mov.w	r12, r5, lsr #8
     e7a:	eb0c 0e02 	add.w	lr, r12, r2
     e7e:	ea6f 0e0e 	mvn.w	lr, lr
     e82:	b2f9      	uxtb	r1, r7
     e84:	f204 3625 	addw	r6, r4, #805	; 0x325
     e88:	f205 3026 	addw	r0, r5, #806	; 0x326
     e8c:	f04f 09ff 	mov.w	r9, #255	; 0xff
     e90:	f04f 08fe 	mov.w	r8, #254	; 0xfe
     e94:	f347 2707 	sbfx	r7, r7, #8, #8
     e98:	f884 2322 	strb.w	r2, [r4, #802]	; 0x322
     e9c:	4633      	mov	r3, r6
     e9e:	f884 e324 	strb.w	lr, [r4, #804]	; 0x324
     ea2:	f884 c323 	strb.w	r12, [r4, #803]	; 0x323
     ea6:	4420      	add	r0, r4
     ea8:	f884 9320 	strb.w	r9, [r4, #800]	; 0x320
     eac:	f884 8321 	strb.w	r8, [r4, #801]	; 0x321
     eb0:	f884 1325 	strb.w	r1, [r4, #805]	; 0x325
     eb4:	f884 7326 	strb.w	r7, [r4, #806]	; 0x326
     eb8:	2200      	movs	r2, #0
     eba:	e001      	b.n	ec0 <ros::NodeHandle_<MbedHardware, 25, 25, 512, 512>::publish(int, ros::Msg const*)+0x70>
     ebc:	f813 1f01 	ldrb.w	r1, [r3, #1]!
     ec0:	4283      	cmp	r3, r0
     ec2:	440a      	add	r2, r1
     ec4:	d1fa      	bne.n	ebc <ros::NodeHandle_<MbedHardware, 25, 25, 512, 512>::publish(int, ros::Msg const*)+0x6c>
     ec6:	43d2      	mvns	r2, r2
     ec8:	1deb      	adds	r3, r5, #7
     eca:	3508      	adds	r5, #8
     ecc:	b29b      	uxth	r3, r3
     ece:	b2ad      	uxth	r5, r5
     ed0:	4423      	add	r3, r4
     ed2:	f5b5 7f00 	cmp.w	r5, #512	; 0x200
     ed6:	f883 2320 	strb.w	r2, [r3, #800]	; 0x320
     eda:	d813      	bhi.n	f04 <ros::NodeHandle_<MbedHardware, 25, 25, 512, 512>::publish(int, ros::Msg const*)+0xb4>
     edc:	f504 7648 	add.w	r6, r4, #800	; 0x320
     ee0:	b165      	cbz	r5, efc <ros::NodeHandle_<MbedHardware, 25, 25, 512, 512>::publish(int, ros::Msg const*)+0xac>
     ee2:	1e6b      	subs	r3, r5, #1
     ee4:	f104 0744 	add.w	r7, r4, #68	; 0x44
     ee8:	441e      	add	r6, r3
     eea:	f204 341f 	addw	r4, r4, #799	; 0x31f
     eee:	f814 1f01 	ldrb.w	r1, [r4, #1]!
     ef2:	4638      	mov	r0, r7
     ef4:	f003 fd36 	bl	4964 <mbed::Stream::putc(int)>
     ef8:	42b4      	cmp	r4, r6
     efa:	d1f8      	bne.n	eee <ros::NodeHandle_<MbedHardware, 25, 25, 512, 512>::publish(int, ros::Msg const*)+0x9e>
     efc:	4628      	mov	r0, r5
     efe:	b004      	add	sp, #16
     f00:	e8bd 87f0 	ldmia.w	sp!, {r4, r5, r6, r7, r8, r9, r10, pc}
     f04:	4931      	ldr	r1, [pc, #196]	; (fcc <ros::NodeHandle_<MbedHardware, 25, 25, 512, 512>::publish(int, ros::Msg const*)+0x17c>)
     f06:	4d32      	ldr	r5, [pc, #200]	; (fd0 <ros::NodeHandle_<MbedHardware, 25, 25, 512, 512>::publish(int, ros::Msg const*)+0x180>)
     f08:	2203      	movs	r2, #3
     f0a:	6823      	ldr	r3, [r4, #0]
     f0c:	9101      	str	r1, [sp, #4]
     f0e:	9503      	str	r5, [sp, #12]
     f10:	f88d 2008 	strb.w	r2, [sp, #8]
     f14:	681b      	ldr	r3, [r3, #0]
     f16:	492f      	ldr	r1, [pc, #188]	; (fd4 <ros::NodeHandle_<MbedHardware, 25, 25, 512, 512>::publish(int, ros::Msg const*)+0x184>)
     f18:	428b      	cmp	r3, r1
     f1a:	d150      	bne.n	fbe <ros::NodeHandle_<MbedHardware, 25, 25, 512, 512>::publish(int, ros::Msg const*)+0x16e>
     f1c:	ab04      	add	r3, sp, #16
     f1e:	2138      	movs	r1, #56	; 0x38
     f20:	f843 1d10 	str.w	r1, [r3, #-16]!
     f24:	6818      	ldr	r0, [r3, #0]
     f26:	f884 2327 	strb.w	r2, [r4, #807]	; 0x327
     f2a:	f8c4 0328 	str.w	r0, [r4, #808]	; 0x328
     f2e:	f105 0c30 	add.w	r12, r5, #48	; 0x30
     f32:	f504 774b 	add.w	r7, r4, #812	; 0x32c
     f36:	46ae      	mov	lr, r5
     f38:	e8be 000f 	ldmia.w	lr!, {r0, r1, r2, r3}
     f3c:	45e6      	cmp	lr, r12
     f3e:	6038      	str	r0, [r7, #0]
     f40:	6079      	str	r1, [r7, #4]
     f42:	60ba      	str	r2, [r7, #8]
     f44:	60fb      	str	r3, [r7, #12]
     f46:	f105 0510 	add.w	r5, r5, #16
     f4a:	f107 0710 	add.w	r7, r7, #16
     f4e:	d1f2      	bne.n	f36 <ros::NodeHandle_<MbedHardware, 25, 25, 512, 512>::publish(int, ros::Msg const*)+0xe6>
     f50:	cd03      	ldmia	r5!, {r0, r1}
     f52:	f04f 0e00 	mov.w	lr, #0
     f56:	f04f 0c07 	mov.w	r12, #7
     f5a:	f04f 0aff 	mov.w	r10, #255	; 0xff
     f5e:	f04f 09fe 	mov.w	r9, #254	; 0xfe
     f62:	f04f 083d 	mov.w	r8, #61	; 0x3d
     f66:	25c2      	movs	r5, #194	; 0xc2
     f68:	6079      	str	r1, [r7, #4]
     f6a:	6038      	str	r0, [r7, #0]
     f6c:	4673      	mov	r3, lr
     f6e:	4662      	mov	r2, r12
     f70:	f204 3163 	addw	r1, r4, #867	; 0x363
     f74:	f884 e323 	strb.w	lr, [r4, #803]	; 0x323
     f78:	f884 e326 	strb.w	lr, [r4, #806]	; 0x326
     f7c:	f884 c325 	strb.w	r12, [r4, #805]	; 0x325
     f80:	f884 a320 	strb.w	r10, [r4, #800]	; 0x320
     f84:	f884 9321 	strb.w	r9, [r4, #801]	; 0x321
     f88:	f884 8322 	strb.w	r8, [r4, #802]	; 0x322
     f8c:	f884 5324 	strb.w	r5, [r4, #804]	; 0x324
     f90:	e001      	b.n	f96 <ros::NodeHandle_<MbedHardware, 25, 25, 512, 512>::publish(int, ros::Msg const*)+0x146>
     f92:	f816 2f01 	ldrb.w	r2, [r6, #1]!
     f96:	428e      	cmp	r6, r1
     f98:	4413      	add	r3, r2
     f9a:	d1fa      	bne.n	f92 <ros::NodeHandle_<MbedHardware, 25, 25, 512, 512>::publish(int, ros::Msg const*)+0x142>
     f9c:	43db      	mvns	r3, r3
     f9e:	f104 0644 	add.w	r6, r4, #68	; 0x44
     fa2:	f884 3364 	strb.w	r3, [r4, #868]	; 0x364
     fa6:	f204 351f 	addw	r5, r4, #799	; 0x31f
     faa:	f504 7459 	add.w	r4, r4, #868	; 0x364
     fae:	f815 1f01 	ldrb.w	r1, [r5, #1]!
     fb2:	4630      	mov	r0, r6
     fb4:	f003 fcd6 	bl	4964 <mbed::Stream::putc(int)>
     fb8:	42a5      	cmp	r5, r4
     fba:	d1f8      	bne.n	fae <ros::NodeHandle_<MbedHardware, 25, 25, 512, 512>::publish(int, ros::Msg const*)+0x15e>
     fbc:	e003      	b.n	fc6 <ros::NodeHandle_<MbedHardware, 25, 25, 512, 512>::publish(int, ros::Msg const*)+0x176>
     fbe:	4620      	mov	r0, r4
     fc0:	2107      	movs	r1, #7
     fc2:	aa01      	add	r2, sp, #4
     fc4:	4798      	blx	r3
     fc6:	f04f 35ff 	mov.w	r5, #4294967295
     fca:	e797      	b.n	efc <ros::NodeHandle_<MbedHardware, 25, 25, 512, 512>::publish(int, ros::Msg const*)+0xac>
     fcc:	000074c8 	.word	0x000074c8
     fd0:	000076fc 	.word	0x000076fc
     fd4:	00000e51 	.word	0x00000e51

00000fd8 <Motor::Motor(PinName, PinName, PinName, bool)>:
     fd8:	e92d 41f0 	stmdb	sp!, {r4, r5, r6, r7, r8, lr}
     fdc:	4604      	mov	r4, r0
     fde:	4617      	mov	r7, r2
     fe0:	461e      	mov	r6, r3
     fe2:	2500      	movs	r5, #0
     fe4:	f89d 8018 	ldrb.w	r8, [sp, #24]
     fe8:	f002 fd9c 	bl	3b24 <pwmout_init>
     fec:	4639      	mov	r1, r7
     fee:	f104 0008 	add.w	r0, r4, #8
     ff2:	60a5      	str	r5, [r4, #8]
     ff4:	60e5      	str	r5, [r4, #12]
     ff6:	6125      	str	r5, [r4, #16]
     ff8:	6165      	str	r5, [r4, #20]
     ffa:	61a5      	str	r5, [r4, #24]
     ffc:	61e5      	str	r5, [r4, #28]
     ffe:	f002 f9d9 	bl	33b4 <gpio_init_out>
    1002:	f104 077c 	add.w	r7, r4, #124	; 0x7c
    1006:	4631      	mov	r1, r6
    1008:	f884 8020 	strb.w	r8, [r4, #32]
    100c:	f104 0024 	add.w	r0, r4, #36	; 0x24
    1010:	f003 fb74 	bl	46fc <mbed::InterruptIn::InterruptIn(PinName)>
    1014:	4638      	mov	r0, r7
    1016:	f003 fd3f 	bl	4a98 <mbed::TimerEvent::TimerEvent()>
    101a:	4b1b      	ldr	r3, [pc, #108]	; (1088 <Motor::Motor(PinName, PinName, PinName, bool)+0xb0>)
    101c:	f04f 0800 	mov.w	r8, #0
    1020:	67e3      	str	r3, [r4, #124]	; 0x7c
    1022:	4620      	mov	r0, r4
    1024:	4641      	mov	r1, r8
    1026:	f8c4 5094 	str.w	r5, [r4, #148]	; 0x94
    102a:	f8c4 50a8 	str.w	r5, [r4, #168]	; 0xa8
    102e:	f002 fd2b 	bl	3a88 <pwmout_write>
    1032:	69a3      	ldr	r3, [r4, #24]
    1034:	68e2      	ldr	r2, [r4, #12]
    1036:	4620      	mov	r0, r4
    1038:	601a      	str	r2, [r3, #0]
    103a:	2128      	movs	r1, #40	; 0x28
    103c:	f002 fd50 	bl	3ae0 <pwmout_period_us>
    1040:	4e12      	ldr	r6, [pc, #72]	; (108c <Motor::Motor(PinName, PinName, PinName, bool)+0xb4>)
    1042:	4b13      	ldr	r3, [pc, #76]	; (1090 <Motor::Motor(PinName, PinName, PinName, bool)+0xb8>)
    1044:	4a13      	ldr	r2, [pc, #76]	; (1094 <Motor::Motor(PinName, PinName, PinName, bool)+0xbc>)
    1046:	2101      	movs	r1, #1
    1048:	f8c4 20b4 	str.w	r2, [r4, #180]	; 0xb4
    104c:	6523      	str	r3, [r4, #80]	; 0x50
    104e:	460a      	mov	r2, r1
    1050:	f104 0040 	add.w	r0, r4, #64	; 0x40
    1054:	f8c4 80b0 	str.w	r8, [r4, #176]	; 0xb0
    1058:	f8c4 50ac 	str.w	r5, [r4, #172]	; 0xac
    105c:	64e4      	str	r4, [r4, #76]	; 0x4c
    105e:	6565      	str	r5, [r4, #84]	; 0x54
    1060:	6626      	str	r6, [r4, #96]	; 0x60
    1062:	f002 fc61 	bl	3928 <gpio_irq_set>
    1066:	4b0c      	ldr	r3, [pc, #48]	; (1098 <Motor::Motor(PinName, PinName, PinName, bool)+0xc0>)
    1068:	4638      	mov	r0, r7
    106a:	f8c4 4094 	str.w	r4, [r4, #148]	; 0x94
    106e:	f8c4 509c 	str.w	r5, [r4, #156]	; 0x9c
    1072:	f8c4 60a8 	str.w	r6, [r4, #168]	; 0xa8
    1076:	f8c4 3098 	str.w	r3, [r4, #152]	; 0x98
    107a:	4908      	ldr	r1, [pc, #32]	; (109c <Motor::Motor(PinName, PinName, PinName, bool)+0xc4>)
    107c:	f003 fcc2 	bl	4a04 <mbed::Ticker::setup(unsigned long)>
    1080:	4620      	mov	r0, r4
    1082:	e8bd 81f0 	ldmia.w	sp!, {r4, r5, r6, r7, r8, pc}
    1086:	bf00      	nop
    1088:	00007ba8 	.word	0x00007ba8
    108c:	00000265 	.word	0x00000265
    1090:	00000209 	.word	0x00000209
    1094:	3dcccccd 	.word	0x3dcccccd
    1098:	00000225 	.word	0x00000225
    109c:	000186a0 	.word	0x000186a0

000010a0 <main>:
    10a0:	e92d 4880 	stmdb	sp!, {r7, r11, lr}
    10a4:	f8df a380 	ldr.w	r10, [pc, #896]	; 1428 <main+0x388>
    10a8:	b089      	sub	sp, #36	; 0x24
    10aa:	f10a 0004 	add.w	r0, r10, #4
    10ae:	f8da 1100 	ldr.w	r1, [r10, #256]	; 0x100
    10b2:	f003 fbd9 	bl	4868 <mbed::SerialBase::baud(int)>
    10b6:	2200      	movs	r2, #0
    10b8:	4613      	mov	r3, r2
    10ba:	f8ca 25e8 	str.w	r2, [r10, #1512]	; 0x5e8
    10be:	f8ca 25ec 	str.w	r2, [r10, #1516]	; 0x5ec
    10c2:	f8ca 25f4 	str.w	r2, [r10, #1524]	; 0x5f4
    10c6:	f8ca 25f0 	str.w	r2, [r10, #1520]	; 0x5f0
    10ca:	f50a 62b0 	add.w	r2, r10, #1408	; 0x580
    10ce:	f852 1f04 	ldr.w	r1, [r2, #4]!
    10d2:	b119      	cbz	r1, 10dc <main+0x3c>
    10d4:	3301      	adds	r3, #1
    10d6:	2b19      	cmp	r3, #25
    10d8:	d1f9      	bne.n	10ce <main+0x2e>
    10da:	e006      	b.n	10ea <main+0x4a>
    10dc:	4acf      	ldr	r2, [pc, #828]	; (141c <main+0x37c>)
    10de:	eb0a 0183 	add.w	r1, r10, r3, lsl #2
    10e2:	3364      	adds	r3, #100	; 0x64
    10e4:	f8c1 2584 	str.w	r2, [r1, #1412]	; 0x584
    10e8:	6053      	str	r3, [r2, #4]
    10ea:	4bcd      	ldr	r3, [pc, #820]	; (1420 <main+0x380>)
    10ec:	9301      	str	r3, [sp, #4]
    10ee:	f5a3 7b48 	sub.w	r11, r3, #800	; 0x320
    10f2:	e00e      	b.n	1112 <main+0x72>
    10f4:	f89a 35fc 	ldrb.w	r3, [r10, #1532]	; 0x5fc
    10f8:	b143      	cbz	r3, 110c <main+0x6c>
    10fa:	f640 12c4 	movw	r2, #2500	; 0x9c4
    10fe:	f8db 3600 	ldr.w	r3, [r11, #1536]	; 0x600
    1102:	ebc3 0309 	rsb	r3, r3, r9
    1106:	4293      	cmp	r3, r2
    1108:	f200 81f3 	bhi.w	14f2 <main+0x452>
    110c:	2001      	movs	r0, #1
    110e:	f002 fa85 	bl	361c <wait_ms>
    1112:	48c4      	ldr	r0, [pc, #784]	; (1424 <main+0x384>)
    1114:	f003 fcaa 	bl	4a6c <mbed::Timer::read_ms()>
    1118:	f642 22f8 	movw	r2, #11000	; 0x2af8
    111c:	f8da 3604 	ldr.w	r3, [r10, #1540]	; 0x604
    1120:	4681      	mov	r9, r0
    1122:	1ac3      	subs	r3, r0, r3
    1124:	4293      	cmp	r3, r2
    1126:	bf84      	itt	hi
    1128:	2300      	movhi	r3, #0
    112a:	f88b 35fc 	strbhi.w	r3, [r11, #1532]	; 0x5fc
    112e:	f8da 35e8 	ldr.w	r3, [r10, #1512]	; 0x5e8
    1132:	b133      	cbz	r3, 1142 <main+0xa2>
    1134:	f8db 3608 	ldr.w	r3, [r11, #1544]	; 0x608
    1138:	4298      	cmp	r0, r3
    113a:	bf84      	itt	hi
    113c:	2300      	movhi	r3, #0
    113e:	f8cb 35e8 	strhi.w	r3, [r11, #1512]	; 0x5e8
    1142:	f8df 82f0 	ldr.w	r8, [pc, #752]	; 1434 <main+0x394>
    1146:	4cb8      	ldr	r4, [pc, #736]	; (1428 <main+0x388>)
    1148:	1d20      	adds	r0, r4, #4
    114a:	f001 fee9 	bl	2f20 <AjK::MODSERIAL::rxBufferEmpty()>
    114e:	4606      	mov	r6, r0
    1150:	2800      	cmp	r0, #0
    1152:	d1cf      	bne.n	10f4 <main+0x54>
    1154:	1d20      	adds	r0, r4, #4
    1156:	2101      	movs	r1, #1
    1158:	f001 fd62 	bl	2c20 <AjK::MODSERIAL::__getc(bool)>
    115c:	2800      	cmp	r0, #0
    115e:	dbc9      	blt.n	10f4 <main+0x54>
    1160:	f8db 35f8 	ldr.w	r3, [r11, #1528]	; 0x5f8
    1164:	f8db 55e8 	ldr.w	r5, [r11, #1512]	; 0x5e8
    1168:	4403      	add	r3, r0
    116a:	2d07      	cmp	r5, #7
    116c:	f8cb 35f8 	str.w	r3, [r11, #1528]	; 0x5f8
    1170:	f000 8103 	beq.w	137a <main+0x2da>
    1174:	b955      	cbnz	r5, 118c <main+0xec>
    1176:	28ff      	cmp	r0, #255	; 0xff
    1178:	f040 8113 	bne.w	13a2 <main+0x302>
    117c:	2201      	movs	r2, #1
    117e:	f109 0314 	add.w	r3, r9, #20
    1182:	f8cb 25e8 	str.w	r2, [r11, #1512]	; 0x5e8
    1186:	f8cb 3608 	str.w	r3, [r11, #1544]	; 0x608
    118a:	e7dc      	b.n	1146 <main+0xa6>
    118c:	2d01      	cmp	r5, #1
    118e:	f000 8114 	beq.w	13ba <main+0x31a>
    1192:	2d02      	cmp	r5, #2
    1194:	f000 816e 	beq.w	1474 <main+0x3d4>
    1198:	2d03      	cmp	r5, #3
    119a:	f000 8175 	beq.w	1488 <main+0x3e8>
    119e:	2d04      	cmp	r5, #4
    11a0:	f000 817c 	beq.w	149c <main+0x3fc>
    11a4:	2d05      	cmp	r5, #5
    11a6:	f000 8188 	beq.w	14ba <main+0x41a>
    11aa:	2d06      	cmp	r5, #6
    11ac:	f000 818d 	beq.w	14ca <main+0x42a>
    11b0:	2d08      	cmp	r5, #8
    11b2:	d1c8      	bne.n	1146 <main+0xa6>
    11b4:	4a9d      	ldr	r2, [pc, #628]	; (142c <main+0x38c>)
    11b6:	2100      	movs	r1, #0
    11b8:	401a      	ands	r2, r3
    11ba:	428a      	cmp	r2, r1
    11bc:	f8ca 15e8 	str.w	r1, [r10, #1512]	; 0x5e8
    11c0:	f2c0 81e1 	blt.w	1586 <main+0x4e6>
    11c4:	2aff      	cmp	r2, #255	; 0xff
    11c6:	d1be      	bne.n	1146 <main+0xa6>
    11c8:	f8da 35f0 	ldr.w	r3, [r10, #1520]	; 0x5f0
    11cc:	4d96      	ldr	r5, [pc, #600]	; (1428 <main+0x388>)
    11ce:	2b00      	cmp	r3, #0
    11d0:	f000 82fa 	beq.w	17c8 <main+0x728>
    11d4:	2b0a      	cmp	r3, #10
    11d6:	f000 8294 	beq.w	1702 <main+0x662>
    11da:	2b06      	cmp	r3, #6
    11dc:	f000 81dc 	beq.w	1598 <main+0x4f8>
    11e0:	2b0b      	cmp	r3, #11
    11e2:	f000 81d5 	beq.w	1590 <main+0x4f0>
    11e6:	eb0b 0383 	add.w	r3, r11, r3, lsl #2
    11ea:	f8d3 43f4 	ldr.w	r4, [r3, #1012]	; 0x3f4
    11ee:	2c00      	cmp	r4, #0
    11f0:	d0a9      	beq.n	1146 <main+0xa6>
    11f2:	6823      	ldr	r3, [r4, #0]
    11f4:	4a8e      	ldr	r2, [pc, #568]	; (1430 <main+0x390>)
    11f6:	681b      	ldr	r3, [r3, #0]
    11f8:	4293      	cmp	r3, r2
    11fa:	f040 8496 	bne.w	1b2a <main+0xa8a>
    11fe:	f89b 5120 	ldrb.w	r5, [r11, #288]	; 0x120
    1202:	7d23      	ldrb	r3, [r4, #20]
    1204:	f104 020c 	add.w	r2, r4, #12
    1208:	42ab      	cmp	r3, r5
    120a:	9202      	str	r2, [sp, #8]
    120c:	d204      	bcs.n	1218 <main+0x178>
    120e:	6aa0      	ldr	r0, [r4, #40]	; 0x28
    1210:	0129      	lsls	r1, r5, #4
    1212:	f001 fcdb 	bl	2bcc <__wrap_realloc>
    1216:	62a0      	str	r0, [r4, #40]	; 0x28
    1218:	7525      	strb	r5, [r4, #20]
    121a:	2d00      	cmp	r5, #0
    121c:	f000 84ee 	beq.w	1bfc <main+0xb5c>
    1220:	2304      	movs	r3, #4
    1222:	469e      	mov	lr, r3
    1224:	2600      	movs	r6, #0
    1226:	f104 0518 	add.w	r5, r4, #24
    122a:	f8cd 900c 	str.w	r9, [sp, #12]
    122e:	f50e 7790 	add.w	r7, lr, #288	; 0x120
    1232:	4457      	add	r7, r10
    1234:	6838      	ldr	r0, [r7, #0]
    1236:	f107 0c03 	add.w	r12, r7, #3
    123a:	9007      	str	r0, [sp, #28]
    123c:	9807      	ldr	r0, [sp, #28]
    123e:	f100 0904 	add.w	r9, r0, #4
    1242:	f1b9 0f04 	cmp.w	r9, #4
    1246:	d908      	bls.n	125a <main+0x1ba>
    1248:	4663      	mov	r3, r12
    124a:	1cc1      	adds	r1, r0, #3
    124c:	4439      	add	r1, r7
    124e:	f813 2f01 	ldrb.w	r2, [r3, #1]!
    1252:	428b      	cmp	r3, r1
    1254:	f803 2c01 	strb.w	r2, [r3, #-1]
    1258:	d1f9      	bne.n	124e <main+0x1ae>
    125a:	f04f 0300 	mov.w	r3, #0
    125e:	183a      	adds	r2, r7, r0
    1260:	70d3      	strb	r3, [r2, #3]
    1262:	f8c4 c01c 	str.w	r12, [r4, #28]
    1266:	f817 3009 	ldrb.w	r3, [r7, r9]
    126a:	300c      	adds	r0, #12
    126c:	6223      	str	r3, [r4, #32]
    126e:	f892 c005 	ldrb.w	r12, [r2, #5]
    1272:	4486      	add	lr, r0
    1274:	ea43 230c 	orr.w	r3, r3, r12, lsl #8
    1278:	6223      	str	r3, [r4, #32]
    127a:	f892 c006 	ldrb.w	r12, [r2, #6]
    127e:	6aa7      	ldr	r7, [r4, #40]	; 0x28
    1280:	ea43 430c 	orr.w	r3, r3, r12, lsl #16
    1284:	6223      	str	r3, [r4, #32]
    1286:	f892 c007 	ldrb.w	r12, [r2, #7]
    128a:	0131      	lsls	r1, r6, #4
    128c:	ea43 630c 	orr.w	r3, r3, r12, lsl #24
    1290:	6223      	str	r3, [r4, #32]
    1292:	7a13      	ldrb	r3, [r2, #8]
    1294:	3601      	adds	r6, #1
    1296:	6263      	str	r3, [r4, #36]	; 0x24
    1298:	f892 c009 	ldrb.w	r12, [r2, #9]
    129c:	b2f6      	uxtb	r6, r6
    129e:	ea43 200c 	orr.w	r0, r3, r12, lsl #8
    12a2:	6260      	str	r0, [r4, #36]	; 0x24
    12a4:	f892 c00a 	ldrb.w	r12, [r2, #10]
    12a8:	187b      	adds	r3, r7, r1
    12aa:	ea40 400c 	orr.w	r0, r0, r12, lsl #16
    12ae:	6260      	str	r0, [r4, #36]	; 0x24
    12b0:	7ad2      	ldrb	r2, [r2, #11]
    12b2:	ea40 6002 	orr.w	r0, r0, r2, lsl #24
    12b6:	6260      	str	r0, [r4, #36]	; 0x24
    12b8:	f8d5 9000 	ldr.w	r9, [r5]
    12bc:	f8d5 c004 	ldr.w	r12, [r5, #4]
    12c0:	68a8      	ldr	r0, [r5, #8]
    12c2:	68ea      	ldr	r2, [r5, #12]
    12c4:	f847 9001 	str.w	r9, [r7, r1]
    12c8:	f8c3 c004 	str.w	r12, [r3, #4]
    12cc:	6098      	str	r0, [r3, #8]
    12ce:	60da      	str	r2, [r3, #12]
    12d0:	7d23      	ldrb	r3, [r4, #20]
    12d2:	42b3      	cmp	r3, r6
    12d4:	d8ab      	bhi.n	122e <main+0x18e>
    12d6:	4673      	mov	r3, lr
    12d8:	f8dd 900c 	ldr.w	r9, [sp, #12]
    12dc:	1d1a      	adds	r2, r3, #4
    12de:	1d15      	adds	r5, r2, #4
    12e0:	1c5e      	adds	r6, r3, #1
    12e2:	1c98      	adds	r0, r3, #2
    12e4:	1cd9      	adds	r1, r3, #3
    12e6:	4453      	add	r3, r10
    12e8:	f893 3120 	ldrb.w	r3, [r3, #288]	; 0x120
    12ec:	4456      	add	r6, r10
    12ee:	62e3      	str	r3, [r4, #44]	; 0x2c
    12f0:	f896 6120 	ldrb.w	r6, [r6, #288]	; 0x120
    12f4:	4450      	add	r0, r10
    12f6:	ea43 2306 	orr.w	r3, r3, r6, lsl #8
    12fa:	62e3      	str	r3, [r4, #44]	; 0x2c
    12fc:	f890 0120 	ldrb.w	r0, [r0, #288]	; 0x120
    1300:	4451      	add	r1, r10
    1302:	ea43 4300 	orr.w	r3, r3, r0, lsl #16
    1306:	62e3      	str	r3, [r4, #44]	; 0x2c
    1308:	f891 1120 	ldrb.w	r1, [r1, #288]	; 0x120
    130c:	4452      	add	r2, r10
    130e:	ea43 6301 	orr.w	r3, r3, r1, lsl #24
    1312:	62e3      	str	r3, [r4, #44]	; 0x2c
    1314:	f892 6120 	ldrb.w	r6, [r2, #288]	; 0x120
    1318:	f894 3030 	ldrb.w	r3, [r4, #48]	; 0x30
    131c:	42b3      	cmp	r3, r6
    131e:	d204      	bcs.n	132a <main+0x28a>
    1320:	6ba0      	ldr	r0, [r4, #56]	; 0x38
    1322:	00b1      	lsls	r1, r6, #2
    1324:	f001 fc52 	bl	2bcc <__wrap_realloc>
    1328:	63a0      	str	r0, [r4, #56]	; 0x38
    132a:	f884 6030 	strb.w	r6, [r4, #48]	; 0x30
    132e:	b306      	cbz	r6, 1372 <main+0x2d2>
    1330:	eb0a 0105 	add.w	r1, r10, r5
    1334:	460e      	mov	r6, r1
    1336:	f104 0534 	add.w	r5, r4, #52	; 0x34
    133a:	2000      	movs	r0, #0
    133c:	f891 3122 	ldrb.w	r3, [r1, #290]	; 0x122
    1340:	f891 7121 	ldrb.w	r7, [r1, #289]	; 0x121
    1344:	f891 2120 	ldrb.w	r2, [r1, #288]	; 0x120
    1348:	041b      	lsls	r3, r3, #16
    134a:	ea43 2307 	orr.w	r3, r3, r7, lsl #8
    134e:	f891 7123 	ldrb.w	r7, [r1, #291]	; 0x123
    1352:	4313      	orrs	r3, r2
    1354:	ea43 6307 	orr.w	r3, r3, r7, lsl #24
    1358:	6363      	str	r3, [r4, #52]	; 0x34
    135a:	682f      	ldr	r7, [r5, #0]
    135c:	6ba3      	ldr	r3, [r4, #56]	; 0x38
    135e:	1b8a      	subs	r2, r1, r6
    1360:	509f      	str	r7, [r3, r2]
    1362:	3001      	adds	r0, #1
    1364:	f894 3030 	ldrb.w	r3, [r4, #48]	; 0x30
    1368:	b2c0      	uxtb	r0, r0
    136a:	4283      	cmp	r3, r0
    136c:	f101 0104 	add.w	r1, r1, #4
    1370:	d8e4      	bhi.n	133c <main+0x29c>
    1372:	6be3      	ldr	r3, [r4, #60]	; 0x3c
    1374:	9802      	ldr	r0, [sp, #8]
    1376:	4798      	blx	r3
    1378:	e6e5      	b.n	1146 <main+0xa6>
    137a:	f8db 25f4 	ldr.w	r2, [r11, #1524]	; 0x5f4
    137e:	f8db 35ec 	ldr.w	r3, [r11, #1516]	; 0x5ec
    1382:	1c51      	adds	r1, r2, #1
    1384:	3b01      	subs	r3, #1
    1386:	445a      	add	r2, r11
    1388:	f8cb 15f4 	str.w	r1, [r11, #1524]	; 0x5f4
    138c:	f882 0120 	strb.w	r0, [r2, #288]	; 0x120
    1390:	f8cb 35ec 	str.w	r3, [r11, #1516]	; 0x5ec
    1394:	2b00      	cmp	r3, #0
    1396:	f47f aed6 	bne.w	1146 <main+0xa6>
    139a:	2308      	movs	r3, #8
    139c:	f8ca 35e8 	str.w	r3, [r10, #1512]	; 0x5e8
    13a0:	e6d1      	b.n	1146 <main+0xa6>
    13a2:	f504 7082 	add.w	r0, r4, #260	; 0x104
    13a6:	f003 fb61 	bl	4a6c <mbed::Timer::read_ms()>
    13aa:	ebc9 0000 	rsb	r0, r9, r0
    13ae:	2805      	cmp	r0, #5
    13b0:	f67f aec9 	bls.w	1146 <main+0xa6>
    13b4:	f884 55fc 	strb.w	r5, [r4, #1532]	; 0x5fc
    13b8:	e6a8      	b.n	110c <main+0x6c>
    13ba:	28fe      	cmp	r0, #254	; 0xfe
    13bc:	d079      	beq.n	14b2 <main+0x412>
    13be:	f89b 15fc 	ldrb.w	r1, [r11, #1532]	; 0x5fc
    13c2:	f8cb 65e8 	str.w	r6, [r11, #1512]	; 0x5e8
    13c6:	2900      	cmp	r1, #0
    13c8:	f47f aebd 	bne.w	1146 <main+0xa6>
    13cc:	200a      	movs	r0, #10
    13ce:	460b      	mov	r3, r1
    13d0:	f88b 1327 	strb.w	r1, [r11, #807]	; 0x327
    13d4:	f88b 1328 	strb.w	r1, [r11, #808]	; 0x328
    13d8:	f88b 1329 	strb.w	r1, [r11, #809]	; 0x329
    13dc:	f88b 132a 	strb.w	r1, [r11, #810]	; 0x32a
    13e0:	f88b 132b 	strb.w	r1, [r11, #811]	; 0x32b
    13e4:	f88b 132c 	strb.w	r1, [r11, #812]	; 0x32c
    13e8:	f88b 132d 	strb.w	r1, [r11, #813]	; 0x32d
    13ec:	f88b 132e 	strb.w	r1, [r11, #814]	; 0x32e
    13f0:	f88b 1323 	strb.w	r1, [r11, #803]	; 0x323
    13f4:	f88b 1326 	strb.w	r1, [r11, #806]	; 0x326
    13f8:	21fe      	movs	r1, #254	; 0xfe
    13fa:	4602      	mov	r2, r0
    13fc:	25ff      	movs	r5, #255	; 0xff
    13fe:	f88b 0325 	strb.w	r0, [r11, #805]	; 0x325
    1402:	f88b 1321 	strb.w	r1, [r11, #801]	; 0x321
    1406:	2008      	movs	r0, #8
    1408:	21f7      	movs	r1, #247	; 0xf7
    140a:	f204 3425 	addw	r4, r4, #805	; 0x325
    140e:	f88b 5320 	strb.w	r5, [r11, #800]	; 0x320
    1412:	f88b 0322 	strb.w	r0, [r11, #802]	; 0x322
    1416:	f88b 1324 	strb.w	r1, [r11, #804]	; 0x324
    141a:	e00f      	b.n	143c <main+0x39c>
    141c:	100007bc 	.word	0x100007bc
    1420:	100004a4 	.word	0x100004a4
    1424:	10000288 	.word	0x10000288
    1428:	10000184 	.word	0x10000184
    142c:	800000ff 	.word	0x800000ff
    1430:	00000b39 	.word	0x00000b39
    1434:	100004b2 	.word	0x100004b2
    1438:	f814 2f01 	ldrb.w	r2, [r4, #1]!
    143c:	4544      	cmp	r4, r8
    143e:	4413      	add	r3, r2
    1440:	d1fa      	bne.n	1438 <main+0x398>
    1442:	43db      	mvns	r3, r3
    1444:	9a01      	ldr	r2, [sp, #4]
    1446:	f88a 332f 	strb.w	r3, [r10, #815]	; 0x32f
    144a:	4614      	mov	r4, r2
    144c:	f102 060f 	add.w	r6, r2, #15
    1450:	21ff      	movs	r1, #255	; 0xff
    1452:	e001      	b.n	1458 <main+0x3b8>
    1454:	f814 1f01 	ldrb.w	r1, [r4, #1]!
    1458:	4dd2      	ldr	r5, [pc, #840]	; (17a4 <main+0x704>)
    145a:	f105 0044 	add.w	r0, r5, #68	; 0x44
    145e:	f003 fa81 	bl	4964 <mbed::Stream::putc(int)>
    1462:	42b4      	cmp	r4, r6
    1464:	d1f6      	bne.n	1454 <main+0x3b4>
    1466:	f505 7082 	add.w	r0, r5, #260	; 0x104
    146a:	f003 faff 	bl	4a6c <mbed::Timer::read_ms()>
    146e:	f8c5 0114 	str.w	r0, [r5, #276]	; 0x114
    1472:	e668      	b.n	1146 <main+0xa6>
    1474:	2303      	movs	r3, #3
    1476:	f8cb 05ec 	str.w	r0, [r11, #1516]	; 0x5ec
    147a:	f8cb 65f4 	str.w	r6, [r11, #1524]	; 0x5f4
    147e:	f8cb 05f8 	str.w	r0, [r11, #1528]	; 0x5f8
    1482:	f8cb 35e8 	str.w	r3, [r11, #1512]	; 0x5e8
    1486:	e65e      	b.n	1146 <main+0xa6>
    1488:	f8db 35ec 	ldr.w	r3, [r11, #1516]	; 0x5ec
    148c:	2204      	movs	r2, #4
    148e:	eb03 2000 	add.w	r0, r3, r0, lsl #8
    1492:	f8cb 05ec 	str.w	r0, [r11, #1516]	; 0x5ec
    1496:	f8cb 25e8 	str.w	r2, [r11, #1512]	; 0x5e8
    149a:	e654      	b.n	1146 <main+0xa6>
    149c:	4ac2      	ldr	r2, [pc, #776]	; (17a8 <main+0x708>)
    149e:	401a      	ands	r2, r3
    14a0:	2a00      	cmp	r2, #0
    14a2:	db21      	blt.n	14e8 <main+0x448>
    14a4:	2aff      	cmp	r2, #255	; 0xff
    14a6:	bf0c      	ite	eq
    14a8:	2305      	moveq	r3, #5
    14aa:	2300      	movne	r3, #0
    14ac:	f8ca 35e8 	str.w	r3, [r10, #1512]	; 0x5e8
    14b0:	e649      	b.n	1146 <main+0xa6>
    14b2:	2302      	movs	r3, #2
    14b4:	f8cb 35e8 	str.w	r3, [r11, #1512]	; 0x5e8
    14b8:	e645      	b.n	1146 <main+0xa6>
    14ba:	2306      	movs	r3, #6
    14bc:	f8cb 05f0 	str.w	r0, [r11, #1520]	; 0x5f0
    14c0:	f8cb 05f8 	str.w	r0, [r11, #1528]	; 0x5f8
    14c4:	f8cb 35e8 	str.w	r3, [r11, #1512]	; 0x5e8
    14c8:	e63d      	b.n	1146 <main+0xa6>
    14ca:	f8da 35f0 	ldr.w	r3, [r10, #1520]	; 0x5f0
    14ce:	f8da 25ec 	ldr.w	r2, [r10, #1516]	; 0x5ec
    14d2:	eb03 2300 	add.w	r3, r3, r0, lsl #8
    14d6:	2107      	movs	r1, #7
    14d8:	f8ca 35f0 	str.w	r3, [r10, #1520]	; 0x5f0
    14dc:	f8ca 15e8 	str.w	r1, [r10, #1512]	; 0x5e8
    14e0:	2a00      	cmp	r2, #0
    14e2:	f43f af5a 	beq.w	139a <main+0x2fa>
    14e6:	e62e      	b.n	1146 <main+0xa6>
    14e8:	3a01      	subs	r2, #1
    14ea:	f062 02ff 	orn	r2, r2, #255	; 0xff
    14ee:	3201      	adds	r2, #1
    14f0:	e7d8      	b.n	14a4 <main+0x404>
    14f2:	240a      	movs	r4, #10
    14f4:	25ff      	movs	r5, #255	; 0xff
    14f6:	4bad      	ldr	r3, [pc, #692]	; (17ac <main+0x70c>)
    14f8:	2000      	movs	r0, #0
    14fa:	4621      	mov	r1, r4
    14fc:	26fe      	movs	r6, #254	; 0xfe
    14fe:	f88b 4325 	strb.w	r4, [r11, #805]	; 0x325
    1502:	f88b 5320 	strb.w	r5, [r11, #800]	; 0x320
    1506:	24f7      	movs	r4, #247	; 0xf7
    1508:	2508      	movs	r5, #8
    150a:	4602      	mov	r2, r0
    150c:	f88b 0327 	strb.w	r0, [r11, #807]	; 0x327
    1510:	f88b 0328 	strb.w	r0, [r11, #808]	; 0x328
    1514:	f88b 0329 	strb.w	r0, [r11, #809]	; 0x329
    1518:	f88b 032a 	strb.w	r0, [r11, #810]	; 0x32a
    151c:	f88b 032b 	strb.w	r0, [r11, #811]	; 0x32b
    1520:	f88b 032c 	strb.w	r0, [r11, #812]	; 0x32c
    1524:	f88b 032d 	strb.w	r0, [r11, #813]	; 0x32d
    1528:	f88b 032e 	strb.w	r0, [r11, #814]	; 0x32e
    152c:	f88b 0323 	strb.w	r0, [r11, #803]	; 0x323
    1530:	f88b 0326 	strb.w	r0, [r11, #806]	; 0x326
    1534:	f88b 6321 	strb.w	r6, [r11, #801]	; 0x321
    1538:	f103 0009 	add.w	r0, r3, #9
    153c:	f88b 5322 	strb.w	r5, [r11, #802]	; 0x322
    1540:	f88b 4324 	strb.w	r4, [r11, #804]	; 0x324
    1544:	e001      	b.n	154a <main+0x4aa>
    1546:	f813 1f01 	ldrb.w	r1, [r3, #1]!
    154a:	4283      	cmp	r3, r0
    154c:	440a      	add	r2, r1
    154e:	d1fa      	bne.n	1546 <main+0x4a6>
    1550:	43d2      	mvns	r2, r2
    1552:	9b01      	ldr	r3, [sp, #4]
    1554:	f88a 232f 	strb.w	r2, [r10, #815]	; 0x32f
    1558:	461c      	mov	r4, r3
    155a:	f103 060f 	add.w	r6, r3, #15
    155e:	21ff      	movs	r1, #255	; 0xff
    1560:	e001      	b.n	1566 <main+0x4c6>
    1562:	f814 1f01 	ldrb.w	r1, [r4, #1]!
    1566:	4d8f      	ldr	r5, [pc, #572]	; (17a4 <main+0x704>)
    1568:	f105 0044 	add.w	r0, r5, #68	; 0x44
    156c:	f003 f9fa 	bl	4964 <mbed::Stream::putc(int)>
    1570:	42b4      	cmp	r4, r6
    1572:	d1f6      	bne.n	1562 <main+0x4c2>
    1574:	f505 7082 	add.w	r0, r5, #260	; 0x104
    1578:	f003 fa78 	bl	4a6c <mbed::Timer::read_ms()>
    157c:	f8c5 9600 	str.w	r9, [r5, #1536]	; 0x600
    1580:	f8c5 0114 	str.w	r0, [r5, #276]	; 0x114
    1584:	e5c2      	b.n	110c <main+0x6c>
    1586:	3a01      	subs	r2, #1
    1588:	f062 02ff 	orn	r2, r2, #255	; 0xff
    158c:	3201      	adds	r2, #1
    158e:	e619      	b.n	11c4 <main+0x124>
    1590:	2300      	movs	r3, #0
    1592:	f88b 35fc 	strb.w	r3, [r11, #1532]	; 0x5fc
    1596:	e5d6      	b.n	1146 <main+0xa6>
    1598:	f89b 4120 	ldrb.w	r4, [r11, #288]	; 0x120
    159c:	f89b 3614 	ldrb.w	r3, [r11, #1556]	; 0x614
    15a0:	42a3      	cmp	r3, r4
    15a2:	d206      	bcs.n	15b2 <main+0x512>
    15a4:	f8db 061c 	ldr.w	r0, [r11, #1564]	; 0x61c
    15a8:	00a1      	lsls	r1, r4, #2
    15aa:	f001 fb0f 	bl	2bcc <__wrap_realloc>
    15ae:	f8cb 061c 	str.w	r0, [r11, #1564]	; 0x61c
    15b2:	f88a 4614 	strb.w	r4, [r10, #1556]	; 0x614
    15b6:	2c00      	cmp	r4, #0
    15b8:	f000 8328 	beq.w	1c0c <main+0xb6c>
    15bc:	f8df a1e4 	ldr.w	r10, [pc, #484]	; 17a4 <main+0x704>
    15c0:	2600      	movs	r6, #0
    15c2:	4654      	mov	r4, r10
    15c4:	2504      	movs	r5, #4
    15c6:	f894 3126 	ldrb.w	r3, [r4, #294]	; 0x126
    15ca:	f894 1125 	ldrb.w	r1, [r4, #293]	; 0x125
    15ce:	f894 2124 	ldrb.w	r2, [r4, #292]	; 0x124
    15d2:	041b      	lsls	r3, r3, #16
    15d4:	ea43 2301 	orr.w	r3, r3, r1, lsl #8
    15d8:	f894 1127 	ldrb.w	r1, [r4, #295]	; 0x127
    15dc:	4313      	orrs	r3, r2
    15de:	ea43 6301 	orr.w	r3, r3, r1, lsl #24
    15e2:	f8ca 3618 	str.w	r3, [r10, #1560]	; 0x618
    15e6:	4b72      	ldr	r3, [pc, #456]	; (17b0 <main+0x710>)
    15e8:	f8da 261c 	ldr.w	r2, [r10, #1564]	; 0x61c
    15ec:	6818      	ldr	r0, [r3, #0]
    15ee:	ebcb 0304 	rsb	r3, r11, r4
    15f2:	50d0      	str	r0, [r2, r3]
    15f4:	3601      	adds	r6, #1
    15f6:	f89a 3614 	ldrb.w	r3, [r10, #1556]	; 0x614
    15fa:	b2f6      	uxtb	r6, r6
    15fc:	42b3      	cmp	r3, r6
    15fe:	f105 0504 	add.w	r5, r5, #4
    1602:	f104 0404 	add.w	r4, r4, #4
    1606:	d8de      	bhi.n	15c6 <main+0x526>
    1608:	1d2e      	adds	r6, r5, #4
    160a:	4634      	mov	r4, r6
    160c:	4455      	add	r5, r10
    160e:	f895 5120 	ldrb.w	r5, [r5, #288]	; 0x120
    1612:	f89a 3620 	ldrb.w	r3, [r10, #1568]	; 0x620
    1616:	42ab      	cmp	r3, r5
    1618:	d206      	bcs.n	1628 <main+0x588>
    161a:	f8db 0628 	ldr.w	r0, [r11, #1576]	; 0x628
    161e:	00a9      	lsls	r1, r5, #2
    1620:	f001 fad4 	bl	2bcc <__wrap_realloc>
    1624:	f8cb 0628 	str.w	r0, [r11, #1576]	; 0x628
    1628:	f88a 5620 	strb.w	r5, [r10, #1568]	; 0x620
    162c:	b325      	cbz	r5, 1678 <main+0x5d8>
    162e:	eb0b 0504 	add.w	r5, r11, r4
    1632:	462f      	mov	r7, r5
    1634:	2600      	movs	r6, #0
    1636:	f895 3122 	ldrb.w	r3, [r5, #290]	; 0x122
    163a:	f895 1121 	ldrb.w	r1, [r5, #289]	; 0x121
    163e:	f895 2120 	ldrb.w	r2, [r5, #288]	; 0x120
    1642:	041b      	lsls	r3, r3, #16
    1644:	ea43 2301 	orr.w	r3, r3, r1, lsl #8
    1648:	f895 1123 	ldrb.w	r1, [r5, #291]	; 0x123
    164c:	4313      	orrs	r3, r2
    164e:	ea43 6301 	orr.w	r3, r3, r1, lsl #24
    1652:	f8ca 3624 	str.w	r3, [r10, #1572]	; 0x624
    1656:	4b57      	ldr	r3, [pc, #348]	; (17b4 <main+0x714>)
    1658:	1bea      	subs	r2, r5, r7
    165a:	6818      	ldr	r0, [r3, #0]
    165c:	f8da 3628 	ldr.w	r3, [r10, #1576]	; 0x628
    1660:	3601      	adds	r6, #1
    1662:	5098      	str	r0, [r3, r2]
    1664:	f89a 3620 	ldrb.w	r3, [r10, #1568]	; 0x620
    1668:	b2f6      	uxtb	r6, r6
    166a:	42b3      	cmp	r3, r6
    166c:	f104 0404 	add.w	r4, r4, #4
    1670:	f105 0504 	add.w	r5, r5, #4
    1674:	d8df      	bhi.n	1636 <main+0x596>
    1676:	4626      	mov	r6, r4
    1678:	4456      	add	r6, r10
    167a:	f896 5120 	ldrb.w	r5, [r6, #288]	; 0x120
    167e:	f89a 362c 	ldrb.w	r3, [r10, #1580]	; 0x62c
    1682:	42ab      	cmp	r3, r5
    1684:	d206      	bcs.n	1694 <main+0x5f4>
    1686:	f8db 0634 	ldr.w	r0, [r11, #1588]	; 0x634
    168a:	00a9      	lsls	r1, r5, #2
    168c:	f001 fa9e 	bl	2bcc <__wrap_realloc>
    1690:	f8cb 0634 	str.w	r0, [r11, #1588]	; 0x634
    1694:	3404      	adds	r4, #4
    1696:	f88a 562c 	strb.w	r5, [r10, #1580]	; 0x62c
    169a:	b375      	cbz	r5, 16fa <main+0x65a>
    169c:	2700      	movs	r7, #0
    169e:	46be      	mov	lr, r7
    16a0:	f504 7390 	add.w	r3, r4, #288	; 0x120
    16a4:	f85a 0003 	ldr.w	r0, [r10, r3]
    16a8:	1d26      	adds	r6, r4, #4
    16aa:	9007      	str	r0, [sp, #28]
    16ac:	9d07      	ldr	r5, [sp, #28]
    16ae:	4435      	add	r5, r6
    16b0:	42b5      	cmp	r5, r6
    16b2:	d90c      	bls.n	16ce <main+0x62e>
    16b4:	4633      	mov	r3, r6
    16b6:	f504 7291 	add.w	r2, r4, #290	; 0x122
    16ba:	445a      	add	r2, r11
    16bc:	eb0a 0103 	add.w	r1, r10, r3
    16c0:	f891 1120 	ldrb.w	r1, [r1, #288]	; 0x120
    16c4:	3301      	adds	r3, #1
    16c6:	429d      	cmp	r5, r3
    16c8:	f802 1f01 	strb.w	r1, [r2, #1]!
    16cc:	d8f6      	bhi.n	16bc <main+0x61c>
    16ce:	f206 131f 	addw	r3, r6, #287	; 0x11f
    16d2:	4453      	add	r3, r10
    16d4:	f8ca 3630 	str.w	r3, [r10, #1584]	; 0x630
    16d8:	4b37      	ldr	r3, [pc, #220]	; (17b8 <main+0x718>)
    16da:	eb0a 0205 	add.w	r2, r10, r5
    16de:	6818      	ldr	r0, [r3, #0]
    16e0:	f8da 3634 	ldr.w	r3, [r10, #1588]	; 0x634
    16e4:	f882 e11f 	strb.w	lr, [r2, #287]	; 0x11f
    16e8:	f843 0027 	str.w	r0, [r3, r7, lsl #2]
    16ec:	f89a 362c 	ldrb.w	r3, [r10, #1580]	; 0x62c
    16f0:	3701      	adds	r7, #1
    16f2:	b2ff      	uxtb	r7, r7
    16f4:	42bb      	cmp	r3, r7
    16f6:	462c      	mov	r4, r5
    16f8:	d8d2      	bhi.n	16a0 <main+0x600>
    16fa:	2301      	movs	r3, #1
    16fc:	f88a 360c 	strb.w	r3, [r10, #1548]	; 0x60c
    1700:	e521      	b.n	1146 <main+0xa6>
    1702:	f505 7082 	add.w	r0, r5, #260	; 0x104
    1706:	f003 f9b1 	bl	4a6c <mbed::Timer::read_ms()>
    170a:	f89b 1122 	ldrb.w	r1, [r11, #290]	; 0x122
    170e:	f89b 3126 	ldrb.w	r3, [r11, #294]	; 0x126
    1712:	f89b e121 	ldrb.w	lr, [r11, #289]	; 0x121
    1716:	f89b 6125 	ldrb.w	r6, [r11, #293]	; 0x125
    171a:	0409      	lsls	r1, r1, #16
    171c:	f89b 7120 	ldrb.w	r7, [r11, #288]	; 0x120
    1720:	041a      	lsls	r2, r3, #16
    1722:	ea41 230e 	orr.w	r3, r1, lr, lsl #8
    1726:	f89b 1124 	ldrb.w	r1, [r11, #292]	; 0x124
    172a:	f89b e127 	ldrb.w	lr, [r11, #295]	; 0x127
    172e:	f8db 4114 	ldr.w	r4, [r11, #276]	; 0x114
    1732:	ea42 2206 	orr.w	r2, r2, r6, lsl #8
    1736:	f89b 6123 	ldrb.w	r6, [r11, #291]	; 0x123
    173a:	430a      	orrs	r2, r1
    173c:	433b      	orrs	r3, r7
    173e:	4f1f      	ldr	r7, [pc, #124]	; (17bc <main+0x71c>)
    1740:	ea42 620e 	orr.w	r2, r2, lr, lsl #24
    1744:	1b04      	subs	r4, r0, r4
    1746:	ea43 6306 	orr.w	r3, r3, r6, lsl #24
    174a:	f505 7082 	add.w	r0, r5, #260	; 0x104
    174e:	4417      	add	r7, r2
    1750:	1e5e      	subs	r6, r3, #1
    1752:	f003 f98b 	bl	4a6c <mbed::Timer::read_ms()>
    1756:	4b1a      	ldr	r3, [pc, #104]	; (17c0 <main+0x720>)
    1758:	4919      	ldr	r1, [pc, #100]	; (17c0 <main+0x720>)
    175a:	fba3 2304 	umull	r2, r3, r3, r4
    175e:	fba1 e100 	umull	lr, r1, r1, r0
    1762:	f44f 727a 	mov.w	r2, #1000	; 0x3e8
    1766:	099b      	lsrs	r3, r3, #6
    1768:	fb02 4413 	mls	r4, r2, r3, r4
    176c:	0989      	lsrs	r1, r1, #6
    176e:	fb02 0211 	mls	r2, r2, r1, r0
    1772:	4814      	ldr	r0, [pc, #80]	; (17c4 <main+0x724>)
    1774:	4433      	add	r3, r6
    1776:	fb00 7704 	mla	r7, r0, r4, r7
    177a:	fb00 7212 	mls	r2, r0, r2, r7
    177e:	1a5b      	subs	r3, r3, r1
    1780:	f505 708c 	add.w	r0, r5, #280	; 0x118
    1784:	f505 718e 	add.w	r1, r5, #284	; 0x11c
    1788:	f8cb 211c 	str.w	r2, [r11, #284]	; 0x11c
    178c:	f8cb 3118 	str.w	r3, [r11, #280]	; 0x118
    1790:	f001 fa30 	bl	2bf4 <ros::normalizeSecNSec(unsigned long&, unsigned long&)>
    1794:	f505 7082 	add.w	r0, r5, #260	; 0x104
    1798:	f003 f968 	bl	4a6c <mbed::Timer::read_ms()>
    179c:	f8cb 0604 	str.w	r0, [r11, #1540]	; 0x604
    17a0:	e4d1      	b.n	1146 <main+0xa6>
    17a2:	bf00      	nop
    17a4:	10000184 	.word	0x10000184
    17a8:	800000ff 	.word	0x800000ff
    17ac:	100004a9 	.word	0x100004a9
    17b0:	1000079c 	.word	0x1000079c
    17b4:	100007a8 	.word	0x100007a8
    17b8:	100007b4 	.word	0x100007b4
    17bc:	3b9aca00 	.word	0x3b9aca00
    17c0:	10624dd3 	.word	0x10624dd3
    17c4:	000f4240 	.word	0x000f4240
    17c8:	f885 3327 	strb.w	r3, [r5, #807]	; 0x327
    17cc:	f885 3328 	strb.w	r3, [r5, #808]	; 0x328
    17d0:	f885 3329 	strb.w	r3, [r5, #809]	; 0x329
    17d4:	f885 332a 	strb.w	r3, [r5, #810]	; 0x32a
    17d8:	f885 332b 	strb.w	r3, [r5, #811]	; 0x32b
    17dc:	f885 332c 	strb.w	r3, [r5, #812]	; 0x32c
    17e0:	f885 332d 	strb.w	r3, [r5, #813]	; 0x32d
    17e4:	f885 332e 	strb.w	r3, [r5, #814]	; 0x32e
    17e8:	f885 3323 	strb.w	r3, [r5, #803]	; 0x323
    17ec:	f885 3326 	strb.w	r3, [r5, #806]	; 0x326
    17f0:	4619      	mov	r1, r3
    17f2:	23fe      	movs	r3, #254	; 0xfe
    17f4:	240a      	movs	r4, #10
    17f6:	f885 2320 	strb.w	r2, [r5, #800]	; 0x320
    17fa:	f885 3321 	strb.w	r3, [r5, #801]	; 0x321
    17fe:	2208      	movs	r2, #8
    1800:	23f7      	movs	r3, #247	; 0xf7
    1802:	f885 3324 	strb.w	r3, [r5, #804]	; 0x324
    1806:	f885 4325 	strb.w	r4, [r5, #805]	; 0x325
    180a:	f885 2322 	strb.w	r2, [r5, #802]	; 0x322
    180e:	f205 332e 	addw	r3, r5, #814	; 0x32e
    1812:	4620      	mov	r0, r4
    1814:	f205 3525 	addw	r5, r5, #805	; 0x325
    1818:	e001      	b.n	181e <main+0x77e>
    181a:	f815 0f01 	ldrb.w	r0, [r5, #1]!
    181e:	429d      	cmp	r5, r3
    1820:	4401      	add	r1, r0
    1822:	d1fa      	bne.n	181a <main+0x77a>
    1824:	43c9      	mvns	r1, r1
    1826:	4bc4      	ldr	r3, [pc, #784]	; (1b38 <main+0xa98>)
    1828:	f88a 132f 	strb.w	r1, [r10, #815]	; 0x32f
    182c:	9301      	str	r3, [sp, #4]
    182e:	461d      	mov	r5, r3
    1830:	21ff      	movs	r1, #255	; 0xff
    1832:	e001      	b.n	1838 <main+0x798>
    1834:	f815 1f01 	ldrb.w	r1, [r5, #1]!
    1838:	4cc0      	ldr	r4, [pc, #768]	; (1b3c <main+0xa9c>)
    183a:	f104 0044 	add.w	r0, r4, #68	; 0x44
    183e:	f003 f891 	bl	4964 <mbed::Stream::putc(int)>
    1842:	f204 332f 	addw	r3, r4, #815	; 0x32f
    1846:	429d      	cmp	r5, r3
    1848:	d1f4      	bne.n	1834 <main+0x794>
    184a:	f504 7082 	add.w	r0, r4, #260	; 0x104
    184e:	f003 f90d 	bl	4a6c <mbed::Timer::read_ms()>
    1852:	f504 63b0 	add.w	r3, r4, #1408	; 0x580
    1856:	f8c4 0114 	str.w	r0, [r4, #276]	; 0x114
    185a:	f204 581c 	addw	r8, r4, #1308	; 0x51c
    185e:	9302      	str	r3, [sp, #8]
    1860:	f858 3f04 	ldr.w	r3, [r8, #4]!
    1864:	2b00      	cmp	r3, #0
    1866:	f000 809f 	beq.w	19a8 <main+0x908>
    186a:	6858      	ldr	r0, [r3, #4]
    186c:	689a      	ldr	r2, [r3, #8]
    186e:	6801      	ldr	r1, [r0, #0]
    1870:	9203      	str	r2, [sp, #12]
    1872:	6889      	ldr	r1, [r1, #8]
    1874:	681f      	ldr	r7, [r3, #0]
    1876:	4788      	blx	r1
    1878:	f8d8 3000 	ldr.w	r3, [r8]
    187c:	4604      	mov	r4, r0
    187e:	6858      	ldr	r0, [r3, #4]
    1880:	6803      	ldr	r3, [r0, #0]
    1882:	68db      	ldr	r3, [r3, #12]
    1884:	4798      	blx	r3
    1886:	f8d8 3000 	ldr.w	r3, [r8]
    188a:	4606      	mov	r6, r0
    188c:	691d      	ldr	r5, [r3, #16]
    188e:	9a03      	ldr	r2, [sp, #12]
    1890:	2d63      	cmp	r5, #99	; 0x63
    1892:	dd04      	ble.n	189e <main+0x7fe>
    1894:	f89a 35fc 	ldrb.w	r3, [r10, #1532]	; 0x5fc
    1898:	2b00      	cmp	r3, #0
    189a:	f000 8085 	beq.w	19a8 <main+0x908>
    189e:	f3c2 2307 	ubfx	r3, r2, #8, #8
    18a2:	4638      	mov	r0, r7
    18a4:	f88a 2327 	strb.w	r2, [r10, #807]	; 0x327
    18a8:	f88a 3328 	strb.w	r3, [r10, #808]	; 0x328
    18ac:	f005 f803 	bl	68b6 <strlen>
    18b0:	4603      	mov	r3, r0
    18b2:	9005      	str	r0, [sp, #20]
    18b4:	9805      	ldr	r0, [sp, #20]
    18b6:	4aa2      	ldr	r2, [pc, #648]	; (1b40 <main+0xaa0>)
    18b8:	4639      	mov	r1, r7
    18ba:	6010      	str	r0, [r2, #0]
    18bc:	461a      	mov	r2, r3
    18be:	48a1      	ldr	r0, [pc, #644]	; (1b44 <main+0xaa4>)
    18c0:	9303      	str	r3, [sp, #12]
    18c2:	f004 f945 	bl	5b50 <memcpy>
    18c6:	4620      	mov	r0, r4
    18c8:	f004 fff5 	bl	68b6 <strlen>
    18cc:	9b03      	ldr	r3, [sp, #12]
    18ce:	9006      	str	r0, [sp, #24]
    18d0:	4621      	mov	r1, r4
    18d2:	4607      	mov	r7, r0
    18d4:	4c9c      	ldr	r4, [pc, #624]	; (1b48 <main+0xaa8>)
    18d6:	9806      	ldr	r0, [sp, #24]
    18d8:	1d9a      	adds	r2, r3, #6
    18da:	50a0      	str	r0, [r4, r2]
    18dc:	4620      	mov	r0, r4
    18de:	330a      	adds	r3, #10
    18e0:	463a      	mov	r2, r7
    18e2:	4418      	add	r0, r3
    18e4:	9303      	str	r3, [sp, #12]
    18e6:	f004 f933 	bl	5b50 <memcpy>
    18ea:	4630      	mov	r0, r6
    18ec:	f004 ffe3 	bl	68b6 <strlen>
    18f0:	4604      	mov	r4, r0
    18f2:	9b03      	ldr	r3, [sp, #12]
    18f4:	9007      	str	r0, [sp, #28]
    18f6:	9807      	ldr	r0, [sp, #28]
    18f8:	4a93      	ldr	r2, [pc, #588]	; (1b48 <main+0xaa8>)
    18fa:	441f      	add	r7, r3
    18fc:	51d0      	str	r0, [r2, r7]
    18fe:	4892      	ldr	r0, [pc, #584]	; (1b48 <main+0xaa8>)
    1900:	1d3b      	adds	r3, r7, #4
    1902:	4631      	mov	r1, r6
    1904:	4622      	mov	r2, r4
    1906:	4418      	add	r0, r3
    1908:	9303      	str	r3, [sp, #12]
    190a:	f004 f921 	bl	5b50 <memcpy>
    190e:	9b03      	ldr	r3, [sp, #12]
    1910:	2000      	movs	r0, #0
    1912:	4423      	add	r3, r4
    1914:	1d1e      	adds	r6, r3, #4
    1916:	b2b4      	uxth	r4, r6
    1918:	0a21      	lsrs	r1, r4, #8
    191a:	b2f6      	uxtb	r6, r6
    191c:	198f      	adds	r7, r1, r6
    191e:	43ff      	mvns	r7, r7
    1920:	4453      	add	r3, r10
    1922:	f04f 0e02 	mov.w	lr, #2
    1926:	f883 e328 	strb.w	lr, [r3, #808]	; 0x328
    192a:	f883 0327 	strb.w	r0, [r3, #807]	; 0x327
    192e:	f883 0329 	strb.w	r0, [r3, #809]	; 0x329
    1932:	f883 032a 	strb.w	r0, [r3, #810]	; 0x32a
    1936:	4602      	mov	r2, r0
    1938:	f04f 0eff 	mov.w	lr, #255	; 0xff
    193c:	f204 3026 	addw	r0, r4, #806	; 0x326
    1940:	f88a 7324 	strb.w	r7, [r10, #804]	; 0x324
    1944:	f88a 1323 	strb.w	r1, [r10, #803]	; 0x323
    1948:	27fe      	movs	r7, #254	; 0xfe
    194a:	b2e9      	uxtb	r1, r5
    194c:	f345 2507 	sbfx	r5, r5, #8, #8
    1950:	f88a 6322 	strb.w	r6, [r10, #802]	; 0x322
    1954:	4b7d      	ldr	r3, [pc, #500]	; (1b4c <main+0xaac>)
    1956:	4450      	add	r0, r10
    1958:	f88a e320 	strb.w	lr, [r10, #800]	; 0x320
    195c:	f88a 7321 	strb.w	r7, [r10, #801]	; 0x321
    1960:	f88a 1325 	strb.w	r1, [r10, #805]	; 0x325
    1964:	f88a 5326 	strb.w	r5, [r10, #806]	; 0x326
    1968:	e001      	b.n	196e <main+0x8ce>
    196a:	f813 1f01 	ldrb.w	r1, [r3, #1]!
    196e:	4283      	cmp	r3, r0
    1970:	440a      	add	r2, r1
    1972:	d1fa      	bne.n	196a <main+0x8ca>
    1974:	43d2      	mvns	r2, r2
    1976:	1de1      	adds	r1, r4, #7
    1978:	f104 0308 	add.w	r3, r4, #8
    197c:	b289      	uxth	r1, r1
    197e:	b29b      	uxth	r3, r3
    1980:	4451      	add	r1, r10
    1982:	f5b3 7f00 	cmp.w	r3, #512	; 0x200
    1986:	f881 2320 	strb.w	r2, [r1, #800]	; 0x320
    198a:	f200 8143 	bhi.w	1c14 <main+0xb74>
    198e:	b15b      	cbz	r3, 19a8 <main+0x908>
    1990:	f203 331f 	addw	r3, r3, #799	; 0x31f
    1994:	4c6e      	ldr	r4, [pc, #440]	; (1b50 <main+0xab0>)
    1996:	eb0b 0503 	add.w	r5, r11, r3
    199a:	f814 1f01 	ldrb.w	r1, [r4, #1]!
    199e:	486d      	ldr	r0, [pc, #436]	; (1b54 <main+0xab4>)
    19a0:	f002 ffe0 	bl	4964 <mbed::Stream::putc(int)>
    19a4:	42ac      	cmp	r4, r5
    19a6:	d1f8      	bne.n	199a <main+0x8fa>
    19a8:	9b02      	ldr	r3, [sp, #8]
    19aa:	4598      	cmp	r8, r3
    19ac:	f47f af58 	bne.w	1860 <main+0x7c0>
    19b0:	4b69      	ldr	r3, [pc, #420]	; (1b58 <main+0xab8>)
    19b2:	f1a3 0864 	sub.w	r8, r3, #100	; 0x64
    19b6:	f858 0f04 	ldr.w	r0, [r8, #4]!
    19ba:	2800      	cmp	r0, #0
    19bc:	f000 8099 	beq.w	1af2 <main+0xa52>
    19c0:	e890 0088 	ldmia.w	r0, {r3, r7}
    19c4:	4965      	ldr	r1, [pc, #404]	; (1b5c <main+0xabc>)
    19c6:	689a      	ldr	r2, [r3, #8]
    19c8:	6886      	ldr	r6, [r0, #8]
    19ca:	428a      	cmp	r2, r1
    19cc:	f040 80a7 	bne.w	1b1e <main+0xa7e>
    19d0:	4d63      	ldr	r5, [pc, #396]	; (1b60 <main+0xac0>)
    19d2:	68da      	ldr	r2, [r3, #12]
    19d4:	4963      	ldr	r1, [pc, #396]	; (1b64 <main+0xac4>)
    19d6:	428a      	cmp	r2, r1
    19d8:	f040 809b 	bne.w	1b12 <main+0xa72>
    19dc:	4c62      	ldr	r4, [pc, #392]	; (1b68 <main+0xac8>)
    19de:	685b      	ldr	r3, [r3, #4]
    19e0:	4a62      	ldr	r2, [pc, #392]	; (1b6c <main+0xacc>)
    19e2:	4293      	cmp	r3, r2
    19e4:	f040 8092 	bne.w	1b0c <main+0xa6c>
    19e8:	6c03      	ldr	r3, [r0, #64]	; 0x40
    19ea:	2b63      	cmp	r3, #99	; 0x63
    19ec:	dd03      	ble.n	19f6 <main+0x956>
    19ee:	f89a 25fc 	ldrb.w	r2, [r10, #1532]	; 0x5fc
    19f2:	2a00      	cmp	r2, #0
    19f4:	d07d      	beq.n	1af2 <main+0xa52>
    19f6:	f3c7 2207 	ubfx	r2, r7, #8, #8
    19fa:	4630      	mov	r0, r6
    19fc:	9302      	str	r3, [sp, #8]
    19fe:	f88a 7327 	strb.w	r7, [r10, #807]	; 0x327
    1a02:	f88a 2328 	strb.w	r2, [r10, #808]	; 0x328
    1a06:	f004 ff56 	bl	68b6 <strlen>
    1a0a:	4607      	mov	r7, r0
    1a0c:	9005      	str	r0, [sp, #20]
    1a0e:	4b4c      	ldr	r3, [pc, #304]	; (1b40 <main+0xaa0>)
    1a10:	9805      	ldr	r0, [sp, #20]
    1a12:	4631      	mov	r1, r6
    1a14:	6018      	str	r0, [r3, #0]
    1a16:	463a      	mov	r2, r7
    1a18:	1d18      	adds	r0, r3, #4
    1a1a:	f004 f899 	bl	5b50 <memcpy>
    1a1e:	4628      	mov	r0, r5
    1a20:	f004 ff49 	bl	68b6 <strlen>
    1a24:	4606      	mov	r6, r0
    1a26:	9006      	str	r0, [sp, #24]
    1a28:	4b47      	ldr	r3, [pc, #284]	; (1b48 <main+0xaa8>)
    1a2a:	9806      	ldr	r0, [sp, #24]
    1a2c:	1dba      	adds	r2, r7, #6
    1a2e:	370a      	adds	r7, #10
    1a30:	5098      	str	r0, [r3, r2]
    1a32:	4629      	mov	r1, r5
    1a34:	4632      	mov	r2, r6
    1a36:	19d8      	adds	r0, r3, r7
    1a38:	f004 f88a 	bl	5b50 <memcpy>
    1a3c:	4620      	mov	r0, r4
    1a3e:	f004 ff3a 	bl	68b6 <strlen>
    1a42:	4605      	mov	r5, r0
    1a44:	9007      	str	r0, [sp, #28]
    1a46:	4b40      	ldr	r3, [pc, #256]	; (1b48 <main+0xaa8>)
    1a48:	443e      	add	r6, r7
    1a4a:	9807      	ldr	r0, [sp, #28]
    1a4c:	1d37      	adds	r7, r6, #4
    1a4e:	5198      	str	r0, [r3, r6]
    1a50:	4621      	mov	r1, r4
    1a52:	462a      	mov	r2, r5
    1a54:	19d8      	adds	r0, r3, r7
    1a56:	f004 f87b 	bl	5b50 <memcpy>
    1a5a:	1979      	adds	r1, r7, r5
    1a5c:	1d0d      	adds	r5, r1, #4
    1a5e:	b2ac      	uxth	r4, r5
    1a60:	ea4f 2e14 	mov.w	lr, r4, lsr #8
    1a64:	b2ed      	uxtb	r5, r5
    1a66:	eb0e 0605 	add.w	r6, lr, r5
    1a6a:	43f6      	mvns	r6, r6
    1a6c:	9b02      	ldr	r3, [sp, #8]
    1a6e:	2000      	movs	r0, #0
    1a70:	4451      	add	r1, r10
    1a72:	2702      	movs	r7, #2
    1a74:	f881 7328 	strb.w	r7, [r1, #808]	; 0x328
    1a78:	f881 0327 	strb.w	r0, [r1, #807]	; 0x327
    1a7c:	f881 0329 	strb.w	r0, [r1, #809]	; 0x329
    1a80:	f881 032a 	strb.w	r0, [r1, #810]	; 0x32a
    1a84:	4602      	mov	r2, r0
    1a86:	b2d9      	uxtb	r1, r3
    1a88:	f204 3026 	addw	r0, r4, #806	; 0x326
    1a8c:	27ff      	movs	r7, #255	; 0xff
    1a8e:	f88a 6324 	strb.w	r6, [r10, #804]	; 0x324
    1a92:	f88a e323 	strb.w	lr, [r10, #803]	; 0x323
    1a96:	26fe      	movs	r6, #254	; 0xfe
    1a98:	f343 2e07 	sbfx	lr, r3, #8, #8
    1a9c:	f88a 5322 	strb.w	r5, [r10, #802]	; 0x322
    1aa0:	4b2a      	ldr	r3, [pc, #168]	; (1b4c <main+0xaac>)
    1aa2:	4450      	add	r0, r10
    1aa4:	f88a 7320 	strb.w	r7, [r10, #800]	; 0x320
    1aa8:	f88a 6321 	strb.w	r6, [r10, #801]	; 0x321
    1aac:	f88a 1325 	strb.w	r1, [r10, #805]	; 0x325
    1ab0:	f88a e326 	strb.w	lr, [r10, #806]	; 0x326
    1ab4:	e001      	b.n	1aba <main+0xa1a>
    1ab6:	f813 1f01 	ldrb.w	r1, [r3, #1]!
    1aba:	4283      	cmp	r3, r0
    1abc:	440a      	add	r2, r1
    1abe:	d1fa      	bne.n	1ab6 <main+0xa16>
    1ac0:	43d2      	mvns	r2, r2
    1ac2:	1de1      	adds	r1, r4, #7
    1ac4:	f104 0308 	add.w	r3, r4, #8
    1ac8:	b289      	uxth	r1, r1
    1aca:	b29b      	uxth	r3, r3
    1acc:	4451      	add	r1, r10
    1ace:	f5b3 7f00 	cmp.w	r3, #512	; 0x200
    1ad2:	f881 2320 	strb.w	r2, [r1, #800]	; 0x320
    1ad6:	d84b      	bhi.n	1b70 <main+0xad0>
    1ad8:	b15b      	cbz	r3, 1af2 <main+0xa52>
    1ada:	f203 331f 	addw	r3, r3, #799	; 0x31f
    1ade:	4c1c      	ldr	r4, [pc, #112]	; (1b50 <main+0xab0>)
    1ae0:	eb0b 0503 	add.w	r5, r11, r3
    1ae4:	f814 1f01 	ldrb.w	r1, [r4, #1]!
    1ae8:	481a      	ldr	r0, [pc, #104]	; (1b54 <main+0xab4>)
    1aea:	f002 ff3b 	bl	4964 <mbed::Stream::putc(int)>
    1aee:	42ac      	cmp	r4, r5
    1af0:	d1f8      	bne.n	1ae4 <main+0xa44>
    1af2:	4b19      	ldr	r3, [pc, #100]	; (1b58 <main+0xab8>)
    1af4:	4598      	cmp	r8, r3
    1af6:	f47f af5e 	bne.w	19b6 <main+0x916>
    1afa:	2301      	movs	r3, #1
    1afc:	f8ca 9600 	str.w	r9, [r10, #1536]	; 0x600
    1b00:	f8ca 9604 	str.w	r9, [r10, #1540]	; 0x604
    1b04:	f88a 35fc 	strb.w	r3, [r10, #1532]	; 0x5fc
    1b08:	f7ff bb00 	b.w	110c <main+0x6c>
    1b0c:	4798      	blx	r3
    1b0e:	4603      	mov	r3, r0
    1b10:	e76b      	b.n	19ea <main+0x94a>
    1b12:	4790      	blx	r2
    1b14:	4604      	mov	r4, r0
    1b16:	f8d8 0000 	ldr.w	r0, [r8]
    1b1a:	6803      	ldr	r3, [r0, #0]
    1b1c:	e75f      	b.n	19de <main+0x93e>
    1b1e:	4790      	blx	r2
    1b20:	4605      	mov	r5, r0
    1b22:	f8d8 0000 	ldr.w	r0, [r8]
    1b26:	6803      	ldr	r3, [r0, #0]
    1b28:	e753      	b.n	19d2 <main+0x932>
    1b2a:	4620      	mov	r0, r4
    1b2c:	f505 7190 	add.w	r1, r5, #288	; 0x120
    1b30:	4798      	blx	r3
    1b32:	f7ff bb08 	b.w	1146 <main+0xa6>
    1b36:	bf00      	nop
    1b38:	100004a4 	.word	0x100004a4
    1b3c:	10000184 	.word	0x10000184
    1b40:	100004ad 	.word	0x100004ad
    1b44:	100004b1 	.word	0x100004b1
    1b48:	100004ab 	.word	0x100004ab
    1b4c:	100004a9 	.word	0x100004a9
    1b50:	100004a3 	.word	0x100004a3
    1b54:	100001c8 	.word	0x100001c8
    1b58:	10000768 	.word	0x10000768
    1b5c:	00000285 	.word	0x00000285
    1b60:	000076bc 	.word	0x000076bc
    1b64:	0000028d 	.word	0x0000028d
    1b68:	000076d8 	.word	0x000076d8
    1b6c:	00000281 	.word	0x00000281
    1b70:	4d4b      	ldr	r5, [pc, #300]	; (1ca0 <main+0xc00>)
    1b72:	4c4c      	ldr	r4, [pc, #304]	; (1ca4 <main+0xc04>)
    1b74:	cd0f      	ldmia	r5!, {r0, r1, r2, r3}
    1b76:	c40f      	stmia	r4!, {r0, r1, r2, r3}
    1b78:	cd0f      	ldmia	r5!, {r0, r1, r2, r3}
    1b7a:	c40f      	stmia	r4!, {r0, r1, r2, r3}
    1b7c:	cd0f      	ldmia	r5!, {r0, r1, r2, r3}
    1b7e:	c40f      	stmia	r4!, {r0, r1, r2, r3}
    1b80:	e895 0003 	ldmia.w	r5, {r0, r1}
    1b84:	2303      	movs	r3, #3
    1b86:	f88b 3327 	strb.w	r3, [r11, #807]	; 0x327
    1b8a:	2338      	movs	r3, #56	; 0x38
    1b8c:	f8cb 3328 	str.w	r3, [r11, #808]	; 0x328
    1b90:	23ff      	movs	r3, #255	; 0xff
    1b92:	e884 0003 	stmia.w	r4, {r0, r1}
    1b96:	f88b 3320 	strb.w	r3, [r11, #800]	; 0x320
    1b9a:	23fe      	movs	r3, #254	; 0xfe
    1b9c:	f88b 3321 	strb.w	r3, [r11, #801]	; 0x321
    1ba0:	233d      	movs	r3, #61	; 0x3d
    1ba2:	2700      	movs	r7, #0
    1ba4:	f04f 0e07 	mov.w	lr, #7
    1ba8:	f88b 3322 	strb.w	r3, [r11, #802]	; 0x322
    1bac:	23c2      	movs	r3, #194	; 0xc2
    1bae:	f88b 7323 	strb.w	r7, [r11, #803]	; 0x323
    1bb2:	eb04 020e 	add.w	r2, r4, lr
    1bb6:	463e      	mov	r6, r7
    1bb8:	46f4      	mov	r12, lr
    1bba:	3c37      	subs	r4, #55	; 0x37
    1bbc:	f88b 7326 	strb.w	r7, [r11, #806]	; 0x326
    1bc0:	f88b e325 	strb.w	lr, [r11, #805]	; 0x325
    1bc4:	f88b 3324 	strb.w	r3, [r11, #804]	; 0x324
    1bc8:	e001      	b.n	1bce <main+0xb2e>
    1bca:	f814 cf01 	ldrb.w	r12, [r4, #1]!
    1bce:	4294      	cmp	r4, r2
    1bd0:	4466      	add	r6, r12
    1bd2:	d1fa      	bne.n	1bca <main+0xb2a>
    1bd4:	43f3      	mvns	r3, r6
    1bd6:	4d34      	ldr	r5, [pc, #208]	; (1ca8 <main+0xc08>)
    1bd8:	f88a 3364 	strb.w	r3, [r10, #868]	; 0x364
    1bdc:	f1a5 0444 	sub.w	r4, r5, #68	; 0x44
    1be0:	21ff      	movs	r1, #255	; 0xff
    1be2:	e001      	b.n	1be8 <main+0xb48>
    1be4:	f814 1f01 	ldrb.w	r1, [r4, #1]!
    1be8:	4830      	ldr	r0, [pc, #192]	; (1cac <main+0xc0c>)
    1bea:	f002 febb 	bl	4964 <mbed::Stream::putc(int)>
    1bee:	42ac      	cmp	r4, r5
    1bf0:	d1f8      	bne.n	1be4 <main+0xb44>
    1bf2:	4b2f      	ldr	r3, [pc, #188]	; (1cb0 <main+0xc10>)
    1bf4:	4598      	cmp	r8, r3
    1bf6:	f47f aede 	bne.w	19b6 <main+0x916>
    1bfa:	e77e      	b.n	1afa <main+0xa5a>
    1bfc:	2208      	movs	r2, #8
    1bfe:	2107      	movs	r1, #7
    1c00:	2006      	movs	r0, #6
    1c02:	2605      	movs	r6, #5
    1c04:	2304      	movs	r3, #4
    1c06:	250c      	movs	r5, #12
    1c08:	f7ff bb6d 	b.w	12e6 <main+0x246>
    1c0c:	2608      	movs	r6, #8
    1c0e:	4634      	mov	r4, r6
    1c10:	2504      	movs	r5, #4
    1c12:	e4fb      	b.n	160c <main+0x56c>
    1c14:	4d22      	ldr	r5, [pc, #136]	; (1ca0 <main+0xc00>)
    1c16:	4c23      	ldr	r4, [pc, #140]	; (1ca4 <main+0xc04>)
    1c18:	cd0f      	ldmia	r5!, {r0, r1, r2, r3}
    1c1a:	c40f      	stmia	r4!, {r0, r1, r2, r3}
    1c1c:	cd0f      	ldmia	r5!, {r0, r1, r2, r3}
    1c1e:	c40f      	stmia	r4!, {r0, r1, r2, r3}
    1c20:	cd0f      	ldmia	r5!, {r0, r1, r2, r3}
    1c22:	c40f      	stmia	r4!, {r0, r1, r2, r3}
    1c24:	e895 0003 	ldmia.w	r5, {r0, r1}
    1c28:	2303      	movs	r3, #3
    1c2a:	f88b 3327 	strb.w	r3, [r11, #807]	; 0x327
    1c2e:	2338      	movs	r3, #56	; 0x38
    1c30:	f8cb 3328 	str.w	r3, [r11, #808]	; 0x328
    1c34:	23ff      	movs	r3, #255	; 0xff
    1c36:	e884 0003 	stmia.w	r4, {r0, r1}
    1c3a:	f88b 3320 	strb.w	r3, [r11, #800]	; 0x320
    1c3e:	23fe      	movs	r3, #254	; 0xfe
    1c40:	f88b 3321 	strb.w	r3, [r11, #801]	; 0x321
    1c44:	233d      	movs	r3, #61	; 0x3d
    1c46:	2700      	movs	r7, #0
    1c48:	f04f 0e07 	mov.w	lr, #7
    1c4c:	f88b 3322 	strb.w	r3, [r11, #802]	; 0x322
    1c50:	23c2      	movs	r3, #194	; 0xc2
    1c52:	f88b 7323 	strb.w	r7, [r11, #803]	; 0x323
    1c56:	eb04 020e 	add.w	r2, r4, lr
    1c5a:	463e      	mov	r6, r7
    1c5c:	46f4      	mov	r12, lr
    1c5e:	3c37      	subs	r4, #55	; 0x37
    1c60:	f88b 7326 	strb.w	r7, [r11, #806]	; 0x326
    1c64:	f88b e325 	strb.w	lr, [r11, #805]	; 0x325
    1c68:	f88b 3324 	strb.w	r3, [r11, #804]	; 0x324
    1c6c:	e001      	b.n	1c72 <main+0xbd2>
    1c6e:	f814 cf01 	ldrb.w	r12, [r4, #1]!
    1c72:	4294      	cmp	r4, r2
    1c74:	4466      	add	r6, r12
    1c76:	d1fa      	bne.n	1c6e <main+0xbce>
    1c78:	43f3      	mvns	r3, r6
    1c7a:	4d0b      	ldr	r5, [pc, #44]	; (1ca8 <main+0xc08>)
    1c7c:	f88a 3364 	strb.w	r3, [r10, #868]	; 0x364
    1c80:	f1a5 0444 	sub.w	r4, r5, #68	; 0x44
    1c84:	21ff      	movs	r1, #255	; 0xff
    1c86:	e001      	b.n	1c8c <main+0xbec>
    1c88:	f814 1f01 	ldrb.w	r1, [r4, #1]!
    1c8c:	4807      	ldr	r0, [pc, #28]	; (1cac <main+0xc0c>)
    1c8e:	f002 fe69 	bl	4964 <mbed::Stream::putc(int)>
    1c92:	42ac      	cmp	r4, r5
    1c94:	d1f8      	bne.n	1c88 <main+0xbe8>
    1c96:	9b02      	ldr	r3, [sp, #8]
    1c98:	4598      	cmp	r8, r3
    1c9a:	f47f ade1 	bne.w	1860 <main+0x7c0>
    1c9e:	e687      	b.n	19b0 <main+0x910>
    1ca0:	000076fc 	.word	0x000076fc
    1ca4:	100004b0 	.word	0x100004b0
    1ca8:	100004e8 	.word	0x100004e8
    1cac:	100001c8 	.word	0x100001c8
    1cb0:	10000768 	.word	0x10000768

00001cb4 <ros::NodeHandle_<MbedHardware, 25, 25, 512, 512>::negotiateTopics()>:
    1cb4:	e92d 4ff0 	stmdb	sp!, {r4, r5, r6, r7, r8, r9, r10, r11, lr}
    1cb8:	4680      	mov	r8, r0
    1cba:	4bc5      	ldr	r3, [pc, #788]	; (1fd0 <ros::NodeHandle_<MbedHardware, 25, 25, 512, 512>::negotiateTopics()+0x31c>)
    1cbc:	49c5      	ldr	r1, [pc, #788]	; (1fd4 <ros::NodeHandle_<MbedHardware, 25, 25, 512, 512>::negotiateTopics()+0x320>)
    1cbe:	b091      	sub	sp, #68	; 0x44
    1cc0:	2200      	movs	r2, #0
    1cc2:	f500 67b0 	add.w	r7, r0, #1408	; 0x580
    1cc6:	f200 5b1c 	addw	r11, r0, #1308	; 0x51c
    1cca:	910a      	str	r1, [sp, #40]	; 0x28
    1ccc:	930c      	str	r3, [sp, #48]	; 0x30
    1cce:	930d      	str	r3, [sp, #52]	; 0x34
    1cd0:	930e      	str	r3, [sp, #56]	; 0x38
    1cd2:	f8ad 202c 	strh.w	r2, [sp, #44]	; 0x2c
    1cd6:	920f      	str	r2, [sp, #60]	; 0x3c
    1cd8:	9701      	str	r7, [sp, #4]
    1cda:	f85b 3f04 	ldr.w	r3, [r11, #4]!
    1cde:	2b00      	cmp	r3, #0
    1ce0:	f000 80bf 	beq.w	1e62 <ros::NodeHandle_<MbedHardware, 25, 25, 512, 512>::negotiateTopics()+0x1ae>
    1ce4:	6858      	ldr	r0, [r3, #4]
    1ce6:	681c      	ldr	r4, [r3, #0]
    1ce8:	6801      	ldr	r1, [r0, #0]
    1cea:	689a      	ldr	r2, [r3, #8]
    1cec:	940c      	str	r4, [sp, #48]	; 0x30
    1cee:	688b      	ldr	r3, [r1, #8]
    1cf0:	f8ad 202c 	strh.w	r2, [sp, #44]	; 0x2c
    1cf4:	4798      	blx	r3
    1cf6:	f8db 3000 	ldr.w	r3, [r11]
    1cfa:	900d      	str	r0, [sp, #52]	; 0x34
    1cfc:	6858      	ldr	r0, [r3, #4]
    1cfe:	6803      	ldr	r3, [r0, #0]
    1d00:	68db      	ldr	r3, [r3, #12]
    1d02:	4798      	blx	r3
    1d04:	f8d8 3000 	ldr.w	r3, [r8]
    1d08:	f8db 1000 	ldr.w	r1, [r11]
    1d0c:	f44f 7200 	mov.w	r2, #512	; 0x200
    1d10:	900e      	str	r0, [sp, #56]	; 0x38
    1d12:	681b      	ldr	r3, [r3, #0]
    1d14:	690d      	ldr	r5, [r1, #16]
    1d16:	920f      	str	r2, [sp, #60]	; 0x3c
    1d18:	4aaf      	ldr	r2, [pc, #700]	; (1fd8 <ros::NodeHandle_<MbedHardware, 25, 25, 512, 512>::negotiateTopics()+0x324>)
    1d1a:	4682      	mov	r10, r0
    1d1c:	4293      	cmp	r3, r2
    1d1e:	f040 8194 	bne.w	204a <ros::NodeHandle_<MbedHardware, 25, 25, 512, 512>::negotiateTopics()+0x396>
    1d22:	2d63      	cmp	r5, #99	; 0x63
    1d24:	dd04      	ble.n	1d30 <ros::NodeHandle_<MbedHardware, 25, 25, 512, 512>::negotiateTopics()+0x7c>
    1d26:	f898 35fc 	ldrb.w	r3, [r8, #1532]	; 0x5fc
    1d2a:	2b00      	cmp	r3, #0
    1d2c:	f000 8099 	beq.w	1e62 <ros::NodeHandle_<MbedHardware, 25, 25, 512, 512>::negotiateTopics()+0x1ae>
    1d30:	f8bd 302c 	ldrh.w	r3, [sp, #44]	; 0x2c
    1d34:	9c0c      	ldr	r4, [sp, #48]	; 0x30
    1d36:	0a1a      	lsrs	r2, r3, #8
    1d38:	f888 3327 	strb.w	r3, [r8, #807]	; 0x327
    1d3c:	f888 2328 	strb.w	r2, [r8, #808]	; 0x328
    1d40:	4620      	mov	r0, r4
    1d42:	f004 fdb8 	bl	68b6 <strlen>
    1d46:	4606      	mov	r6, r0
    1d48:	ab10      	add	r3, sp, #64	; 0x40
    1d4a:	f843 0d2c 	str.w	r0, [r3, #-44]!
    1d4e:	6818      	ldr	r0, [r3, #0]
    1d50:	4621      	mov	r1, r4
    1d52:	4632      	mov	r2, r6
    1d54:	f8c8 0329 	str.w	r0, [r8, #809]	; 0x329
    1d58:	f208 302d 	addw	r0, r8, #813	; 0x32d
    1d5c:	f003 fef8 	bl	5b50 <memcpy>
    1d60:	ab10      	add	r3, sp, #64	; 0x40
    1d62:	9f0d      	ldr	r7, [sp, #52]	; 0x34
    1d64:	461c      	mov	r4, r3
    1d66:	4638      	mov	r0, r7
    1d68:	f004 fda5 	bl	68b6 <strlen>
    1d6c:	4623      	mov	r3, r4
    1d6e:	4681      	mov	r9, r0
    1d70:	9006      	str	r0, [sp, #24]
    1d72:	f853 0d28 	ldr.w	r0, [r3, #-40]!
    1d76:	f208 3427 	addw	r4, r8, #807	; 0x327
    1d7a:	9303      	str	r3, [sp, #12]
    1d7c:	1db3      	adds	r3, r6, #6
    1d7e:	360a      	adds	r6, #10
    1d80:	50e0      	str	r0, [r4, r3]
    1d82:	4639      	mov	r1, r7
    1d84:	464a      	mov	r2, r9
    1d86:	19a0      	adds	r0, r4, r6
    1d88:	f003 fee2 	bl	5b50 <memcpy>
    1d8c:	4650      	mov	r0, r10
    1d8e:	f004 fd92 	bl	68b6 <strlen>
    1d92:	4603      	mov	r3, r0
    1d94:	9007      	str	r0, [sp, #28]
    1d96:	af10      	add	r7, sp, #64	; 0x40
    1d98:	44b1      	add	r9, r6
    1d9a:	f857 0d24 	ldr.w	r0, [r7, #-36]!
    1d9e:	f109 0604 	add.w	r6, r9, #4
    1da2:	f844 0009 	str.w	r0, [r4, r9]
    1da6:	4651      	mov	r1, r10
    1da8:	461a      	mov	r2, r3
    1daa:	19a0      	adds	r0, r4, r6
    1dac:	9302      	str	r3, [sp, #8]
    1dae:	f003 fecf 	bl	5b50 <memcpy>
    1db2:	9b02      	ldr	r3, [sp, #8]
    1db4:	f04f 0e00 	mov.w	lr, #0
    1db8:	18f0      	adds	r0, r6, r3
    1dba:	1d06      	adds	r6, r0, #4
    1dbc:	b2b1      	uxth	r1, r6
    1dbe:	ea4f 2a11 	mov.w	r10, r1, lsr #8
    1dc2:	b2f6      	uxtb	r6, r6
    1dc4:	eb0a 0c06 	add.w	r12, r10, r6
    1dc8:	ea6f 0c0c 	mvn.w	r12, r12
    1dcc:	f804 e000 	strb.w	lr, [r4, r0]
    1dd0:	eb04 0900 	add.w	r9, r4, r0
    1dd4:	2002      	movs	r0, #2
    1dd6:	f889 e002 	strb.w	lr, [r9, #2]
    1dda:	f889 e003 	strb.w	lr, [r9, #3]
    1dde:	f889 0001 	strb.w	r0, [r9, #1]
    1de2:	f208 3325 	addw	r3, r8, #805	; 0x325
    1de6:	4672      	mov	r2, lr
    1de8:	f201 3026 	addw	r0, r1, #806	; 0x326
    1dec:	24ff      	movs	r4, #255	; 0xff
    1dee:	f888 c324 	strb.w	r12, [r8, #804]	; 0x324
    1df2:	f04f 0efe 	mov.w	lr, #254	; 0xfe
    1df6:	fa5f fc85 	uxtb.w	r12, r5
    1dfa:	f345 2507 	sbfx	r5, r5, #8, #8
    1dfe:	9302      	str	r3, [sp, #8]
    1e00:	f888 a323 	strb.w	r10, [r8, #803]	; 0x323
    1e04:	f888 6322 	strb.w	r6, [r8, #802]	; 0x322
    1e08:	4440      	add	r0, r8
    1e0a:	f888 4320 	strb.w	r4, [r8, #800]	; 0x320
    1e0e:	f888 e321 	strb.w	lr, [r8, #801]	; 0x321
    1e12:	f888 c325 	strb.w	r12, [r8, #805]	; 0x325
    1e16:	f888 5326 	strb.w	r5, [r8, #806]	; 0x326
    1e1a:	e001      	b.n	1e20 <ros::NodeHandle_<MbedHardware, 25, 25, 512, 512>::negotiateTopics()+0x16c>
    1e1c:	f813 cf01 	ldrb.w	r12, [r3, #1]!
    1e20:	4283      	cmp	r3, r0
    1e22:	4462      	add	r2, r12
    1e24:	d1fa      	bne.n	1e1c <ros::NodeHandle_<MbedHardware, 25, 25, 512, 512>::negotiateTopics()+0x168>
    1e26:	43d2      	mvns	r2, r2
    1e28:	1dc8      	adds	r0, r1, #7
    1e2a:	f101 0308 	add.w	r3, r1, #8
    1e2e:	b280      	uxth	r0, r0
    1e30:	b29b      	uxth	r3, r3
    1e32:	eb08 0100 	add.w	r1, r8, r0
    1e36:	f5b3 7f00 	cmp.w	r3, #512	; 0x200
    1e3a:	f881 2320 	strb.w	r2, [r1, #800]	; 0x320
    1e3e:	f200 8123 	bhi.w	2088 <ros::NodeHandle_<MbedHardware, 25, 25, 512, 512>::negotiateTopics()+0x3d4>
    1e42:	f508 7548 	add.w	r5, r8, #800	; 0x320
    1e46:	b163      	cbz	r3, 1e62 <ros::NodeHandle_<MbedHardware, 25, 25, 512, 512>::negotiateTopics()+0x1ae>
    1e48:	3b01      	subs	r3, #1
    1e4a:	441d      	add	r5, r3
    1e4c:	f108 0644 	add.w	r6, r8, #68	; 0x44
    1e50:	f208 341f 	addw	r4, r8, #799	; 0x31f
    1e54:	f814 1f01 	ldrb.w	r1, [r4, #1]!
    1e58:	4630      	mov	r0, r6
    1e5a:	f002 fd83 	bl	4964 <mbed::Stream::putc(int)>
    1e5e:	42ac      	cmp	r4, r5
    1e60:	d1f8      	bne.n	1e54 <ros::NodeHandle_<MbedHardware, 25, 25, 512, 512>::negotiateTopics()+0x1a0>
    1e62:	9b01      	ldr	r3, [sp, #4]
    1e64:	459b      	cmp	r11, r3
    1e66:	f47f af38 	bne.w	1cda <ros::NodeHandle_<MbedHardware, 25, 25, 512, 512>::negotiateTopics()+0x26>
    1e6a:	461f      	mov	r7, r3
    1e6c:	f208 53e4 	addw	r3, r8, #1508	; 0x5e4
    1e70:	9302      	str	r3, [sp, #8]
    1e72:	f857 0f04 	ldr.w	r0, [r7, #4]!
    1e76:	2800      	cmp	r0, #0
    1e78:	f000 80dd 	beq.w	2036 <ros::NodeHandle_<MbedHardware, 25, 25, 512, 512>::negotiateTopics()+0x382>
    1e7c:	6882      	ldr	r2, [r0, #8]
    1e7e:	6803      	ldr	r3, [r0, #0]
    1e80:	6841      	ldr	r1, [r0, #4]
    1e82:	920c      	str	r2, [sp, #48]	; 0x30
    1e84:	689a      	ldr	r2, [r3, #8]
    1e86:	f8ad 102c 	strh.w	r1, [sp, #44]	; 0x2c
    1e8a:	4954      	ldr	r1, [pc, #336]	; (1fdc <ros::NodeHandle_<MbedHardware, 25, 25, 512, 512>::negotiateTopics()+0x328>)
    1e8c:	428a      	cmp	r2, r1
    1e8e:	f040 80f6 	bne.w	207e <ros::NodeHandle_<MbedHardware, 25, 25, 512, 512>::negotiateTopics()+0x3ca>
    1e92:	4a53      	ldr	r2, [pc, #332]	; (1fe0 <ros::NodeHandle_<MbedHardware, 25, 25, 512, 512>::negotiateTopics()+0x32c>)
    1e94:	920d      	str	r2, [sp, #52]	; 0x34
    1e96:	68da      	ldr	r2, [r3, #12]
    1e98:	4952      	ldr	r1, [pc, #328]	; (1fe4 <ros::NodeHandle_<MbedHardware, 25, 25, 512, 512>::negotiateTopics()+0x330>)
    1e9a:	428a      	cmp	r2, r1
    1e9c:	f040 80ea 	bne.w	2074 <ros::NodeHandle_<MbedHardware, 25, 25, 512, 512>::negotiateTopics()+0x3c0>
    1ea0:	4a51      	ldr	r2, [pc, #324]	; (1fe8 <ros::NodeHandle_<MbedHardware, 25, 25, 512, 512>::negotiateTopics()+0x334>)
    1ea2:	920e      	str	r2, [sp, #56]	; 0x38
    1ea4:	685b      	ldr	r3, [r3, #4]
    1ea6:	4a51      	ldr	r2, [pc, #324]	; (1fec <ros::NodeHandle_<MbedHardware, 25, 25, 512, 512>::negotiateTopics()+0x338>)
    1ea8:	f8d8 4000 	ldr.w	r4, [r8]
    1eac:	f44f 7100 	mov.w	r1, #512	; 0x200
    1eb0:	4293      	cmp	r3, r2
    1eb2:	6824      	ldr	r4, [r4, #0]
    1eb4:	910f      	str	r1, [sp, #60]	; 0x3c
    1eb6:	f040 80da 	bne.w	206e <ros::NodeHandle_<MbedHardware, 25, 25, 512, 512>::negotiateTopics()+0x3ba>
    1eba:	6c05      	ldr	r5, [r0, #64]	; 0x40
    1ebc:	f8df 9118 	ldr.w	r9, [pc, #280]	; 1fd8 <ros::NodeHandle_<MbedHardware, 25, 25, 512, 512>::negotiateTopics()+0x324>
    1ec0:	454c      	cmp	r4, r9
    1ec2:	f040 80cb 	bne.w	205c <ros::NodeHandle_<MbedHardware, 25, 25, 512, 512>::negotiateTopics()+0x3a8>
    1ec6:	2d63      	cmp	r5, #99	; 0x63
    1ec8:	dd04      	ble.n	1ed4 <ros::NodeHandle_<MbedHardware, 25, 25, 512, 512>::negotiateTopics()+0x220>
    1eca:	f898 35fc 	ldrb.w	r3, [r8, #1532]	; 0x5fc
    1ece:	2b00      	cmp	r3, #0
    1ed0:	f000 80b1 	beq.w	2036 <ros::NodeHandle_<MbedHardware, 25, 25, 512, 512>::negotiateTopics()+0x382>
    1ed4:	f8bd 302c 	ldrh.w	r3, [sp, #44]	; 0x2c
    1ed8:	9e0c      	ldr	r6, [sp, #48]	; 0x30
    1eda:	0a1a      	lsrs	r2, r3, #8
    1edc:	f888 3327 	strb.w	r3, [r8, #807]	; 0x327
    1ee0:	f888 2328 	strb.w	r2, [r8, #808]	; 0x328
    1ee4:	4630      	mov	r0, r6
    1ee6:	f004 fce6 	bl	68b6 <strlen>
    1eea:	4604      	mov	r4, r0
    1eec:	ab10      	add	r3, sp, #64	; 0x40
    1eee:	f843 0d2c 	str.w	r0, [r3, #-44]!
    1ef2:	6818      	ldr	r0, [r3, #0]
    1ef4:	4631      	mov	r1, r6
    1ef6:	4622      	mov	r2, r4
    1ef8:	f8c8 0329 	str.w	r0, [r8, #809]	; 0x329
    1efc:	f208 302d 	addw	r0, r8, #813	; 0x32d
    1f00:	f003 fe26 	bl	5b50 <memcpy>
    1f04:	9e0d      	ldr	r6, [sp, #52]	; 0x34
    1f06:	ab10      	add	r3, sp, #64	; 0x40
    1f08:	4630      	mov	r0, r6
    1f0a:	9301      	str	r3, [sp, #4]
    1f0c:	f004 fcd3 	bl	68b6 <strlen>
    1f10:	4683      	mov	r11, r0
    1f12:	9b01      	ldr	r3, [sp, #4]
    1f14:	9006      	str	r0, [sp, #24]
    1f16:	f853 0d28 	ldr.w	r0, [r3, #-40]!
    1f1a:	f104 0a0a 	add.w	r10, r4, #10
    1f1e:	9301      	str	r3, [sp, #4]
    1f20:	1da3      	adds	r3, r4, #6
    1f22:	f208 3427 	addw	r4, r8, #807	; 0x327
    1f26:	50e0      	str	r0, [r4, r3]
    1f28:	465a      	mov	r2, r11
    1f2a:	4631      	mov	r1, r6
    1f2c:	eb04 000a 	add.w	r0, r4, r10
    1f30:	f003 fe0e 	bl	5b50 <memcpy>
    1f34:	990e      	ldr	r1, [sp, #56]	; 0x38
    1f36:	ae10      	add	r6, sp, #64	; 0x40
    1f38:	4608      	mov	r0, r1
    1f3a:	9103      	str	r1, [sp, #12]
    1f3c:	f004 fcbb 	bl	68b6 <strlen>
    1f40:	4603      	mov	r3, r0
    1f42:	9007      	str	r0, [sp, #28]
    1f44:	44d3      	add	r11, r10
    1f46:	f856 0d24 	ldr.w	r0, [r6, #-36]!
    1f4a:	f10b 0a04 	add.w	r10, r11, #4
    1f4e:	f844 000b 	str.w	r0, [r4, r11]
    1f52:	9903      	ldr	r1, [sp, #12]
    1f54:	461a      	mov	r2, r3
    1f56:	eb04 000a 	add.w	r0, r4, r10
    1f5a:	9303      	str	r3, [sp, #12]
    1f5c:	f003 fdf8 	bl	5b50 <memcpy>
    1f60:	9b03      	ldr	r3, [sp, #12]
    1f62:	980f      	ldr	r0, [sp, #60]	; 0x3c
    1f64:	eb0a 0103 	add.w	r1, r10, r3
    1f68:	f101 0e04 	add.w	lr, r1, #4
    1f6c:	fa1f f28e 	uxth.w	r2, lr
    1f70:	ea4f 2b12 	mov.w	r11, r2, lsr #8
    1f74:	fa5f fe8e 	uxtb.w	lr, lr
    1f78:	eb0b 0c0e 	add.w	r12, r11, lr
    1f7c:	ea6f 0c0c 	mvn.w	r12, r12
    1f80:	5460      	strb	r0, [r4, r1]
    1f82:	eb04 0a01 	add.w	r10, r4, r1
    1f86:	0a01      	lsrs	r1, r0, #8
    1f88:	f88a 1001 	strb.w	r1, [r10, #1]
    1f8c:	0c01      	lsrs	r1, r0, #16
    1f8e:	0e00      	lsrs	r0, r0, #24
    1f90:	f88a 1002 	strb.w	r1, [r10, #2]
    1f94:	f88a 0003 	strb.w	r0, [r10, #3]
    1f98:	f208 3325 	addw	r3, r8, #805	; 0x325
    1f9c:	20fe      	movs	r0, #254	; 0xfe
    1f9e:	f202 3126 	addw	r1, r2, #806	; 0x326
    1fa2:	24ff      	movs	r4, #255	; 0xff
    1fa4:	f888 c324 	strb.w	r12, [r8, #804]	; 0x324
    1fa8:	fa5f fc85 	uxtb.w	r12, r5
    1fac:	f345 2507 	sbfx	r5, r5, #8, #8
    1fb0:	f888 0321 	strb.w	r0, [r8, #801]	; 0x321
    1fb4:	9303      	str	r3, [sp, #12]
    1fb6:	f888 b323 	strb.w	r11, [r8, #803]	; 0x323
    1fba:	f888 e322 	strb.w	lr, [r8, #802]	; 0x322
    1fbe:	4441      	add	r1, r8
    1fc0:	f888 4320 	strb.w	r4, [r8, #800]	; 0x320
    1fc4:	f888 c325 	strb.w	r12, [r8, #805]	; 0x325
    1fc8:	f888 5326 	strb.w	r5, [r8, #806]	; 0x326
    1fcc:	2000      	movs	r0, #0
    1fce:	e011      	b.n	1ff4 <ros::NodeHandle_<MbedHardware, 25, 25, 512, 512>::negotiateTopics()+0x340>
    1fd0:	00007734 	.word	0x00007734
    1fd4:	000074b0 	.word	0x000074b0
    1fd8:	00000e51 	.word	0x00000e51
    1fdc:	00000285 	.word	0x00000285
    1fe0:	000076bc 	.word	0x000076bc
    1fe4:	0000028d 	.word	0x0000028d
    1fe8:	000076d8 	.word	0x000076d8
    1fec:	00000281 	.word	0x00000281
    1ff0:	f813 cf01 	ldrb.w	r12, [r3, #1]!
    1ff4:	428b      	cmp	r3, r1
    1ff6:	4460      	add	r0, r12
    1ff8:	d1fa      	bne.n	1ff0 <ros::NodeHandle_<MbedHardware, 25, 25, 512, 512>::negotiateTopics()+0x33c>
    1ffa:	43c0      	mvns	r0, r0
    1ffc:	1dd1      	adds	r1, r2, #7
    1ffe:	f102 0308 	add.w	r3, r2, #8
    2002:	b289      	uxth	r1, r1
    2004:	b29b      	uxth	r3, r3
    2006:	eb08 0201 	add.w	r2, r8, r1
    200a:	f5b3 7f00 	cmp.w	r3, #512	; 0x200
    200e:	f882 0320 	strb.w	r0, [r2, #800]	; 0x320
    2012:	f200 8097 	bhi.w	2144 <ros::NodeHandle_<MbedHardware, 25, 25, 512, 512>::negotiateTopics()+0x490>
    2016:	f508 7548 	add.w	r5, r8, #800	; 0x320
    201a:	b163      	cbz	r3, 2036 <ros::NodeHandle_<MbedHardware, 25, 25, 512, 512>::negotiateTopics()+0x382>
    201c:	3b01      	subs	r3, #1
    201e:	441d      	add	r5, r3
    2020:	f108 0644 	add.w	r6, r8, #68	; 0x44
    2024:	f208 341f 	addw	r4, r8, #799	; 0x31f
    2028:	f814 1f01 	ldrb.w	r1, [r4, #1]!
    202c:	4630      	mov	r0, r6
    202e:	f002 fc99 	bl	4964 <mbed::Stream::putc(int)>
    2032:	42ac      	cmp	r4, r5
    2034:	d1f8      	bne.n	2028 <ros::NodeHandle_<MbedHardware, 25, 25, 512, 512>::negotiateTopics()+0x374>
    2036:	9b02      	ldr	r3, [sp, #8]
    2038:	429f      	cmp	r7, r3
    203a:	f47f af1a 	bne.w	1e72 <ros::NodeHandle_<MbedHardware, 25, 25, 512, 512>::negotiateTopics()+0x1be>
    203e:	2301      	movs	r3, #1
    2040:	f888 35fc 	strb.w	r3, [r8, #1532]	; 0x5fc
    2044:	b011      	add	sp, #68	; 0x44
    2046:	e8bd 8ff0 	ldmia.w	sp!, {r4, r5, r6, r7, r8, r9, r10, r11, pc}
    204a:	4629      	mov	r1, r5
    204c:	4640      	mov	r0, r8
    204e:	aa0a      	add	r2, sp, #40	; 0x28
    2050:	4798      	blx	r3
    2052:	9b01      	ldr	r3, [sp, #4]
    2054:	459b      	cmp	r11, r3
    2056:	f47f ae40 	bne.w	1cda <ros::NodeHandle_<MbedHardware, 25, 25, 512, 512>::negotiateTopics()+0x26>
    205a:	e706      	b.n	1e6a <ros::NodeHandle_<MbedHardware, 25, 25, 512, 512>::negotiateTopics()+0x1b6>
    205c:	4629      	mov	r1, r5
    205e:	4640      	mov	r0, r8
    2060:	aa0a      	add	r2, sp, #40	; 0x28
    2062:	47a0      	blx	r4
    2064:	9b02      	ldr	r3, [sp, #8]
    2066:	429f      	cmp	r7, r3
    2068:	f47f af03 	bne.w	1e72 <ros::NodeHandle_<MbedHardware, 25, 25, 512, 512>::negotiateTopics()+0x1be>
    206c:	e7e7      	b.n	203e <ros::NodeHandle_<MbedHardware, 25, 25, 512, 512>::negotiateTopics()+0x38a>
    206e:	4798      	blx	r3
    2070:	4605      	mov	r5, r0
    2072:	e723      	b.n	1ebc <ros::NodeHandle_<MbedHardware, 25, 25, 512, 512>::negotiateTopics()+0x208>
    2074:	4790      	blx	r2
    2076:	4602      	mov	r2, r0
    2078:	6838      	ldr	r0, [r7, #0]
    207a:	6803      	ldr	r3, [r0, #0]
    207c:	e711      	b.n	1ea2 <ros::NodeHandle_<MbedHardware, 25, 25, 512, 512>::negotiateTopics()+0x1ee>
    207e:	4790      	blx	r2
    2080:	4602      	mov	r2, r0
    2082:	6838      	ldr	r0, [r7, #0]
    2084:	6803      	ldr	r3, [r0, #0]
    2086:	e705      	b.n	1e94 <ros::NodeHandle_<MbedHardware, 25, 25, 512, 512>::negotiateTopics()+0x1e0>
    2088:	4962      	ldr	r1, [pc, #392]	; (2214 <ros::NodeHandle_<MbedHardware, 25, 25, 512, 512>::negotiateTopics()+0x560>)
    208a:	4863      	ldr	r0, [pc, #396]	; (2218 <ros::NodeHandle_<MbedHardware, 25, 25, 512, 512>::negotiateTopics()+0x564>)
    208c:	2203      	movs	r2, #3
    208e:	f8d8 3000 	ldr.w	r3, [r8]
    2092:	9107      	str	r1, [sp, #28]
    2094:	9009      	str	r0, [sp, #36]	; 0x24
    2096:	f88d 2020 	strb.w	r2, [sp, #32]
    209a:	681b      	ldr	r3, [r3, #0]
    209c:	495f      	ldr	r1, [pc, #380]	; (221c <ros::NodeHandle_<MbedHardware, 25, 25, 512, 512>::negotiateTopics()+0x568>)
    209e:	428b      	cmp	r3, r1
    20a0:	f040 80ad 	bne.w	21fe <ros::NodeHandle_<MbedHardware, 25, 25, 512, 512>::negotiateTopics()+0x54a>
    20a4:	2338      	movs	r3, #56	; 0x38
    20a6:	9306      	str	r3, [sp, #24]
    20a8:	9b03      	ldr	r3, [sp, #12]
    20aa:	4c5b      	ldr	r4, [pc, #364]	; (2218 <ros::NodeHandle_<MbedHardware, 25, 25, 512, 512>::negotiateTopics()+0x564>)
    20ac:	6818      	ldr	r0, [r3, #0]
    20ae:	f888 2327 	strb.w	r2, [r8, #807]	; 0x327
    20b2:	f8c8 0328 	str.w	r0, [r8, #808]	; 0x328
    20b6:	f508 754b 	add.w	r5, r8, #812	; 0x32c
    20ba:	4626      	mov	r6, r4
    20bc:	ce0f      	ldmia	r6!, {r0, r1, r2, r3}
    20be:	60eb      	str	r3, [r5, #12]
    20c0:	4b57      	ldr	r3, [pc, #348]	; (2220 <ros::NodeHandle_<MbedHardware, 25, 25, 512, 512>::negotiateTopics()+0x56c>)
    20c2:	6028      	str	r0, [r5, #0]
    20c4:	429e      	cmp	r6, r3
    20c6:	6069      	str	r1, [r5, #4]
    20c8:	60aa      	str	r2, [r5, #8]
    20ca:	f104 0410 	add.w	r4, r4, #16
    20ce:	f105 0510 	add.w	r5, r5, #16
    20d2:	d1f2      	bne.n	20ba <ros::NodeHandle_<MbedHardware, 25, 25, 512, 512>::negotiateTopics()+0x406>
    20d4:	cc03      	ldmia	r4!, {r0, r1}
    20d6:	2600      	movs	r6, #0
    20d8:	2707      	movs	r7, #7
    20da:	9b02      	ldr	r3, [sp, #8]
    20dc:	f04f 0eff 	mov.w	lr, #255	; 0xff
    20e0:	6028      	str	r0, [r5, #0]
    20e2:	6069      	str	r1, [r5, #4]
    20e4:	203d      	movs	r0, #61	; 0x3d
    20e6:	21c2      	movs	r1, #194	; 0xc2
    20e8:	25fe      	movs	r5, #254	; 0xfe
    20ea:	f888 1324 	strb.w	r1, [r8, #804]	; 0x324
    20ee:	4632      	mov	r2, r6
    20f0:	463c      	mov	r4, r7
    20f2:	f888 6323 	strb.w	r6, [r8, #803]	; 0x323
    20f6:	f888 6326 	strb.w	r6, [r8, #806]	; 0x326
    20fa:	f888 7325 	strb.w	r7, [r8, #805]	; 0x325
    20fe:	f888 e320 	strb.w	lr, [r8, #800]	; 0x320
    2102:	f888 5321 	strb.w	r5, [r8, #801]	; 0x321
    2106:	f888 0322 	strb.w	r0, [r8, #802]	; 0x322
    210a:	f208 3163 	addw	r1, r8, #867	; 0x363
    210e:	e001      	b.n	2114 <ros::NodeHandle_<MbedHardware, 25, 25, 512, 512>::negotiateTopics()+0x460>
    2110:	f813 4f01 	ldrb.w	r4, [r3, #1]!
    2114:	428b      	cmp	r3, r1
    2116:	4422      	add	r2, r4
    2118:	d1fa      	bne.n	2110 <ros::NodeHandle_<MbedHardware, 25, 25, 512, 512>::negotiateTopics()+0x45c>
    211a:	43d2      	mvns	r2, r2
    211c:	f108 0644 	add.w	r6, r8, #68	; 0x44
    2120:	f888 2364 	strb.w	r2, [r8, #868]	; 0x364
    2124:	f208 341f 	addw	r4, r8, #799	; 0x31f
    2128:	f508 7559 	add.w	r5, r8, #868	; 0x364
    212c:	f814 1f01 	ldrb.w	r1, [r4, #1]!
    2130:	4630      	mov	r0, r6
    2132:	f002 fc17 	bl	4964 <mbed::Stream::putc(int)>
    2136:	42ac      	cmp	r4, r5
    2138:	d1f8      	bne.n	212c <ros::NodeHandle_<MbedHardware, 25, 25, 512, 512>::negotiateTopics()+0x478>
    213a:	9b01      	ldr	r3, [sp, #4]
    213c:	459b      	cmp	r11, r3
    213e:	f47f adcc 	bne.w	1cda <ros::NodeHandle_<MbedHardware, 25, 25, 512, 512>::negotiateTopics()+0x26>
    2142:	e692      	b.n	1e6a <ros::NodeHandle_<MbedHardware, 25, 25, 512, 512>::negotiateTopics()+0x1b6>
    2144:	4933      	ldr	r1, [pc, #204]	; (2214 <ros::NodeHandle_<MbedHardware, 25, 25, 512, 512>::negotiateTopics()+0x560>)
    2146:	4834      	ldr	r0, [pc, #208]	; (2218 <ros::NodeHandle_<MbedHardware, 25, 25, 512, 512>::negotiateTopics()+0x564>)
    2148:	2203      	movs	r2, #3
    214a:	f8d8 3000 	ldr.w	r3, [r8]
    214e:	9009      	str	r0, [sp, #36]	; 0x24
    2150:	9107      	str	r1, [sp, #28]
    2152:	f88d 2020 	strb.w	r2, [sp, #32]
    2156:	681b      	ldr	r3, [r3, #0]
    2158:	454b      	cmp	r3, r9
    215a:	d155      	bne.n	2208 <ros::NodeHandle_<MbedHardware, 25, 25, 512, 512>::negotiateTopics()+0x554>
    215c:	2338      	movs	r3, #56	; 0x38
    215e:	9306      	str	r3, [sp, #24]
    2160:	9b01      	ldr	r3, [sp, #4]
    2162:	4c2d      	ldr	r4, [pc, #180]	; (2218 <ros::NodeHandle_<MbedHardware, 25, 25, 512, 512>::negotiateTopics()+0x564>)
    2164:	6818      	ldr	r0, [r3, #0]
    2166:	f888 2327 	strb.w	r2, [r8, #807]	; 0x327
    216a:	f8c8 0328 	str.w	r0, [r8, #808]	; 0x328
    216e:	f508 754b 	add.w	r5, r8, #812	; 0x32c
    2172:	4626      	mov	r6, r4
    2174:	ce0f      	ldmia	r6!, {r0, r1, r2, r3}
    2176:	60eb      	str	r3, [r5, #12]
    2178:	4b29      	ldr	r3, [pc, #164]	; (2220 <ros::NodeHandle_<MbedHardware, 25, 25, 512, 512>::negotiateTopics()+0x56c>)
    217a:	6028      	str	r0, [r5, #0]
    217c:	429e      	cmp	r6, r3
    217e:	6069      	str	r1, [r5, #4]
    2180:	60aa      	str	r2, [r5, #8]
    2182:	f104 0410 	add.w	r4, r4, #16
    2186:	f105 0510 	add.w	r5, r5, #16
    218a:	d1f2      	bne.n	2172 <ros::NodeHandle_<MbedHardware, 25, 25, 512, 512>::negotiateTopics()+0x4be>
    218c:	cc03      	ldmia	r4!, {r0, r1}
    218e:	2600      	movs	r6, #0
    2190:	f04f 0e07 	mov.w	lr, #7
    2194:	9b03      	ldr	r3, [sp, #12]
    2196:	f04f 0cff 	mov.w	r12, #255	; 0xff
    219a:	6028      	str	r0, [r5, #0]
    219c:	6069      	str	r1, [r5, #4]
    219e:	203d      	movs	r0, #61	; 0x3d
    21a0:	21c2      	movs	r1, #194	; 0xc2
    21a2:	25fe      	movs	r5, #254	; 0xfe
    21a4:	f888 1324 	strb.w	r1, [r8, #804]	; 0x324
    21a8:	4632      	mov	r2, r6
    21aa:	4674      	mov	r4, lr
    21ac:	f888 6323 	strb.w	r6, [r8, #803]	; 0x323
    21b0:	f888 6326 	strb.w	r6, [r8, #806]	; 0x326
    21b4:	f888 e325 	strb.w	lr, [r8, #805]	; 0x325
    21b8:	f888 c320 	strb.w	r12, [r8, #800]	; 0x320
    21bc:	f888 5321 	strb.w	r5, [r8, #801]	; 0x321
    21c0:	f888 0322 	strb.w	r0, [r8, #802]	; 0x322
    21c4:	f208 3163 	addw	r1, r8, #867	; 0x363
    21c8:	e001      	b.n	21ce <ros::NodeHandle_<MbedHardware, 25, 25, 512, 512>::negotiateTopics()+0x51a>
    21ca:	f813 4f01 	ldrb.w	r4, [r3, #1]!
    21ce:	428b      	cmp	r3, r1
    21d0:	4422      	add	r2, r4
    21d2:	d1fa      	bne.n	21ca <ros::NodeHandle_<MbedHardware, 25, 25, 512, 512>::negotiateTopics()+0x516>
    21d4:	43d2      	mvns	r2, r2
    21d6:	f108 0644 	add.w	r6, r8, #68	; 0x44
    21da:	f888 2364 	strb.w	r2, [r8, #868]	; 0x364
    21de:	f208 341f 	addw	r4, r8, #799	; 0x31f
    21e2:	f508 7559 	add.w	r5, r8, #868	; 0x364
    21e6:	f814 1f01 	ldrb.w	r1, [r4, #1]!
    21ea:	4630      	mov	r0, r6
    21ec:	f002 fbba 	bl	4964 <mbed::Stream::putc(int)>
    21f0:	42ac      	cmp	r4, r5
    21f2:	d1f8      	bne.n	21e6 <ros::NodeHandle_<MbedHardware, 25, 25, 512, 512>::negotiateTopics()+0x532>
    21f4:	9b02      	ldr	r3, [sp, #8]
    21f6:	429f      	cmp	r7, r3
    21f8:	f47f ae3b 	bne.w	1e72 <ros::NodeHandle_<MbedHardware, 25, 25, 512, 512>::negotiateTopics()+0x1be>
    21fc:	e71f      	b.n	203e <ros::NodeHandle_<MbedHardware, 25, 25, 512, 512>::negotiateTopics()+0x38a>
    21fe:	463a      	mov	r2, r7
    2200:	4640      	mov	r0, r8
    2202:	2107      	movs	r1, #7
    2204:	4798      	blx	r3
    2206:	e62c      	b.n	1e62 <ros::NodeHandle_<MbedHardware, 25, 25, 512, 512>::negotiateTopics()+0x1ae>
    2208:	4632      	mov	r2, r6
    220a:	4640      	mov	r0, r8
    220c:	2107      	movs	r1, #7
    220e:	4798      	blx	r3
    2210:	e711      	b.n	2036 <ros::NodeHandle_<MbedHardware, 25, 25, 512, 512>::negotiateTopics()+0x382>
    2212:	bf00      	nop
    2214:	000074c8 	.word	0x000074c8
    2218:	000076fc 	.word	0x000076fc
    221c:	00000e51 	.word	0x00000e51
    2220:	0000772c 	.word	0x0000772c

00002224 <ros::NodeHandle_<MbedHardware, 25, 25, 512, 512>::spinOnce()>:
    2224:	e92d 4ff0 	stmdb	sp!, {r4, r5, r6, r7, r8, r9, r10, r11, lr}
    2228:	4604      	mov	r4, r0
    222a:	f500 7a82 	add.w	r10, r0, #260	; 0x104
    222e:	b08b      	sub	sp, #44	; 0x2c
    2230:	4650      	mov	r0, r10
    2232:	f002 fc1b 	bl	4a6c <mbed::Timer::read_ms()>
    2236:	f642 22f8 	movw	r2, #11000	; 0x2af8
    223a:	f8d4 3604 	ldr.w	r3, [r4, #1540]	; 0x604
    223e:	4683      	mov	r11, r0
    2240:	1ac3      	subs	r3, r0, r3
    2242:	4293      	cmp	r3, r2
    2244:	bf84      	itt	hi
    2246:	2300      	movhi	r3, #0
    2248:	f884 35fc 	strbhi.w	r3, [r4, #1532]	; 0x5fc
    224c:	f8d4 35e8 	ldr.w	r3, [r4, #1512]	; 0x5e8
    2250:	b133      	cbz	r3, 2260 <ros::NodeHandle_<MbedHardware, 25, 25, 512, 512>::spinOnce()+0x3c>
    2252:	f8d4 3608 	ldr.w	r3, [r4, #1544]	; 0x608
    2256:	4283      	cmp	r3, r0
    2258:	bf3c      	itt	cc
    225a:	2300      	movcc	r3, #0
    225c:	f8c4 35e8 	strcc.w	r3, [r4, #1512]	; 0x5e8
    2260:	f104 0904 	add.w	r9, r4, #4
    2264:	4648      	mov	r0, r9
    2266:	f000 fe5b 	bl	2f20 <AjK::MODSERIAL::rxBufferEmpty()>
    226a:	4606      	mov	r6, r0
    226c:	b178      	cbz	r0, 228e <ros::NodeHandle_<MbedHardware, 25, 25, 512, 512>::spinOnce()+0x6a>
    226e:	f894 05fc 	ldrb.w	r0, [r4, #1532]	; 0x5fc
    2272:	b148      	cbz	r0, 2288 <ros::NodeHandle_<MbedHardware, 25, 25, 512, 512>::spinOnce()+0x64>
    2274:	f640 12c4 	movw	r2, #2500	; 0x9c4
    2278:	f8d4 3600 	ldr.w	r3, [r4, #1536]	; 0x600
    227c:	ebc3 030b 	rsb	r3, r3, r11
    2280:	4293      	cmp	r3, r2
    2282:	f200 81d5 	bhi.w	2630 <ros::NodeHandle_<MbedHardware, 25, 25, 512, 512>::spinOnce()+0x40c>
    2286:	2000      	movs	r0, #0
    2288:	b00b      	add	sp, #44	; 0x2c
    228a:	e8bd 8ff0 	ldmia.w	sp!, {r4, r5, r6, r7, r8, r9, r10, r11, pc}
    228e:	4648      	mov	r0, r9
    2290:	2101      	movs	r1, #1
    2292:	f000 fcc5 	bl	2c20 <AjK::MODSERIAL::__getc(bool)>
    2296:	2800      	cmp	r0, #0
    2298:	dbe9      	blt.n	226e <ros::NodeHandle_<MbedHardware, 25, 25, 512, 512>::spinOnce()+0x4a>
    229a:	f8d4 35f8 	ldr.w	r3, [r4, #1528]	; 0x5f8
    229e:	f8d4 55e8 	ldr.w	r5, [r4, #1512]	; 0x5e8
    22a2:	4403      	add	r3, r0
    22a4:	2d07      	cmp	r5, #7
    22a6:	f8c4 35f8 	str.w	r3, [r4, #1528]	; 0x5f8
    22aa:	f000 8104 	beq.w	24b6 <ros::NodeHandle_<MbedHardware, 25, 25, 512, 512>::spinOnce()+0x292>
    22ae:	b955      	cbnz	r5, 22c6 <ros::NodeHandle_<MbedHardware, 25, 25, 512, 512>::spinOnce()+0xa2>
    22b0:	28ff      	cmp	r0, #255	; 0xff
    22b2:	f040 8114 	bne.w	24de <ros::NodeHandle_<MbedHardware, 25, 25, 512, 512>::spinOnce()+0x2ba>
    22b6:	2201      	movs	r2, #1
    22b8:	f10b 0314 	add.w	r3, r11, #20
    22bc:	f8c4 25e8 	str.w	r2, [r4, #1512]	; 0x5e8
    22c0:	f8c4 3608 	str.w	r3, [r4, #1544]	; 0x608
    22c4:	e7ce      	b.n	2264 <ros::NodeHandle_<MbedHardware, 25, 25, 512, 512>::spinOnce()+0x40>
    22c6:	2d01      	cmp	r5, #1
    22c8:	f000 8118 	beq.w	24fc <ros::NodeHandle_<MbedHardware, 25, 25, 512, 512>::spinOnce()+0x2d8>
    22cc:	2d02      	cmp	r5, #2
    22ce:	f000 816d 	beq.w	25ac <ros::NodeHandle_<MbedHardware, 25, 25, 512, 512>::spinOnce()+0x388>
    22d2:	2d03      	cmp	r5, #3
    22d4:	f000 8174 	beq.w	25c0 <ros::NodeHandle_<MbedHardware, 25, 25, 512, 512>::spinOnce()+0x39c>
    22d8:	2d04      	cmp	r5, #4
    22da:	f000 817b 	beq.w	25d4 <ros::NodeHandle_<MbedHardware, 25, 25, 512, 512>::spinOnce()+0x3b0>
    22de:	2d05      	cmp	r5, #5
    22e0:	f000 8187 	beq.w	25f2 <ros::NodeHandle_<MbedHardware, 25, 25, 512, 512>::spinOnce()+0x3ce>
    22e4:	2d06      	cmp	r5, #6
    22e6:	f000 818c 	beq.w	2602 <ros::NodeHandle_<MbedHardware, 25, 25, 512, 512>::spinOnce()+0x3de>
    22ea:	2d08      	cmp	r5, #8
    22ec:	d1ba      	bne.n	2264 <ros::NodeHandle_<MbedHardware, 25, 25, 512, 512>::spinOnce()+0x40>
    22ee:	4acc      	ldr	r2, [pc, #816]	; (2620 <ros::NodeHandle_<MbedHardware, 25, 25, 512, 512>::spinOnce()+0x3fc>)
    22f0:	2100      	movs	r1, #0
    22f2:	401a      	ands	r2, r3
    22f4:	428a      	cmp	r2, r1
    22f6:	f8c4 15e8 	str.w	r1, [r4, #1512]	; 0x5e8
    22fa:	f2c0 81fd 	blt.w	26f8 <ros::NodeHandle_<MbedHardware, 25, 25, 512, 512>::spinOnce()+0x4d4>
    22fe:	2aff      	cmp	r2, #255	; 0xff
    2300:	d1b0      	bne.n	2264 <ros::NodeHandle_<MbedHardware, 25, 25, 512, 512>::spinOnce()+0x40>
    2302:	f8d4 35f0 	ldr.w	r3, [r4, #1520]	; 0x5f0
    2306:	2b00      	cmp	r3, #0
    2308:	f000 8319 	beq.w	293e <ros::NodeHandle_<MbedHardware, 25, 25, 512, 512>::spinOnce()+0x71a>
    230c:	2b0a      	cmp	r3, #10
    230e:	f000 82ad 	beq.w	286c <ros::NodeHandle_<MbedHardware, 25, 25, 512, 512>::spinOnce()+0x648>
    2312:	2b06      	cmp	r3, #6
    2314:	f000 81fe 	beq.w	2714 <ros::NodeHandle_<MbedHardware, 25, 25, 512, 512>::spinOnce()+0x4f0>
    2318:	2b0b      	cmp	r3, #11
    231a:	f000 81f7 	beq.w	270c <ros::NodeHandle_<MbedHardware, 25, 25, 512, 512>::spinOnce()+0x4e8>
    231e:	eb04 0383 	add.w	r3, r4, r3, lsl #2
    2322:	f8d3 53f4 	ldr.w	r5, [r3, #1012]	; 0x3f4
    2326:	2d00      	cmp	r5, #0
    2328:	d09c      	beq.n	2264 <ros::NodeHandle_<MbedHardware, 25, 25, 512, 512>::spinOnce()+0x40>
    232a:	682b      	ldr	r3, [r5, #0]
    232c:	f504 7290 	add.w	r2, r4, #288	; 0x120
    2330:	9201      	str	r2, [sp, #4]
    2332:	681b      	ldr	r3, [r3, #0]
    2334:	4abb      	ldr	r2, [pc, #748]	; (2624 <ros::NodeHandle_<MbedHardware, 25, 25, 512, 512>::spinOnce()+0x400>)
    2336:	4293      	cmp	r3, r2
    2338:	f040 82f4 	bne.w	2924 <ros::NodeHandle_<MbedHardware, 25, 25, 512, 512>::spinOnce()+0x700>
    233c:	f894 6120 	ldrb.w	r6, [r4, #288]	; 0x120
    2340:	7d2b      	ldrb	r3, [r5, #20]
    2342:	f105 020c 	add.w	r2, r5, #12
    2346:	42b3      	cmp	r3, r6
    2348:	9202      	str	r2, [sp, #8]
    234a:	f0c0 82e5 	bcc.w	2918 <ros::NodeHandle_<MbedHardware, 25, 25, 512, 512>::spinOnce()+0x6f4>
    234e:	752e      	strb	r6, [r5, #20]
    2350:	2e00      	cmp	r6, #0
    2352:	f000 82eb 	beq.w	292c <ros::NodeHandle_<MbedHardware, 25, 25, 512, 512>::spinOnce()+0x708>
    2356:	2304      	movs	r3, #4
    2358:	aa07      	add	r2, sp, #28
    235a:	f8cd 9010 	str.w	r9, [sp, #16]
    235e:	469c      	mov	r12, r3
    2360:	4691      	mov	r9, r2
    2362:	9405      	str	r4, [sp, #20]
    2364:	9c01      	ldr	r4, [sp, #4]
    2366:	2700      	movs	r7, #0
    2368:	f105 0618 	add.w	r6, r5, #24
    236c:	f8cd a00c 	str.w	r10, [sp, #12]
    2370:	eb04 0e0c 	add.w	lr, r4, r12
    2374:	f8de 0000 	ldr.w	r0, [lr]
    2378:	f10e 0803 	add.w	r8, lr, #3
    237c:	f8c9 0000 	str.w	r0, [r9]
    2380:	9807      	ldr	r0, [sp, #28]
    2382:	f100 0a04 	add.w	r10, r0, #4
    2386:	f1ba 0f04 	cmp.w	r10, #4
    238a:	d908      	bls.n	239e <ros::NodeHandle_<MbedHardware, 25, 25, 512, 512>::spinOnce()+0x17a>
    238c:	4643      	mov	r3, r8
    238e:	1cc1      	adds	r1, r0, #3
    2390:	4471      	add	r1, lr
    2392:	f813 2f01 	ldrb.w	r2, [r3, #1]!
    2396:	428b      	cmp	r3, r1
    2398:	f803 2c01 	strb.w	r2, [r3, #-1]
    239c:	d1f9      	bne.n	2392 <ros::NodeHandle_<MbedHardware, 25, 25, 512, 512>::spinOnce()+0x16e>
    239e:	f04f 0300 	mov.w	r3, #0
    23a2:	eb0e 0200 	add.w	r2, lr, r0
    23a6:	70d3      	strb	r3, [r2, #3]
    23a8:	f8c5 801c 	str.w	r8, [r5, #28]
    23ac:	f81e 300a 	ldrb.w	r3, [lr, r10]
    23b0:	300c      	adds	r0, #12
    23b2:	622b      	str	r3, [r5, #32]
    23b4:	f892 8005 	ldrb.w	r8, [r2, #5]
    23b8:	4484      	add	r12, r0
    23ba:	ea43 2308 	orr.w	r3, r3, r8, lsl #8
    23be:	622b      	str	r3, [r5, #32]
    23c0:	f892 8006 	ldrb.w	r8, [r2, #6]
    23c4:	f8d5 e028 	ldr.w	lr, [r5, #40]	; 0x28
    23c8:	ea43 4308 	orr.w	r3, r3, r8, lsl #16
    23cc:	622b      	str	r3, [r5, #32]
    23ce:	f892 8007 	ldrb.w	r8, [r2, #7]
    23d2:	0139      	lsls	r1, r7, #4
    23d4:	ea43 6308 	orr.w	r3, r3, r8, lsl #24
    23d8:	622b      	str	r3, [r5, #32]
    23da:	7a13      	ldrb	r3, [r2, #8]
    23dc:	3701      	adds	r7, #1
    23de:	626b      	str	r3, [r5, #36]	; 0x24
    23e0:	f892 8009 	ldrb.w	r8, [r2, #9]
    23e4:	b2ff      	uxtb	r7, r7
    23e6:	ea43 2008 	orr.w	r0, r3, r8, lsl #8
    23ea:	6268      	str	r0, [r5, #36]	; 0x24
    23ec:	f892 800a 	ldrb.w	r8, [r2, #10]
    23f0:	eb0e 0301 	add.w	r3, lr, r1
    23f4:	ea40 4008 	orr.w	r0, r0, r8, lsl #16
    23f8:	6268      	str	r0, [r5, #36]	; 0x24
    23fa:	7ad2      	ldrb	r2, [r2, #11]
    23fc:	ea40 6002 	orr.w	r0, r0, r2, lsl #24
    2400:	6268      	str	r0, [r5, #36]	; 0x24
    2402:	f8d6 a000 	ldr.w	r10, [r6]
    2406:	f8d6 8004 	ldr.w	r8, [r6, #4]
    240a:	68b0      	ldr	r0, [r6, #8]
    240c:	68f2      	ldr	r2, [r6, #12]
    240e:	f84e a001 	str.w	r10, [lr, r1]
    2412:	f8c3 8004 	str.w	r8, [r3, #4]
    2416:	6098      	str	r0, [r3, #8]
    2418:	60da      	str	r2, [r3, #12]
    241a:	7d2b      	ldrb	r3, [r5, #20]
    241c:	42bb      	cmp	r3, r7
    241e:	d8a7      	bhi.n	2370 <ros::NodeHandle_<MbedHardware, 25, 25, 512, 512>::spinOnce()+0x14c>
    2420:	4663      	mov	r3, r12
    2422:	f8dd a00c 	ldr.w	r10, [sp, #12]
    2426:	1d1a      	adds	r2, r3, #4
    2428:	f8dd 9010 	ldr.w	r9, [sp, #16]
    242c:	9c05      	ldr	r4, [sp, #20]
    242e:	f10c 0e01 	add.w	lr, r12, #1
    2432:	1d16      	adds	r6, r2, #4
    2434:	1c98      	adds	r0, r3, #2
    2436:	f10c 0c03 	add.w	r12, r12, #3
    243a:	9901      	ldr	r1, [sp, #4]
    243c:	f895 7030 	ldrb.w	r7, [r5, #48]	; 0x30
    2440:	5ccb      	ldrb	r3, [r1, r3]
    2442:	62eb      	str	r3, [r5, #44]	; 0x2c
    2444:	f811 e00e 	ldrb.w	lr, [r1, lr]
    2448:	ea43 230e 	orr.w	r3, r3, lr, lsl #8
    244c:	62eb      	str	r3, [r5, #44]	; 0x2c
    244e:	5c08      	ldrb	r0, [r1, r0]
    2450:	ea43 4300 	orr.w	r3, r3, r0, lsl #16
    2454:	4608      	mov	r0, r1
    2456:	62eb      	str	r3, [r5, #44]	; 0x2c
    2458:	f811 100c 	ldrb.w	r1, [r1, r12]
    245c:	ea43 6301 	orr.w	r3, r3, r1, lsl #24
    2460:	62eb      	str	r3, [r5, #44]	; 0x2c
    2462:	f810 8002 	ldrb.w	r8, [r0, r2]
    2466:	4547      	cmp	r7, r8
    2468:	f0c0 824f 	bcc.w	290a <ros::NodeHandle_<MbedHardware, 25, 25, 512, 512>::spinOnce()+0x6e6>
    246c:	f885 8030 	strb.w	r8, [r5, #48]	; 0x30
    2470:	f1b8 0f00 	cmp.w	r8, #0
    2474:	d01b      	beq.n	24ae <ros::NodeHandle_<MbedHardware, 25, 25, 512, 512>::spinOnce()+0x28a>
    2476:	9b01      	ldr	r3, [sp, #4]
    2478:	2000      	movs	r0, #0
    247a:	4433      	add	r3, r6
    247c:	4619      	mov	r1, r3
    247e:	f105 0634 	add.w	r6, r5, #52	; 0x34
    2482:	788b      	ldrb	r3, [r1, #2]
    2484:	784f      	ldrb	r7, [r1, #1]
    2486:	780a      	ldrb	r2, [r1, #0]
    2488:	041b      	lsls	r3, r3, #16
    248a:	ea43 2307 	orr.w	r3, r3, r7, lsl #8
    248e:	78cf      	ldrb	r7, [r1, #3]
    2490:	4313      	orrs	r3, r2
    2492:	ea43 6307 	orr.w	r3, r3, r7, lsl #24
    2496:	636b      	str	r3, [r5, #52]	; 0x34
    2498:	6832      	ldr	r2, [r6, #0]
    249a:	6bab      	ldr	r3, [r5, #56]	; 0x38
    249c:	3104      	adds	r1, #4
    249e:	f843 2020 	str.w	r2, [r3, r0, lsl #2]
    24a2:	f895 3030 	ldrb.w	r3, [r5, #48]	; 0x30
    24a6:	3001      	adds	r0, #1
    24a8:	b2c0      	uxtb	r0, r0
    24aa:	4283      	cmp	r3, r0
    24ac:	d8e9      	bhi.n	2482 <ros::NodeHandle_<MbedHardware, 25, 25, 512, 512>::spinOnce()+0x25e>
    24ae:	6beb      	ldr	r3, [r5, #60]	; 0x3c
    24b0:	9802      	ldr	r0, [sp, #8]
    24b2:	4798      	blx	r3
    24b4:	e6d6      	b.n	2264 <ros::NodeHandle_<MbedHardware, 25, 25, 512, 512>::spinOnce()+0x40>
    24b6:	f8d4 25f4 	ldr.w	r2, [r4, #1524]	; 0x5f4
    24ba:	f8d4 35ec 	ldr.w	r3, [r4, #1516]	; 0x5ec
    24be:	1c51      	adds	r1, r2, #1
    24c0:	3b01      	subs	r3, #1
    24c2:	4422      	add	r2, r4
    24c4:	f8c4 15f4 	str.w	r1, [r4, #1524]	; 0x5f4
    24c8:	f882 0120 	strb.w	r0, [r2, #288]	; 0x120
    24cc:	f8c4 35ec 	str.w	r3, [r4, #1516]	; 0x5ec
    24d0:	2b00      	cmp	r3, #0
    24d2:	f47f aec7 	bne.w	2264 <ros::NodeHandle_<MbedHardware, 25, 25, 512, 512>::spinOnce()+0x40>
    24d6:	2308      	movs	r3, #8
    24d8:	f8c4 35e8 	str.w	r3, [r4, #1512]	; 0x5e8
    24dc:	e6c2      	b.n	2264 <ros::NodeHandle_<MbedHardware, 25, 25, 512, 512>::spinOnce()+0x40>
    24de:	4650      	mov	r0, r10
    24e0:	f002 fac4 	bl	4a6c <mbed::Timer::read_ms()>
    24e4:	ebcb 0000 	rsb	r0, r11, r0
    24e8:	2805      	cmp	r0, #5
    24ea:	f67f aebb 	bls.w	2264 <ros::NodeHandle_<MbedHardware, 25, 25, 512, 512>::spinOnce()+0x40>
    24ee:	f06f 0001 	mvn.w	r0, #1
    24f2:	f884 55fc 	strb.w	r5, [r4, #1532]	; 0x5fc
    24f6:	b00b      	add	sp, #44	; 0x2c
    24f8:	e8bd 8ff0 	ldmia.w	sp!, {r4, r5, r6, r7, r8, r9, r10, r11, pc}
    24fc:	28fe      	cmp	r0, #254	; 0xfe
    24fe:	d074      	beq.n	25ea <ros::NodeHandle_<MbedHardware, 25, 25, 512, 512>::spinOnce()+0x3c6>
    2500:	f894 35fc 	ldrb.w	r3, [r4, #1532]	; 0x5fc
    2504:	f8c4 65e8 	str.w	r6, [r4, #1512]	; 0x5e8
    2508:	2b00      	cmp	r3, #0
    250a:	f47f aeab 	bne.w	2264 <ros::NodeHandle_<MbedHardware, 25, 25, 512, 512>::spinOnce()+0x40>
    250e:	4946      	ldr	r1, [pc, #280]	; (2628 <ros::NodeHandle_<MbedHardware, 25, 25, 512, 512>::spinOnce()+0x404>)
    2510:	6822      	ldr	r2, [r4, #0]
    2512:	9107      	str	r1, [sp, #28]
    2514:	6815      	ldr	r5, [r2, #0]
    2516:	4a45      	ldr	r2, [pc, #276]	; (262c <ros::NodeHandle_<MbedHardware, 25, 25, 512, 512>::spinOnce()+0x408>)
    2518:	9308      	str	r3, [sp, #32]
    251a:	4295      	cmp	r5, r2
    251c:	9309      	str	r3, [sp, #36]	; 0x24
    251e:	f040 80e1 	bne.w	26e4 <ros::NodeHandle_<MbedHardware, 25, 25, 512, 512>::spinOnce()+0x4c0>
    2522:	200a      	movs	r0, #10
    2524:	461a      	mov	r2, r3
    2526:	27ff      	movs	r7, #255	; 0xff
    2528:	26fe      	movs	r6, #254	; 0xfe
    252a:	2508      	movs	r5, #8
    252c:	f884 3327 	strb.w	r3, [r4, #807]	; 0x327
    2530:	f884 3328 	strb.w	r3, [r4, #808]	; 0x328
    2534:	f884 3329 	strb.w	r3, [r4, #809]	; 0x329
    2538:	f884 332a 	strb.w	r3, [r4, #810]	; 0x32a
    253c:	f884 332b 	strb.w	r3, [r4, #811]	; 0x32b
    2540:	f884 332c 	strb.w	r3, [r4, #812]	; 0x32c
    2544:	f884 332d 	strb.w	r3, [r4, #813]	; 0x32d
    2548:	f884 332e 	strb.w	r3, [r4, #814]	; 0x32e
    254c:	f884 3323 	strb.w	r3, [r4, #803]	; 0x323
    2550:	f884 3326 	strb.w	r3, [r4, #806]	; 0x326
    2554:	23f7      	movs	r3, #247	; 0xf7
    2556:	4601      	mov	r1, r0
    2558:	f884 0325 	strb.w	r0, [r4, #805]	; 0x325
    255c:	f884 3324 	strb.w	r3, [r4, #804]	; 0x324
    2560:	f884 7320 	strb.w	r7, [r4, #800]	; 0x320
    2564:	f884 6321 	strb.w	r6, [r4, #801]	; 0x321
    2568:	f884 5322 	strb.w	r5, [r4, #802]	; 0x322
    256c:	f204 3325 	addw	r3, r4, #805	; 0x325
    2570:	f204 302e 	addw	r0, r4, #814	; 0x32e
    2574:	e001      	b.n	257a <ros::NodeHandle_<MbedHardware, 25, 25, 512, 512>::spinOnce()+0x356>
    2576:	f813 1f01 	ldrb.w	r1, [r3, #1]!
    257a:	4283      	cmp	r3, r0
    257c:	440a      	add	r2, r1
    257e:	d1fa      	bne.n	2576 <ros::NodeHandle_<MbedHardware, 25, 25, 512, 512>::spinOnce()+0x352>
    2580:	43d2      	mvns	r2, r2
    2582:	f104 0744 	add.w	r7, r4, #68	; 0x44
    2586:	f884 232f 	strb.w	r2, [r4, #815]	; 0x32f
    258a:	f204 351f 	addw	r5, r4, #799	; 0x31f
    258e:	f204 362f 	addw	r6, r4, #815	; 0x32f
    2592:	f815 1f01 	ldrb.w	r1, [r5, #1]!
    2596:	4638      	mov	r0, r7
    2598:	f002 f9e4 	bl	4964 <mbed::Stream::putc(int)>
    259c:	42b5      	cmp	r5, r6
    259e:	d1f8      	bne.n	2592 <ros::NodeHandle_<MbedHardware, 25, 25, 512, 512>::spinOnce()+0x36e>
    25a0:	4650      	mov	r0, r10
    25a2:	f002 fa63 	bl	4a6c <mbed::Timer::read_ms()>
    25a6:	f8c4 0114 	str.w	r0, [r4, #276]	; 0x114
    25aa:	e65b      	b.n	2264 <ros::NodeHandle_<MbedHardware, 25, 25, 512, 512>::spinOnce()+0x40>
    25ac:	2303      	movs	r3, #3
    25ae:	f8c4 05ec 	str.w	r0, [r4, #1516]	; 0x5ec
    25b2:	f8c4 65f4 	str.w	r6, [r4, #1524]	; 0x5f4
    25b6:	f8c4 05f8 	str.w	r0, [r4, #1528]	; 0x5f8
    25ba:	f8c4 35e8 	str.w	r3, [r4, #1512]	; 0x5e8
    25be:	e651      	b.n	2264 <ros::NodeHandle_<MbedHardware, 25, 25, 512, 512>::spinOnce()+0x40>
    25c0:	f8d4 35ec 	ldr.w	r3, [r4, #1516]	; 0x5ec
    25c4:	2204      	movs	r2, #4
    25c6:	eb03 2000 	add.w	r0, r3, r0, lsl #8
    25ca:	f8c4 05ec 	str.w	r0, [r4, #1516]	; 0x5ec
    25ce:	f8c4 25e8 	str.w	r2, [r4, #1512]	; 0x5e8
    25d2:	e647      	b.n	2264 <ros::NodeHandle_<MbedHardware, 25, 25, 512, 512>::spinOnce()+0x40>
    25d4:	4a12      	ldr	r2, [pc, #72]	; (2620 <ros::NodeHandle_<MbedHardware, 25, 25, 512, 512>::spinOnce()+0x3fc>)
    25d6:	401a      	ands	r2, r3
    25d8:	2a00      	cmp	r2, #0
    25da:	db7e      	blt.n	26da <ros::NodeHandle_<MbedHardware, 25, 25, 512, 512>::spinOnce()+0x4b6>
    25dc:	2aff      	cmp	r2, #255	; 0xff
    25de:	bf0c      	ite	eq
    25e0:	2305      	moveq	r3, #5
    25e2:	2300      	movne	r3, #0
    25e4:	f8c4 35e8 	str.w	r3, [r4, #1512]	; 0x5e8
    25e8:	e63c      	b.n	2264 <ros::NodeHandle_<MbedHardware, 25, 25, 512, 512>::spinOnce()+0x40>
    25ea:	2302      	movs	r3, #2
    25ec:	f8c4 35e8 	str.w	r3, [r4, #1512]	; 0x5e8
    25f0:	e638      	b.n	2264 <ros::NodeHandle_<MbedHardware, 25, 25, 512, 512>::spinOnce()+0x40>
    25f2:	2306      	movs	r3, #6
    25f4:	f8c4 05f0 	str.w	r0, [r4, #1520]	; 0x5f0
    25f8:	f8c4 05f8 	str.w	r0, [r4, #1528]	; 0x5f8
    25fc:	f8c4 35e8 	str.w	r3, [r4, #1512]	; 0x5e8
    2600:	e630      	b.n	2264 <ros::NodeHandle_<MbedHardware, 25, 25, 512, 512>::spinOnce()+0x40>
    2602:	f8d4 35f0 	ldr.w	r3, [r4, #1520]	; 0x5f0
    2606:	f8d4 25ec 	ldr.w	r2, [r4, #1516]	; 0x5ec
    260a:	eb03 2300 	add.w	r3, r3, r0, lsl #8
    260e:	2107      	movs	r1, #7
    2610:	f8c4 35f0 	str.w	r3, [r4, #1520]	; 0x5f0
    2614:	f8c4 15e8 	str.w	r1, [r4, #1512]	; 0x5e8
    2618:	2a00      	cmp	r2, #0
    261a:	f43f af5c 	beq.w	24d6 <ros::NodeHandle_<MbedHardware, 25, 25, 512, 512>::spinOnce()+0x2b2>
    261e:	e621      	b.n	2264 <ros::NodeHandle_<MbedHardware, 25, 25, 512, 512>::spinOnce()+0x40>
    2620:	800000ff 	.word	0x800000ff
    2624:	00000b39 	.word	0x00000b39
    2628:	00007498 	.word	0x00007498
    262c:	00000e51 	.word	0x00000e51
    2630:	4ad1      	ldr	r2, [pc, #836]	; (2978 <ros::NodeHandle_<MbedHardware, 25, 25, 512, 512>::spinOnce()+0x754>)
    2632:	6823      	ldr	r3, [r4, #0]
    2634:	9207      	str	r2, [sp, #28]
    2636:	681d      	ldr	r5, [r3, #0]
    2638:	4ad0      	ldr	r2, [pc, #832]	; (297c <ros::NodeHandle_<MbedHardware, 25, 25, 512, 512>::spinOnce()+0x758>)
    263a:	2300      	movs	r3, #0
    263c:	4295      	cmp	r5, r2
    263e:	9308      	str	r3, [sp, #32]
    2640:	9309      	str	r3, [sp, #36]	; 0x24
    2642:	d15e      	bne.n	2702 <ros::NodeHandle_<MbedHardware, 25, 25, 512, 512>::spinOnce()+0x4de>
    2644:	200a      	movs	r0, #10
    2646:	f04f 0eff 	mov.w	lr, #255	; 0xff
    264a:	27fe      	movs	r7, #254	; 0xfe
    264c:	2608      	movs	r6, #8
    264e:	25f7      	movs	r5, #247	; 0xf7
    2650:	461a      	mov	r2, r3
    2652:	4601      	mov	r1, r0
    2654:	f884 3327 	strb.w	r3, [r4, #807]	; 0x327
    2658:	f884 3328 	strb.w	r3, [r4, #808]	; 0x328
    265c:	f884 3329 	strb.w	r3, [r4, #809]	; 0x329
    2660:	f884 332a 	strb.w	r3, [r4, #810]	; 0x32a
    2664:	f884 332b 	strb.w	r3, [r4, #811]	; 0x32b
    2668:	f884 332c 	strb.w	r3, [r4, #812]	; 0x32c
    266c:	f884 332d 	strb.w	r3, [r4, #813]	; 0x32d
    2670:	f884 332e 	strb.w	r3, [r4, #814]	; 0x32e
    2674:	f884 3323 	strb.w	r3, [r4, #803]	; 0x323
    2678:	f884 3326 	strb.w	r3, [r4, #806]	; 0x326
    267c:	f884 0325 	strb.w	r0, [r4, #805]	; 0x325
    2680:	f884 e320 	strb.w	lr, [r4, #800]	; 0x320
    2684:	f884 7321 	strb.w	r7, [r4, #801]	; 0x321
    2688:	f884 6322 	strb.w	r6, [r4, #802]	; 0x322
    268c:	f884 5324 	strb.w	r5, [r4, #804]	; 0x324
    2690:	f204 3325 	addw	r3, r4, #805	; 0x325
    2694:	f204 302e 	addw	r0, r4, #814	; 0x32e
    2698:	e001      	b.n	269e <ros::NodeHandle_<MbedHardware, 25, 25, 512, 512>::spinOnce()+0x47a>
    269a:	f813 1f01 	ldrb.w	r1, [r3, #1]!
    269e:	4283      	cmp	r3, r0
    26a0:	440a      	add	r2, r1
    26a2:	d1fa      	bne.n	269a <ros::NodeHandle_<MbedHardware, 25, 25, 512, 512>::spinOnce()+0x476>
    26a4:	43d2      	mvns	r2, r2
    26a6:	f104 0744 	add.w	r7, r4, #68	; 0x44
    26aa:	f884 232f 	strb.w	r2, [r4, #815]	; 0x32f
    26ae:	f204 351f 	addw	r5, r4, #799	; 0x31f
    26b2:	f204 362f 	addw	r6, r4, #815	; 0x32f
    26b6:	f815 1f01 	ldrb.w	r1, [r5, #1]!
    26ba:	4638      	mov	r0, r7
    26bc:	f002 f952 	bl	4964 <mbed::Stream::putc(int)>
    26c0:	42b5      	cmp	r5, r6
    26c2:	d1f8      	bne.n	26b6 <ros::NodeHandle_<MbedHardware, 25, 25, 512, 512>::spinOnce()+0x492>
    26c4:	4650      	mov	r0, r10
    26c6:	f002 f9d1 	bl	4a6c <mbed::Timer::read_ms()>
    26ca:	f8c4 0114 	str.w	r0, [r4, #276]	; 0x114
    26ce:	2000      	movs	r0, #0
    26d0:	f8c4 b600 	str.w	r11, [r4, #1536]	; 0x600
    26d4:	b00b      	add	sp, #44	; 0x2c
    26d6:	e8bd 8ff0 	ldmia.w	sp!, {r4, r5, r6, r7, r8, r9, r10, r11, pc}
    26da:	3a01      	subs	r2, #1
    26dc:	f062 02ff 	orn	r2, r2, #255	; 0xff
    26e0:	3201      	adds	r2, #1
    26e2:	e77b      	b.n	25dc <ros::NodeHandle_<MbedHardware, 25, 25, 512, 512>::spinOnce()+0x3b8>
    26e4:	210a      	movs	r1, #10
    26e6:	aa07      	add	r2, sp, #28
    26e8:	4620      	mov	r0, r4
    26ea:	47a8      	blx	r5
    26ec:	4650      	mov	r0, r10
    26ee:	f002 f9bd 	bl	4a6c <mbed::Timer::read_ms()>
    26f2:	f8c4 0114 	str.w	r0, [r4, #276]	; 0x114
    26f6:	e5b5      	b.n	2264 <ros::NodeHandle_<MbedHardware, 25, 25, 512, 512>::spinOnce()+0x40>
    26f8:	3a01      	subs	r2, #1
    26fa:	f062 02ff 	orn	r2, r2, #255	; 0xff
    26fe:	3201      	adds	r2, #1
    2700:	e5fd      	b.n	22fe <ros::NodeHandle_<MbedHardware, 25, 25, 512, 512>::spinOnce()+0xda>
    2702:	4620      	mov	r0, r4
    2704:	210a      	movs	r1, #10
    2706:	aa07      	add	r2, sp, #28
    2708:	47a8      	blx	r5
    270a:	e7db      	b.n	26c4 <ros::NodeHandle_<MbedHardware, 25, 25, 512, 512>::spinOnce()+0x4a0>
    270c:	2300      	movs	r3, #0
    270e:	f884 35fc 	strb.w	r3, [r4, #1532]	; 0x5fc
    2712:	e5a7      	b.n	2264 <ros::NodeHandle_<MbedHardware, 25, 25, 512, 512>::spinOnce()+0x40>
    2714:	f894 5120 	ldrb.w	r5, [r4, #288]	; 0x120
    2718:	f894 3614 	ldrb.w	r3, [r4, #1556]	; 0x614
    271c:	f504 7690 	add.w	r6, r4, #288	; 0x120
    2720:	42ab      	cmp	r3, r5
    2722:	d206      	bcs.n	2732 <ros::NodeHandle_<MbedHardware, 25, 25, 512, 512>::spinOnce()+0x50e>
    2724:	f8d4 061c 	ldr.w	r0, [r4, #1564]	; 0x61c
    2728:	00a9      	lsls	r1, r5, #2
    272a:	f000 fa4f 	bl	2bcc <__wrap_realloc>
    272e:	f8c4 061c 	str.w	r0, [r4, #1564]	; 0x61c
    2732:	f884 5614 	strb.w	r5, [r4, #1556]	; 0x614
    2736:	2d00      	cmp	r5, #0
    2738:	f000 811a 	beq.w	2970 <ros::NodeHandle_<MbedHardware, 25, 25, 512, 512>::spinOnce()+0x74c>
    273c:	4630      	mov	r0, r6
    273e:	f504 67c3 	add.w	r7, r4, #1560	; 0x618
    2742:	2100      	movs	r1, #0
    2744:	2504      	movs	r5, #4
    2746:	7983      	ldrb	r3, [r0, #6]
    2748:	f890 e005 	ldrb.w	lr, [r0, #5]
    274c:	7902      	ldrb	r2, [r0, #4]
    274e:	041b      	lsls	r3, r3, #16
    2750:	ea43 230e 	orr.w	r3, r3, lr, lsl #8
    2754:	f890 e007 	ldrb.w	lr, [r0, #7]
    2758:	4313      	orrs	r3, r2
    275a:	ea43 630e 	orr.w	r3, r3, lr, lsl #24
    275e:	f8c4 3618 	str.w	r3, [r4, #1560]	; 0x618
    2762:	683a      	ldr	r2, [r7, #0]
    2764:	f8d4 361c 	ldr.w	r3, [r4, #1564]	; 0x61c
    2768:	3504      	adds	r5, #4
    276a:	f843 2021 	str.w	r2, [r3, r1, lsl #2]
    276e:	f894 3614 	ldrb.w	r3, [r4, #1556]	; 0x614
    2772:	3101      	adds	r1, #1
    2774:	b2c9      	uxtb	r1, r1
    2776:	428b      	cmp	r3, r1
    2778:	f100 0004 	add.w	r0, r0, #4
    277c:	d8e3      	bhi.n	2746 <ros::NodeHandle_<MbedHardware, 25, 25, 512, 512>::spinOnce()+0x522>
    277e:	1d2f      	adds	r7, r5, #4
    2780:	46b8      	mov	r8, r7
    2782:	5d75      	ldrb	r5, [r6, r5]
    2784:	f894 3620 	ldrb.w	r3, [r4, #1568]	; 0x620
    2788:	42ab      	cmp	r3, r5
    278a:	d206      	bcs.n	279a <ros::NodeHandle_<MbedHardware, 25, 25, 512, 512>::spinOnce()+0x576>
    278c:	f8d4 0628 	ldr.w	r0, [r4, #1576]	; 0x628
    2790:	00a9      	lsls	r1, r5, #2
    2792:	f000 fa1b 	bl	2bcc <__wrap_realloc>
    2796:	f8c4 0628 	str.w	r0, [r4, #1576]	; 0x628
    279a:	f884 5620 	strb.w	r5, [r4, #1568]	; 0x620
    279e:	b32d      	cbz	r5, 27ec <ros::NodeHandle_<MbedHardware, 25, 25, 512, 512>::spinOnce()+0x5c8>
    27a0:	eb06 0108 	add.w	r1, r6, r8
    27a4:	f204 6724 	addw	r7, r4, #1572	; 0x624
    27a8:	2000      	movs	r0, #0
    27aa:	f1c6 0504 	rsb	r5, r6, #4
    27ae:	788b      	ldrb	r3, [r1, #2]
    27b0:	f891 e001 	ldrb.w	lr, [r1, #1]
    27b4:	780a      	ldrb	r2, [r1, #0]
    27b6:	041b      	lsls	r3, r3, #16
    27b8:	ea43 230e 	orr.w	r3, r3, lr, lsl #8
    27bc:	f891 e003 	ldrb.w	lr, [r1, #3]
    27c0:	4313      	orrs	r3, r2
    27c2:	ea43 630e 	orr.w	r3, r3, lr, lsl #24
    27c6:	f8c4 3624 	str.w	r3, [r4, #1572]	; 0x624
    27ca:	f8d7 e000 	ldr.w	lr, [r7]
    27ce:	f8d4 3628 	ldr.w	r3, [r4, #1576]	; 0x628
    27d2:	1c42      	adds	r2, r0, #1
    27d4:	f843 e020 	str.w	lr, [r3, r0, lsl #2]
    27d8:	f894 3620 	ldrb.w	r3, [r4, #1568]	; 0x620
    27dc:	b2d0      	uxtb	r0, r2
    27de:	4283      	cmp	r3, r0
    27e0:	eb05 0801 	add.w	r8, r5, r1
    27e4:	f101 0104 	add.w	r1, r1, #4
    27e8:	d8e1      	bhi.n	27ae <ros::NodeHandle_<MbedHardware, 25, 25, 512, 512>::spinOnce()+0x58a>
    27ea:	4647      	mov	r7, r8
    27ec:	5df5      	ldrb	r5, [r6, r7]
    27ee:	f894 362c 	ldrb.w	r3, [r4, #1580]	; 0x62c
    27f2:	42ab      	cmp	r3, r5
    27f4:	d206      	bcs.n	2804 <ros::NodeHandle_<MbedHardware, 25, 25, 512, 512>::spinOnce()+0x5e0>
    27f6:	f8d4 0634 	ldr.w	r0, [r4, #1588]	; 0x634
    27fa:	00a9      	lsls	r1, r5, #2
    27fc:	f000 f9e6 	bl	2bcc <__wrap_realloc>
    2800:	f8c4 0634 	str.w	r0, [r4, #1588]	; 0x634
    2804:	f108 0304 	add.w	r3, r8, #4
    2808:	f884 562c 	strb.w	r5, [r4, #1580]	; 0x62c
    280c:	b355      	cbz	r5, 2864 <ros::NodeHandle_<MbedHardware, 25, 25, 512, 512>::spinOnce()+0x640>
    280e:	2500      	movs	r5, #0
    2810:	aa07      	add	r2, sp, #28
    2812:	46ae      	mov	lr, r5
    2814:	4694      	mov	r12, r2
    2816:	f504 67c6 	add.w	r7, r4, #1584	; 0x630
    281a:	58f0      	ldr	r0, [r6, r3]
    281c:	1d19      	adds	r1, r3, #4
    281e:	f8cc 0000 	str.w	r0, [r12]
    2822:	9a07      	ldr	r2, [sp, #28]
    2824:	440a      	add	r2, r1
    2826:	428a      	cmp	r2, r1
    2828:	d909      	bls.n	283e <ros::NodeHandle_<MbedHardware, 25, 25, 512, 512>::spinOnce()+0x61a>
    282a:	4608      	mov	r0, r1
    282c:	3303      	adds	r3, #3
    282e:	4433      	add	r3, r6
    2830:	f813 8f01 	ldrb.w	r8, [r3, #1]!
    2834:	3001      	adds	r0, #1
    2836:	4282      	cmp	r2, r0
    2838:	f803 8c01 	strb.w	r8, [r3, #-1]
    283c:	d8f8      	bhi.n	2830 <ros::NodeHandle_<MbedHardware, 25, 25, 512, 512>::spinOnce()+0x60c>
    283e:	1e4b      	subs	r3, r1, #1
    2840:	4433      	add	r3, r6
    2842:	18b1      	adds	r1, r6, r2
    2844:	f801 ec01 	strb.w	lr, [r1, #-1]
    2848:	f8c4 3630 	str.w	r3, [r4, #1584]	; 0x630
    284c:	6838      	ldr	r0, [r7, #0]
    284e:	f8d4 1634 	ldr.w	r1, [r4, #1588]	; 0x634
    2852:	4613      	mov	r3, r2
    2854:	f841 0025 	str.w	r0, [r1, r5, lsl #2]
    2858:	f894 262c 	ldrb.w	r2, [r4, #1580]	; 0x62c
    285c:	3501      	adds	r5, #1
    285e:	b2ed      	uxtb	r5, r5
    2860:	42aa      	cmp	r2, r5
    2862:	d8da      	bhi.n	281a <ros::NodeHandle_<MbedHardware, 25, 25, 512, 512>::spinOnce()+0x5f6>
    2864:	2301      	movs	r3, #1
    2866:	f884 360c 	strb.w	r3, [r4, #1548]	; 0x60c
    286a:	e4fb      	b.n	2264 <ros::NodeHandle_<MbedHardware, 25, 25, 512, 512>::spinOnce()+0x40>
    286c:	4650      	mov	r0, r10
    286e:	f002 f8fd 	bl	4a6c <mbed::Timer::read_ms()>
    2872:	f894 6122 	ldrb.w	r6, [r4, #290]	; 0x122
    2876:	f894 3126 	ldrb.w	r3, [r4, #294]	; 0x126
    287a:	f894 7121 	ldrb.w	r7, [r4, #289]	; 0x121
    287e:	f894 e125 	ldrb.w	lr, [r4, #293]	; 0x125
    2882:	0436      	lsls	r6, r6, #16
    2884:	f894 1120 	ldrb.w	r1, [r4, #288]	; 0x120
    2888:	ea46 2707 	orr.w	r7, r6, r7, lsl #8
    288c:	041a      	lsls	r2, r3, #16
    288e:	f894 6123 	ldrb.w	r6, [r4, #291]	; 0x123
    2892:	f894 3124 	ldrb.w	r3, [r4, #292]	; 0x124
    2896:	f8d4 5114 	ldr.w	r5, [r4, #276]	; 0x114
    289a:	ea42 220e 	orr.w	r2, r2, lr, lsl #8
    289e:	4339      	orrs	r1, r7
    28a0:	f894 7127 	ldrb.w	r7, [r4, #295]	; 0x127
    28a4:	431a      	orrs	r2, r3
    28a6:	1b45      	subs	r5, r0, r5
    28a8:	ea41 6306 	orr.w	r3, r1, r6, lsl #24
    28ac:	4650      	mov	r0, r10
    28ae:	ea42 6707 	orr.w	r7, r2, r7, lsl #24
    28b2:	1e5e      	subs	r6, r3, #1
    28b4:	f002 f8da 	bl	4a6c <mbed::Timer::read_ms()>
    28b8:	4b31      	ldr	r3, [pc, #196]	; (2980 <ros::NodeHandle_<MbedHardware, 25, 25, 512, 512>::spinOnce()+0x75c>)
    28ba:	4931      	ldr	r1, [pc, #196]	; (2980 <ros::NodeHandle_<MbedHardware, 25, 25, 512, 512>::spinOnce()+0x75c>)
    28bc:	fba3 2305 	umull	r2, r3, r3, r5
    28c0:	f8df 80c4 	ldr.w	r8, [pc, #196]	; 2988 <ros::NodeHandle_<MbedHardware, 25, 25, 512, 512>::spinOnce()+0x764>
    28c4:	f44f 727a 	mov.w	r2, #1000	; 0x3e8
    28c8:	44b8      	add	r8, r7
    28ca:	099b      	lsrs	r3, r3, #6
    28cc:	fba1 1700 	umull	r1, r7, r1, r0
    28d0:	fb02 5513 	mls	r5, r2, r3, r5
    28d4:	492b      	ldr	r1, [pc, #172]	; (2984 <ros::NodeHandle_<MbedHardware, 25, 25, 512, 512>::spinOnce()+0x760>)
    28d6:	09bf      	lsrs	r7, r7, #6
    28d8:	fb01 8105 	mla	r1, r1, r5, r8
    28dc:	fb02 0217 	mls	r2, r2, r7, r0
    28e0:	4828      	ldr	r0, [pc, #160]	; (2984 <ros::NodeHandle_<MbedHardware, 25, 25, 512, 512>::spinOnce()+0x760>)
    28e2:	4433      	add	r3, r6
    28e4:	fb00 1212 	mls	r2, r0, r2, r1
    28e8:	1bdb      	subs	r3, r3, r7
    28ea:	f8c4 211c 	str.w	r2, [r4, #284]	; 0x11c
    28ee:	f8c4 3118 	str.w	r3, [r4, #280]	; 0x118
    28f2:	f504 708c 	add.w	r0, r4, #280	; 0x118
    28f6:	f504 718e 	add.w	r1, r4, #284	; 0x11c
    28fa:	f000 f97b 	bl	2bf4 <ros::normalizeSecNSec(unsigned long&, unsigned long&)>
    28fe:	4650      	mov	r0, r10
    2900:	f002 f8b4 	bl	4a6c <mbed::Timer::read_ms()>
    2904:	f8c4 0604 	str.w	r0, [r4, #1540]	; 0x604
    2908:	e4ac      	b.n	2264 <ros::NodeHandle_<MbedHardware, 25, 25, 512, 512>::spinOnce()+0x40>
    290a:	6ba8      	ldr	r0, [r5, #56]	; 0x38
    290c:	ea4f 0188 	mov.w	r1, r8, lsl #2
    2910:	f000 f95c 	bl	2bcc <__wrap_realloc>
    2914:	63a8      	str	r0, [r5, #56]	; 0x38
    2916:	e5a9      	b.n	246c <ros::NodeHandle_<MbedHardware, 25, 25, 512, 512>::spinOnce()+0x248>
    2918:	6aa8      	ldr	r0, [r5, #40]	; 0x28
    291a:	0131      	lsls	r1, r6, #4
    291c:	f000 f956 	bl	2bcc <__wrap_realloc>
    2920:	62a8      	str	r0, [r5, #40]	; 0x28
    2922:	e514      	b.n	234e <ros::NodeHandle_<MbedHardware, 25, 25, 512, 512>::spinOnce()+0x12a>
    2924:	4628      	mov	r0, r5
    2926:	9901      	ldr	r1, [sp, #4]
    2928:	4798      	blx	r3
    292a:	e49b      	b.n	2264 <ros::NodeHandle_<MbedHardware, 25, 25, 512, 512>::spinOnce()+0x40>
    292c:	2208      	movs	r2, #8
    292e:	f04f 0c07 	mov.w	r12, #7
    2932:	2006      	movs	r0, #6
    2934:	f04f 0e05 	mov.w	lr, #5
    2938:	2304      	movs	r3, #4
    293a:	260c      	movs	r6, #12
    293c:	e57d      	b.n	243a <ros::NodeHandle_<MbedHardware, 25, 25, 512, 512>::spinOnce()+0x216>
    293e:	490e      	ldr	r1, [pc, #56]	; (2978 <ros::NodeHandle_<MbedHardware, 25, 25, 512, 512>::spinOnce()+0x754>)
    2940:	6822      	ldr	r2, [r4, #0]
    2942:	9107      	str	r1, [sp, #28]
    2944:	9308      	str	r3, [sp, #32]
    2946:	210a      	movs	r1, #10
    2948:	9309      	str	r3, [sp, #36]	; 0x24
    294a:	4620      	mov	r0, r4
    294c:	6813      	ldr	r3, [r2, #0]
    294e:	aa07      	add	r2, sp, #28
    2950:	4798      	blx	r3
    2952:	4650      	mov	r0, r10
    2954:	f002 f88a 	bl	4a6c <mbed::Timer::read_ms()>
    2958:	f8c4 0114 	str.w	r0, [r4, #276]	; 0x114
    295c:	4620      	mov	r0, r4
    295e:	f7ff f9a9 	bl	1cb4 <ros::NodeHandle_<MbedHardware, 25, 25, 512, 512>::negotiateTopics()>
    2962:	f8c4 b600 	str.w	r11, [r4, #1536]	; 0x600
    2966:	f8c4 b604 	str.w	r11, [r4, #1540]	; 0x604
    296a:	f04f 30ff 	mov.w	r0, #4294967295
    296e:	e48b      	b.n	2288 <ros::NodeHandle_<MbedHardware, 25, 25, 512, 512>::spinOnce()+0x64>
    2970:	2708      	movs	r7, #8
    2972:	46b8      	mov	r8, r7
    2974:	2504      	movs	r5, #4
    2976:	e704      	b.n	2782 <ros::NodeHandle_<MbedHardware, 25, 25, 512, 512>::spinOnce()+0x55e>
    2978:	00007498 	.word	0x00007498
    297c:	00000e51 	.word	0x00000e51
    2980:	10624dd3 	.word	0x10624dd3
    2984:	000f4240 	.word	0x000f4240
    2988:	3b9aca00 	.word	0x3b9aca00

0000298c <_GLOBAL__sub_I_motors>:
    298c:	b5f0      	push	{r4, r5, r6, r7, lr}
    298e:	2401      	movs	r4, #1
    2990:	b083      	sub	sp, #12
    2992:	2500      	movs	r5, #0
    2994:	9400      	str	r4, [sp, #0]
    2996:	4947      	ldr	r1, [pc, #284]	; (2ab4 <_GLOBAL__sub_I_motors+0x128>)
    2998:	4a47      	ldr	r2, [pc, #284]	; (2ab8 <_GLOBAL__sub_I_motors+0x12c>)
    299a:	4b48      	ldr	r3, [pc, #288]	; (2abc <_GLOBAL__sub_I_motors+0x130>)
    299c:	4848      	ldr	r0, [pc, #288]	; (2ac0 <_GLOBAL__sub_I_motors+0x134>)
    299e:	f7fe fb1b 	bl	fd8 <Motor::Motor(PinName, PinName, PinName, bool)>
    29a2:	4948      	ldr	r1, [pc, #288]	; (2ac4 <_GLOBAL__sub_I_motors+0x138>)
    29a4:	4a48      	ldr	r2, [pc, #288]	; (2ac8 <_GLOBAL__sub_I_motors+0x13c>)
    29a6:	4b49      	ldr	r3, [pc, #292]	; (2acc <_GLOBAL__sub_I_motors+0x140>)
    29a8:	9500      	str	r5, [sp, #0]
    29aa:	4849      	ldr	r0, [pc, #292]	; (2ad0 <_GLOBAL__sub_I_motors+0x144>)
    29ac:	f7fe fb14 	bl	fd8 <Motor::Motor(PinName, PinName, PinName, bool)>
    29b0:	9400      	str	r4, [sp, #0]
    29b2:	4948      	ldr	r1, [pc, #288]	; (2ad4 <_GLOBAL__sub_I_motors+0x148>)
    29b4:	4a48      	ldr	r2, [pc, #288]	; (2ad8 <_GLOBAL__sub_I_motors+0x14c>)
    29b6:	4b49      	ldr	r3, [pc, #292]	; (2adc <_GLOBAL__sub_I_motors+0x150>)
    29b8:	4849      	ldr	r0, [pc, #292]	; (2ae0 <_GLOBAL__sub_I_motors+0x154>)
    29ba:	4c4a      	ldr	r4, [pc, #296]	; (2ae4 <_GLOBAL__sub_I_motors+0x158>)
    29bc:	f7fe fb0c 	bl	fd8 <Motor::Motor(PinName, PinName, PinName, bool)>
    29c0:	4b49      	ldr	r3, [pc, #292]	; (2ae8 <_GLOBAL__sub_I_motors+0x15c>)
    29c2:	494a      	ldr	r1, [pc, #296]	; (2aec <_GLOBAL__sub_I_motors+0x160>)
    29c4:	4a4a      	ldr	r2, [pc, #296]	; (2af0 <_GLOBAL__sub_I_motors+0x164>)
    29c6:	9500      	str	r5, [sp, #0]
    29c8:	484a      	ldr	r0, [pc, #296]	; (2af4 <_GLOBAL__sub_I_motors+0x168>)
    29ca:	f7fe fb05 	bl	fd8 <Motor::Motor(PinName, PinName, PinName, bool)>
    29ce:	494a      	ldr	r1, [pc, #296]	; (2af8 <_GLOBAL__sub_I_motors+0x16c>)
    29d0:	4a4a      	ldr	r2, [pc, #296]	; (2afc <_GLOBAL__sub_I_motors+0x170>)
    29d2:	4628      	mov	r0, r5
    29d4:	f002 fa1e 	bl	4e14 <__aeabi_atexit>
    29d8:	4620      	mov	r0, r4
    29da:	4a49      	ldr	r2, [pc, #292]	; (2b00 <_GLOBAL__sub_I_motors+0x174>)
    29dc:	4949      	ldr	r1, [pc, #292]	; (2b04 <_GLOBAL__sub_I_motors+0x178>)
    29de:	462b      	mov	r3, r5
    29e0:	f840 2b04 	str.w	r2, [r0], #4
    29e4:	4a48      	ldr	r2, [pc, #288]	; (2b08 <_GLOBAL__sub_I_motors+0x17c>)
    29e6:	f000 fa71 	bl	2ecc <AjK::MODSERIAL::MODSERIAL(PinName, PinName, char const*)>
    29ea:	f504 7082 	add.w	r0, r4, #260	; 0x104
    29ee:	f002 f821 	bl	4a34 <mbed::Timer::Timer()>
    29f2:	f44f 4361 	mov.w	r3, #57600	; 0xe100
    29f6:	f8c4 3100 	str.w	r3, [r4, #256]	; 0x100
    29fa:	f504 7082 	add.w	r0, r4, #260	; 0x104
    29fe:	f002 f829 	bl	4a54 <mbed::Timer::start()>
    2a02:	4629      	mov	r1, r5
    2a04:	4b41      	ldr	r3, [pc, #260]	; (2b0c <_GLOBAL__sub_I_motors+0x180>)
    2a06:	f884 55fc 	strb.w	r5, [r4, #1532]	; 0x5fc
    2a0a:	f8c4 3610 	str.w	r3, [r4, #1552]	; 0x610
    2a0e:	f884 5614 	strb.w	r5, [r4, #1556]	; 0x614
    2a12:	f8c4 561c 	str.w	r5, [r4, #1564]	; 0x61c
    2a16:	f884 5620 	strb.w	r5, [r4, #1568]	; 0x620
    2a1a:	f8c4 5628 	str.w	r5, [r4, #1576]	; 0x628
    2a1e:	f884 562c 	strb.w	r5, [r4, #1580]	; 0x62c
    2a22:	f8c4 5634 	str.w	r5, [r4, #1588]	; 0x634
    2a26:	f204 531c 	addw	r3, r4, #1308	; 0x51c
    2a2a:	f504 62b0 	add.w	r2, r4, #1408	; 0x580
    2a2e:	f843 1f04 	str.w	r1, [r3, #4]!
    2a32:	4293      	cmp	r3, r2
    2a34:	d1fb      	bne.n	2a2e <_GLOBAL__sub_I_motors+0xa2>
    2a36:	4b36      	ldr	r3, [pc, #216]	; (2b10 <_GLOBAL__sub_I_motors+0x184>)
    2a38:	2100      	movs	r1, #0
    2a3a:	f103 0264 	add.w	r2, r3, #100	; 0x64
    2a3e:	f843 1f04 	str.w	r1, [r3, #4]!
    2a42:	4293      	cmp	r3, r2
    2a44:	d1fb      	bne.n	2a3e <_GLOBAL__sub_I_motors+0xb2>
    2a46:	4b33      	ldr	r3, [pc, #204]	; (2b14 <_GLOBAL__sub_I_motors+0x188>)
    2a48:	2100      	movs	r1, #0
    2a4a:	f503 7200 	add.w	r2, r3, #512	; 0x200
    2a4e:	f803 1f01 	strb.w	r1, [r3, #1]!
    2a52:	4293      	cmp	r3, r2
    2a54:	d1fb      	bne.n	2a4e <_GLOBAL__sub_I_motors+0xc2>
    2a56:	4b30      	ldr	r3, [pc, #192]	; (2b18 <_GLOBAL__sub_I_motors+0x18c>)
    2a58:	2100      	movs	r1, #0
    2a5a:	f503 7200 	add.w	r2, r3, #512	; 0x200
    2a5e:	f803 1f01 	strb.w	r1, [r3, #1]!
    2a62:	4293      	cmp	r3, r2
    2a64:	f04f 0400 	mov.w	r4, #0
    2a68:	d1f9      	bne.n	2a5e <_GLOBAL__sub_I_motors+0xd2>
    2a6a:	492c      	ldr	r1, [pc, #176]	; (2b1c <_GLOBAL__sub_I_motors+0x190>)
    2a6c:	4a23      	ldr	r2, [pc, #140]	; (2afc <_GLOBAL__sub_I_motors+0x170>)
    2a6e:	481d      	ldr	r0, [pc, #116]	; (2ae4 <_GLOBAL__sub_I_motors+0x158>)
    2a70:	f002 f9d0 	bl	4e14 <__aeabi_atexit>
    2a74:	4f2a      	ldr	r7, [pc, #168]	; (2b20 <_GLOBAL__sub_I_motors+0x194>)
    2a76:	4b2b      	ldr	r3, [pc, #172]	; (2b24 <_GLOBAL__sub_I_motors+0x198>)
    2a78:	f8df c0bc 	ldr.w	r12, [pc, #188]	; 2b38 <_GLOBAL__sub_I_motors+0x1ac>
    2a7c:	f8df e0bc 	ldr.w	lr, [pc, #188]	; 2b3c <_GLOBAL__sub_I_motors+0x1b0>
    2a80:	4e29      	ldr	r6, [pc, #164]	; (2b28 <_GLOBAL__sub_I_motors+0x19c>)
    2a82:	4d2a      	ldr	r5, [pc, #168]	; (2b2c <_GLOBAL__sub_I_motors+0x1a0>)
    2a84:	482a      	ldr	r0, [pc, #168]	; (2b30 <_GLOBAL__sub_I_motors+0x1a4>)
    2a86:	4a2b      	ldr	r2, [pc, #172]	; (2b34 <_GLOBAL__sub_I_motors+0x1a8>)
    2a88:	2101      	movs	r1, #1
    2a8a:	751c      	strb	r4, [r3, #20]
    2a8c:	621c      	str	r4, [r3, #32]
    2a8e:	625c      	str	r4, [r3, #36]	; 0x24
    2a90:	629c      	str	r4, [r3, #40]	; 0x28
    2a92:	62dc      	str	r4, [r3, #44]	; 0x2c
    2a94:	f883 4030 	strb.w	r4, [r3, #48]	; 0x30
    2a98:	639c      	str	r4, [r3, #56]	; 0x38
    2a9a:	f8c3 c000 	str.w	r12, [r3]
    2a9e:	f8c3 e00c 	str.w	lr, [r3, #12]
    2aa2:	611f      	str	r7, [r3, #16]
    2aa4:	619e      	str	r6, [r3, #24]
    2aa6:	61dd      	str	r5, [r3, #28]
    2aa8:	63d8      	str	r0, [r3, #60]	; 0x3c
    2aaa:	6419      	str	r1, [r3, #64]	; 0x40
    2aac:	609a      	str	r2, [r3, #8]
    2aae:	b003      	add	sp, #12
    2ab0:	bdf0      	pop	{r4, r5, r6, r7, pc}
    2ab2:	bf00      	nop
    2ab4:	2009c040 	.word	0x2009c040
    2ab8:	2009c00b 	.word	0x2009c00b
    2abc:	2009c006 	.word	0x2009c006
    2ac0:	10000800 	.word	0x10000800
    2ac4:	2009c041 	.word	0x2009c041
    2ac8:	2009c00a 	.word	0x2009c00a
    2acc:	2009c007 	.word	0x2009c007
    2ad0:	100008b8 	.word	0x100008b8
    2ad4:	2009c042 	.word	0x2009c042
    2ad8:	2009c005 	.word	0x2009c005
    2adc:	2009c008 	.word	0x2009c008
    2ae0:	10000970 	.word	0x10000970
    2ae4:	10000184 	.word	0x10000184
    2ae8:	2009c009 	.word	0x2009c009
    2aec:	2009c043 	.word	0x2009c043
    2af0:	2009c004 	.word	0x2009c004
    2af4:	10000a28 	.word	0x10000a28
    2af8:	00002b59 	.word	0x00002b59
    2afc:	100000c8 	.word	0x100000c8
    2b00:	00007540 	.word	0x00007540
    2b04:	2009c002 	.word	0x2009c002
    2b08:	2009c003 	.word	0x2009c003
    2b0c:	000074e0 	.word	0x000074e0
    2b10:	10000704 	.word	0x10000704
    2b14:	100002a3 	.word	0x100002a3
    2b18:	100004a3 	.word	0x100004a3
    2b1c:	00002b41 	.word	0x00002b41
    2b20:	00007510 	.word	0x00007510
    2b24:	100007bc 	.word	0x100007bc
    2b28:	000074f8 	.word	0x000074f8
    2b2c:	00007734 	.word	0x00007734
    2b30:	0000029d 	.word	0x0000029d
    2b34:	00007738 	.word	0x00007738
    2b38:	00007558 	.word	0x00007558
    2b3c:	00007528 	.word	0x00007528

00002b40 <ros::NodeHandle_<MbedHardware, 25, 25, 512, 512>::~NodeHandle_()>:
    2b40:	b510      	push	{r4, lr}
    2b42:	4604      	mov	r4, r0
    2b44:	4b03      	ldr	r3, [pc, #12]	; (2b54 <ros::NodeHandle_<MbedHardware, 25, 25, 512, 512>::~NodeHandle_()+0x14>)
    2b46:	f840 3b04 	str.w	r3, [r0], #4
    2b4a:	f000 f961 	bl	2e10 <AjK::MODSERIAL::~MODSERIAL()>
    2b4e:	4620      	mov	r0, r4
    2b50:	bd10      	pop	{r4, pc}
    2b52:	bf00      	nop
    2b54:	00007540 	.word	0x00007540

00002b58 <__tcf_0>:
    2b58:	b5f8      	push	{r3, r4, r5, r6, r7, lr}
    2b5a:	4c0a      	ldr	r4, [pc, #40]	; (2b84 <__tcf_0+0x2c>)
    2b5c:	4f0a      	ldr	r7, [pc, #40]	; (2b88 <__tcf_0+0x30>)
    2b5e:	f5a4 7638 	sub.w	r6, r4, #736	; 0x2e0
    2b62:	3cb8      	subs	r4, #184	; 0xb8
    2b64:	f104 057c 	add.w	r5, r4, #124	; 0x7c
    2b68:	4628      	mov	r0, r5
    2b6a:	67e7      	str	r7, [r4, #124]	; 0x7c
    2b6c:	f001 ff42 	bl	49f4 <mbed::Ticker::detach()>
    2b70:	4628      	mov	r0, r5
    2b72:	f001 ffa5 	bl	4ac0 <mbed::TimerEvent::~TimerEvent()>
    2b76:	f104 0024 	add.w	r0, r4, #36	; 0x24
    2b7a:	f001 fd89 	bl	4690 <mbed::InterruptIn::~InterruptIn()>
    2b7e:	42b4      	cmp	r4, r6
    2b80:	d1ef      	bne.n	2b62 <__tcf_0+0xa>
    2b82:	bdf8      	pop	{r3, r4, r5, r6, r7, pc}
    2b84:	10000ae0 	.word	0x10000ae0
    2b88:	00007ba8 	.word	0x00007ba8

00002b8c <_start>:
    2b8c:	4a07      	ldr	r2, [pc, #28]	; (2bac <_start+0x20>)
    2b8e:	4808      	ldr	r0, [pc, #32]	; (2bb0 <_start+0x24>)
    2b90:	b508      	push	{r3, lr}
    2b92:	2100      	movs	r1, #0
    2b94:	1a12      	subs	r2, r2, r0
    2b96:	f003 f801 	bl	5b9c <memset>
    2b9a:	f3af 8000 	nop.w
    2b9e:	f002 ff47 	bl	5a30 <__libc_init_array>
    2ba2:	f002 f8db 	bl	4d5c <__wrap_main>
    2ba6:	f002 fc45 	bl	5434 <exit>
    2baa:	bf00      	nop
    2bac:	10000db4 	.word	0x10000db4
    2bb0:	10000168 	.word	0x10000168

00002bb4 <__wrap__isatty>:
    2bb4:	2802      	cmp	r0, #2
    2bb6:	dc01      	bgt.n	2bbc <__wrap__isatty+0x8>
    2bb8:	2001      	movs	r0, #1
    2bba:	4770      	bx	lr
    2bbc:	f002 b896 	b.w	4cec <_isatty>

00002bc0 <__wrap_malloc>:
    2bc0:	f3ef 8305 	mrs	r3, IPSR
    2bc4:	b103      	cbz	r3, 2bc8 <__wrap_malloc+0x8>
    2bc6:	be00      	bkpt	0x0000
    2bc8:	f002 bfa4 	b.w	5b14 <malloc>

00002bcc <__wrap_realloc>:
    2bcc:	f3ef 8305 	mrs	r3, IPSR
    2bd0:	b103      	cbz	r3, 2bd4 <__wrap_realloc+0x8>
    2bd2:	be00      	bkpt	0x0000
    2bd4:	f003 bcf6 	b.w	65c4 <realloc>

00002bd8 <__wrap_free>:
    2bd8:	f3ef 8305 	mrs	r3, IPSR
    2bdc:	b103      	cbz	r3, 2be0 <__wrap_free+0x8>
    2bde:	be00      	bkpt	0x0000
    2be0:	f002 bfa0 	b.w	5b24 <free>

00002be4 <abort>:
    2be4:	b508      	push	{r3, lr}
    2be6:	2001      	movs	r0, #1
    2be8:	f002 fc24 	bl	5434 <exit>

00002bec <__cxa_pure_virtual>:
    2bec:	b508      	push	{r3, lr}
    2bee:	f7ff fff9 	bl	2be4 <abort>
    2bf2:	bf00      	nop

00002bf4 <ros::normalizeSecNSec(unsigned long&, unsigned long&)>:
    2bf4:	b410      	push	{r4}
    2bf6:	680c      	ldr	r4, [r1, #0]
    2bf8:	4a07      	ldr	r2, [pc, #28]	; (2c18 <ros::normalizeSecNSec(unsigned long&, unsigned long&)+0x24>)
    2bfa:	0a63      	lsrs	r3, r4, #9
    2bfc:	fba2 2303 	umull	r2, r3, r2, r3
    2c00:	4a06      	ldr	r2, [pc, #24]	; (2c1c <ros::normalizeSecNSec(unsigned long&, unsigned long&)+0x28>)
    2c02:	09db      	lsrs	r3, r3, #7
    2c04:	fb02 4213 	mls	r2, r2, r3, r4
    2c08:	6804      	ldr	r4, [r0, #0]
    2c0a:	4423      	add	r3, r4
    2c0c:	6003      	str	r3, [r0, #0]
    2c0e:	f85d 4b04 	ldr.w	r4, [sp], #4
    2c12:	600a      	str	r2, [r1, #0]
    2c14:	4770      	bx	lr
    2c16:	bf00      	nop
    2c18:	00044b83 	.word	0x00044b83
    2c1c:	3b9aca00 	.word	0x3b9aca00

00002c20 <AjK::MODSERIAL::__getc(bool)>:
    2c20:	6fc3      	ldr	r3, [r0, #124]	; 0x7c
    2c22:	b570      	push	{r4, r5, r6, lr}
    2c24:	2b00      	cmp	r3, #0
    2c26:	d02d      	beq.n	2c84 <AjK::MODSERIAL::__getc(bool)+0x64>
    2c28:	6e42      	ldr	r2, [r0, #100]	; 0x64
    2c2a:	2a00      	cmp	r2, #0
    2c2c:	d02a      	beq.n	2c84 <AjK::MODSERIAL::__getc(bool)+0x64>
    2c2e:	2900      	cmp	r1, #0
    2c30:	d02f      	beq.n	2c92 <AjK::MODSERIAL::__getc(bool)+0x72>
    2c32:	f8d0 3084 	ldr.w	r3, [r0, #132]	; 0x84
    2c36:	2b00      	cmp	r3, #0
    2c38:	d0fb      	beq.n	2c32 <AjK::MODSERIAL::__getc(bool)+0x12>
    2c3a:	6f43      	ldr	r3, [r0, #116]	; 0x74
    2c3c:	4604      	mov	r4, r0
    2c3e:	5cd5      	ldrb	r5, [r2, r3]
    2c40:	6f43      	ldr	r3, [r0, #116]	; 0x74
    2c42:	b2ed      	uxtb	r5, r5
    2c44:	3301      	adds	r3, #1
    2c46:	6743      	str	r3, [r0, #116]	; 0x74
    2c48:	6f42      	ldr	r2, [r0, #116]	; 0x74
    2c4a:	6fc3      	ldr	r3, [r0, #124]	; 0x7c
    2c4c:	429a      	cmp	r2, r3
    2c4e:	bfa4      	itt	ge
    2c50:	2300      	movge	r3, #0
    2c52:	6743      	strge	r3, [r0, #116]	; 0x74
    2c54:	f8d0 2084 	ldr.w	r2, [r0, #132]	; 0x84
    2c58:	6fc3      	ldr	r3, [r0, #124]	; 0x7c
    2c5a:	429a      	cmp	r2, r3
    2c5c:	d009      	beq.n	2c72 <AjK::MODSERIAL::__getc(bool)+0x52>
    2c5e:	6dc3      	ldr	r3, [r0, #92]	; 0x5c
    2c60:	685e      	ldr	r6, [r3, #4]
    2c62:	685a      	ldr	r2, [r3, #4]
    2c64:	f022 0201 	bic.w	r2, r2, #1
    2c68:	605a      	str	r2, [r3, #4]
    2c6a:	f000 f819 	bl	2ca0 <AjK::MODSERIAL::isr_rx()>
    2c6e:	6de3      	ldr	r3, [r4, #92]	; 0x5c
    2c70:	605e      	str	r6, [r3, #4]
    2c72:	b672      	cpsid	i
    2c74:	f8d4 3084 	ldr.w	r3, [r4, #132]	; 0x84
    2c78:	3b01      	subs	r3, #1
    2c7a:	f8c4 3084 	str.w	r3, [r4, #132]	; 0x84
    2c7e:	b662      	cpsie	i
    2c80:	4628      	mov	r0, r5
    2c82:	bd70      	pop	{r4, r5, r6, pc}
    2c84:	6dc2      	ldr	r2, [r0, #92]	; 0x5c
    2c86:	7d13      	ldrb	r3, [r2, #20]
    2c88:	07db      	lsls	r3, r3, #31
    2c8a:	d5fc      	bpl.n	2c86 <AjK::MODSERIAL::__getc(bool)+0x66>
    2c8c:	7810      	ldrb	r0, [r2, #0]
    2c8e:	b2c0      	uxtb	r0, r0
    2c90:	bd70      	pop	{r4, r5, r6, pc}
    2c92:	f8d0 3084 	ldr.w	r3, [r0, #132]	; 0x84
    2c96:	2b00      	cmp	r3, #0
    2c98:	d1cf      	bne.n	2c3a <AjK::MODSERIAL::__getc(bool)+0x1a>
    2c9a:	f04f 30ff 	mov.w	r0, #4294967295
    2c9e:	bd70      	pop	{r4, r5, r6, pc}

00002ca0 <AjK::MODSERIAL::isr_rx()>:
    2ca0:	6dc3      	ldr	r3, [r0, #92]	; 0x5c
    2ca2:	b570      	push	{r4, r5, r6, lr}
    2ca4:	2b00      	cmp	r3, #0
    2ca6:	d052      	beq.n	2d4e <AjK::MODSERIAL::isr_rx()+0xae>
    2ca8:	6fc2      	ldr	r2, [r0, #124]	; 0x7c
    2caa:	2a00      	cmp	r2, #0
    2cac:	d04f      	beq.n	2d4e <AjK::MODSERIAL::isr_rx()+0xae>
    2cae:	6e42      	ldr	r2, [r0, #100]	; 0x64
    2cb0:	2a00      	cmp	r2, #0
    2cb2:	d04c      	beq.n	2d4e <AjK::MODSERIAL::isr_rx()+0xae>
    2cb4:	4604      	mov	r4, r0
    2cb6:	f100 0558 	add.w	r5, r0, #88	; 0x58
    2cba:	2600      	movs	r6, #0
    2cbc:	e008      	b.n	2cd0 <AjK::MODSERIAL::isr_rx()+0x30>
    2cbe:	4628      	mov	r0, r5
    2cc0:	4798      	blx	r3
    2cc2:	f894 2094 	ldrb.w	r2, [r4, #148]	; 0x94
    2cc6:	f894 3061 	ldrb.w	r3, [r4, #97]	; 0x61
    2cca:	429a      	cmp	r2, r3
    2ccc:	d039      	beq.n	2d42 <AjK::MODSERIAL::isr_rx()+0xa2>
    2cce:	6de3      	ldr	r3, [r4, #92]	; 0x5c
    2cd0:	7d1a      	ldrb	r2, [r3, #20]
    2cd2:	07d2      	lsls	r2, r2, #31
    2cd4:	d562      	bpl.n	2d9c <AjK::MODSERIAL::isr_rx()+0xfc>
    2cd6:	781b      	ldrb	r3, [r3, #0]
    2cd8:	b2db      	uxtb	r3, r3
    2cda:	f884 3061 	strb.w	r3, [r4, #97]	; 0x61
    2cde:	f8d4 2084 	ldr.w	r2, [r4, #132]	; 0x84
    2ce2:	6fe3      	ldr	r3, [r4, #124]	; 0x7c
    2ce4:	429a      	cmp	r2, r3
    2ce6:	d04d      	beq.n	2d84 <AjK::MODSERIAL::isr_rx()+0xe4>
    2ce8:	6e62      	ldr	r2, [r4, #100]	; 0x64
    2cea:	b18a      	cbz	r2, 2d10 <AjK::MODSERIAL::isr_rx()+0x70>
    2cec:	6ee1      	ldr	r1, [r4, #108]	; 0x6c
    2cee:	f894 3061 	ldrb.w	r3, [r4, #97]	; 0x61
    2cf2:	b2db      	uxtb	r3, r3
    2cf4:	5453      	strb	r3, [r2, r1]
    2cf6:	f8d4 3084 	ldr.w	r3, [r4, #132]	; 0x84
    2cfa:	3301      	adds	r3, #1
    2cfc:	f8c4 3084 	str.w	r3, [r4, #132]	; 0x84
    2d00:	6ee3      	ldr	r3, [r4, #108]	; 0x6c
    2d02:	3301      	adds	r3, #1
    2d04:	66e3      	str	r3, [r4, #108]	; 0x6c
    2d06:	6ee2      	ldr	r2, [r4, #108]	; 0x6c
    2d08:	6fe3      	ldr	r3, [r4, #124]	; 0x7c
    2d0a:	429a      	cmp	r2, r3
    2d0c:	bfa8      	it	ge
    2d0e:	66e6      	strge	r6, [r4, #108]	; 0x6c
    2d10:	f8d4 3098 	ldr.w	r3, [r4, #152]	; 0x98
    2d14:	2b00      	cmp	r3, #0
    2d16:	d1d2      	bne.n	2cbe <AjK::MODSERIAL::isr_rx()+0x1e>
    2d18:	f8d4 309c 	ldr.w	r3, [r4, #156]	; 0x9c
    2d1c:	2b00      	cmp	r3, #0
    2d1e:	d0d0      	beq.n	2cc2 <AjK::MODSERIAL::isr_rx()+0x22>
    2d20:	f8d4 20a0 	ldr.w	r2, [r4, #160]	; 0xa0
    2d24:	f8d4 00a4 	ldr.w	r0, [r4, #164]	; 0xa4
    2d28:	b32a      	cbz	r2, 2d76 <AjK::MODSERIAL::isr_rx()+0xd6>
    2d2a:	07c1      	lsls	r1, r0, #31
    2d2c:	d425      	bmi.n	2d7a <AjK::MODSERIAL::isr_rx()+0xda>
    2d2e:	eb03 0060 	add.w	r0, r3, r0, asr #1
    2d32:	4629      	mov	r1, r5
    2d34:	4790      	blx	r2
    2d36:	f894 2094 	ldrb.w	r2, [r4, #148]	; 0x94
    2d3a:	f894 3061 	ldrb.w	r3, [r4, #97]	; 0x61
    2d3e:	429a      	cmp	r2, r3
    2d40:	d1c5      	bne.n	2cce <AjK::MODSERIAL::isr_rx()+0x2e>
    2d42:	f8d4 30e8 	ldr.w	r3, [r4, #232]	; 0xe8
    2d46:	b353      	cbz	r3, 2d9e <AjK::MODSERIAL::isr_rx()+0xfe>
    2d48:	4628      	mov	r0, r5
    2d4a:	4798      	blx	r3
    2d4c:	e7bf      	b.n	2cce <AjK::MODSERIAL::isr_rx()+0x2e>
    2d4e:	f8d0 3098 	ldr.w	r3, [r0, #152]	; 0x98
    2d52:	f100 0158 	add.w	r1, r0, #88	; 0x58
    2d56:	2b00      	cmp	r3, #0
    2d58:	d031      	beq.n	2dbe <AjK::MODSERIAL::isr_rx()+0x11e>
    2d5a:	e8bd 4070 	ldmia.w	sp!, {r4, r5, r6, lr}
    2d5e:	4608      	mov	r0, r1
    2d60:	4718      	bx	r3
    2d62:	f8d4 30bc 	ldr.w	r3, [r4, #188]	; 0xbc
    2d66:	2b00      	cmp	r3, #0
    2d68:	d0ab      	beq.n	2cc2 <AjK::MODSERIAL::isr_rx()+0x22>
    2d6a:	f8d4 20c0 	ldr.w	r2, [r4, #192]	; 0xc0
    2d6e:	f8d4 00c4 	ldr.w	r0, [r4, #196]	; 0xc4
    2d72:	2a00      	cmp	r2, #0
    2d74:	d1d9      	bne.n	2d2a <AjK::MODSERIAL::isr_rx()+0x8a>
    2d76:	07c1      	lsls	r1, r0, #31
    2d78:	d5a3      	bpl.n	2cc2 <AjK::MODSERIAL::isr_rx()+0x22>
    2d7a:	1040      	asrs	r0, r0, #1
    2d7c:	5819      	ldr	r1, [r3, r0]
    2d7e:	4418      	add	r0, r3
    2d80:	588a      	ldr	r2, [r1, r2]
    2d82:	e7d6      	b.n	2d32 <AjK::MODSERIAL::isr_rx()+0x92>
    2d84:	f894 3061 	ldrb.w	r3, [r4, #97]	; 0x61
    2d88:	f8d4 20b8 	ldr.w	r2, [r4, #184]	; 0xb8
    2d8c:	b2db      	uxtb	r3, r3
    2d8e:	f8c4 308c 	str.w	r3, [r4, #140]	; 0x8c
    2d92:	2a00      	cmp	r2, #0
    2d94:	d0e5      	beq.n	2d62 <AjK::MODSERIAL::isr_rx()+0xc2>
    2d96:	4628      	mov	r0, r5
    2d98:	4790      	blx	r2
    2d9a:	e792      	b.n	2cc2 <AjK::MODSERIAL::isr_rx()+0x22>
    2d9c:	bd70      	pop	{r4, r5, r6, pc}
    2d9e:	f8d4 00ec 	ldr.w	r0, [r4, #236]	; 0xec
    2da2:	2800      	cmp	r0, #0
    2da4:	d093      	beq.n	2cce <AjK::MODSERIAL::isr_rx()+0x2e>
    2da6:	f8d4 20f0 	ldr.w	r2, [r4, #240]	; 0xf0
    2daa:	f8d4 30f4 	ldr.w	r3, [r4, #244]	; 0xf4
    2dae:	b1aa      	cbz	r2, 2ddc <AjK::MODSERIAL::isr_rx()+0x13c>
    2db0:	07d9      	lsls	r1, r3, #31
    2db2:	d416      	bmi.n	2de2 <AjK::MODSERIAL::isr_rx()+0x142>
    2db4:	eb00 0063 	add.w	r0, r0, r3, asr #1
    2db8:	4629      	mov	r1, r5
    2dba:	4790      	blx	r2
    2dbc:	e787      	b.n	2cce <AjK::MODSERIAL::isr_rx()+0x2e>
    2dbe:	f8d0 309c 	ldr.w	r3, [r0, #156]	; 0x9c
    2dc2:	b19b      	cbz	r3, 2dec <AjK::MODSERIAL::isr_rx()+0x14c>
    2dc4:	f8d0 20a0 	ldr.w	r2, [r0, #160]	; 0xa0
    2dc8:	f8d0 00a4 	ldr.w	r0, [r0, #164]	; 0xa4
    2dcc:	b1a2      	cbz	r2, 2df8 <AjK::MODSERIAL::isr_rx()+0x158>
    2dce:	07c4      	lsls	r4, r0, #31
    2dd0:	d40d      	bmi.n	2dee <AjK::MODSERIAL::isr_rx()+0x14e>
    2dd2:	eb03 0060 	add.w	r0, r3, r0, asr #1
    2dd6:	e8bd 4070 	ldmia.w	sp!, {r4, r5, r6, lr}
    2dda:	4710      	bx	r2
    2ddc:	07d9      	lsls	r1, r3, #31
    2dde:	f57f af76 	bpl.w	2cce <AjK::MODSERIAL::isr_rx()+0x2e>
    2de2:	105b      	asrs	r3, r3, #1
    2de4:	58c1      	ldr	r1, [r0, r3]
    2de6:	4418      	add	r0, r3
    2de8:	588a      	ldr	r2, [r1, r2]
    2dea:	e7e5      	b.n	2db8 <AjK::MODSERIAL::isr_rx()+0x118>
    2dec:	bd70      	pop	{r4, r5, r6, pc}
    2dee:	1040      	asrs	r0, r0, #1
    2df0:	581c      	ldr	r4, [r3, r0]
    2df2:	4418      	add	r0, r3
    2df4:	58a2      	ldr	r2, [r4, r2]
    2df6:	e7ee      	b.n	2dd6 <AjK::MODSERIAL::isr_rx()+0x136>
    2df8:	07c5      	lsls	r5, r0, #31
    2dfa:	d4f8      	bmi.n	2dee <AjK::MODSERIAL::isr_rx()+0x14e>
    2dfc:	bd70      	pop	{r4, r5, r6, pc}
    2dfe:	bf00      	nop

00002e00 <mbed::SerialBase::~SerialBase()>:
    2e00:	4770      	bx	lr
    2e02:	bf00      	nop

00002e04 <mbed::SerialBase::~SerialBase()>:
    2e04:	b510      	push	{r4, lr}
    2e06:	4604      	mov	r4, r0
    2e08:	f002 f809 	bl	4e1e <operator delete(void*)>
    2e0c:	4620      	mov	r0, r4
    2e0e:	bd10      	pop	{r4, pc}

00002e10 <AjK::MODSERIAL::~MODSERIAL()>:
    2e10:	b5f8      	push	{r3, r4, r5, r6, r7, lr}
    2e12:	4604      	mov	r4, r0
    2e14:	f890 20f8 	ldrb.w	r2, [r0, #248]	; 0xf8
    2e18:	4d14      	ldr	r5, [pc, #80]	; (2e6c <AjK::MODSERIAL::~MODSERIAL()+0x5c>)
    2e1a:	b253      	sxtb	r3, r2
    2e1c:	6e40      	ldr	r0, [r0, #100]	; 0x64
    2e1e:	095b      	lsrs	r3, r3, #5
    2e20:	f002 021f 	and.w	r2, r2, #31
    2e24:	2101      	movs	r1, #1
    2e26:	4e12      	ldr	r6, [pc, #72]	; (2e70 <AjK::MODSERIAL::~MODSERIAL()+0x60>)
    2e28:	f105 0e18 	add.w	lr, r5, #24
    2e2c:	f105 074c 	add.w	r7, r5, #76	; 0x4c
    2e30:	3320      	adds	r3, #32
    2e32:	fa01 f202 	lsl.w	r2, r1, r2
    2e36:	6025      	str	r5, [r4, #0]
    2e38:	f8c4 e040 	str.w	lr, [r4, #64]	; 0x40
    2e3c:	6467      	str	r7, [r4, #68]	; 0x44
    2e3e:	f846 2023 	str.w	r2, [r6, r3, lsl #2]
    2e42:	b108      	cbz	r0, 2e48 <AjK::MODSERIAL::~MODSERIAL()+0x38>
    2e44:	f7ff fec8 	bl	2bd8 <__wrap_free>
    2e48:	6ea0      	ldr	r0, [r4, #104]	; 0x68
    2e4a:	b108      	cbz	r0, 2e50 <AjK::MODSERIAL::~MODSERIAL()+0x40>
    2e4c:	f7ff fec4 	bl	2bd8 <__wrap_free>
    2e50:	4b08      	ldr	r3, [pc, #32]	; (2e74 <AjK::MODSERIAL::~MODSERIAL()+0x64>)
    2e52:	f104 0040 	add.w	r0, r4, #64	; 0x40
    2e56:	f103 0118 	add.w	r1, r3, #24
    2e5a:	f103 024c 	add.w	r2, r3, #76	; 0x4c
    2e5e:	6023      	str	r3, [r4, #0]
    2e60:	6421      	str	r1, [r4, #64]	; 0x40
    2e62:	6462      	str	r2, [r4, #68]	; 0x44
    2e64:	f001 fd6c 	bl	4940 <mbed::Stream::~Stream()>
    2e68:	4620      	mov	r0, r4
    2e6a:	bdf8      	pop	{r3, r4, r5, r6, r7, pc}
    2e6c:	00007770 	.word	0x00007770
    2e70:	e000e100 	.word	0xe000e100
    2e74:	00007ae8 	.word	0x00007ae8

00002e78 <non-virtual thunk to AjK::MODSERIAL::~MODSERIAL()>:
    2e78:	f1a0 0044 	sub.w	r0, r0, #68	; 0x44
    2e7c:	f7ff bfc8 	b.w	2e10 <AjK::MODSERIAL::~MODSERIAL()>

00002e80 <non-virtual thunk to AjK::MODSERIAL::~MODSERIAL()>:
    2e80:	f1a0 0040 	sub.w	r0, r0, #64	; 0x40
    2e84:	f7ff bfc4 	b.w	2e10 <AjK::MODSERIAL::~MODSERIAL()>

00002e88 <AjK::MODSERIAL::~MODSERIAL()>:
    2e88:	b510      	push	{r4, lr}
    2e8a:	4604      	mov	r4, r0
    2e8c:	f7ff ffc0 	bl	2e10 <AjK::MODSERIAL::~MODSERIAL()>
    2e90:	4620      	mov	r0, r4
    2e92:	f001 ffc4 	bl	4e1e <operator delete(void*)>
    2e96:	4620      	mov	r0, r4
    2e98:	bd10      	pop	{r4, pc}
    2e9a:	bf00      	nop

00002e9c <non-virtual thunk to AjK::MODSERIAL::~MODSERIAL()>:
    2e9c:	f1a0 0044 	sub.w	r0, r0, #68	; 0x44
    2ea0:	f7ff bff2 	b.w	2e88 <AjK::MODSERIAL::~MODSERIAL()>

00002ea4 <non-virtual thunk to AjK::MODSERIAL::~MODSERIAL()>:
    2ea4:	f1a0 0040 	sub.w	r0, r0, #64	; 0x40
    2ea8:	f7ff bfee 	b.w	2e88 <AjK::MODSERIAL::~MODSERIAL()>

00002eac <AjK::MODSERIAL::_putc(int)>:
    2eac:	2201      	movs	r2, #1
    2eae:	f000 b85d 	b.w	2f6c <AjK::MODSERIAL::__putc(int, bool)>
    2eb2:	bf00      	nop

00002eb4 <non-virtual thunk to AjK::MODSERIAL::_putc(int)>:
    2eb4:	f1a0 0040 	sub.w	r0, r0, #64	; 0x40
    2eb8:	e7f8      	b.n	2eac <AjK::MODSERIAL::_putc(int)>
    2eba:	bf00      	nop

00002ebc <AjK::MODSERIAL::_getc()>:
    2ebc:	2101      	movs	r1, #1
    2ebe:	f7ff beaf 	b.w	2c20 <AjK::MODSERIAL::__getc(bool)>
    2ec2:	bf00      	nop

00002ec4 <non-virtual thunk to AjK::MODSERIAL::_getc()>:
    2ec4:	f1a0 0040 	sub.w	r0, r0, #64	; 0x40
    2ec8:	e7f8      	b.n	2ebc <AjK::MODSERIAL::_getc()>
    2eca:	bf00      	nop

00002ecc <AjK::MODSERIAL::MODSERIAL(PinName, PinName, char const*)>:
    2ecc:	b538      	push	{r3, r4, r5, lr}
    2ece:	4604      	mov	r4, r0
    2ed0:	4615      	mov	r5, r2
    2ed2:	f001 fc79 	bl	47c8 <mbed::Serial::Serial(PinName, PinName, char const*)>
    2ed6:	4b11      	ldr	r3, [pc, #68]	; (2f1c <AjK::MODSERIAL::MODSERIAL(PinName, PinName, char const*)+0x50>)
    2ed8:	2100      	movs	r1, #0
    2eda:	f103 0018 	add.w	r0, r3, #24
    2ede:	460a      	mov	r2, r1
    2ee0:	65a1      	str	r1, [r4, #88]	; 0x58
    2ee2:	f103 014c 	add.w	r1, r3, #76	; 0x4c
    2ee6:	6023      	str	r3, [r4, #0]
    2ee8:	6461      	str	r1, [r4, #68]	; 0x44
    2eea:	6420      	str	r0, [r4, #64]	; 0x40
    2eec:	f104 03a8 	add.w	r3, r4, #168	; 0xa8
    2ef0:	f504 7184 	add.w	r1, r4, #264	; 0x108
    2ef4:	f843 2c10 	str.w	r2, [r3, #-16]
    2ef8:	f843 2c0c 	str.w	r2, [r3, #-12]
    2efc:	f843 2c08 	str.w	r2, [r3, #-8]
    2f00:	f843 2c04 	str.w	r2, [r3, #-4]
    2f04:	3310      	adds	r3, #16
    2f06:	428b      	cmp	r3, r1
    2f08:	d1f4      	bne.n	2ef4 <AjK::MODSERIAL::MODSERIAL(PinName, PinName, char const*)+0x28>
    2f0a:	f44f 7180 	mov.w	r1, #256	; 0x100
    2f0e:	4620      	mov	r0, r4
    2f10:	462b      	mov	r3, r5
    2f12:	460a      	mov	r2, r1
    2f14:	f000 f8a2 	bl	305c <AjK::MODSERIAL::init(int, int, PinName)>
    2f18:	4620      	mov	r0, r4
    2f1a:	bd38      	pop	{r3, r4, r5, pc}
    2f1c:	00007770 	.word	0x00007770

00002f20 <AjK::MODSERIAL::rxBufferEmpty()>:
    2f20:	f8d0 0084 	ldr.w	r0, [r0, #132]	; 0x84
    2f24:	fab0 f080 	clz	r0, r0
    2f28:	0940      	lsrs	r0, r0, #5
    2f2a:	4770      	bx	lr

00002f2c <AjK::MODSERIAL_callback::call(AjK::MODSERIAL_IRQ_INFO*)>:
    2f2c:	6803      	ldr	r3, [r0, #0]
    2f2e:	b410      	push	{r4}
    2f30:	b11b      	cbz	r3, 2f3a <AjK::MODSERIAL_callback::call(AjK::MODSERIAL_IRQ_INFO*)+0xe>
    2f32:	4608      	mov	r0, r1
    2f34:	f85d 4b04 	ldr.w	r4, [sp], #4
    2f38:	4718      	bx	r3
    2f3a:	6843      	ldr	r3, [r0, #4]
    2f3c:	b193      	cbz	r3, 2f64 <AjK::MODSERIAL_callback::call(AjK::MODSERIAL_IRQ_INFO*)+0x38>
    2f3e:	6882      	ldr	r2, [r0, #8]
    2f40:	68c0      	ldr	r0, [r0, #12]
    2f42:	b132      	cbz	r2, 2f52 <AjK::MODSERIAL_callback::call(AjK::MODSERIAL_IRQ_INFO*)+0x26>
    2f44:	07c4      	lsls	r4, r0, #31
    2f46:	d406      	bmi.n	2f56 <AjK::MODSERIAL_callback::call(AjK::MODSERIAL_IRQ_INFO*)+0x2a>
    2f48:	eb03 0060 	add.w	r0, r3, r0, asr #1
    2f4c:	f85d 4b04 	ldr.w	r4, [sp], #4
    2f50:	4710      	bx	r2
    2f52:	07c4      	lsls	r4, r0, #31
    2f54:	d506      	bpl.n	2f64 <AjK::MODSERIAL_callback::call(AjK::MODSERIAL_IRQ_INFO*)+0x38>
    2f56:	1040      	asrs	r0, r0, #1
    2f58:	581c      	ldr	r4, [r3, r0]
    2f5a:	4418      	add	r0, r3
    2f5c:	58a2      	ldr	r2, [r4, r2]
    2f5e:	f85d 4b04 	ldr.w	r4, [sp], #4
    2f62:	4710      	bx	r2
    2f64:	f85d 4b04 	ldr.w	r4, [sp], #4
    2f68:	4770      	bx	lr
    2f6a:	bf00      	nop

00002f6c <AjK::MODSERIAL::__putc(int, bool)>:
    2f6c:	6e83      	ldr	r3, [r0, #104]	; 0x68
    2f6e:	b570      	push	{r4, r5, r6, lr}
    2f70:	4604      	mov	r4, r0
    2f72:	460d      	mov	r5, r1
    2f74:	b113      	cbz	r3, 2f7c <AjK::MODSERIAL::__putc(int, bool)+0x10>
    2f76:	f8d0 3080 	ldr.w	r3, [r0, #128]	; 0x80
    2f7a:	b93b      	cbnz	r3, 2f8c <AjK::MODSERIAL::__putc(int, bool)+0x20>
    2f7c:	6de2      	ldr	r2, [r4, #92]	; 0x5c
    2f7e:	7d13      	ldrb	r3, [r2, #20]
    2f80:	0698      	lsls	r0, r3, #26
    2f82:	d5fc      	bpl.n	2f7e <AjK::MODSERIAL::__putc(int, bool)+0x12>
    2f84:	b2ed      	uxtb	r5, r5
    2f86:	7015      	strb	r5, [r2, #0]
    2f88:	2000      	movs	r0, #0
    2f8a:	bd70      	pop	{r4, r5, r6, pc}
    2f8c:	6dc3      	ldr	r3, [r0, #92]	; 0x5c
    2f8e:	7d19      	ldrb	r1, [r3, #20]
    2f90:	0689      	lsls	r1, r1, #26
    2f92:	d505      	bpl.n	2fa0 <AjK::MODSERIAL::__putc(int, bool)+0x34>
    2f94:	f8d0 0088 	ldr.w	r0, [r0, #136]	; 0x88
    2f98:	b910      	cbnz	r0, 2fa0 <AjK::MODSERIAL::__putc(int, bool)+0x34>
    2f9a:	b2ed      	uxtb	r5, r5
    2f9c:	701d      	strb	r5, [r3, #0]
    2f9e:	bd70      	pop	{r4, r5, r6, pc}
    2fa0:	b1c2      	cbz	r2, 2fd4 <AjK::MODSERIAL::__putc(int, bool)+0x68>
    2fa2:	685e      	ldr	r6, [r3, #4]
    2fa4:	685a      	ldr	r2, [r3, #4]
    2fa6:	f022 0202 	bic.w	r2, r2, #2
    2faa:	605a      	str	r2, [r3, #4]
    2fac:	f8d4 2088 	ldr.w	r2, [r4, #136]	; 0x88
    2fb0:	f8d4 3080 	ldr.w	r3, [r4, #128]	; 0x80
    2fb4:	429a      	cmp	r2, r3
    2fb6:	d109      	bne.n	2fcc <AjK::MODSERIAL::__putc(int, bool)+0x60>
    2fb8:	4620      	mov	r0, r4
    2fba:	2100      	movs	r1, #0
    2fbc:	f000 f8d2 	bl	3164 <AjK::MODSERIAL::isr_tx(bool)>
    2fc0:	f8d4 2088 	ldr.w	r2, [r4, #136]	; 0x88
    2fc4:	f8d4 3080 	ldr.w	r3, [r4, #128]	; 0x80
    2fc8:	429a      	cmp	r2, r3
    2fca:	d0f5      	beq.n	2fb8 <AjK::MODSERIAL::__putc(int, bool)+0x4c>
    2fcc:	6de3      	ldr	r3, [r4, #92]	; 0x5c
    2fce:	605e      	str	r6, [r3, #4]
    2fd0:	6de3      	ldr	r3, [r4, #92]	; 0x5c
    2fd2:	e005      	b.n	2fe0 <AjK::MODSERIAL::__putc(int, bool)+0x74>
    2fd4:	f8d4 1088 	ldr.w	r1, [r4, #136]	; 0x88
    2fd8:	f8d4 2080 	ldr.w	r2, [r4, #128]	; 0x80
    2fdc:	4291      	cmp	r1, r2
    2fde:	d020      	beq.n	3022 <AjK::MODSERIAL::__putc(int, bool)+0xb6>
    2fe0:	685a      	ldr	r2, [r3, #4]
    2fe2:	b2ed      	uxtb	r5, r5
    2fe4:	f022 0202 	bic.w	r2, r2, #2
    2fe8:	605a      	str	r2, [r3, #4]
    2fea:	6f23      	ldr	r3, [r4, #112]	; 0x70
    2fec:	6ea2      	ldr	r2, [r4, #104]	; 0x68
    2fee:	54d5      	strb	r5, [r2, r3]
    2ff0:	b672      	cpsid	i
    2ff2:	f8d4 3088 	ldr.w	r3, [r4, #136]	; 0x88
    2ff6:	3301      	adds	r3, #1
    2ff8:	f8c4 3088 	str.w	r3, [r4, #136]	; 0x88
    2ffc:	b662      	cpsie	i
    2ffe:	6f23      	ldr	r3, [r4, #112]	; 0x70
    3000:	2000      	movs	r0, #0
    3002:	3301      	adds	r3, #1
    3004:	6723      	str	r3, [r4, #112]	; 0x70
    3006:	6f22      	ldr	r2, [r4, #112]	; 0x70
    3008:	f8d4 3080 	ldr.w	r3, [r4, #128]	; 0x80
    300c:	429a      	cmp	r2, r3
    300e:	bfa8      	it	ge
    3010:	2300      	movge	r3, #0
    3012:	6de2      	ldr	r2, [r4, #92]	; 0x5c
    3014:	bfa8      	it	ge
    3016:	6723      	strge	r3, [r4, #112]	; 0x70
    3018:	6853      	ldr	r3, [r2, #4]
    301a:	f043 0302 	orr.w	r3, r3, #2
    301e:	6053      	str	r3, [r2, #4]
    3020:	bd70      	pop	{r4, r5, r6, pc}
    3022:	f104 00c8 	add.w	r0, r4, #200	; 0xc8
    3026:	f8c4 5090 	str.w	r5, [r4, #144]	; 0x90
    302a:	f104 0158 	add.w	r1, r4, #88	; 0x58
    302e:	f7ff ff7d 	bl	2f2c <AjK::MODSERIAL_callback::call(AjK::MODSERIAL_IRQ_INFO*)>
    3032:	f04f 30ff 	mov.w	r0, #4294967295
    3036:	bd70      	pop	{r4, r5, r6, pc}

00003038 <void mbed::FunctionPointerArg1<void, void>::membercaller<AjK::MODSERIAL>(void*, unsigned int*)>:
    3038:	684b      	ldr	r3, [r1, #4]
    303a:	07da      	lsls	r2, r3, #31
    303c:	d505      	bpl.n	304a <void mbed::FunctionPointerArg1<void, void>::membercaller<AjK::MODSERIAL>(void*, unsigned int*)+0x12>
    303e:	105b      	asrs	r3, r3, #1
    3040:	680a      	ldr	r2, [r1, #0]
    3042:	58c1      	ldr	r1, [r0, r3]
    3044:	4418      	add	r0, r3
    3046:	588a      	ldr	r2, [r1, r2]
    3048:	4710      	bx	r2
    304a:	680a      	ldr	r2, [r1, #0]
    304c:	eb00 0063 	add.w	r0, r0, r3, asr #1
    3050:	4710      	bx	r2
    3052:	bf00      	nop

00003054 <AjK::MODSERIAL::isr_tx()>:
    3054:	2101      	movs	r1, #1
    3056:	f000 b885 	b.w	3164 <AjK::MODSERIAL::isr_tx(bool)>
    305a:	bf00      	nop

0000305c <AjK::MODSERIAL::init(int, int, PinName)>:
    305c:	b5f8      	push	{r3, r4, r5, r6, r7, lr}
    305e:	4604      	mov	r4, r0
    3060:	f890 50f8 	ldrb.w	r5, [r0, #248]	; 0xf8
    3064:	2601      	movs	r6, #1
    3066:	b26b      	sxtb	r3, r5
    3068:	095b      	lsrs	r3, r3, #5
    306a:	f005 051f 	and.w	r5, r5, #31
    306e:	4f38      	ldr	r7, [pc, #224]	; (3150 <AjK::MODSERIAL::init(int, int, PinName)+0xf4>)
    3070:	3320      	adds	r3, #32
    3072:	fa06 f505 	lsl.w	r5, r6, r5
    3076:	f847 5023 	str.w	r5, [r7, r3, lsl #2]
    307a:	4616      	mov	r6, r2
    307c:	460d      	mov	r5, r1
    307e:	f000 f90b 	bl	3298 <AjK::MODSERIAL::setBase()>
    3082:	6de3      	ldr	r3, [r4, #92]	; 0x5c
    3084:	65a4      	str	r4, [r4, #88]	; 0x58
    3086:	2b00      	cmp	r3, #0
    3088:	d05e      	beq.n	3148 <AjK::MODSERIAL::init(int, int, PinName)+0xec>
    308a:	2e00      	cmp	r6, #0
    308c:	67e6      	str	r6, [r4, #124]	; 0x7c
    308e:	dd47      	ble.n	3120 <AjK::MODSERIAL::init(int, int, PinName)+0xc4>
    3090:	6fe0      	ldr	r0, [r4, #124]	; 0x7c
    3092:	f7ff fd95 	bl	2bc0 <__wrap_malloc>
    3096:	2100      	movs	r1, #0
    3098:	66e1      	str	r1, [r4, #108]	; 0x6c
    309a:	6660      	str	r0, [r4, #100]	; 0x64
    309c:	6761      	str	r1, [r4, #116]	; 0x74
    309e:	f8c4 1084 	str.w	r1, [r4, #132]	; 0x84
    30a2:	f8c4 108c 	str.w	r1, [r4, #140]	; 0x8c
    30a6:	2c00      	cmp	r4, #0
    30a8:	d042      	beq.n	3130 <AjK::MODSERIAL::init(int, int, PinName)+0xd4>
    30aa:	4a2a      	ldr	r2, [pc, #168]	; (3154 <AjK::MODSERIAL::init(int, int, PinName)+0xf8>)
    30ac:	4b2a      	ldr	r3, [pc, #168]	; (3158 <AjK::MODSERIAL::init(int, int, PinName)+0xfc>)
    30ae:	1d26      	adds	r6, r4, #4
    30b0:	6122      	str	r2, [r4, #16]
    30b2:	60e4      	str	r4, [r4, #12]
    30b4:	6161      	str	r1, [r4, #20]
    30b6:	6223      	str	r3, [r4, #32]
    30b8:	4630      	mov	r0, r6
    30ba:	2201      	movs	r2, #1
    30bc:	f000 ffac 	bl	4018 <serial_irq_set>
    30c0:	2d00      	cmp	r5, #0
    30c2:	f8c4 5080 	str.w	r5, [r4, #128]	; 0x80
    30c6:	dd3d      	ble.n	3144 <AjK::MODSERIAL::init(int, int, PinName)+0xe8>
    30c8:	f8d4 0080 	ldr.w	r0, [r4, #128]	; 0x80
    30cc:	f7ff fd78 	bl	2bc0 <__wrap_malloc>
    30d0:	4a22      	ldr	r2, [pc, #136]	; (315c <AjK::MODSERIAL::init(int, int, PinName)+0x100>)
    30d2:	2300      	movs	r3, #0
    30d4:	6723      	str	r3, [r4, #112]	; 0x70
    30d6:	66a0      	str	r0, [r4, #104]	; 0x68
    30d8:	67a3      	str	r3, [r4, #120]	; 0x78
    30da:	f8c4 3088 	str.w	r3, [r4, #136]	; 0x88
    30de:	f8c4 3090 	str.w	r3, [r4, #144]	; 0x90
    30e2:	b1fa      	cbz	r2, 3124 <AjK::MODSERIAL::init(int, int, PinName)+0xc8>
    30e4:	b1f4      	cbz	r4, 3124 <AjK::MODSERIAL::init(int, int, PinName)+0xc8>
    30e6:	4d1c      	ldr	r5, [pc, #112]	; (3158 <AjK::MODSERIAL::init(int, int, PinName)+0xfc>)
    30e8:	2101      	movs	r1, #1
    30ea:	62a2      	str	r2, [r4, #40]	; 0x28
    30ec:	6264      	str	r4, [r4, #36]	; 0x24
    30ee:	62e3      	str	r3, [r4, #44]	; 0x2c
    30f0:	4630      	mov	r0, r6
    30f2:	63a5      	str	r5, [r4, #56]	; 0x38
    30f4:	460a      	mov	r2, r1
    30f6:	f000 ff8f 	bl	4018 <serial_irq_set>
    30fa:	4620      	mov	r0, r4
    30fc:	f000 f8f8 	bl	32f0 <AjK::MODSERIAL::initDevice()>
    3100:	f894 30f8 	ldrb.w	r3, [r4, #248]	; 0xf8
    3104:	2101      	movs	r1, #1
    3106:	b25a      	sxtb	r2, r3
    3108:	f003 031f 	and.w	r3, r3, #31
    310c:	fa01 f303 	lsl.w	r3, r1, r3
    3110:	480f      	ldr	r0, [pc, #60]	; (3150 <AjK::MODSERIAL::init(int, int, PinName)+0xf4>)
    3112:	2100      	movs	r1, #0
    3114:	0952      	lsrs	r2, r2, #5
    3116:	f884 1094 	strb.w	r1, [r4, #148]	; 0x94
    311a:	f840 3022 	str.w	r3, [r0, r2, lsl #2]
    311e:	bdf8      	pop	{r3, r4, r5, r6, r7, pc}
    3120:	2000      	movs	r0, #0
    3122:	e7b8      	b.n	3096 <AjK::MODSERIAL::init(int, int, PinName)+0x3a>
    3124:	4630      	mov	r0, r6
    3126:	2101      	movs	r1, #1
    3128:	2200      	movs	r2, #0
    312a:	f000 ff75 	bl	4018 <serial_irq_set>
    312e:	e7e4      	b.n	30fa <AjK::MODSERIAL::init(int, int, PinName)+0x9e>
    3130:	2604      	movs	r6, #4
    3132:	4630      	mov	r0, r6
    3134:	4621      	mov	r1, r4
    3136:	4622      	mov	r2, r4
    3138:	f000 ff6e 	bl	4018 <serial_irq_set>
    313c:	2d00      	cmp	r5, #0
    313e:	f8c4 5080 	str.w	r5, [r4, #128]	; 0x80
    3142:	dcc1      	bgt.n	30c8 <AjK::MODSERIAL::init(int, int, PinName)+0x6c>
    3144:	2000      	movs	r0, #0
    3146:	e7c3      	b.n	30d0 <AjK::MODSERIAL::init(int, int, PinName)+0x74>
    3148:	4805      	ldr	r0, [pc, #20]	; (3160 <AjK::MODSERIAL::init(int, int, PinName)+0x104>)
    314a:	f000 f90f 	bl	336c <error>
    314e:	e7d4      	b.n	30fa <AjK::MODSERIAL::init(int, int, PinName)+0x9e>
    3150:	e000e100 	.word	0xe000e100
    3154:	00002ca1 	.word	0x00002ca1
    3158:	00003039 	.word	0x00003039
    315c:	00003055 	.word	0x00003055
    3160:	000077c4 	.word	0x000077c4

00003164 <AjK::MODSERIAL::isr_tx(bool)>:
    3164:	6dc3      	ldr	r3, [r0, #92]	; 0x5c
    3166:	e92d 41f0 	stmdb	sp!, {r4, r5, r6, r7, r8, lr}
    316a:	2b00      	cmp	r3, #0
    316c:	d037      	beq.n	31de <AjK::MODSERIAL::isr_tx(bool)+0x7a>
    316e:	f8d0 3080 	ldr.w	r3, [r0, #128]	; 0x80
    3172:	2b00      	cmp	r3, #0
    3174:	d033      	beq.n	31de <AjK::MODSERIAL::isr_tx(bool)+0x7a>
    3176:	6e83      	ldr	r3, [r0, #104]	; 0x68
    3178:	2b00      	cmp	r3, #0
    317a:	d030      	beq.n	31de <AjK::MODSERIAL::isr_tx(bool)+0x7a>
    317c:	460d      	mov	r5, r1
    317e:	4604      	mov	r4, r0
    3180:	2700      	movs	r7, #0
    3182:	f100 0658 	add.w	r6, r0, #88	; 0x58
    3186:	f8d4 3088 	ldr.w	r3, [r4, #136]	; 0x88
    318a:	b31b      	cbz	r3, 31d4 <AjK::MODSERIAL::isr_tx(bool)+0x70>
    318c:	6de3      	ldr	r3, [r4, #92]	; 0x5c
    318e:	7d1a      	ldrb	r2, [r3, #20]
    3190:	0692      	lsls	r2, r2, #26
    3192:	d51f      	bpl.n	31d4 <AjK::MODSERIAL::isr_tx(bool)+0x70>
    3194:	6fa2      	ldr	r2, [r4, #120]	; 0x78
    3196:	6ea1      	ldr	r1, [r4, #104]	; 0x68
    3198:	5c8a      	ldrb	r2, [r1, r2]
    319a:	b2d2      	uxtb	r2, r2
    319c:	f884 2060 	strb.w	r2, [r4, #96]	; 0x60
    31a0:	701a      	strb	r2, [r3, #0]
    31a2:	f8d4 3088 	ldr.w	r3, [r4, #136]	; 0x88
    31a6:	3b01      	subs	r3, #1
    31a8:	f8c4 3088 	str.w	r3, [r4, #136]	; 0x88
    31ac:	6fa3      	ldr	r3, [r4, #120]	; 0x78
    31ae:	3301      	adds	r3, #1
    31b0:	67a3      	str	r3, [r4, #120]	; 0x78
    31b2:	6fa2      	ldr	r2, [r4, #120]	; 0x78
    31b4:	f8d4 3080 	ldr.w	r3, [r4, #128]	; 0x80
    31b8:	429a      	cmp	r2, r3
    31ba:	db00      	blt.n	31be <AjK::MODSERIAL::isr_tx(bool)+0x5a>
    31bc:	67a7      	str	r7, [r4, #120]	; 0x78
    31be:	2d00      	cmp	r5, #0
    31c0:	d0e1      	beq.n	3186 <AjK::MODSERIAL::isr_tx(bool)+0x22>
    31c2:	f8d4 30a8 	ldr.w	r3, [r4, #168]	; 0xa8
    31c6:	b37b      	cbz	r3, 3228 <AjK::MODSERIAL::isr_tx(bool)+0xc4>
    31c8:	4630      	mov	r0, r6
    31ca:	4798      	blx	r3
    31cc:	f8d4 3088 	ldr.w	r3, [r4, #136]	; 0x88
    31d0:	2b00      	cmp	r3, #0
    31d2:	d1db      	bne.n	318c <AjK::MODSERIAL::isr_tx(bool)+0x28>
    31d4:	f8d4 3088 	ldr.w	r3, [r4, #136]	; 0x88
    31d8:	b153      	cbz	r3, 31f0 <AjK::MODSERIAL::isr_tx(bool)+0x8c>
    31da:	e8bd 81f0 	ldmia.w	sp!, {r4, r5, r6, r7, r8, pc}
    31de:	f8d0 30a8 	ldr.w	r3, [r0, #168]	; 0xa8
    31e2:	f100 0158 	add.w	r1, r0, #88	; 0x58
    31e6:	b37b      	cbz	r3, 3248 <AjK::MODSERIAL::isr_tx(bool)+0xe4>
    31e8:	e8bd 41f0 	ldmia.w	sp!, {r4, r5, r6, r7, r8, lr}
    31ec:	4608      	mov	r0, r1
    31ee:	4718      	bx	r3
    31f0:	6de2      	ldr	r2, [r4, #92]	; 0x5c
    31f2:	f104 0158 	add.w	r1, r4, #88	; 0x58
    31f6:	6853      	ldr	r3, [r2, #4]
    31f8:	f023 0302 	bic.w	r3, r3, #2
    31fc:	6053      	str	r3, [r2, #4]
    31fe:	f8d4 30d8 	ldr.w	r3, [r4, #216]	; 0xd8
    3202:	2b00      	cmp	r3, #0
    3204:	d1f0      	bne.n	31e8 <AjK::MODSERIAL::isr_tx(bool)+0x84>
    3206:	f8d4 00dc 	ldr.w	r0, [r4, #220]	; 0xdc
    320a:	2800      	cmp	r0, #0
    320c:	d0e5      	beq.n	31da <AjK::MODSERIAL::isr_tx(bool)+0x76>
    320e:	f8d4 20e0 	ldr.w	r2, [r4, #224]	; 0xe0
    3212:	f8d4 30e4 	ldr.w	r3, [r4, #228]	; 0xe4
    3216:	2a00      	cmp	r2, #0
    3218:	d035      	beq.n	3286 <AjK::MODSERIAL::isr_tx(bool)+0x122>
    321a:	07dc      	lsls	r4, r3, #31
    321c:	d429      	bmi.n	3272 <AjK::MODSERIAL::isr_tx(bool)+0x10e>
    321e:	eb00 0063 	add.w	r0, r0, r3, asr #1
    3222:	e8bd 41f0 	ldmia.w	sp!, {r4, r5, r6, r7, r8, lr}
    3226:	4710      	bx	r2
    3228:	f8d4 00ac 	ldr.w	r0, [r4, #172]	; 0xac
    322c:	2800      	cmp	r0, #0
    322e:	d0aa      	beq.n	3186 <AjK::MODSERIAL::isr_tx(bool)+0x22>
    3230:	f8d4 20b0 	ldr.w	r2, [r4, #176]	; 0xb0
    3234:	f8d4 30b4 	ldr.w	r3, [r4, #180]	; 0xb4
    3238:	b1a2      	cbz	r2, 3264 <AjK::MODSERIAL::isr_tx(bool)+0x100>
    323a:	07d9      	lsls	r1, r3, #31
    323c:	d414      	bmi.n	3268 <AjK::MODSERIAL::isr_tx(bool)+0x104>
    323e:	eb00 0063 	add.w	r0, r0, r3, asr #1
    3242:	4631      	mov	r1, r6
    3244:	4790      	blx	r2
    3246:	e79e      	b.n	3186 <AjK::MODSERIAL::isr_tx(bool)+0x22>
    3248:	f8d0 30ac 	ldr.w	r3, [r0, #172]	; 0xac
    324c:	2b00      	cmp	r3, #0
    324e:	d0c4      	beq.n	31da <AjK::MODSERIAL::isr_tx(bool)+0x76>
    3250:	f8d0 20b0 	ldr.w	r2, [r0, #176]	; 0xb0
    3254:	f8d0 00b4 	ldr.w	r0, [r0, #180]	; 0xb4
    3258:	b1ca      	cbz	r2, 328e <AjK::MODSERIAL::isr_tx(bool)+0x12a>
    325a:	07c4      	lsls	r4, r0, #31
    325c:	d40e      	bmi.n	327c <AjK::MODSERIAL::isr_tx(bool)+0x118>
    325e:	eb03 0060 	add.w	r0, r3, r0, asr #1
    3262:	e7de      	b.n	3222 <AjK::MODSERIAL::isr_tx(bool)+0xbe>
    3264:	07d9      	lsls	r1, r3, #31
    3266:	d58e      	bpl.n	3186 <AjK::MODSERIAL::isr_tx(bool)+0x22>
    3268:	105b      	asrs	r3, r3, #1
    326a:	58c1      	ldr	r1, [r0, r3]
    326c:	4418      	add	r0, r3
    326e:	588a      	ldr	r2, [r1, r2]
    3270:	e7e7      	b.n	3242 <AjK::MODSERIAL::isr_tx(bool)+0xde>
    3272:	105b      	asrs	r3, r3, #1
    3274:	58c4      	ldr	r4, [r0, r3]
    3276:	4418      	add	r0, r3
    3278:	58a2      	ldr	r2, [r4, r2]
    327a:	e7d2      	b.n	3222 <AjK::MODSERIAL::isr_tx(bool)+0xbe>
    327c:	1040      	asrs	r0, r0, #1
    327e:	581c      	ldr	r4, [r3, r0]
    3280:	4418      	add	r0, r3
    3282:	58a2      	ldr	r2, [r4, r2]
    3284:	e7cd      	b.n	3222 <AjK::MODSERIAL::isr_tx(bool)+0xbe>
    3286:	07dd      	lsls	r5, r3, #31
    3288:	d4f3      	bmi.n	3272 <AjK::MODSERIAL::isr_tx(bool)+0x10e>
    328a:	e8bd 81f0 	ldmia.w	sp!, {r4, r5, r6, r7, r8, pc}
    328e:	07c5      	lsls	r5, r0, #31
    3290:	d4f4      	bmi.n	327c <AjK::MODSERIAL::isr_tx(bool)+0x118>
    3292:	e8bd 81f0 	ldmia.w	sp!, {r4, r5, r6, r7, r8, pc}
    3296:	bf00      	nop

00003298 <AjK::MODSERIAL::setBase()>:
    3298:	6883      	ldr	r3, [r0, #8]
    329a:	2b03      	cmp	r3, #3
    329c:	d81b      	bhi.n	32d6 <AjK::MODSERIAL::setBase()+0x3e>
    329e:	e8df f003 	tbb	[pc, r3]
    32a2:	0e14      	.short	0x0e14
    32a4:	0208      	.short	0x0208
    32a6:	4a0e      	ldr	r2, [pc, #56]	; (32e0 <AjK::MODSERIAL::setBase()+0x48>)
    32a8:	2308      	movs	r3, #8
    32aa:	65c2      	str	r2, [r0, #92]	; 0x5c
    32ac:	f880 30f8 	strb.w	r3, [r0, #248]	; 0xf8
    32b0:	4770      	bx	lr
    32b2:	4a0c      	ldr	r2, [pc, #48]	; (32e4 <AjK::MODSERIAL::setBase()+0x4c>)
    32b4:	2307      	movs	r3, #7
    32b6:	65c2      	str	r2, [r0, #92]	; 0x5c
    32b8:	f880 30f8 	strb.w	r3, [r0, #248]	; 0xf8
    32bc:	4770      	bx	lr
    32be:	4a0a      	ldr	r2, [pc, #40]	; (32e8 <AjK::MODSERIAL::setBase()+0x50>)
    32c0:	2306      	movs	r3, #6
    32c2:	65c2      	str	r2, [r0, #92]	; 0x5c
    32c4:	f880 30f8 	strb.w	r3, [r0, #248]	; 0xf8
    32c8:	4770      	bx	lr
    32ca:	4a08      	ldr	r2, [pc, #32]	; (32ec <AjK::MODSERIAL::setBase()+0x54>)
    32cc:	2305      	movs	r3, #5
    32ce:	65c2      	str	r2, [r0, #92]	; 0x5c
    32d0:	f880 30f8 	strb.w	r3, [r0, #248]	; 0xf8
    32d4:	4770      	bx	lr
    32d6:	2300      	movs	r3, #0
    32d8:	65c3      	str	r3, [r0, #92]	; 0x5c
    32da:	f880 30f8 	strb.w	r3, [r0, #248]	; 0xf8
    32de:	4770      	bx	lr
    32e0:	4009c000 	.word	0x4009c000
    32e4:	40098000 	.word	0x40098000
    32e8:	40010000 	.word	0x40010000
    32ec:	4000c000 	.word	0x4000c000

000032f0 <AjK::MODSERIAL::initDevice()>:
    32f0:	6dc3      	ldr	r3, [r0, #92]	; 0x5c
    32f2:	2207      	movs	r2, #7
    32f4:	721a      	strb	r2, [r3, #8]
    32f6:	4770      	bx	lr

000032f8 <mbed_die>:
    32f8:	b500      	push	{lr}
    32fa:	b099      	sub	sp, #100	; 0x64
    32fc:	b672      	cpsid	i
    32fe:	4917      	ldr	r1, [pc, #92]	; (335c <mbed_die+0x64>)
    3300:	4668      	mov	r0, sp
    3302:	f000 f857 	bl	33b4 <gpio_init_out>
    3306:	a806      	add	r0, sp, #24
    3308:	4915      	ldr	r1, [pc, #84]	; (3360 <mbed_die+0x68>)
    330a:	f000 f853 	bl	33b4 <gpio_init_out>
    330e:	a80c      	add	r0, sp, #48	; 0x30
    3310:	4914      	ldr	r1, [pc, #80]	; (3364 <mbed_die+0x6c>)
    3312:	f000 f84f 	bl	33b4 <gpio_init_out>
    3316:	a812      	add	r0, sp, #72	; 0x48
    3318:	4913      	ldr	r1, [pc, #76]	; (3368 <mbed_die+0x70>)
    331a:	f000 f84b 	bl	33b4 <gpio_init_out>
    331e:	9a03      	ldr	r2, [sp, #12]
    3320:	9901      	ldr	r1, [sp, #4]
    3322:	9b0a      	ldr	r3, [sp, #40]	; 0x28
    3324:	6011      	str	r1, [r2, #0]
    3326:	9907      	ldr	r1, [sp, #28]
    3328:	9a10      	ldr	r2, [sp, #64]	; 0x40
    332a:	6019      	str	r1, [r3, #0]
    332c:	990d      	ldr	r1, [sp, #52]	; 0x34
    332e:	9b15      	ldr	r3, [sp, #84]	; 0x54
    3330:	6011      	str	r1, [r2, #0]
    3332:	9a13      	ldr	r2, [sp, #76]	; 0x4c
    3334:	2096      	movs	r0, #150	; 0x96
    3336:	601a      	str	r2, [r3, #0]
    3338:	f000 f970 	bl	361c <wait_ms>
    333c:	9a04      	ldr	r2, [sp, #16]
    333e:	9901      	ldr	r1, [sp, #4]
    3340:	9b09      	ldr	r3, [sp, #36]	; 0x24
    3342:	6011      	str	r1, [r2, #0]
    3344:	9907      	ldr	r1, [sp, #28]
    3346:	9a0f      	ldr	r2, [sp, #60]	; 0x3c
    3348:	6019      	str	r1, [r3, #0]
    334a:	990d      	ldr	r1, [sp, #52]	; 0x34
    334c:	9b16      	ldr	r3, [sp, #88]	; 0x58
    334e:	6011      	str	r1, [r2, #0]
    3350:	9a13      	ldr	r2, [sp, #76]	; 0x4c
    3352:	2096      	movs	r0, #150	; 0x96
    3354:	601a      	str	r2, [r3, #0]
    3356:	f000 f961 	bl	361c <wait_ms>
    335a:	e7e0      	b.n	331e <mbed_die+0x26>
    335c:	2009c032 	.word	0x2009c032
    3360:	2009c034 	.word	0x2009c034
    3364:	2009c035 	.word	0x2009c035
    3368:	2009c037 	.word	0x2009c037

0000336c <error>:
    336c:	b40f      	push	{r0, r1, r2, r3}
    336e:	b500      	push	{lr}
    3370:	4a06      	ldr	r2, [pc, #24]	; (338c <error+0x20>)
    3372:	b083      	sub	sp, #12
    3374:	ab04      	add	r3, sp, #16
    3376:	f853 1b04 	ldr.w	r1, [r3], #4
    337a:	6810      	ldr	r0, [r2, #0]
    337c:	461a      	mov	r2, r3
    337e:	68c0      	ldr	r0, [r0, #12]
    3380:	9301      	str	r3, [sp, #4]
    3382:	f002 fddd 	bl	5f40 <vfiprintf>
    3386:	2001      	movs	r0, #1
    3388:	f002 f854 	bl	5434 <exit>
    338c:	10000154 	.word	0x10000154

00003390 <gpio_init_in>:
    3390:	b538      	push	{r3, r4, r5, lr}
    3392:	460d      	mov	r5, r1
    3394:	4604      	mov	r4, r0
    3396:	f000 f9c1 	bl	371c <gpio_init>
    339a:	3501      	adds	r5, #1
    339c:	d009      	beq.n	33b2 <gpio_init_in+0x22>
    339e:	4620      	mov	r0, r4
    33a0:	2100      	movs	r1, #0
    33a2:	f000 f9dd 	bl	3760 <gpio_dir>
    33a6:	4620      	mov	r0, r4
    33a8:	e8bd 4038 	ldmia.w	sp!, {r3, r4, r5, lr}
    33ac:	2103      	movs	r1, #3
    33ae:	f000 b9d3 	b.w	3758 <gpio_mode>
    33b2:	bd38      	pop	{r3, r4, r5, pc}

000033b4 <gpio_init_out>:
    33b4:	b538      	push	{r3, r4, r5, lr}
    33b6:	460d      	mov	r5, r1
    33b8:	4604      	mov	r4, r0
    33ba:	f000 f9af 	bl	371c <gpio_init>
    33be:	3501      	adds	r5, #1
    33c0:	d00c      	beq.n	33dc <gpio_init_out+0x28>
    33c2:	6923      	ldr	r3, [r4, #16]
    33c4:	6862      	ldr	r2, [r4, #4]
    33c6:	4620      	mov	r0, r4
    33c8:	601a      	str	r2, [r3, #0]
    33ca:	2101      	movs	r1, #1
    33cc:	f000 f9c8 	bl	3760 <gpio_dir>
    33d0:	4620      	mov	r0, r4
    33d2:	e8bd 4038 	ldmia.w	sp!, {r3, r4, r5, lr}
    33d6:	2102      	movs	r1, #2
    33d8:	f000 b9be 	b.w	3758 <gpio_mode>
    33dc:	bd38      	pop	{r3, r4, r5, pc}
    33de:	bf00      	nop

000033e0 <gpio_init_out_ex>:
    33e0:	b570      	push	{r4, r5, r6, lr}
    33e2:	460d      	mov	r5, r1
    33e4:	4616      	mov	r6, r2
    33e6:	4604      	mov	r4, r0
    33e8:	f000 f998 	bl	371c <gpio_init>
    33ec:	3501      	adds	r5, #1
    33ee:	d011      	beq.n	3414 <gpio_init_out_ex+0x34>
    33f0:	b966      	cbnz	r6, 340c <gpio_init_out_ex+0x2c>
    33f2:	6923      	ldr	r3, [r4, #16]
    33f4:	6862      	ldr	r2, [r4, #4]
    33f6:	601a      	str	r2, [r3, #0]
    33f8:	4620      	mov	r0, r4
    33fa:	2101      	movs	r1, #1
    33fc:	f000 f9b0 	bl	3760 <gpio_dir>
    3400:	4620      	mov	r0, r4
    3402:	e8bd 4070 	ldmia.w	sp!, {r4, r5, r6, lr}
    3406:	2102      	movs	r1, #2
    3408:	f000 b9a6 	b.w	3758 <gpio_mode>
    340c:	68e3      	ldr	r3, [r4, #12]
    340e:	6862      	ldr	r2, [r4, #4]
    3410:	601a      	str	r2, [r3, #0]
    3412:	e7f1      	b.n	33f8 <gpio_init_out_ex+0x18>
    3414:	bd70      	pop	{r4, r5, r6, pc}
    3416:	bf00      	nop

00003418 <mbed_interface_connected>:
    3418:	f000 b866 	b.w	34e8 <semihost_connected>

0000341c <pinmap_pinout>:
    341c:	1c43      	adds	r3, r0, #1
    341e:	b510      	push	{r4, lr}
    3420:	4604      	mov	r4, r0
    3422:	d018      	beq.n	3456 <pinmap_pinout+0x3a>
    3424:	680b      	ldr	r3, [r1, #0]
    3426:	1c58      	adds	r0, r3, #1
    3428:	d104      	bne.n	3434 <pinmap_pinout+0x18>
    342a:	e00f      	b.n	344c <pinmap_pinout+0x30>
    342c:	f851 3f0c 	ldr.w	r3, [r1, #12]!
    3430:	1c5a      	adds	r2, r3, #1
    3432:	d00b      	beq.n	344c <pinmap_pinout+0x30>
    3434:	429c      	cmp	r4, r3
    3436:	d1f9      	bne.n	342c <pinmap_pinout+0x10>
    3438:	4620      	mov	r0, r4
    343a:	6889      	ldr	r1, [r1, #8]
    343c:	f000 fada 	bl	39f4 <pin_function>
    3440:	4620      	mov	r0, r4
    3442:	e8bd 4010 	ldmia.w	sp!, {r4, lr}
    3446:	2102      	movs	r1, #2
    3448:	f000 baf0 	b.w	3a2c <pin_mode>
    344c:	4802      	ldr	r0, [pc, #8]	; (3458 <pinmap_pinout+0x3c>)
    344e:	e8bd 4010 	ldmia.w	sp!, {r4, lr}
    3452:	f7ff bf8b 	b.w	336c <error>
    3456:	bd10      	pop	{r4, pc}
    3458:	000077f4 	.word	0x000077f4

0000345c <pinmap_merge>:
    345c:	4288      	cmp	r0, r1
    345e:	d00a      	beq.n	3476 <pinmap_merge+0x1a>
    3460:	1c42      	adds	r2, r0, #1
    3462:	d009      	beq.n	3478 <pinmap_merge+0x1c>
    3464:	3101      	adds	r1, #1
    3466:	d006      	beq.n	3476 <pinmap_merge+0x1a>
    3468:	b508      	push	{r3, lr}
    346a:	4804      	ldr	r0, [pc, #16]	; (347c <pinmap_merge+0x20>)
    346c:	f7ff ff7e 	bl	336c <error>
    3470:	f04f 30ff 	mov.w	r0, #4294967295
    3474:	bd08      	pop	{r3, pc}
    3476:	4770      	bx	lr
    3478:	4608      	mov	r0, r1
    347a:	4770      	bx	lr
    347c:	00007808 	.word	0x00007808

00003480 <pinmap_find_peripheral>:
    3480:	680b      	ldr	r3, [r1, #0]
    3482:	1c5a      	adds	r2, r3, #1
    3484:	d104      	bne.n	3490 <pinmap_find_peripheral+0x10>
    3486:	e007      	b.n	3498 <pinmap_find_peripheral+0x18>
    3488:	f851 3f0c 	ldr.w	r3, [r1, #12]!
    348c:	1c5a      	adds	r2, r3, #1
    348e:	d003      	beq.n	3498 <pinmap_find_peripheral+0x18>
    3490:	4283      	cmp	r3, r0
    3492:	d1f9      	bne.n	3488 <pinmap_find_peripheral+0x8>
    3494:	6848      	ldr	r0, [r1, #4]
    3496:	4770      	bx	lr
    3498:	4618      	mov	r0, r3
    349a:	4770      	bx	lr

0000349c <pinmap_peripheral>:
    349c:	1c42      	adds	r2, r0, #1
    349e:	d00e      	beq.n	34be <pinmap_peripheral+0x22>
    34a0:	b508      	push	{r3, lr}
    34a2:	680b      	ldr	r3, [r1, #0]
    34a4:	1c5a      	adds	r2, r3, #1
    34a6:	d104      	bne.n	34b2 <pinmap_peripheral+0x16>
    34a8:	e00a      	b.n	34c0 <pinmap_peripheral+0x24>
    34aa:	f851 3f0c 	ldr.w	r3, [r1, #12]!
    34ae:	1c5a      	adds	r2, r3, #1
    34b0:	d006      	beq.n	34c0 <pinmap_peripheral+0x24>
    34b2:	4298      	cmp	r0, r3
    34b4:	d1f9      	bne.n	34aa <pinmap_peripheral+0xe>
    34b6:	6848      	ldr	r0, [r1, #4]
    34b8:	1c41      	adds	r1, r0, #1
    34ba:	d001      	beq.n	34c0 <pinmap_peripheral+0x24>
    34bc:	bd08      	pop	{r3, pc}
    34be:	4770      	bx	lr
    34c0:	4802      	ldr	r0, [pc, #8]	; (34cc <pinmap_peripheral+0x30>)
    34c2:	f7ff ff53 	bl	336c <error>
    34c6:	f04f 30ff 	mov.w	r0, #4294967295
    34ca:	e7f7      	b.n	34bc <pinmap_peripheral+0x20>
    34cc:	0000781c 	.word	0x0000781c

000034d0 <semihost_exit>:
    34d0:	b530      	push	{r4, r5, lr}
    34d2:	b085      	sub	sp, #20
    34d4:	2418      	movs	r4, #24
    34d6:	466d      	mov	r5, sp
    34d8:	4620      	mov	r0, r4
    34da:	4629      	mov	r1, r5
    34dc:	beab      	bkpt	0x00ab
    34de:	4604      	mov	r4, r0
    34e0:	4620      	mov	r0, r4
    34e2:	b005      	add	sp, #20
    34e4:	bd30      	pop	{r4, r5, pc}
    34e6:	bf00      	nop

000034e8 <semihost_connected>:
    34e8:	4b02      	ldr	r3, [pc, #8]	; (34f4 <semihost_connected+0xc>)
    34ea:	6818      	ldr	r0, [r3, #0]
    34ec:	f000 0001 	and.w	r0, r0, #1
    34f0:	4770      	bx	lr
    34f2:	bf00      	nop
    34f4:	e000edf0 	.word	0xe000edf0

000034f8 <ticker_set_handler>:
    34f8:	b538      	push	{r3, r4, r5, lr}
    34fa:	4604      	mov	r4, r0
    34fc:	460d      	mov	r5, r1
    34fe:	6803      	ldr	r3, [r0, #0]
    3500:	681b      	ldr	r3, [r3, #0]
    3502:	4798      	blx	r3
    3504:	6863      	ldr	r3, [r4, #4]
    3506:	601d      	str	r5, [r3, #0]
    3508:	bd38      	pop	{r3, r4, r5, pc}
    350a:	bf00      	nop

0000350c <ticker_irq_handler>:
    350c:	6803      	ldr	r3, [r0, #0]
    350e:	b570      	push	{r4, r5, r6, lr}
    3510:	68db      	ldr	r3, [r3, #12]
    3512:	4605      	mov	r5, r0
    3514:	4798      	blx	r3
    3516:	686b      	ldr	r3, [r5, #4]
    3518:	685b      	ldr	r3, [r3, #4]
    351a:	b183      	cbz	r3, 353e <ticker_irq_handler+0x32>
    351c:	682a      	ldr	r2, [r5, #0]
    351e:	681c      	ldr	r4, [r3, #0]
    3520:	6853      	ldr	r3, [r2, #4]
    3522:	4798      	blx	r3
    3524:	1a20      	subs	r0, r4, r0
    3526:	2800      	cmp	r0, #0
    3528:	686a      	ldr	r2, [r5, #4]
    352a:	dc0d      	bgt.n	3548 <ticker_irq_handler+0x3c>
    352c:	6850      	ldr	r0, [r2, #4]
    352e:	6811      	ldr	r1, [r2, #0]
    3530:	6883      	ldr	r3, [r0, #8]
    3532:	6053      	str	r3, [r2, #4]
    3534:	2900      	cmp	r1, #0
    3536:	d0f0      	beq.n	351a <ticker_irq_handler+0xe>
    3538:	6840      	ldr	r0, [r0, #4]
    353a:	4788      	blx	r1
    353c:	e7eb      	b.n	3516 <ticker_irq_handler+0xa>
    353e:	682b      	ldr	r3, [r5, #0]
    3540:	e8bd 4070 	ldmia.w	sp!, {r4, r5, r6, lr}
    3544:	689b      	ldr	r3, [r3, #8]
    3546:	4718      	bx	r3
    3548:	682b      	ldr	r3, [r5, #0]
    354a:	6852      	ldr	r2, [r2, #4]
    354c:	691b      	ldr	r3, [r3, #16]
    354e:	6810      	ldr	r0, [r2, #0]
    3550:	e8bd 4070 	ldmia.w	sp!, {r4, r5, r6, lr}
    3554:	4718      	bx	r3
    3556:	bf00      	nop

00003558 <ticker_insert_event>:
    3558:	b530      	push	{r4, r5, lr}
    355a:	b083      	sub	sp, #12
    355c:	b672      	cpsid	i
    355e:	6844      	ldr	r4, [r0, #4]
    3560:	600a      	str	r2, [r1, #0]
    3562:	6865      	ldr	r5, [r4, #4]
    3564:	604b      	str	r3, [r1, #4]
    3566:	b18d      	cbz	r5, 358c <ticker_insert_event+0x34>
    3568:	682b      	ldr	r3, [r5, #0]
    356a:	1ad3      	subs	r3, r2, r3
    356c:	2b00      	cmp	r3, #0
    356e:	da05      	bge.n	357c <ticker_insert_event+0x24>
    3570:	e00c      	b.n	358c <ticker_insert_event+0x34>
    3572:	681c      	ldr	r4, [r3, #0]
    3574:	1b14      	subs	r4, r2, r4
    3576:	2c00      	cmp	r4, #0
    3578:	db03      	blt.n	3582 <ticker_insert_event+0x2a>
    357a:	461d      	mov	r5, r3
    357c:	68ab      	ldr	r3, [r5, #8]
    357e:	2b00      	cmp	r3, #0
    3580:	d1f7      	bne.n	3572 <ticker_insert_event+0x1a>
    3582:	60a9      	str	r1, [r5, #8]
    3584:	608b      	str	r3, [r1, #8]
    3586:	b662      	cpsie	i
    3588:	b003      	add	sp, #12
    358a:	bd30      	pop	{r4, r5, pc}
    358c:	6803      	ldr	r3, [r0, #0]
    358e:	6061      	str	r1, [r4, #4]
    3590:	691b      	ldr	r3, [r3, #16]
    3592:	4610      	mov	r0, r2
    3594:	9101      	str	r1, [sp, #4]
    3596:	4798      	blx	r3
    3598:	462b      	mov	r3, r5
    359a:	9901      	ldr	r1, [sp, #4]
    359c:	e7f2      	b.n	3584 <ticker_insert_event+0x2c>
    359e:	bf00      	nop

000035a0 <ticker_remove_event>:
    35a0:	b508      	push	{r3, lr}
    35a2:	b672      	cpsid	i
    35a4:	6843      	ldr	r3, [r0, #4]
    35a6:	685a      	ldr	r2, [r3, #4]
    35a8:	428a      	cmp	r2, r1
    35aa:	d011      	beq.n	35d0 <ticker_remove_event+0x30>
    35ac:	b14a      	cbz	r2, 35c2 <ticker_remove_event+0x22>
    35ae:	6893      	ldr	r3, [r2, #8]
    35b0:	428b      	cmp	r3, r1
    35b2:	d008      	beq.n	35c6 <ticker_remove_event+0x26>
    35b4:	b12b      	cbz	r3, 35c2 <ticker_remove_event+0x22>
    35b6:	689a      	ldr	r2, [r3, #8]
    35b8:	428a      	cmp	r2, r1
    35ba:	d005      	beq.n	35c8 <ticker_remove_event+0x28>
    35bc:	4613      	mov	r3, r2
    35be:	2b00      	cmp	r3, #0
    35c0:	d1f9      	bne.n	35b6 <ticker_remove_event+0x16>
    35c2:	b662      	cpsie	i
    35c4:	bd08      	pop	{r3, pc}
    35c6:	4613      	mov	r3, r2
    35c8:	688a      	ldr	r2, [r1, #8]
    35ca:	609a      	str	r2, [r3, #8]
    35cc:	b662      	cpsie	i
    35ce:	bd08      	pop	{r3, pc}
    35d0:	6892      	ldr	r2, [r2, #8]
    35d2:	605a      	str	r2, [r3, #4]
    35d4:	6803      	ldr	r3, [r0, #0]
    35d6:	b122      	cbz	r2, 35e2 <ticker_remove_event+0x42>
    35d8:	6810      	ldr	r0, [r2, #0]
    35da:	691b      	ldr	r3, [r3, #16]
    35dc:	4798      	blx	r3
    35de:	b662      	cpsie	i
    35e0:	bd08      	pop	{r3, pc}
    35e2:	689b      	ldr	r3, [r3, #8]
    35e4:	4798      	blx	r3
    35e6:	e7ec      	b.n	35c2 <ticker_remove_event+0x22>

000035e8 <ticker_read>:
    35e8:	6803      	ldr	r3, [r0, #0]
    35ea:	685b      	ldr	r3, [r3, #4]
    35ec:	4718      	bx	r3
    35ee:	bf00      	nop

000035f0 <get_us_ticker_data>:
    35f0:	4800      	ldr	r0, [pc, #0]	; (35f4 <get_us_ticker_data+0x4>)
    35f2:	4770      	bx	lr
    35f4:	00007870 	.word	0x00007870

000035f8 <us_ticker_irq_handler>:
    35f8:	4801      	ldr	r0, [pc, #4]	; (3600 <us_ticker_irq_handler+0x8>)
    35fa:	f7ff bf87 	b.w	350c <ticker_irq_handler>
    35fe:	bf00      	nop
    3600:	00007870 	.word	0x00007870

00003604 <wait_us>:
    3604:	b538      	push	{r3, r4, r5, lr}
    3606:	4605      	mov	r5, r0
    3608:	f000 ff1a 	bl	4440 <us_ticker_read>
    360c:	4604      	mov	r4, r0
    360e:	f000 ff17 	bl	4440 <us_ticker_read>
    3612:	1b00      	subs	r0, r0, r4
    3614:	42a8      	cmp	r0, r5
    3616:	d3fa      	bcc.n	360e <wait_us+0xa>
    3618:	bd38      	pop	{r3, r4, r5, pc}
    361a:	bf00      	nop

0000361c <wait_ms>:
    361c:	f44f 737a 	mov.w	r3, #1000	; 0x3e8
    3620:	fb03 f000 	mul.w	r0, r3, r0
    3624:	f7ff bfee 	b.w	3604 <wait_us>

00003628 <NVIC_SetVector>:
    3628:	4b0c      	ldr	r3, [pc, #48]	; (365c <NVIC_SetVector+0x34>)
    362a:	b430      	push	{r4, r5}
    362c:	689d      	ldr	r5, [r3, #8]
    362e:	689a      	ldr	r2, [r3, #8]
    3630:	462b      	mov	r3, r5
    3632:	f1b2 5f80 	cmp.w	r2, #268435456	; 0x10000000
    3636:	d20c      	bcs.n	3652 <NVIC_SetVector+0x2a>
    3638:	4a09      	ldr	r2, [pc, #36]	; (3660 <NVIC_SetVector+0x38>)
    363a:	35c4      	adds	r5, #196	; 0xc4
    363c:	f853 4b04 	ldr.w	r4, [r3], #4
    3640:	42ab      	cmp	r3, r5
    3642:	f842 4f04 	str.w	r4, [r2, #4]!
    3646:	d1f9      	bne.n	363c <NVIC_SetVector+0x14>
    3648:	f04f 5280 	mov.w	r2, #268435456	; 0x10000000
    364c:	4613      	mov	r3, r2
    364e:	4c03      	ldr	r4, [pc, #12]	; (365c <NVIC_SetVector+0x34>)
    3650:	60a2      	str	r2, [r4, #8]
    3652:	3010      	adds	r0, #16
    3654:	f843 1020 	str.w	r1, [r3, r0, lsl #2]
    3658:	bc30      	pop	{r4, r5}
    365a:	4770      	bx	lr
    365c:	e000ed00 	.word	0xe000ed00
    3660:	0ffffffc 	.word	0x0ffffffc

00003664 <SystemInit>:
    3664:	4a2b      	ldr	r2, [pc, #172]	; (3714 <SystemInit+0xb0>)
    3666:	2320      	movs	r3, #32
    3668:	b4f0      	push	{r4, r5, r6, r7}
    366a:	f8c2 31a0 	str.w	r3, [r2, #416]	; 0x1a0
    366e:	f8d2 31a0 	ldr.w	r3, [r2, #416]	; 0x1a0
    3672:	0698      	lsls	r0, r3, #26
    3674:	d445      	bmi.n	3702 <SystemInit+0x9e>
    3676:	4b27      	ldr	r3, [pc, #156]	; (3714 <SystemInit+0xb0>)
    3678:	2500      	movs	r5, #0
    367a:	4619      	mov	r1, r3
    367c:	2401      	movs	r4, #1
    367e:	20aa      	movs	r0, #170	; 0xaa
    3680:	2255      	movs	r2, #85	; 0x55
    3682:	2702      	movs	r7, #2
    3684:	260b      	movs	r6, #11
    3686:	f8c3 7104 	str.w	r7, [r3, #260]	; 0x104
    368a:	f8c3 51a8 	str.w	r5, [r3, #424]	; 0x1a8
    368e:	f8c3 51ac 	str.w	r5, [r3, #428]	; 0x1ac
    3692:	f8c3 410c 	str.w	r4, [r3, #268]	; 0x10c
    3696:	f8c3 6084 	str.w	r6, [r3, #132]	; 0x84
    369a:	f8c3 008c 	str.w	r0, [r3, #140]	; 0x8c
    369e:	f8c3 208c 	str.w	r2, [r3, #140]	; 0x8c
    36a2:	f8c3 4080 	str.w	r4, [r3, #128]	; 0x80
    36a6:	f8c3 008c 	str.w	r0, [r3, #140]	; 0x8c
    36aa:	f8c3 208c 	str.w	r2, [r3, #140]	; 0x8c
    36ae:	f8d1 3088 	ldr.w	r3, [r1, #136]	; 0x88
    36b2:	4a18      	ldr	r2, [pc, #96]	; (3714 <SystemInit+0xb0>)
    36b4:	015b      	lsls	r3, r3, #5
    36b6:	d5fa      	bpl.n	36ae <SystemInit+0x4a>
    36b8:	4611      	mov	r1, r2
    36ba:	2403      	movs	r4, #3
    36bc:	20aa      	movs	r0, #170	; 0xaa
    36be:	2355      	movs	r3, #85	; 0x55
    36c0:	f8c2 4080 	str.w	r4, [r2, #128]	; 0x80
    36c4:	f8c2 008c 	str.w	r0, [r2, #140]	; 0x8c
    36c8:	f8c2 308c 	str.w	r3, [r2, #140]	; 0x8c
    36cc:	f8d1 3088 	ldr.w	r3, [r1, #136]	; 0x88
    36d0:	4a10      	ldr	r2, [pc, #64]	; (3714 <SystemInit+0xb0>)
    36d2:	f013 7f40 	tst.w	r3, #50331648	; 0x3000000
    36d6:	d0f9      	beq.n	36cc <SystemInit+0x68>
    36d8:	490f      	ldr	r1, [pc, #60]	; (3718 <SystemInit+0xb4>)
    36da:	2300      	movs	r3, #0
    36dc:	2005      	movs	r0, #5
    36de:	f8c2 0108 	str.w	r0, [r2, #264]	; 0x108
    36e2:	f8c2 10c4 	str.w	r1, [r2, #196]	; 0xc4
    36e6:	f8c2 31c8 	str.w	r3, [r2, #456]	; 0x1c8
    36ea:	6813      	ldr	r3, [r2, #0]
    36ec:	bcf0      	pop	{r4, r5, r6, r7}
    36ee:	f423 4370 	bic.w	r3, r3, #61440	; 0xf000
    36f2:	f023 033a 	bic.w	r3, r3, #58	; 0x3a
    36f6:	f443 5340 	orr.w	r3, r3, #12288	; 0x3000
    36fa:	f043 033a 	orr.w	r3, r3, #58	; 0x3a
    36fe:	6013      	str	r3, [r2, #0]
    3700:	4770      	bx	lr
    3702:	f8d2 31a0 	ldr.w	r3, [r2, #416]	; 0x1a0
    3706:	0659      	lsls	r1, r3, #25
    3708:	d4b5      	bmi.n	3676 <SystemInit+0x12>
    370a:	f8d2 31a0 	ldr.w	r3, [r2, #416]	; 0x1a0
    370e:	0659      	lsls	r1, r3, #25
    3710:	d5f7      	bpl.n	3702 <SystemInit+0x9e>
    3712:	e7b0      	b.n	3676 <SystemInit+0x12>
    3714:	400fc000 	.word	0x400fc000
    3718:	042887de 	.word	0x042887de

0000371c <gpio_init>:
    371c:	1c4a      	adds	r2, r1, #1
    371e:	6001      	str	r1, [r0, #0]
    3720:	d018      	beq.n	3754 <gpio_init+0x38>
    3722:	b538      	push	{r3, r4, r5, lr}
    3724:	460c      	mov	r4, r1
    3726:	4605      	mov	r5, r0
    3728:	4608      	mov	r0, r1
    372a:	2100      	movs	r1, #0
    372c:	f000 f962 	bl	39f4 <pin_function>
    3730:	f024 011f 	bic.w	r1, r4, #31
    3734:	f004 021f 	and.w	r2, r4, #31
    3738:	2301      	movs	r3, #1
    373a:	4093      	lsls	r3, r2
    373c:	f101 0418 	add.w	r4, r1, #24
    3740:	f101 001c 	add.w	r0, r1, #28
    3744:	f101 0214 	add.w	r2, r1, #20
    3748:	60a9      	str	r1, [r5, #8]
    374a:	606b      	str	r3, [r5, #4]
    374c:	60ec      	str	r4, [r5, #12]
    374e:	6128      	str	r0, [r5, #16]
    3750:	616a      	str	r2, [r5, #20]
    3752:	bd38      	pop	{r3, r4, r5, pc}
    3754:	4770      	bx	lr
    3756:	bf00      	nop

00003758 <gpio_mode>:
    3758:	6800      	ldr	r0, [r0, #0]
    375a:	f000 b967 	b.w	3a2c <pin_mode>
    375e:	bf00      	nop

00003760 <gpio_dir>:
    3760:	b141      	cbz	r1, 3774 <gpio_dir+0x14>
    3762:	2901      	cmp	r1, #1
    3764:	d105      	bne.n	3772 <gpio_dir+0x12>
    3766:	6882      	ldr	r2, [r0, #8]
    3768:	6843      	ldr	r3, [r0, #4]
    376a:	6811      	ldr	r1, [r2, #0]
    376c:	430b      	orrs	r3, r1
    376e:	6013      	str	r3, [r2, #0]
    3770:	4770      	bx	lr
    3772:	4770      	bx	lr
    3774:	6882      	ldr	r2, [r0, #8]
    3776:	6841      	ldr	r1, [r0, #4]
    3778:	6813      	ldr	r3, [r2, #0]
    377a:	ea23 0301 	bic.w	r3, r3, r1
    377e:	6013      	str	r3, [r2, #0]
    3780:	4770      	bx	lr
    3782:	bf00      	nop

00003784 <handle_interrupt_in>:
    3784:	e92d 4ff0 	stmdb	sp!, {r4, r5, r6, r7, r8, r9, r10, r11, lr}
    3788:	4b43      	ldr	r3, [pc, #268]	; (3898 <handle_interrupt_in+0x114>)
    378a:	b083      	sub	sp, #12
    378c:	f8d3 8004 	ldr.w	r8, [r3, #4]
    3790:	689f      	ldr	r7, [r3, #8]
    3792:	6a5e      	ldr	r6, [r3, #36]	; 0x24
    3794:	6a9d      	ldr	r5, [r3, #40]	; 0x28
    3796:	f1b8 0f00 	cmp.w	r8, #0
    379a:	d022      	beq.n	37e2 <handle_interrupt_in+0x5e>
    379c:	469a      	mov	r10, r3
    379e:	f8df 9100 	ldr.w	r9, [pc, #256]	; 38a0 <handle_interrupt_in+0x11c>
    37a2:	4a3e      	ldr	r2, [pc, #248]	; (389c <handle_interrupt_in+0x118>)
    37a4:	f04f 0b01 	mov.w	r11, #1
    37a8:	e006      	b.n	37b8 <handle_interrupt_in+0x34>
    37aa:	fa0b f304 	lsl.w	r3, r11, r4
    37ae:	ebb8 0803 	subs.w	r8, r8, r3
    37b2:	f8ca 300c 	str.w	r3, [r10, #12]
    37b6:	d014      	beq.n	37e2 <handle_interrupt_in+0x5e>
    37b8:	fab8 f488 	clz	r4, r8
    37bc:	f1c4 041f 	rsb	r4, r4, #31
    37c0:	b2e4      	uxtb	r4, r4
    37c2:	f859 0024 	ldr.w	r0, [r9, r4, lsl #2]
    37c6:	2800      	cmp	r0, #0
    37c8:	d0ef      	beq.n	37aa <handle_interrupt_in+0x26>
    37ca:	6813      	ldr	r3, [r2, #0]
    37cc:	2101      	movs	r1, #1
    37ce:	9201      	str	r2, [sp, #4]
    37d0:	4798      	blx	r3
    37d2:	fa0b f304 	lsl.w	r3, r11, r4
    37d6:	ebb8 0803 	subs.w	r8, r8, r3
    37da:	9a01      	ldr	r2, [sp, #4]
    37dc:	f8ca 300c 	str.w	r3, [r10, #12]
    37e0:	d1ea      	bne.n	37b8 <handle_interrupt_in+0x34>
    37e2:	b1d7      	cbz	r7, 381a <handle_interrupt_in+0x96>
    37e4:	f8df 90b8 	ldr.w	r9, [pc, #184]	; 38a0 <handle_interrupt_in+0x11c>
    37e8:	f8df a0b0 	ldr.w	r10, [pc, #176]	; 389c <handle_interrupt_in+0x118>
    37ec:	f8df 80a8 	ldr.w	r8, [pc, #168]	; 3898 <handle_interrupt_in+0x114>
    37f0:	e005      	b.n	37fe <handle_interrupt_in+0x7a>
    37f2:	2301      	movs	r3, #1
    37f4:	40a3      	lsls	r3, r4
    37f6:	1aff      	subs	r7, r7, r3
    37f8:	f8c8 300c 	str.w	r3, [r8, #12]
    37fc:	d00d      	beq.n	381a <handle_interrupt_in+0x96>
    37fe:	fab7 f487 	clz	r4, r7
    3802:	f1c4 041f 	rsb	r4, r4, #31
    3806:	b2e4      	uxtb	r4, r4
    3808:	f859 0024 	ldr.w	r0, [r9, r4, lsl #2]
    380c:	2800      	cmp	r0, #0
    380e:	d0f0      	beq.n	37f2 <handle_interrupt_in+0x6e>
    3810:	f8da 3000 	ldr.w	r3, [r10]
    3814:	2102      	movs	r1, #2
    3816:	4798      	blx	r3
    3818:	e7eb      	b.n	37f2 <handle_interrupt_in+0x6e>
    381a:	b1e6      	cbz	r6, 3856 <handle_interrupt_in+0xd2>
    381c:	f8df 8080 	ldr.w	r8, [pc, #128]	; 38a0 <handle_interrupt_in+0x11c>
    3820:	f8df 9078 	ldr.w	r9, [pc, #120]	; 389c <handle_interrupt_in+0x118>
    3824:	4f1c      	ldr	r7, [pc, #112]	; (3898 <handle_interrupt_in+0x114>)
    3826:	e004      	b.n	3832 <handle_interrupt_in+0xae>
    3828:	2301      	movs	r3, #1
    382a:	40a3      	lsls	r3, r4
    382c:	1af6      	subs	r6, r6, r3
    382e:	62fb      	str	r3, [r7, #44]	; 0x2c
    3830:	d011      	beq.n	3856 <handle_interrupt_in+0xd2>
    3832:	fab6 f486 	clz	r4, r6
    3836:	f1c4 041f 	rsb	r4, r4, #31
    383a:	b2e4      	uxtb	r4, r4
    383c:	2c0f      	cmp	r4, #15
    383e:	f104 0320 	add.w	r3, r4, #32
    3842:	d8f1      	bhi.n	3828 <handle_interrupt_in+0xa4>
    3844:	f858 0023 	ldr.w	r0, [r8, r3, lsl #2]
    3848:	2800      	cmp	r0, #0
    384a:	d0ed      	beq.n	3828 <handle_interrupt_in+0xa4>
    384c:	f8d9 3000 	ldr.w	r3, [r9]
    3850:	2101      	movs	r1, #1
    3852:	4798      	blx	r3
    3854:	e7e8      	b.n	3828 <handle_interrupt_in+0xa4>
    3856:	b1dd      	cbz	r5, 3890 <handle_interrupt_in+0x10c>
    3858:	4f11      	ldr	r7, [pc, #68]	; (38a0 <handle_interrupt_in+0x11c>)
    385a:	f8df 8040 	ldr.w	r8, [pc, #64]	; 389c <handle_interrupt_in+0x118>
    385e:	4e0e      	ldr	r6, [pc, #56]	; (3898 <handle_interrupt_in+0x114>)
    3860:	e004      	b.n	386c <handle_interrupt_in+0xe8>
    3862:	2301      	movs	r3, #1
    3864:	40a3      	lsls	r3, r4
    3866:	1aed      	subs	r5, r5, r3
    3868:	62f3      	str	r3, [r6, #44]	; 0x2c
    386a:	d011      	beq.n	3890 <handle_interrupt_in+0x10c>
    386c:	fab5 f485 	clz	r4, r5
    3870:	f1c4 041f 	rsb	r4, r4, #31
    3874:	b2e4      	uxtb	r4, r4
    3876:	2c0f      	cmp	r4, #15
    3878:	f104 0320 	add.w	r3, r4, #32
    387c:	d8f1      	bhi.n	3862 <handle_interrupt_in+0xde>
    387e:	f857 0023 	ldr.w	r0, [r7, r3, lsl #2]
    3882:	2800      	cmp	r0, #0
    3884:	d0ed      	beq.n	3862 <handle_interrupt_in+0xde>
    3886:	f8d8 3000 	ldr.w	r3, [r8]
    388a:	2102      	movs	r1, #2
    388c:	4798      	blx	r3
    388e:	e7e8      	b.n	3862 <handle_interrupt_in+0xde>
    3890:	b003      	add	sp, #12
    3892:	e8bd 8ff0 	ldmia.w	sp!, {r4, r5, r6, r7, r8, r9, r10, r11, pc}
    3896:	bf00      	nop
    3898:	40028080 	.word	0x40028080
    389c:	10000ae8 	.word	0x10000ae8
    38a0:	10000aec 	.word	0x10000aec

000038a4 <gpio_irq_init>:
    38a4:	f1b1 3fff 	cmp.w	r1, #4294967295
    38a8:	d028      	beq.n	38fc <gpio_irq_init+0x58>
    38aa:	b5f8      	push	{r3, r4, r5, r6, r7, lr}
    38ac:	4604      	mov	r4, r0
    38ae:	461e      	mov	r6, r3
    38b0:	4b13      	ldr	r3, [pc, #76]	; (3900 <gpio_irq_init+0x5c>)
    38b2:	f021 051f 	bic.w	r5, r1, #31
    38b6:	f001 001f 	and.w	r0, r1, #31
    38ba:	4f12      	ldr	r7, [pc, #72]	; (3904 <gpio_irq_init+0x60>)
    38bc:	f021 015f 	bic.w	r1, r1, #95	; 0x5f
    38c0:	4299      	cmp	r1, r3
    38c2:	603a      	str	r2, [r7, #0]
    38c4:	6025      	str	r5, [r4, #0]
    38c6:	6060      	str	r0, [r4, #4]
    38c8:	d004      	beq.n	38d4 <gpio_irq_init+0x30>
    38ca:	480f      	ldr	r0, [pc, #60]	; (3908 <gpio_irq_init+0x64>)
    38cc:	f7ff fd4e 	bl	336c <error>
    38d0:	6825      	ldr	r5, [r4, #0]
    38d2:	6860      	ldr	r0, [r4, #4]
    38d4:	4b0a      	ldr	r3, [pc, #40]	; (3900 <gpio_irq_init+0x5c>)
    38d6:	490d      	ldr	r1, [pc, #52]	; (390c <gpio_irq_init+0x68>)
    38d8:	429d      	cmp	r5, r3
    38da:	bf0c      	ite	eq
    38dc:	4602      	moveq	r2, r0
    38de:	f100 0220 	addne.w	r2, r0, #32
    38e2:	4b0b      	ldr	r3, [pc, #44]	; (3910 <gpio_irq_init+0x6c>)
    38e4:	60a2      	str	r2, [r4, #8]
    38e6:	2015      	movs	r0, #21
    38e8:	f843 6022 	str.w	r6, [r3, r2, lsl #2]
    38ec:	f7ff fe9c 	bl	3628 <NVIC_SetVector>
    38f0:	4b08      	ldr	r3, [pc, #32]	; (3914 <gpio_irq_init+0x70>)
    38f2:	f44f 1200 	mov.w	r2, #2097152	; 0x200000
    38f6:	601a      	str	r2, [r3, #0]
    38f8:	2000      	movs	r0, #0
    38fa:	bdf8      	pop	{r3, r4, r5, r6, r7, pc}
    38fc:	4608      	mov	r0, r1
    38fe:	4770      	bx	lr
    3900:	2009c000 	.word	0x2009c000
    3904:	10000ae8 	.word	0x10000ae8
    3908:	00007878 	.word	0x00007878
    390c:	00003785 	.word	0x00003785
    3910:	10000aec 	.word	0x10000aec
    3914:	e000e100 	.word	0xe000e100

00003918 <gpio_irq_free>:
    3918:	6882      	ldr	r2, [r0, #8]
    391a:	4b02      	ldr	r3, [pc, #8]	; (3924 <gpio_irq_free+0xc>)
    391c:	2100      	movs	r1, #0
    391e:	f843 1022 	str.w	r1, [r3, r2, lsl #2]
    3922:	4770      	bx	lr
    3924:	10000aec 	.word	0x10000aec

00003928 <gpio_irq_set>:
    3928:	b430      	push	{r4, r5}
    392a:	6803      	ldr	r3, [r0, #0]
    392c:	4c2e      	ldr	r4, [pc, #184]	; (39e8 <gpio_irq_set+0xc0>)
    392e:	42a3      	cmp	r3, r4
    3930:	d01d      	beq.n	396e <gpio_irq_set+0x46>
    3932:	4d2e      	ldr	r5, [pc, #184]	; (39ec <gpio_irq_set+0xc4>)
    3934:	42ab      	cmp	r3, r5
    3936:	d112      	bne.n	395e <gpio_irq_set+0x36>
    3938:	6845      	ldr	r5, [r0, #4]
    393a:	2301      	movs	r3, #1
    393c:	4c2c      	ldr	r4, [pc, #176]	; (39f0 <gpio_irq_set+0xc8>)
    393e:	40ab      	lsls	r3, r5
    3940:	2901      	cmp	r1, #1
    3942:	62e3      	str	r3, [r4, #44]	; 0x2c
    3944:	d02b      	beq.n	399e <gpio_irq_set+0x76>
    3946:	492a      	ldr	r1, [pc, #168]	; (39f0 <gpio_irq_set+0xc8>)
    3948:	6840      	ldr	r0, [r0, #4]
    394a:	2301      	movs	r3, #1
    394c:	2a00      	cmp	r2, #0
    394e:	d133      	bne.n	39b8 <gpio_irq_set+0x90>
    3950:	bc30      	pop	{r4, r5}
    3952:	6b4a      	ldr	r2, [r1, #52]	; 0x34
    3954:	4083      	lsls	r3, r0
    3956:	ea22 0303 	bic.w	r3, r2, r3
    395a:	634b      	str	r3, [r1, #52]	; 0x34
    395c:	4770      	bx	lr
    395e:	2901      	cmp	r1, #1
    3960:	d016      	beq.n	3990 <gpio_irq_set+0x68>
    3962:	42a3      	cmp	r3, r4
    3964:	d00a      	beq.n	397c <gpio_irq_set+0x54>
    3966:	42ab      	cmp	r3, r5
    3968:	d0ed      	beq.n	3946 <gpio_irq_set+0x1e>
    396a:	bc30      	pop	{r4, r5}
    396c:	4770      	bx	lr
    396e:	6845      	ldr	r5, [r0, #4]
    3970:	2301      	movs	r3, #1
    3972:	4c1f      	ldr	r4, [pc, #124]	; (39f0 <gpio_irq_set+0xc8>)
    3974:	40ab      	lsls	r3, r5
    3976:	2901      	cmp	r1, #1
    3978:	60e3      	str	r3, [r4, #12]
    397a:	d025      	beq.n	39c8 <gpio_irq_set+0xa0>
    397c:	491c      	ldr	r1, [pc, #112]	; (39f0 <gpio_irq_set+0xc8>)
    397e:	6840      	ldr	r0, [r0, #4]
    3980:	2301      	movs	r3, #1
    3982:	b192      	cbz	r2, 39aa <gpio_irq_set+0x82>
    3984:	bc30      	pop	{r4, r5}
    3986:	694a      	ldr	r2, [r1, #20]
    3988:	4083      	lsls	r3, r0
    398a:	4313      	orrs	r3, r2
    398c:	614b      	str	r3, [r1, #20]
    398e:	4770      	bx	lr
    3990:	42a3      	cmp	r3, r4
    3992:	d016      	beq.n	39c2 <gpio_irq_set+0x9a>
    3994:	42ab      	cmp	r3, r5
    3996:	d1e8      	bne.n	396a <gpio_irq_set+0x42>
    3998:	6843      	ldr	r3, [r0, #4]
    399a:	fa01 f303 	lsl.w	r3, r1, r3
    399e:	4914      	ldr	r1, [pc, #80]	; (39f0 <gpio_irq_set+0xc8>)
    39a0:	b1ea      	cbz	r2, 39de <gpio_irq_set+0xb6>
    39a2:	6b0a      	ldr	r2, [r1, #48]	; 0x30
    39a4:	4313      	orrs	r3, r2
    39a6:	630b      	str	r3, [r1, #48]	; 0x30
    39a8:	e7df      	b.n	396a <gpio_irq_set+0x42>
    39aa:	694a      	ldr	r2, [r1, #20]
    39ac:	4083      	lsls	r3, r0
    39ae:	ea22 0303 	bic.w	r3, r2, r3
    39b2:	614b      	str	r3, [r1, #20]
    39b4:	bc30      	pop	{r4, r5}
    39b6:	4770      	bx	lr
    39b8:	6b4a      	ldr	r2, [r1, #52]	; 0x34
    39ba:	4083      	lsls	r3, r0
    39bc:	4313      	orrs	r3, r2
    39be:	634b      	str	r3, [r1, #52]	; 0x34
    39c0:	e7d3      	b.n	396a <gpio_irq_set+0x42>
    39c2:	6843      	ldr	r3, [r0, #4]
    39c4:	fa01 f303 	lsl.w	r3, r1, r3
    39c8:	4909      	ldr	r1, [pc, #36]	; (39f0 <gpio_irq_set+0xc8>)
    39ca:	b11a      	cbz	r2, 39d4 <gpio_irq_set+0xac>
    39cc:	690a      	ldr	r2, [r1, #16]
    39ce:	4313      	orrs	r3, r2
    39d0:	610b      	str	r3, [r1, #16]
    39d2:	e7ca      	b.n	396a <gpio_irq_set+0x42>
    39d4:	690a      	ldr	r2, [r1, #16]
    39d6:	ea22 0303 	bic.w	r3, r2, r3
    39da:	610b      	str	r3, [r1, #16]
    39dc:	e7c5      	b.n	396a <gpio_irq_set+0x42>
    39de:	6b0a      	ldr	r2, [r1, #48]	; 0x30
    39e0:	ea22 0303 	bic.w	r3, r2, r3
    39e4:	630b      	str	r3, [r1, #48]	; 0x30
    39e6:	e7c0      	b.n	396a <gpio_irq_set+0x42>
    39e8:	2009c000 	.word	0x2009c000
    39ec:	2009c040 	.word	0x2009c040
    39f0:	40028080 	.word	0x40028080

000039f4 <pin_function>:
    39f4:	f100 4060 	add.w	r0, r0, #3758096384	; 0xe0000000
    39f8:	f5a0 201c 	sub.w	r0, r0, #638976	; 0x9c000
    39fc:	0903      	lsrs	r3, r0, #4
    39fe:	009b      	lsls	r3, r3, #2
    3a00:	f103 4380 	add.w	r3, r3, #1073741824	; 0x40000000
    3a04:	f503 3330 	add.w	r3, r3, #180224	; 0x2c000
    3a08:	f000 000f 	and.w	r0, r0, #15
    3a0c:	b410      	push	{r4}
    3a0e:	0040      	lsls	r0, r0, #1
    3a10:	681c      	ldr	r4, [r3, #0]
    3a12:	2203      	movs	r2, #3
    3a14:	4082      	lsls	r2, r0
    3a16:	ea24 0202 	bic.w	r2, r4, r2
    3a1a:	601a      	str	r2, [r3, #0]
    3a1c:	681a      	ldr	r2, [r3, #0]
    3a1e:	4081      	lsls	r1, r0
    3a20:	430a      	orrs	r2, r1
    3a22:	601a      	str	r2, [r3, #0]
    3a24:	f85d 4b04 	ldr.w	r4, [sp], #4
    3a28:	4770      	bx	lr
    3a2a:	bf00      	nop

00003a2c <pin_mode>:
    3a2c:	f100 4060 	add.w	r0, r0, #3758096384	; 0xe0000000
    3a30:	f5a0 201c 	sub.w	r0, r0, #638976	; 0x9c000
    3a34:	0943      	lsrs	r3, r0, #5
    3a36:	009b      	lsls	r3, r3, #2
    3a38:	f103 4380 	add.w	r3, r3, #1073741824	; 0x40000000
    3a3c:	f503 3330 	add.w	r3, r3, #180224	; 0x2c000
    3a40:	b430      	push	{r4, r5}
    3a42:	f000 021f 	and.w	r2, r0, #31
    3a46:	6e9c      	ldr	r4, [r3, #104]	; 0x68
    3a48:	f3c1 0580 	ubfx	r5, r1, #2, #1
    3a4c:	fa05 f202 	lsl.w	r2, r5, r2
    3a50:	ea24 0402 	bic.w	r4, r4, r2
    3a54:	669c      	str	r4, [r3, #104]	; 0x68
    3a56:	6e9c      	ldr	r4, [r3, #104]	; 0x68
    3a58:	4322      	orrs	r2, r4
    3a5a:	669a      	str	r2, [r3, #104]	; 0x68
    3a5c:	b995      	cbnz	r5, 3a84 <pin_mode+0x58>
    3a5e:	0903      	lsrs	r3, r0, #4
    3a60:	009b      	lsls	r3, r3, #2
    3a62:	f103 4380 	add.w	r3, r3, #1073741824	; 0x40000000
    3a66:	f503 3330 	add.w	r3, r3, #180224	; 0x2c000
    3a6a:	f000 000f 	and.w	r0, r0, #15
    3a6e:	6c1c      	ldr	r4, [r3, #64]	; 0x40
    3a70:	0040      	lsls	r0, r0, #1
    3a72:	2203      	movs	r2, #3
    3a74:	4082      	lsls	r2, r0
    3a76:	ea24 0202 	bic.w	r2, r4, r2
    3a7a:	641a      	str	r2, [r3, #64]	; 0x40
    3a7c:	6c1a      	ldr	r2, [r3, #64]	; 0x40
    3a7e:	4081      	lsls	r1, r0
    3a80:	4311      	orrs	r1, r2
    3a82:	6419      	str	r1, [r3, #64]	; 0x40
    3a84:	bc30      	pop	{r4, r5}
    3a86:	4770      	bx	lr

00003a88 <pwmout_write>:
    3a88:	b570      	push	{r4, r5, r6, lr}
    3a8a:	460c      	mov	r4, r1
    3a8c:	4605      	mov	r5, r0
    3a8e:	2100      	movs	r1, #0
    3a90:	4620      	mov	r0, r4
    3a92:	f001 fc73 	bl	537c <__aeabi_fcmplt>
    3a96:	b9f0      	cbnz	r0, 3ad6 <pwmout_write+0x4e>
    3a98:	4620      	mov	r0, r4
    3a9a:	f04f 517e 	mov.w	r1, #1065353216	; 0x3f800000
    3a9e:	f001 fc8b 	bl	53b8 <__aeabi_fcmpgt>
    3aa2:	b108      	cbz	r0, 3aa8 <pwmout_write+0x20>
    3aa4:	f04f 547e 	mov.w	r4, #1065353216	; 0x3f800000
    3aa8:	4e0c      	ldr	r6, [pc, #48]	; (3adc <pwmout_write+0x54>)
    3aaa:	69b0      	ldr	r0, [r6, #24]
    3aac:	f001 fa70 	bl	4f90 <__aeabi_ui2f>
    3ab0:	4621      	mov	r1, r4
    3ab2:	f001 fac5 	bl	5040 <__aeabi_fmul>
    3ab6:	f001 fc89 	bl	53cc <__aeabi_f2uiz>
    3aba:	69b3      	ldr	r3, [r6, #24]
    3abc:	4907      	ldr	r1, [pc, #28]	; (3adc <pwmout_write+0x54>)
    3abe:	4283      	cmp	r3, r0
    3ac0:	682b      	ldr	r3, [r5, #0]
    3ac2:	bf08      	it	eq
    3ac4:	3001      	addeq	r0, #1
    3ac6:	6018      	str	r0, [r3, #0]
    3ac8:	7928      	ldrb	r0, [r5, #4]
    3aca:	6d0a      	ldr	r2, [r1, #80]	; 0x50
    3acc:	2301      	movs	r3, #1
    3ace:	4083      	lsls	r3, r0
    3ad0:	4313      	orrs	r3, r2
    3ad2:	650b      	str	r3, [r1, #80]	; 0x50
    3ad4:	bd70      	pop	{r4, r5, r6, pc}
    3ad6:	2400      	movs	r4, #0
    3ad8:	e7e6      	b.n	3aa8 <pwmout_write+0x20>
    3ada:	bf00      	nop
    3adc:	40018000 	.word	0x40018000

00003ae0 <pwmout_period_us>:
    3ae0:	4b0e      	ldr	r3, [pc, #56]	; (3b1c <pwmout_period_us+0x3c>)
    3ae2:	4a0f      	ldr	r2, [pc, #60]	; (3b20 <pwmout_period_us+0x40>)
    3ae4:	681b      	ldr	r3, [r3, #0]
    3ae6:	b410      	push	{r4}
    3ae8:	fb03 f101 	mul.w	r1, r3, r1
    3aec:	2402      	movs	r4, #2
    3aee:	6054      	str	r4, [r2, #4]
    3af0:	6191      	str	r1, [r2, #24]
    3af2:	6993      	ldr	r3, [r2, #24]
    3af4:	b13b      	cbz	r3, 3b06 <pwmout_period_us+0x26>
    3af6:	6800      	ldr	r0, [r0, #0]
    3af8:	6803      	ldr	r3, [r0, #0]
    3afa:	6992      	ldr	r2, [r2, #24]
    3afc:	fb03 f101 	mul.w	r1, r3, r1
    3b00:	fbb1 f1f2 	udiv	r1, r1, r2
    3b04:	6001      	str	r1, [r0, #0]
    3b06:	4b06      	ldr	r3, [pc, #24]	; (3b20 <pwmout_period_us+0x40>)
    3b08:	2109      	movs	r1, #9
    3b0a:	6d1a      	ldr	r2, [r3, #80]	; 0x50
    3b0c:	f85d 4b04 	ldr.w	r4, [sp], #4
    3b10:	f042 0201 	orr.w	r2, r2, #1
    3b14:	651a      	str	r2, [r3, #80]	; 0x50
    3b16:	6059      	str	r1, [r3, #4]
    3b18:	4770      	bx	lr
    3b1a:	bf00      	nop
    3b1c:	10000bac 	.word	0x10000bac
    3b20:	40018000 	.word	0x40018000

00003b24 <pwmout_init>:
    3b24:	b5f8      	push	{r3, r4, r5, r6, r7, lr}
    3b26:	460e      	mov	r6, r1
    3b28:	4d1e      	ldr	r5, [pc, #120]	; (3ba4 <pwmout_init+0x80>)
    3b2a:	4604      	mov	r4, r0
    3b2c:	4629      	mov	r1, r5
    3b2e:	4630      	mov	r0, r6
    3b30:	f7ff fcb4 	bl	349c <pinmap_peripheral>
    3b34:	491c      	ldr	r1, [pc, #112]	; (3ba8 <pwmout_init+0x84>)
    3b36:	4f1d      	ldr	r7, [pc, #116]	; (3bac <pwmout_init+0x88>)
    3b38:	f8d1 30c4 	ldr.w	r3, [r1, #196]	; 0xc4
    3b3c:	b2c2      	uxtb	r2, r0
    3b3e:	f857 7022 	ldr.w	r7, [r7, r2, lsl #2]
    3b42:	f043 0340 	orr.w	r3, r3, #64	; 0x40
    3b46:	7120      	strb	r0, [r4, #4]
    3b48:	6027      	str	r7, [r4, #0]
    3b4a:	f8c1 30c4 	str.w	r3, [r1, #196]	; 0xc4
    3b4e:	f8d1 01a8 	ldr.w	r0, [r1, #424]	; 0x1a8
    3b52:	4b17      	ldr	r3, [pc, #92]	; (3bb0 <pwmout_init+0x8c>)
    3b54:	f04f 0e00 	mov.w	lr, #0
    3b58:	f420 5040 	bic.w	r0, r0, #12288	; 0x3000
    3b5c:	2702      	movs	r7, #2
    3b5e:	f8c1 01a8 	str.w	r0, [r1, #424]	; 0x1a8
    3b62:	f8c3 e00c 	str.w	lr, [r3, #12]
    3b66:	615f      	str	r7, [r3, #20]
    3b68:	6cd9      	ldr	r1, [r3, #76]	; 0x4c
    3b6a:	2001      	movs	r0, #1
    3b6c:	3208      	adds	r2, #8
    3b6e:	fa00 f202 	lsl.w	r2, r0, r2
    3b72:	430a      	orrs	r2, r1
    3b74:	490f      	ldr	r1, [pc, #60]	; (3bb4 <pwmout_init+0x90>)
    3b76:	64da      	str	r2, [r3, #76]	; 0x4c
    3b78:	680b      	ldr	r3, [r1, #0]
    3b7a:	490f      	ldr	r1, [pc, #60]	; (3bb8 <pwmout_init+0x94>)
    3b7c:	4a0f      	ldr	r2, [pc, #60]	; (3bbc <pwmout_init+0x98>)
    3b7e:	fba1 1303 	umull	r1, r3, r1, r3
    3b82:	4620      	mov	r0, r4
    3b84:	0d1b      	lsrs	r3, r3, #20
    3b86:	f644 6120 	movw	r1, #20000	; 0x4e20
    3b8a:	6013      	str	r3, [r2, #0]
    3b8c:	f7ff ffa8 	bl	3ae0 <pwmout_period_us>
    3b90:	4620      	mov	r0, r4
    3b92:	2100      	movs	r1, #0
    3b94:	f7ff ff78 	bl	3a88 <pwmout_write>
    3b98:	4630      	mov	r0, r6
    3b9a:	4629      	mov	r1, r5
    3b9c:	e8bd 40f8 	ldmia.w	sp!, {r3, r4, r5, r6, r7, lr}
    3ba0:	f7ff bc3c 	b.w	341c <pinmap_pinout>
    3ba4:	000078a8 	.word	0x000078a8
    3ba8:	400fc000 	.word	0x400fc000
    3bac:	100000d4 	.word	0x100000d4
    3bb0:	40018000 	.word	0x40018000
    3bb4:	100000d0 	.word	0x100000d0
    3bb8:	431bde83 	.word	0x431bde83
    3bbc:	10000bac 	.word	0x10000bac

00003bc0 <uart2_irq>:
    3bc0:	4b17      	ldr	r3, [pc, #92]	; (3c20 <uart2_irq+0x60>)
    3bc2:	6899      	ldr	r1, [r3, #8]
    3bc4:	f3c1 0142 	ubfx	r1, r1, #1, #3
    3bc8:	2901      	cmp	r1, #1
    3bca:	d018      	beq.n	3bfe <uart2_irq+0x3e>
    3bcc:	2902      	cmp	r1, #2
    3bce:	d114      	bne.n	3bfa <uart2_irq+0x3a>
    3bd0:	4a14      	ldr	r2, [pc, #80]	; (3c24 <uart2_irq+0x64>)
    3bd2:	6f51      	ldr	r1, [r2, #116]	; 0x74
    3bd4:	3101      	adds	r1, #1
    3bd6:	d006      	beq.n	3be6 <uart2_irq+0x26>
    3bd8:	f8d2 1080 	ldr.w	r1, [r2, #128]	; 0x80
    3bdc:	6f90      	ldr	r0, [r2, #120]	; 0x78
    3bde:	6008      	str	r0, [r1, #0]
    3be0:	f892 10a6 	ldrb.w	r1, [r2, #166]	; 0xa6
    3be4:	b191      	cbz	r1, 3c0c <uart2_irq+0x4c>
    3be6:	6f10      	ldr	r0, [r2, #112]	; 0x70
    3be8:	4b0e      	ldr	r3, [pc, #56]	; (3c24 <uart2_irq+0x64>)
    3bea:	b1b8      	cbz	r0, 3c1c <uart2_irq+0x5c>
    3bec:	f893 30a6 	ldrb.w	r3, [r3, #166]	; 0xa6
    3bf0:	b123      	cbz	r3, 3bfc <uart2_irq+0x3c>
    3bf2:	4b0d      	ldr	r3, [pc, #52]	; (3c28 <uart2_irq+0x68>)
    3bf4:	2100      	movs	r1, #0
    3bf6:	681b      	ldr	r3, [r3, #0]
    3bf8:	4718      	bx	r3
    3bfa:	4770      	bx	lr
    3bfc:	4770      	bx	lr
    3bfe:	4b09      	ldr	r3, [pc, #36]	; (3c24 <uart2_irq+0x64>)
    3c00:	6f18      	ldr	r0, [r3, #112]	; 0x70
    3c02:	2800      	cmp	r0, #0
    3c04:	d0fa      	beq.n	3bfc <uart2_irq+0x3c>
    3c06:	4b08      	ldr	r3, [pc, #32]	; (3c28 <uart2_irq+0x68>)
    3c08:	681b      	ldr	r3, [r3, #0]
    3c0a:	4718      	bx	r3
    3c0c:	6859      	ldr	r1, [r3, #4]
    3c0e:	f021 0101 	bic.w	r1, r1, #1
    3c12:	6059      	str	r1, [r3, #4]
    3c14:	6f10      	ldr	r0, [r2, #112]	; 0x70
    3c16:	4b03      	ldr	r3, [pc, #12]	; (3c24 <uart2_irq+0x64>)
    3c18:	2800      	cmp	r0, #0
    3c1a:	d1e7      	bne.n	3bec <uart2_irq+0x2c>
    3c1c:	4770      	bx	lr
    3c1e:	bf00      	nop
    3c20:	40098000 	.word	0x40098000
    3c24:	10000bb8 	.word	0x10000bb8
    3c28:	10000bb4 	.word	0x10000bb4

00003c2c <serial_irq_set_internal>:
    3c2c:	b570      	push	{r4, r5, r6, lr}
    3c2e:	6803      	ldr	r3, [r0, #0]
    3c30:	4c28      	ldr	r4, [pc, #160]	; (3cd4 <serial_irq_set_internal+0xa8>)
    3c32:	42a3      	cmp	r3, r4
    3c34:	d047      	beq.n	3cc6 <serial_irq_set_internal+0x9a>
    3c36:	dd3f      	ble.n	3cb8 <serial_irq_set_internal+0x8c>
    3c38:	4c27      	ldr	r4, [pc, #156]	; (3cd8 <serial_irq_set_internal+0xac>)
    3c3a:	42a3      	cmp	r3, r4
    3c3c:	d029      	beq.n	3c92 <serial_irq_set_internal+0x66>
    3c3e:	f504 4480 	add.w	r4, r4, #16384	; 0x4000
    3c42:	42a3      	cmp	r3, r4
    3c44:	d142      	bne.n	3ccc <serial_irq_set_internal+0xa0>
    3c46:	4c25      	ldr	r4, [pc, #148]	; (3cdc <serial_irq_set_internal+0xb0>)
    3c48:	2608      	movs	r6, #8
    3c4a:	bb32      	cbnz	r2, 3c9a <serial_irq_set_internal+0x6e>
    3c4c:	2901      	cmp	r1, #1
    3c4e:	d00b      	beq.n	3c68 <serial_irq_set_internal+0x3c>
    3c50:	6842      	ldr	r2, [r0, #4]
    3c52:	4c23      	ldr	r4, [pc, #140]	; (3ce0 <serial_irq_set_internal+0xb4>)
    3c54:	ebc2 02c2 	rsb	r2, r2, r2, lsl #3
    3c58:	eb04 02c2 	add.w	r2, r4, r2, lsl #3
    3c5c:	f892 4036 	ldrb.w	r4, [r2, #54]	; 0x36
    3c60:	3230      	adds	r2, #48	; 0x30
    3c62:	7952      	ldrb	r2, [r2, #5]
    3c64:	42d4      	cmn	r4, r2
    3c66:	d113      	bne.n	3c90 <serial_irq_set_internal+0x64>
    3c68:	fab1 f481 	clz	r4, r1
    3c6c:	685d      	ldr	r5, [r3, #4]
    3c6e:	2201      	movs	r2, #1
    3c70:	fa02 f101 	lsl.w	r1, r2, r1
    3c74:	ea25 0101 	bic.w	r1, r5, r1
    3c78:	6059      	str	r1, [r3, #4]
    3c7a:	6803      	ldr	r3, [r0, #0]
    3c7c:	0964      	lsrs	r4, r4, #5
    3c7e:	685b      	ldr	r3, [r3, #4]
    3c80:	fa02 f104 	lsl.w	r1, r2, r4
    3c84:	4219      	tst	r1, r3
    3c86:	d103      	bne.n	3c90 <serial_irq_set_internal+0x64>
    3c88:	4b16      	ldr	r3, [pc, #88]	; (3ce4 <serial_irq_set_internal+0xb8>)
    3c8a:	40b2      	lsls	r2, r6
    3c8c:	f8c3 2080 	str.w	r2, [r3, #128]	; 0x80
    3c90:	bd70      	pop	{r4, r5, r6, pc}
    3c92:	4c15      	ldr	r4, [pc, #84]	; (3ce8 <serial_irq_set_internal+0xbc>)
    3c94:	2607      	movs	r6, #7
    3c96:	2a00      	cmp	r2, #0
    3c98:	d0d8      	beq.n	3c4c <serial_irq_set_internal+0x20>
    3c9a:	685a      	ldr	r2, [r3, #4]
    3c9c:	2501      	movs	r5, #1
    3c9e:	fa05 f101 	lsl.w	r1, r5, r1
    3ca2:	430a      	orrs	r2, r1
    3ca4:	b276      	sxtb	r6, r6
    3ca6:	605a      	str	r2, [r3, #4]
    3ca8:	4621      	mov	r1, r4
    3caa:	4630      	mov	r0, r6
    3cac:	f7ff fcbc 	bl	3628 <NVIC_SetVector>
    3cb0:	4b0c      	ldr	r3, [pc, #48]	; (3ce4 <serial_irq_set_internal+0xb8>)
    3cb2:	40b5      	lsls	r5, r6
    3cb4:	601d      	str	r5, [r3, #0]
    3cb6:	bd70      	pop	{r4, r5, r6, pc}
    3cb8:	f5a4 4480 	sub.w	r4, r4, #16384	; 0x4000
    3cbc:	42a3      	cmp	r3, r4
    3cbe:	d105      	bne.n	3ccc <serial_irq_set_internal+0xa0>
    3cc0:	4c0a      	ldr	r4, [pc, #40]	; (3cec <serial_irq_set_internal+0xc0>)
    3cc2:	2605      	movs	r6, #5
    3cc4:	e7c1      	b.n	3c4a <serial_irq_set_internal+0x1e>
    3cc6:	4c0a      	ldr	r4, [pc, #40]	; (3cf0 <serial_irq_set_internal+0xc4>)
    3cc8:	2606      	movs	r6, #6
    3cca:	e7be      	b.n	3c4a <serial_irq_set_internal+0x1e>
    3ccc:	2400      	movs	r4, #0
    3cce:	4626      	mov	r6, r4
    3cd0:	e7bb      	b.n	3c4a <serial_irq_set_internal+0x1e>
    3cd2:	bf00      	nop
    3cd4:	40010000 	.word	0x40010000
    3cd8:	40098000 	.word	0x40098000
    3cdc:	00003cf5 	.word	0x00003cf5
    3ce0:	10000bb8 	.word	0x10000bb8
    3ce4:	e000e100 	.word	0xe000e100
    3ce8:	00003bc1 	.word	0x00003bc1
    3cec:	00003d69 	.word	0x00003d69
    3cf0:	00003dd1 	.word	0x00003dd1

00003cf4 <uart3_irq>:
    3cf4:	4b19      	ldr	r3, [pc, #100]	; (3d5c <uart3_irq+0x68>)
    3cf6:	6899      	ldr	r1, [r3, #8]
    3cf8:	f3c1 0142 	ubfx	r1, r1, #1, #3
    3cfc:	2901      	cmp	r1, #1
    3cfe:	d01b      	beq.n	3d38 <uart3_irq+0x44>
    3d00:	2902      	cmp	r1, #2
    3d02:	d117      	bne.n	3d34 <uart3_irq+0x40>
    3d04:	4a16      	ldr	r2, [pc, #88]	; (3d60 <uart3_irq+0x6c>)
    3d06:	f8d2 10ac 	ldr.w	r1, [r2, #172]	; 0xac
    3d0a:	3101      	adds	r1, #1
    3d0c:	d007      	beq.n	3d1e <uart3_irq+0x2a>
    3d0e:	f8d2 10b8 	ldr.w	r1, [r2, #184]	; 0xb8
    3d12:	f8d2 00b0 	ldr.w	r0, [r2, #176]	; 0xb0
    3d16:	6008      	str	r0, [r1, #0]
    3d18:	f892 10de 	ldrb.w	r1, [r2, #222]	; 0xde
    3d1c:	b1a1      	cbz	r1, 3d48 <uart3_irq+0x54>
    3d1e:	f8d2 00a8 	ldr.w	r0, [r2, #168]	; 0xa8
    3d22:	4b0f      	ldr	r3, [pc, #60]	; (3d60 <uart3_irq+0x6c>)
    3d24:	b1c8      	cbz	r0, 3d5a <uart3_irq+0x66>
    3d26:	f893 30de 	ldrb.w	r3, [r3, #222]	; 0xde
    3d2a:	b123      	cbz	r3, 3d36 <uart3_irq+0x42>
    3d2c:	4b0d      	ldr	r3, [pc, #52]	; (3d64 <uart3_irq+0x70>)
    3d2e:	2100      	movs	r1, #0
    3d30:	681b      	ldr	r3, [r3, #0]
    3d32:	4718      	bx	r3
    3d34:	4770      	bx	lr
    3d36:	4770      	bx	lr
    3d38:	4b09      	ldr	r3, [pc, #36]	; (3d60 <uart3_irq+0x6c>)
    3d3a:	f8d3 00a8 	ldr.w	r0, [r3, #168]	; 0xa8
    3d3e:	2800      	cmp	r0, #0
    3d40:	d0f9      	beq.n	3d36 <uart3_irq+0x42>
    3d42:	4b08      	ldr	r3, [pc, #32]	; (3d64 <uart3_irq+0x70>)
    3d44:	681b      	ldr	r3, [r3, #0]
    3d46:	4718      	bx	r3
    3d48:	6859      	ldr	r1, [r3, #4]
    3d4a:	f021 0101 	bic.w	r1, r1, #1
    3d4e:	6059      	str	r1, [r3, #4]
    3d50:	f8d2 00a8 	ldr.w	r0, [r2, #168]	; 0xa8
    3d54:	4b02      	ldr	r3, [pc, #8]	; (3d60 <uart3_irq+0x6c>)
    3d56:	2800      	cmp	r0, #0
    3d58:	d1e5      	bne.n	3d26 <uart3_irq+0x32>
    3d5a:	4770      	bx	lr
    3d5c:	4009c000 	.word	0x4009c000
    3d60:	10000bb8 	.word	0x10000bb8
    3d64:	10000bb4 	.word	0x10000bb4

00003d68 <uart0_irq>:
    3d68:	4b16      	ldr	r3, [pc, #88]	; (3dc4 <uart0_irq+0x5c>)
    3d6a:	6899      	ldr	r1, [r3, #8]
    3d6c:	f3c1 0142 	ubfx	r1, r1, #1, #3
    3d70:	2901      	cmp	r1, #1
    3d72:	d017      	beq.n	3da4 <uart0_irq+0x3c>
    3d74:	2902      	cmp	r1, #2
    3d76:	d113      	bne.n	3da0 <uart0_irq+0x38>
    3d78:	4a13      	ldr	r2, [pc, #76]	; (3dc8 <uart0_irq+0x60>)
    3d7a:	6851      	ldr	r1, [r2, #4]
    3d7c:	3101      	adds	r1, #1
    3d7e:	d005      	beq.n	3d8c <uart0_irq+0x24>
    3d80:	6911      	ldr	r1, [r2, #16]
    3d82:	6890      	ldr	r0, [r2, #8]
    3d84:	6008      	str	r0, [r1, #0]
    3d86:	f892 1036 	ldrb.w	r1, [r2, #54]	; 0x36
    3d8a:	b191      	cbz	r1, 3db2 <uart0_irq+0x4a>
    3d8c:	6810      	ldr	r0, [r2, #0]
    3d8e:	4b0e      	ldr	r3, [pc, #56]	; (3dc8 <uart0_irq+0x60>)
    3d90:	b1b8      	cbz	r0, 3dc2 <uart0_irq+0x5a>
    3d92:	f893 3036 	ldrb.w	r3, [r3, #54]	; 0x36
    3d96:	b123      	cbz	r3, 3da2 <uart0_irq+0x3a>
    3d98:	4b0c      	ldr	r3, [pc, #48]	; (3dcc <uart0_irq+0x64>)
    3d9a:	2100      	movs	r1, #0
    3d9c:	681b      	ldr	r3, [r3, #0]
    3d9e:	4718      	bx	r3
    3da0:	4770      	bx	lr
    3da2:	4770      	bx	lr
    3da4:	4b08      	ldr	r3, [pc, #32]	; (3dc8 <uart0_irq+0x60>)
    3da6:	6818      	ldr	r0, [r3, #0]
    3da8:	2800      	cmp	r0, #0
    3daa:	d0fa      	beq.n	3da2 <uart0_irq+0x3a>
    3dac:	4b07      	ldr	r3, [pc, #28]	; (3dcc <uart0_irq+0x64>)
    3dae:	681b      	ldr	r3, [r3, #0]
    3db0:	4718      	bx	r3
    3db2:	6859      	ldr	r1, [r3, #4]
    3db4:	f021 0101 	bic.w	r1, r1, #1
    3db8:	6059      	str	r1, [r3, #4]
    3dba:	6810      	ldr	r0, [r2, #0]
    3dbc:	4b02      	ldr	r3, [pc, #8]	; (3dc8 <uart0_irq+0x60>)
    3dbe:	2800      	cmp	r0, #0
    3dc0:	d1e7      	bne.n	3d92 <uart0_irq+0x2a>
    3dc2:	4770      	bx	lr
    3dc4:	4000c000 	.word	0x4000c000
    3dc8:	10000bb8 	.word	0x10000bb8
    3dcc:	10000bb4 	.word	0x10000bb4

00003dd0 <uart1_irq>:
    3dd0:	4b16      	ldr	r3, [pc, #88]	; (3e2c <uart1_irq+0x5c>)
    3dd2:	6899      	ldr	r1, [r3, #8]
    3dd4:	f3c1 0142 	ubfx	r1, r1, #1, #3
    3dd8:	2901      	cmp	r1, #1
    3dda:	d017      	beq.n	3e0c <uart1_irq+0x3c>
    3ddc:	2902      	cmp	r1, #2
    3dde:	d113      	bne.n	3e08 <uart1_irq+0x38>
    3de0:	4a13      	ldr	r2, [pc, #76]	; (3e30 <uart1_irq+0x60>)
    3de2:	6bd1      	ldr	r1, [r2, #60]	; 0x3c
    3de4:	3101      	adds	r1, #1
    3de6:	d005      	beq.n	3df4 <uart1_irq+0x24>
    3de8:	6c91      	ldr	r1, [r2, #72]	; 0x48
    3dea:	6c10      	ldr	r0, [r2, #64]	; 0x40
    3dec:	6008      	str	r0, [r1, #0]
    3dee:	f892 106e 	ldrb.w	r1, [r2, #110]	; 0x6e
    3df2:	b191      	cbz	r1, 3e1a <uart1_irq+0x4a>
    3df4:	6b90      	ldr	r0, [r2, #56]	; 0x38
    3df6:	4b0e      	ldr	r3, [pc, #56]	; (3e30 <uart1_irq+0x60>)
    3df8:	b1b8      	cbz	r0, 3e2a <uart1_irq+0x5a>
    3dfa:	f893 306e 	ldrb.w	r3, [r3, #110]	; 0x6e
    3dfe:	b123      	cbz	r3, 3e0a <uart1_irq+0x3a>
    3e00:	4b0c      	ldr	r3, [pc, #48]	; (3e34 <uart1_irq+0x64>)
    3e02:	2100      	movs	r1, #0
    3e04:	681b      	ldr	r3, [r3, #0]
    3e06:	4718      	bx	r3
    3e08:	4770      	bx	lr
    3e0a:	4770      	bx	lr
    3e0c:	4b08      	ldr	r3, [pc, #32]	; (3e30 <uart1_irq+0x60>)
    3e0e:	6b98      	ldr	r0, [r3, #56]	; 0x38
    3e10:	2800      	cmp	r0, #0
    3e12:	d0fa      	beq.n	3e0a <uart1_irq+0x3a>
    3e14:	4b07      	ldr	r3, [pc, #28]	; (3e34 <uart1_irq+0x64>)
    3e16:	681b      	ldr	r3, [r3, #0]
    3e18:	4718      	bx	r3
    3e1a:	6859      	ldr	r1, [r3, #4]
    3e1c:	f021 0101 	bic.w	r1, r1, #1
    3e20:	6059      	str	r1, [r3, #4]
    3e22:	6b90      	ldr	r0, [r2, #56]	; 0x38
    3e24:	4b02      	ldr	r3, [pc, #8]	; (3e30 <uart1_irq+0x60>)
    3e26:	2800      	cmp	r0, #0
    3e28:	d1e7      	bne.n	3dfa <uart1_irq+0x2a>
    3e2a:	4770      	bx	lr
    3e2c:	40010000 	.word	0x40010000
    3e30:	10000bb8 	.word	0x10000bb8
    3e34:	10000bb4 	.word	0x10000bb4

00003e38 <serial_baud>:
    3e38:	e92d 4ff0 	stmdb	sp!, {r4, r5, r6, r7, r8, r9, r10, r11, lr}
    3e3c:	6802      	ldr	r2, [r0, #0]
    3e3e:	4b6a      	ldr	r3, [pc, #424]	; (3fe8 <serial_baud+0x1b0>)
    3e40:	b089      	sub	sp, #36	; 0x24
    3e42:	429a      	cmp	r2, r3
    3e44:	9007      	str	r0, [sp, #28]
    3e46:	9206      	str	r2, [sp, #24]
    3e48:	f000 80bc 	beq.w	3fc4 <serial_baud+0x18c>
    3e4c:	f340 80a7 	ble.w	3f9e <serial_baud+0x166>
    3e50:	4b66      	ldr	r3, [pc, #408]	; (3fec <serial_baud+0x1b4>)
    3e52:	9806      	ldr	r0, [sp, #24]
    3e54:	4298      	cmp	r0, r3
    3e56:	f000 8089 	beq.w	3f6c <serial_baud+0x134>
    3e5a:	f503 4380 	add.w	r3, r3, #16384	; 0x4000
    3e5e:	4298      	cmp	r0, r3
    3e60:	d10c      	bne.n	3e7c <serial_baud+0x44>
    3e62:	4b63      	ldr	r3, [pc, #396]	; (3ff0 <serial_baud+0x1b8>)
    3e64:	f8d3 21ac 	ldr.w	r2, [r3, #428]	; 0x1ac
    3e68:	f422 2240 	bic.w	r2, r2, #786432	; 0xc0000
    3e6c:	f8c3 21ac 	str.w	r2, [r3, #428]	; 0x1ac
    3e70:	f8d3 21ac 	ldr.w	r2, [r3, #428]	; 0x1ac
    3e74:	f442 2280 	orr.w	r2, r2, #262144	; 0x40000
    3e78:	f8c3 21ac 	str.w	r2, [r3, #428]	; 0x1ac
    3e7c:	4a5d      	ldr	r2, [pc, #372]	; (3ff4 <serial_baud+0x1bc>)
    3e7e:	010b      	lsls	r3, r1, #4
    3e80:	6812      	ldr	r2, [r2, #0]
    3e82:	fbb2 f0f3 	udiv	r0, r2, r3
    3e86:	fb03 2310 	mls	r3, r3, r0, r2
    3e8a:	9203      	str	r2, [sp, #12]
    3e8c:	b280      	uxth	r0, r0
    3e8e:	2b00      	cmp	r3, #0
    3e90:	f000 8083 	beq.w	3f9a <serial_baud+0x162>
    3e94:	9b03      	ldr	r3, [sp, #12]
    3e96:	f04f 0801 	mov.w	r8, #1
    3e9a:	005a      	lsls	r2, r3, #1
    3e9c:	009c      	lsls	r4, r3, #2
    3e9e:	4694      	mov	r12, r2
    3ea0:	46a2      	mov	r10, r4
    3ea2:	46c3      	mov	r11, r8
    3ea4:	468e      	mov	lr, r1
    3ea6:	4699      	mov	r9, r3
    3ea8:	2300      	movs	r3, #0
    3eaa:	9204      	str	r2, [sp, #16]
    3eac:	9405      	str	r4, [sp, #20]
    3eae:	9000      	str	r0, [sp, #0]
    3eb0:	9102      	str	r1, [sp, #8]
    3eb2:	9301      	str	r3, [sp, #4]
    3eb4:	2400      	movs	r4, #0
    3eb6:	4625      	mov	r5, r4
    3eb8:	9e02      	ldr	r6, [sp, #8]
    3eba:	fa5f f788 	uxtb.w	r7, r8
    3ebe:	f1bc 0f00 	cmp.w	r12, #0
    3ec2:	bfb5      	itete	lt
    3ec4:	fbbc f0f6 	udivlt	r0, r12, r6
    3ec8:	fbba f0f6 	udivge	r0, r10, r6
    3ecc:	0900      	lsrlt	r0, r0, #4
    3ece:	0940      	lsrge	r0, r0, #5
    3ed0:	3001      	adds	r0, #1
    3ed2:	f3c0 004f 	ubfx	r0, r0, #1, #16
    3ed6:	eb08 0204 	add.w	r2, r8, r4
    3eda:	2800      	cmp	r0, #0
    3edc:	d154      	bne.n	3f88 <serial_baud+0x150>
    3ede:	2c00      	cmp	r4, #0
    3ee0:	d07e      	beq.n	3fe0 <serial_baud+0x1a8>
    3ee2:	2002      	movs	r0, #2
    3ee4:	4603      	mov	r3, r0
    3ee6:	fb03 f302 	mul.w	r3, r3, r2
    3eea:	00db      	lsls	r3, r3, #3
    3eec:	fbb9 f3f3 	udiv	r3, r9, r3
    3ef0:	3301      	adds	r3, #1
    3ef2:	ebc1 0353 	rsb	r3, r1, r3, lsr #1
    3ef6:	2b00      	cmp	r3, #0
    3ef8:	bfb8      	it	lt
    3efa:	425b      	neglt	r3, r3
    3efc:	4573      	cmp	r3, lr
    3efe:	da05      	bge.n	3f0c <serial_baud+0xd4>
    3f00:	428b      	cmp	r3, r1
    3f02:	d046      	beq.n	3f92 <serial_baud+0x15a>
    3f04:	469e      	mov	lr, r3
    3f06:	46bb      	mov	r11, r7
    3f08:	e88d 0021 	stmia.w	sp, {r0, r5}
    3f0c:	3401      	adds	r4, #1
    3f0e:	b2e5      	uxtb	r5, r4
    3f10:	42bd      	cmp	r5, r7
    3f12:	440e      	add	r6, r1
    3f14:	d3d3      	bcc.n	3ebe <serial_baud+0x86>
    3f16:	9b03      	ldr	r3, [sp, #12]
    3f18:	f108 0801 	add.w	r8, r8, #1
    3f1c:	4499      	add	r9, r3
    3f1e:	9b04      	ldr	r3, [sp, #16]
    3f20:	f1b8 0f10 	cmp.w	r8, #16
    3f24:	449c      	add	r12, r3
    3f26:	9b05      	ldr	r3, [sp, #20]
    3f28:	449a      	add	r10, r3
    3f2a:	9b02      	ldr	r3, [sp, #8]
    3f2c:	440b      	add	r3, r1
    3f2e:	9302      	str	r3, [sp, #8]
    3f30:	d1c0      	bne.n	3eb4 <serial_baud+0x7c>
    3f32:	9b01      	ldr	r3, [sp, #4]
    3f34:	9800      	ldr	r0, [sp, #0]
    3f36:	ea43 150b 	orr.w	r5, r3, r11, lsl #4
    3f3a:	b2ed      	uxtb	r5, r5
    3f3c:	9906      	ldr	r1, [sp, #24]
    3f3e:	f3c0 2207 	ubfx	r2, r0, #8, #8
    3f42:	7b0b      	ldrb	r3, [r1, #12]
    3f44:	b2c0      	uxtb	r0, r0
    3f46:	f043 0380 	orr.w	r3, r3, #128	; 0x80
    3f4a:	730b      	strb	r3, [r1, #12]
    3f4c:	9907      	ldr	r1, [sp, #28]
    3f4e:	680b      	ldr	r3, [r1, #0]
    3f50:	711a      	strb	r2, [r3, #4]
    3f52:	680b      	ldr	r3, [r1, #0]
    3f54:	7018      	strb	r0, [r3, #0]
    3f56:	680b      	ldr	r3, [r1, #0]
    3f58:	f883 5028 	strb.w	r5, [r3, #40]	; 0x28
    3f5c:	680a      	ldr	r2, [r1, #0]
    3f5e:	7b13      	ldrb	r3, [r2, #12]
    3f60:	f003 037f 	and.w	r3, r3, #127	; 0x7f
    3f64:	7313      	strb	r3, [r2, #12]
    3f66:	b009      	add	sp, #36	; 0x24
    3f68:	e8bd 8ff0 	ldmia.w	sp!, {r4, r5, r6, r7, r8, r9, r10, r11, pc}
    3f6c:	4b20      	ldr	r3, [pc, #128]	; (3ff0 <serial_baud+0x1b8>)
    3f6e:	f8d3 21ac 	ldr.w	r2, [r3, #428]	; 0x1ac
    3f72:	f422 3240 	bic.w	r2, r2, #196608	; 0x30000
    3f76:	f8c3 21ac 	str.w	r2, [r3, #428]	; 0x1ac
    3f7a:	f8d3 21ac 	ldr.w	r2, [r3, #428]	; 0x1ac
    3f7e:	f442 3280 	orr.w	r2, r2, #65536	; 0x10000
    3f82:	f8c3 21ac 	str.w	r2, [r3, #428]	; 0x1ac
    3f86:	e779      	b.n	3e7c <serial_baud+0x44>
    3f88:	2c00      	cmp	r4, #0
    3f8a:	d0ab      	beq.n	3ee4 <serial_baud+0xac>
    3f8c:	2801      	cmp	r0, #1
    3f8e:	d8a9      	bhi.n	3ee4 <serial_baud+0xac>
    3f90:	e7a7      	b.n	3ee2 <serial_baud+0xaa>
    3f92:	ea45 1507 	orr.w	r5, r5, r7, lsl #4
    3f96:	b2ed      	uxtb	r5, r5
    3f98:	e7d0      	b.n	3f3c <serial_baud+0x104>
    3f9a:	2510      	movs	r5, #16
    3f9c:	e7ce      	b.n	3f3c <serial_baud+0x104>
    3f9e:	f5a3 4380 	sub.w	r3, r3, #16384	; 0x4000
    3fa2:	429a      	cmp	r2, r3
    3fa4:	f47f af6a 	bne.w	3e7c <serial_baud+0x44>
    3fa8:	4b11      	ldr	r3, [pc, #68]	; (3ff0 <serial_baud+0x1b8>)
    3faa:	f8d3 21a8 	ldr.w	r2, [r3, #424]	; 0x1a8
    3fae:	f022 02c0 	bic.w	r2, r2, #192	; 0xc0
    3fb2:	f8c3 21a8 	str.w	r2, [r3, #424]	; 0x1a8
    3fb6:	f8d3 21a8 	ldr.w	r2, [r3, #424]	; 0x1a8
    3fba:	f042 0240 	orr.w	r2, r2, #64	; 0x40
    3fbe:	f8c3 21a8 	str.w	r2, [r3, #424]	; 0x1a8
    3fc2:	e75b      	b.n	3e7c <serial_baud+0x44>
    3fc4:	4b0a      	ldr	r3, [pc, #40]	; (3ff0 <serial_baud+0x1b8>)
    3fc6:	f8d3 21a8 	ldr.w	r2, [r3, #424]	; 0x1a8
    3fca:	f422 7240 	bic.w	r2, r2, #768	; 0x300
    3fce:	f8c3 21a8 	str.w	r2, [r3, #424]	; 0x1a8
    3fd2:	f8d3 21a8 	ldr.w	r2, [r3, #424]	; 0x1a8
    3fd6:	f442 7280 	orr.w	r2, r2, #256	; 0x100
    3fda:	f8c3 21a8 	str.w	r2, [r3, #424]	; 0x1a8
    3fde:	e74d      	b.n	3e7c <serial_baud+0x44>
    3fe0:	2001      	movs	r0, #1
    3fe2:	4603      	mov	r3, r0
    3fe4:	e77f      	b.n	3ee6 <serial_baud+0xae>
    3fe6:	bf00      	nop
    3fe8:	40010000 	.word	0x40010000
    3fec:	40098000 	.word	0x40098000
    3ff0:	400fc000 	.word	0x400fc000
    3ff4:	100000d0 	.word	0x100000d0

00003ff8 <serial_irq_handler>:
    3ff8:	6843      	ldr	r3, [r0, #4]
    3ffa:	b410      	push	{r4}
    3ffc:	4804      	ldr	r0, [pc, #16]	; (4010 <serial_irq_handler+0x18>)
    3ffe:	4c05      	ldr	r4, [pc, #20]	; (4014 <serial_irq_handler+0x1c>)
    4000:	ebc3 03c3 	rsb	r3, r3, r3, lsl #3
    4004:	f844 2033 	str.w	r2, [r4, r3, lsl #3]
    4008:	6001      	str	r1, [r0, #0]
    400a:	f85d 4b04 	ldr.w	r4, [sp], #4
    400e:	4770      	bx	lr
    4010:	10000bb4 	.word	0x10000bb4
    4014:	10000bb8 	.word	0x10000bb8

00004018 <serial_irq_set>:
    4018:	b961      	cbnz	r1, 4034 <serial_irq_set+0x1c>
    401a:	6843      	ldr	r3, [r0, #4]
    401c:	b410      	push	{r4}
    401e:	4c06      	ldr	r4, [pc, #24]	; (4038 <serial_irq_set+0x20>)
    4020:	ebc3 03c3 	rsb	r3, r3, r3, lsl #3
    4024:	eb04 03c3 	add.w	r3, r4, r3, lsl #3
    4028:	f883 2036 	strb.w	r2, [r3, #54]	; 0x36
    402c:	f85d 4b04 	ldr.w	r4, [sp], #4
    4030:	f7ff bdfc 	b.w	3c2c <serial_irq_set_internal>
    4034:	f7ff bdfa 	b.w	3c2c <serial_irq_set_internal>
    4038:	10000bb8 	.word	0x10000bb8

0000403c <serial_getc>:
    403c:	6802      	ldr	r2, [r0, #0]
    403e:	7d13      	ldrb	r3, [r2, #20]
    4040:	07db      	lsls	r3, r3, #31
    4042:	d5fc      	bpl.n	403e <serial_getc+0x2>
    4044:	6843      	ldr	r3, [r0, #4]
    4046:	4909      	ldr	r1, [pc, #36]	; (406c <serial_getc+0x30>)
    4048:	ebc3 03c3 	rsb	r3, r3, r3, lsl #3
    404c:	eb01 03c3 	add.w	r3, r1, r3, lsl #3
    4050:	6859      	ldr	r1, [r3, #4]
    4052:	7810      	ldrb	r0, [r2, #0]
    4054:	3101      	adds	r1, #1
    4056:	b2c0      	uxtb	r0, r0
    4058:	d006      	beq.n	4068 <serial_getc+0x2c>
    405a:	6959      	ldr	r1, [r3, #20]
    405c:	689b      	ldr	r3, [r3, #8]
    405e:	600b      	str	r3, [r1, #0]
    4060:	6853      	ldr	r3, [r2, #4]
    4062:	f043 0301 	orr.w	r3, r3, #1
    4066:	6053      	str	r3, [r2, #4]
    4068:	4770      	bx	lr
    406a:	bf00      	nop
    406c:	10000bb8 	.word	0x10000bb8

00004070 <serial_writable>:
    4070:	6843      	ldr	r3, [r0, #4]
    4072:	4a17      	ldr	r2, [pc, #92]	; (40d0 <serial_writable+0x60>)
    4074:	ebc3 03c3 	rsb	r3, r3, r3, lsl #3
    4078:	00db      	lsls	r3, r3, #3
    407a:	18d1      	adds	r1, r2, r3
    407c:	b410      	push	{r4}
    407e:	69cc      	ldr	r4, [r1, #28]
    4080:	3401      	adds	r4, #1
    4082:	d011      	beq.n	40a8 <serial_writable+0x38>
    4084:	460b      	mov	r3, r1
    4086:	6b0a      	ldr	r2, [r1, #48]	; 0x30
    4088:	331c      	adds	r3, #28
    408a:	685b      	ldr	r3, [r3, #4]
    408c:	6812      	ldr	r2, [r2, #0]
    408e:	421a      	tst	r2, r3
    4090:	d003      	beq.n	409a <serial_writable+0x2a>
    4092:	2000      	movs	r0, #0
    4094:	f85d 4b04 	ldr.w	r4, [sp], #4
    4098:	4770      	bx	lr
    409a:	6803      	ldr	r3, [r0, #0]
    409c:	f85d 4b04 	ldr.w	r4, [sp], #4
    40a0:	7d18      	ldrb	r0, [r3, #20]
    40a2:	f3c0 1080 	ubfx	r0, r0, #6, #1
    40a6:	4770      	bx	lr
    40a8:	6803      	ldr	r3, [r0, #0]
    40aa:	7d1b      	ldrb	r3, [r3, #20]
    40ac:	069b      	lsls	r3, r3, #26
    40ae:	d408      	bmi.n	40c2 <serial_writable+0x52>
    40b0:	f891 0034 	ldrb.w	r0, [r1, #52]	; 0x34
    40b4:	f85d 4b04 	ldr.w	r4, [sp], #4
    40b8:	280f      	cmp	r0, #15
    40ba:	bf8c      	ite	hi
    40bc:	2000      	movhi	r0, #0
    40be:	2001      	movls	r0, #1
    40c0:	4770      	bx	lr
    40c2:	2300      	movs	r3, #0
    40c4:	f881 3034 	strb.w	r3, [r1, #52]	; 0x34
    40c8:	2001      	movs	r0, #1
    40ca:	f85d 4b04 	ldr.w	r4, [sp], #4
    40ce:	4770      	bx	lr
    40d0:	10000bb8 	.word	0x10000bb8

000040d4 <serial_putc>:
    40d4:	b538      	push	{r3, r4, r5, lr}
    40d6:	4604      	mov	r4, r0
    40d8:	460d      	mov	r5, r1
    40da:	4620      	mov	r0, r4
    40dc:	f7ff ffc8 	bl	4070 <serial_writable>
    40e0:	2800      	cmp	r0, #0
    40e2:	d0fa      	beq.n	40da <serial_putc+0x6>
    40e4:	6823      	ldr	r3, [r4, #0]
    40e6:	b2ed      	uxtb	r5, r5
    40e8:	701d      	strb	r5, [r3, #0]
    40ea:	6863      	ldr	r3, [r4, #4]
    40ec:	4a05      	ldr	r2, [pc, #20]	; (4104 <serial_putc+0x30>)
    40ee:	ebc3 03c3 	rsb	r3, r3, r3, lsl #3
    40f2:	eb02 03c3 	add.w	r3, r2, r3, lsl #3
    40f6:	f893 2034 	ldrb.w	r2, [r3, #52]	; 0x34
    40fa:	3201      	adds	r2, #1
    40fc:	f883 2034 	strb.w	r2, [r3, #52]	; 0x34
    4100:	bd38      	pop	{r3, r4, r5, pc}
    4102:	bf00      	nop
    4104:	10000bb8 	.word	0x10000bb8

00004108 <serial_set_flow_control>:
    4108:	e92d 4ff0 	stmdb	sp!, {r4, r5, r6, r7, r8, r9, r10, r11, lr}
    410c:	4604      	mov	r4, r0
    410e:	4846      	ldr	r0, [pc, #280]	; (4228 <serial_set_flow_control+0x120>)
    4110:	6825      	ldr	r5, [r4, #0]
    4112:	b083      	sub	sp, #12
    4114:	4285      	cmp	r5, r0
    4116:	460f      	mov	r7, r1
    4118:	4691      	mov	r9, r2
    411a:	9301      	str	r3, [sp, #4]
    411c:	d043      	beq.n	41a6 <serial_set_flow_control+0x9e>
    411e:	f8d4 a004 	ldr.w	r10, [r4, #4]
    4122:	2500      	movs	r5, #0
    4124:	4653      	mov	r3, r10
    4126:	4e41      	ldr	r6, [pc, #260]	; (422c <serial_set_flow_control+0x124>)
    4128:	ea4f 08ca 	mov.w	r8, r10, lsl #3
    412c:	ebc3 03c3 	rsb	r3, r3, r3, lsl #3
    4130:	ebca 0e08 	rsb	lr, r10, r8
    4134:	2000      	movs	r0, #0
    4136:	eb06 0ece 	add.w	lr, r6, lr, lsl #3
    413a:	f04f 3bff 	mov.w	r11, #4294967295
    413e:	eb06 03c3 	add.w	r3, r6, r3, lsl #3
    4142:	4601      	mov	r1, r0
    4144:	4602      	mov	r2, r0
    4146:	f883 0035 	strb.w	r0, [r3, #53]	; 0x35
    414a:	f8ce b01c 	str.w	r11, [lr, #28]
    414e:	4620      	mov	r0, r4
    4150:	f8ce b004 	str.w	r11, [lr, #4]
    4154:	f7ff fd6a 	bl	3c2c <serial_irq_set_internal>
    4158:	b917      	cbnz	r7, 4160 <serial_set_flow_control+0x58>
    415a:	b003      	add	sp, #12
    415c:	e8bd 8ff0 	ldmia.w	sp!, {r4, r5, r6, r7, r8, r9, r10, r11, pc}
    4160:	4933      	ldr	r1, [pc, #204]	; (4230 <serial_set_flow_control+0x128>)
    4162:	4648      	mov	r0, r9
    4164:	f7ff f98c 	bl	3480 <pinmap_find_peripheral>
    4168:	4932      	ldr	r1, [pc, #200]	; (4234 <serial_set_flow_control+0x12c>)
    416a:	4683      	mov	r11, r0
    416c:	9801      	ldr	r0, [sp, #4]
    416e:	f7ff f987 	bl	3480 <pinmap_find_peripheral>
    4172:	1ebb      	subs	r3, r7, #2
    4174:	2b01      	cmp	r3, #1
    4176:	d937      	bls.n	41e8 <serial_set_flow_control+0xe0>
    4178:	2f01      	cmp	r7, #1
    417a:	d1ee      	bne.n	415a <serial_set_flow_control+0x52>
    417c:	f1b9 3fff 	cmp.w	r9, #4294967295
    4180:	d0eb      	beq.n	415a <serial_set_flow_control+0x52>
    4182:	4b29      	ldr	r3, [pc, #164]	; (4228 <serial_set_flow_control+0x120>)
    4184:	6822      	ldr	r2, [r4, #0]
    4186:	2107      	movs	r1, #7
    4188:	459b      	cmp	r11, r3
    418a:	7211      	strb	r1, [r2, #8]
    418c:	d113      	bne.n	41b6 <serial_set_flow_control+0xae>
    418e:	b195      	cbz	r5, 41b6 <serial_set_flow_control+0xae>
    4190:	4648      	mov	r0, r9
    4192:	7c2b      	ldrb	r3, [r5, #16]
    4194:	4926      	ldr	r1, [pc, #152]	; (4230 <serial_set_flow_control+0x128>)
    4196:	f043 0340 	orr.w	r3, r3, #64	; 0x40
    419a:	742b      	strb	r3, [r5, #16]
    419c:	b003      	add	sp, #12
    419e:	e8bd 4ff0 	ldmia.w	sp!, {r4, r5, r6, r7, r8, r9, r10, r11, lr}
    41a2:	f7ff b93b 	b.w	341c <pinmap_pinout>
    41a6:	7c2b      	ldrb	r3, [r5, #16]
    41a8:	f8d4 a004 	ldr.w	r10, [r4, #4]
    41ac:	f003 033f 	and.w	r3, r3, #63	; 0x3f
    41b0:	742b      	strb	r3, [r5, #16]
    41b2:	6863      	ldr	r3, [r4, #4]
    41b4:	e7b7      	b.n	4126 <serial_set_flow_control+0x1e>
    41b6:	ebca 0808 	rsb	r8, r10, r8
    41ba:	eb06 00c8 	add.w	r0, r6, r8, lsl #3
    41be:	4649      	mov	r1, r9
    41c0:	2501      	movs	r5, #1
    41c2:	3004      	adds	r0, #4
    41c4:	2200      	movs	r2, #0
    41c6:	f7ff f90b 	bl	33e0 <gpio_init_out_ex>
    41ca:	4620      	mov	r0, r4
    41cc:	462a      	mov	r2, r5
    41ce:	6863      	ldr	r3, [r4, #4]
    41d0:	2100      	movs	r1, #0
    41d2:	ebc3 03c3 	rsb	r3, r3, r3, lsl #3
    41d6:	eb06 06c3 	add.w	r6, r6, r3, lsl #3
    41da:	f886 5035 	strb.w	r5, [r6, #53]	; 0x35
    41de:	b003      	add	sp, #12
    41e0:	e8bd 4ff0 	ldmia.w	sp!, {r4, r5, r6, r7, r8, r9, r10, r11, lr}
    41e4:	f7ff bd22 	b.w	3c2c <serial_irq_set_internal>
    41e8:	9b01      	ldr	r3, [sp, #4]
    41ea:	3301      	adds	r3, #1
    41ec:	d00a      	beq.n	4204 <serial_set_flow_control+0xfc>
    41ee:	4b0e      	ldr	r3, [pc, #56]	; (4228 <serial_set_flow_control+0x120>)
    41f0:	4298      	cmp	r0, r3
    41f2:	d00d      	beq.n	4210 <serial_set_flow_control+0x108>
    41f4:	ebca 0008 	rsb	r0, r10, r8
    41f8:	eb06 00c0 	add.w	r0, r6, r0, lsl #3
    41fc:	9901      	ldr	r1, [sp, #4]
    41fe:	301c      	adds	r0, #28
    4200:	f7ff f8c6 	bl	3390 <gpio_init_in>
    4204:	2f03      	cmp	r7, #3
    4206:	d1a8      	bne.n	415a <serial_set_flow_control+0x52>
    4208:	f1b9 3fff 	cmp.w	r9, #4294967295
    420c:	d1b9      	bne.n	4182 <serial_set_flow_control+0x7a>
    420e:	e7a4      	b.n	415a <serial_set_flow_control+0x52>
    4210:	2d00      	cmp	r5, #0
    4212:	d0ef      	beq.n	41f4 <serial_set_flow_control+0xec>
    4214:	7c2b      	ldrb	r3, [r5, #16]
    4216:	9801      	ldr	r0, [sp, #4]
    4218:	f043 0380 	orr.w	r3, r3, #128	; 0x80
    421c:	742b      	strb	r3, [r5, #16]
    421e:	4905      	ldr	r1, [pc, #20]	; (4234 <serial_set_flow_control+0x12c>)
    4220:	f7ff f8fc 	bl	341c <pinmap_pinout>
    4224:	e7ee      	b.n	4204 <serial_set_flow_control+0xfc>
    4226:	bf00      	nop
    4228:	40010000 	.word	0x40010000
    422c:	10000bb8 	.word	0x10000bb8
    4230:	0000795c 	.word	0x0000795c
    4234:	00007a58 	.word	0x00007a58

00004238 <serial_init>:
    4238:	e92d 41f0 	stmdb	sp!, {r4, r5, r6, r7, r8, lr}
    423c:	4605      	mov	r5, r0
    423e:	460f      	mov	r7, r1
    4240:	4608      	mov	r0, r1
    4242:	4959      	ldr	r1, [pc, #356]	; (43a8 <serial_init+0x170>)
    4244:	4616      	mov	r6, r2
    4246:	f7ff f929 	bl	349c <pinmap_peripheral>
    424a:	4958      	ldr	r1, [pc, #352]	; (43ac <serial_init+0x174>)
    424c:	4604      	mov	r4, r0
    424e:	4630      	mov	r0, r6
    4250:	f7ff f924 	bl	349c <pinmap_peripheral>
    4254:	4601      	mov	r1, r0
    4256:	4620      	mov	r0, r4
    4258:	f7ff f900 	bl	345c <pinmap_merge>
    425c:	4b54      	ldr	r3, [pc, #336]	; (43b0 <serial_init+0x178>)
    425e:	4604      	mov	r4, r0
    4260:	4298      	cmp	r0, r3
    4262:	6028      	str	r0, [r5, #0]
    4264:	d07f      	beq.n	4366 <serial_init+0x12e>
    4266:	d96f      	bls.n	4348 <serial_init+0x110>
    4268:	4b52      	ldr	r3, [pc, #328]	; (43b4 <serial_init+0x17c>)
    426a:	4298      	cmp	r0, r3
    426c:	d04b      	beq.n	4306 <serial_init+0xce>
    426e:	f503 4380 	add.w	r3, r3, #16384	; 0x4000
    4272:	4298      	cmp	r0, r3
    4274:	d106      	bne.n	4284 <serial_init+0x4c>
    4276:	4a50      	ldr	r2, [pc, #320]	; (43b8 <serial_init+0x180>)
    4278:	f8d2 30c4 	ldr.w	r3, [r2, #196]	; 0xc4
    427c:	f043 7300 	orr.w	r3, r3, #33554432	; 0x2000000
    4280:	f8c2 30c4 	str.w	r3, [r2, #196]	; 0xc4
    4284:	2301      	movs	r3, #1
    4286:	7223      	strb	r3, [r4, #8]
    4288:	682b      	ldr	r3, [r5, #0]
    428a:	f04f 0800 	mov.w	r8, #0
    428e:	f8c3 8004 	str.w	r8, [r3, #4]
    4292:	4628      	mov	r0, r5
    4294:	f44f 5116 	mov.w	r1, #9600	; 0x2580
    4298:	f7ff fdce 	bl	3e38 <serial_baud>
    429c:	682b      	ldr	r3, [r5, #0]
    429e:	2203      	movs	r2, #3
    42a0:	731a      	strb	r2, [r3, #12]
    42a2:	4638      	mov	r0, r7
    42a4:	4940      	ldr	r1, [pc, #256]	; (43a8 <serial_init+0x170>)
    42a6:	f7ff f8b9 	bl	341c <pinmap_pinout>
    42aa:	4630      	mov	r0, r6
    42ac:	493f      	ldr	r1, [pc, #252]	; (43ac <serial_init+0x174>)
    42ae:	f7ff f8b5 	bl	341c <pinmap_pinout>
    42b2:	1c7a      	adds	r2, r7, #1
    42b4:	d003      	beq.n	42be <serial_init+0x86>
    42b6:	4638      	mov	r0, r7
    42b8:	4641      	mov	r1, r8
    42ba:	f7ff fbb7 	bl	3a2c <pin_mode>
    42be:	1c73      	adds	r3, r6, #1
    42c0:	d003      	beq.n	42ca <serial_init+0x92>
    42c2:	4630      	mov	r0, r6
    42c4:	2100      	movs	r1, #0
    42c6:	f7ff fbb1 	bl	3a2c <pin_mode>
    42ca:	4b39      	ldr	r3, [pc, #228]	; (43b0 <serial_init+0x178>)
    42cc:	429c      	cmp	r4, r3
    42ce:	d047      	beq.n	4360 <serial_init+0x128>
    42d0:	d921      	bls.n	4316 <serial_init+0xde>
    42d2:	4b38      	ldr	r3, [pc, #224]	; (43b4 <serial_init+0x17c>)
    42d4:	429c      	cmp	r4, r3
    42d6:	d063      	beq.n	43a0 <serial_init+0x168>
    42d8:	f503 4380 	add.w	r3, r3, #16384	; 0x4000
    42dc:	429c      	cmp	r4, r3
    42de:	d14a      	bne.n	4376 <serial_init+0x13e>
    42e0:	2303      	movs	r3, #3
    42e2:	606b      	str	r3, [r5, #4]
    42e4:	4c35      	ldr	r4, [pc, #212]	; (43bc <serial_init+0x184>)
    42e6:	ebc3 03c3 	rsb	r3, r3, r3, lsl #3
    42ea:	f04f 36ff 	mov.w	r6, #4294967295
    42ee:	eb04 04c3 	add.w	r4, r4, r3, lsl #3
    42f2:	4628      	mov	r0, r5
    42f4:	4632      	mov	r2, r6
    42f6:	4633      	mov	r3, r6
    42f8:	6066      	str	r6, [r4, #4]
    42fa:	61e6      	str	r6, [r4, #28]
    42fc:	2100      	movs	r1, #0
    42fe:	e8bd 41f0 	ldmia.w	sp!, {r4, r5, r6, r7, r8, lr}
    4302:	f7ff bf01 	b.w	4108 <serial_set_flow_control>
    4306:	4a2c      	ldr	r2, [pc, #176]	; (43b8 <serial_init+0x180>)
    4308:	f8d2 30c4 	ldr.w	r3, [r2, #196]	; 0xc4
    430c:	f043 7380 	orr.w	r3, r3, #16777216	; 0x1000000
    4310:	f8c2 30c4 	str.w	r3, [r2, #196]	; 0xc4
    4314:	e7b6      	b.n	4284 <serial_init+0x4c>
    4316:	f5a3 4380 	sub.w	r3, r3, #16384	; 0x4000
    431a:	429c      	cmp	r4, r3
    431c:	d12b      	bne.n	4376 <serial_init+0x13e>
    431e:	4e27      	ldr	r6, [pc, #156]	; (43bc <serial_init+0x184>)
    4320:	f04f 34ff 	mov.w	r4, #4294967295
    4324:	2100      	movs	r1, #0
    4326:	6069      	str	r1, [r5, #4]
    4328:	4622      	mov	r2, r4
    432a:	4623      	mov	r3, r4
    432c:	4628      	mov	r0, r5
    432e:	6074      	str	r4, [r6, #4]
    4330:	61f4      	str	r4, [r6, #28]
    4332:	f7ff fee9 	bl	4108 <serial_set_flow_control>
    4336:	4b22      	ldr	r3, [pc, #136]	; (43c0 <serial_init+0x188>)
    4338:	2201      	movs	r2, #1
    433a:	601a      	str	r2, [r3, #0]
    433c:	6828      	ldr	r0, [r5, #0]
    433e:	6869      	ldr	r1, [r5, #4]
    4340:	4b20      	ldr	r3, [pc, #128]	; (43c4 <serial_init+0x18c>)
    4342:	c303      	stmia	r3!, {r0, r1}
    4344:	e8bd 81f0 	ldmia.w	sp!, {r4, r5, r6, r7, r8, pc}
    4348:	f5a3 4380 	sub.w	r3, r3, #16384	; 0x4000
    434c:	4298      	cmp	r0, r3
    434e:	d199      	bne.n	4284 <serial_init+0x4c>
    4350:	4a19      	ldr	r2, [pc, #100]	; (43b8 <serial_init+0x180>)
    4352:	f8d2 30c4 	ldr.w	r3, [r2, #196]	; 0xc4
    4356:	f043 0308 	orr.w	r3, r3, #8
    435a:	f8c2 30c4 	str.w	r3, [r2, #196]	; 0xc4
    435e:	e791      	b.n	4284 <serial_init+0x4c>
    4360:	2301      	movs	r3, #1
    4362:	606b      	str	r3, [r5, #4]
    4364:	e7be      	b.n	42e4 <serial_init+0xac>
    4366:	4a14      	ldr	r2, [pc, #80]	; (43b8 <serial_init+0x180>)
    4368:	f8d2 30c4 	ldr.w	r3, [r2, #196]	; 0xc4
    436c:	f043 0310 	orr.w	r3, r3, #16
    4370:	f8c2 30c4 	str.w	r3, [r2, #196]	; 0xc4
    4374:	e786      	b.n	4284 <serial_init+0x4c>
    4376:	686e      	ldr	r6, [r5, #4]
    4378:	4b10      	ldr	r3, [pc, #64]	; (43bc <serial_init+0x184>)
    437a:	ebc6 06c6 	rsb	r6, r6, r6, lsl #3
    437e:	f04f 37ff 	mov.w	r7, #4294967295
    4382:	eb03 06c6 	add.w	r6, r3, r6, lsl #3
    4386:	463a      	mov	r2, r7
    4388:	463b      	mov	r3, r7
    438a:	4628      	mov	r0, r5
    438c:	2100      	movs	r1, #0
    438e:	6077      	str	r7, [r6, #4]
    4390:	61f7      	str	r7, [r6, #28]
    4392:	f7ff feb9 	bl	4108 <serial_set_flow_control>
    4396:	4b0c      	ldr	r3, [pc, #48]	; (43c8 <serial_init+0x190>)
    4398:	429c      	cmp	r4, r3
    439a:	d0cc      	beq.n	4336 <serial_init+0xfe>
    439c:	e8bd 81f0 	ldmia.w	sp!, {r4, r5, r6, r7, r8, pc}
    43a0:	2302      	movs	r3, #2
    43a2:	606b      	str	r3, [r5, #4]
    43a4:	e79e      	b.n	42e4 <serial_init+0xac>
    43a6:	bf00      	nop
    43a8:	000079ec 	.word	0x000079ec
    43ac:	00007980 	.word	0x00007980
    43b0:	40010000 	.word	0x40010000
    43b4:	40098000 	.word	0x40098000
    43b8:	400fc000 	.word	0x400fc000
    43bc:	10000bb8 	.word	0x10000bb8
    43c0:	10000bb0 	.word	0x10000bb0
    43c4:	10000da8 	.word	0x10000da8
    43c8:	4000c000 	.word	0x4000c000

000043cc <us_ticker_init.part.0>:
    43cc:	b538      	push	{r3, r4, r5, lr}
    43ce:	4912      	ldr	r1, [pc, #72]	; (4418 <us_ticker_init.part.0+0x4c>)
    43d0:	4b12      	ldr	r3, [pc, #72]	; (441c <us_ticker_init.part.0+0x50>)
    43d2:	2401      	movs	r4, #1
    43d4:	601c      	str	r4, [r3, #0]
    43d6:	f8d1 30c4 	ldr.w	r3, [r1, #196]	; 0xc4
    43da:	4a11      	ldr	r2, [pc, #68]	; (4420 <us_ticker_init.part.0+0x54>)
    43dc:	f443 0300 	orr.w	r3, r3, #8388608	; 0x800000
    43e0:	4810      	ldr	r0, [pc, #64]	; (4424 <us_ticker_init.part.0+0x58>)
    43e2:	2500      	movs	r5, #0
    43e4:	f8c1 30c4 	str.w	r3, [r1, #196]	; 0xc4
    43e8:	6715      	str	r5, [r2, #112]	; 0x70
    43ea:	6803      	ldr	r3, [r0, #0]
    43ec:	f101 7143 	add.w	r1, r1, #51118080	; 0x30c0000
    43f0:	f501 51f4 	add.w	r1, r1, #7808	; 0x1e80
    43f4:	3103      	adds	r1, #3
    43f6:	089b      	lsrs	r3, r3, #2
    43f8:	fba1 1303 	umull	r1, r3, r1, r3
    43fc:	0c9b      	lsrs	r3, r3, #18
    43fe:	3b01      	subs	r3, #1
    4400:	2102      	movs	r1, #2
    4402:	6051      	str	r1, [r2, #4]
    4404:	2004      	movs	r0, #4
    4406:	60d3      	str	r3, [r2, #12]
    4408:	4907      	ldr	r1, [pc, #28]	; (4428 <us_ticker_init.part.0+0x5c>)
    440a:	6054      	str	r4, [r2, #4]
    440c:	f7ff f90c 	bl	3628 <NVIC_SetVector>
    4410:	4b06      	ldr	r3, [pc, #24]	; (442c <us_ticker_init.part.0+0x60>)
    4412:	2210      	movs	r2, #16
    4414:	601a      	str	r2, [r3, #0]
    4416:	bd38      	pop	{r3, r4, r5, pc}
    4418:	400fc000 	.word	0x400fc000
    441c:	10000c98 	.word	0x10000c98
    4420:	40094000 	.word	0x40094000
    4424:	100000d0 	.word	0x100000d0
    4428:	000035f9 	.word	0x000035f9
    442c:	e000e100 	.word	0xe000e100

00004430 <us_ticker_init>:
    4430:	4b02      	ldr	r3, [pc, #8]	; (443c <us_ticker_init+0xc>)
    4432:	681b      	ldr	r3, [r3, #0]
    4434:	b103      	cbz	r3, 4438 <us_ticker_init+0x8>
    4436:	4770      	bx	lr
    4438:	f7ff bfc8 	b.w	43cc <us_ticker_init.part.0>
    443c:	10000c98 	.word	0x10000c98

00004440 <us_ticker_read>:
    4440:	b508      	push	{r3, lr}
    4442:	4b04      	ldr	r3, [pc, #16]	; (4454 <us_ticker_read+0x14>)
    4444:	681b      	ldr	r3, [r3, #0]
    4446:	b90b      	cbnz	r3, 444c <us_ticker_read+0xc>
    4448:	f7ff ffc0 	bl	43cc <us_ticker_init.part.0>
    444c:	4b02      	ldr	r3, [pc, #8]	; (4458 <us_ticker_read+0x18>)
    444e:	6898      	ldr	r0, [r3, #8]
    4450:	bd08      	pop	{r3, pc}
    4452:	bf00      	nop
    4454:	10000c98 	.word	0x10000c98
    4458:	40094000 	.word	0x40094000

0000445c <us_ticker_set_interrupt>:
    445c:	4b03      	ldr	r3, [pc, #12]	; (446c <us_ticker_set_interrupt+0x10>)
    445e:	6198      	str	r0, [r3, #24]
    4460:	695a      	ldr	r2, [r3, #20]
    4462:	f042 0201 	orr.w	r2, r2, #1
    4466:	615a      	str	r2, [r3, #20]
    4468:	4770      	bx	lr
    446a:	bf00      	nop
    446c:	40094000 	.word	0x40094000

00004470 <us_ticker_disable_interrupt>:
    4470:	4a02      	ldr	r2, [pc, #8]	; (447c <us_ticker_disable_interrupt+0xc>)
    4472:	6953      	ldr	r3, [r2, #20]
    4474:	f023 0301 	bic.w	r3, r3, #1
    4478:	6153      	str	r3, [r2, #20]
    447a:	4770      	bx	lr
    447c:	40094000 	.word	0x40094000

00004480 <us_ticker_clear_interrupt>:
    4480:	4b01      	ldr	r3, [pc, #4]	; (4488 <us_ticker_clear_interrupt+0x8>)
    4482:	2201      	movs	r2, #1
    4484:	601a      	str	r2, [r3, #0]
    4486:	4770      	bx	lr
    4488:	40094000 	.word	0x40094000

0000448c <mbed::FileBase::~FileBase()>:
    448c:	4a09      	ldr	r2, [pc, #36]	; (44b4 <mbed::FileBase::~FileBase()+0x28>)
    448e:	6883      	ldr	r3, [r0, #8]
    4490:	6002      	str	r2, [r0, #0]
    4492:	b153      	cbz	r3, 44aa <mbed::FileBase::~FileBase()+0x1e>
    4494:	4b08      	ldr	r3, [pc, #32]	; (44b8 <mbed::FileBase::~FileBase()+0x2c>)
    4496:	681a      	ldr	r2, [r3, #0]
    4498:	4282      	cmp	r2, r0
    449a:	d101      	bne.n	44a0 <mbed::FileBase::~FileBase()+0x14>
    449c:	e006      	b.n	44ac <mbed::FileBase::~FileBase()+0x20>
    449e:	461a      	mov	r2, r3
    44a0:	6853      	ldr	r3, [r2, #4]
    44a2:	4283      	cmp	r3, r0
    44a4:	d1fb      	bne.n	449e <mbed::FileBase::~FileBase()+0x12>
    44a6:	6843      	ldr	r3, [r0, #4]
    44a8:	6053      	str	r3, [r2, #4]
    44aa:	4770      	bx	lr
    44ac:	6842      	ldr	r2, [r0, #4]
    44ae:	601a      	str	r2, [r3, #0]
    44b0:	4770      	bx	lr
    44b2:	bf00      	nop
    44b4:	00007a88 	.word	0x00007a88
    44b8:	10000c9c 	.word	0x10000c9c

000044bc <mbed::FileBase::~FileBase()>:
    44bc:	4a0c      	ldr	r2, [pc, #48]	; (44f0 <mbed::FileBase::~FileBase()+0x34>)
    44be:	6883      	ldr	r3, [r0, #8]
    44c0:	b510      	push	{r4, lr}
    44c2:	4604      	mov	r4, r0
    44c4:	6002      	str	r2, [r0, #0]
    44c6:	b153      	cbz	r3, 44de <mbed::FileBase::~FileBase()+0x22>
    44c8:	4b0a      	ldr	r3, [pc, #40]	; (44f4 <mbed::FileBase::~FileBase()+0x38>)
    44ca:	681a      	ldr	r2, [r3, #0]
    44cc:	4290      	cmp	r0, r2
    44ce:	d101      	bne.n	44d4 <mbed::FileBase::~FileBase()+0x18>
    44d0:	e00a      	b.n	44e8 <mbed::FileBase::~FileBase()+0x2c>
    44d2:	461a      	mov	r2, r3
    44d4:	6853      	ldr	r3, [r2, #4]
    44d6:	429c      	cmp	r4, r3
    44d8:	d1fb      	bne.n	44d2 <mbed::FileBase::~FileBase()+0x16>
    44da:	6863      	ldr	r3, [r4, #4]
    44dc:	6053      	str	r3, [r2, #4]
    44de:	4620      	mov	r0, r4
    44e0:	f000 fc9d 	bl	4e1e <operator delete(void*)>
    44e4:	4620      	mov	r0, r4
    44e6:	bd10      	pop	{r4, pc}
    44e8:	6842      	ldr	r2, [r0, #4]
    44ea:	601a      	str	r2, [r3, #0]
    44ec:	e7f7      	b.n	44de <mbed::FileBase::~FileBase()+0x22>
    44ee:	bf00      	nop
    44f0:	00007a88 	.word	0x00007a88
    44f4:	10000c9c 	.word	0x10000c9c

000044f8 <mbed::FileBase::FileBase(char const*, mbed::PathType)>:
    44f8:	b410      	push	{r4}
    44fa:	4c07      	ldr	r4, [pc, #28]	; (4518 <mbed::FileBase::FileBase(char const*, mbed::PathType)+0x20>)
    44fc:	2300      	movs	r3, #0
    44fe:	7302      	strb	r2, [r0, #12]
    4500:	6081      	str	r1, [r0, #8]
    4502:	6004      	str	r4, [r0, #0]
    4504:	6043      	str	r3, [r0, #4]
    4506:	b119      	cbz	r1, 4510 <mbed::FileBase::FileBase(char const*, mbed::PathType)+0x18>
    4508:	4b04      	ldr	r3, [pc, #16]	; (451c <mbed::FileBase::FileBase(char const*, mbed::PathType)+0x24>)
    450a:	681a      	ldr	r2, [r3, #0]
    450c:	6018      	str	r0, [r3, #0]
    450e:	6042      	str	r2, [r0, #4]
    4510:	f85d 4b04 	ldr.w	r4, [sp], #4
    4514:	4770      	bx	lr
    4516:	bf00      	nop
    4518:	00007a88 	.word	0x00007a88
    451c:	10000c9c 	.word	0x10000c9c

00004520 <mbed::FileBase::lookup(char const*, unsigned int)>:
    4520:	b5f8      	push	{r3, r4, r5, r6, r7, lr}
    4522:	4b0b      	ldr	r3, [pc, #44]	; (4550 <mbed::FileBase::lookup(char const*, unsigned int)+0x30>)
    4524:	4607      	mov	r7, r0
    4526:	681c      	ldr	r4, [r3, #0]
    4528:	460e      	mov	r6, r1
    452a:	b17c      	cbz	r4, 454c <mbed::FileBase::lookup(char const*, unsigned int)+0x2c>
    452c:	68a5      	ldr	r5, [r4, #8]
    452e:	b155      	cbz	r5, 4546 <mbed::FileBase::lookup(char const*, unsigned int)+0x26>
    4530:	4628      	mov	r0, r5
    4532:	4639      	mov	r1, r7
    4534:	4632      	mov	r2, r6
    4536:	f002 f9c6 	bl	68c6 <strncmp>
    453a:	b920      	cbnz	r0, 4546 <mbed::FileBase::lookup(char const*, unsigned int)+0x26>
    453c:	4628      	mov	r0, r5
    453e:	f002 f9ba 	bl	68b6 <strlen>
    4542:	42b0      	cmp	r0, r6
    4544:	d002      	beq.n	454c <mbed::FileBase::lookup(char const*, unsigned int)+0x2c>
    4546:	6864      	ldr	r4, [r4, #4]
    4548:	2c00      	cmp	r4, #0
    454a:	d1ef      	bne.n	452c <mbed::FileBase::lookup(char const*, unsigned int)+0xc>
    454c:	4620      	mov	r0, r4
    454e:	bdf8      	pop	{r3, r4, r5, r6, r7, pc}
    4550:	10000c9c 	.word	0x10000c9c

00004554 <mbed::FileBase::getPathType()>:
    4554:	7b00      	ldrb	r0, [r0, #12]
    4556:	4770      	bx	lr

00004558 <mbed::FileHandle::flen()>:
    4558:	6803      	ldr	r3, [r0, #0]
    455a:	b570      	push	{r4, r5, r6, lr}
    455c:	691b      	ldr	r3, [r3, #16]
    455e:	2100      	movs	r1, #0
    4560:	2201      	movs	r2, #1
    4562:	4604      	mov	r4, r0
    4564:	4798      	blx	r3
    4566:	1c43      	adds	r3, r0, #1
    4568:	4606      	mov	r6, r0
    456a:	d00e      	beq.n	458a <mbed::FileHandle::flen()+0x32>
    456c:	6823      	ldr	r3, [r4, #0]
    456e:	4620      	mov	r0, r4
    4570:	691b      	ldr	r3, [r3, #16]
    4572:	2100      	movs	r1, #0
    4574:	2202      	movs	r2, #2
    4576:	4798      	blx	r3
    4578:	4605      	mov	r5, r0
    457a:	6823      	ldr	r3, [r4, #0]
    457c:	4631      	mov	r1, r6
    457e:	691b      	ldr	r3, [r3, #16]
    4580:	4620      	mov	r0, r4
    4582:	2200      	movs	r2, #0
    4584:	4798      	blx	r3
    4586:	4628      	mov	r0, r5
    4588:	bd70      	pop	{r4, r5, r6, pc}
    458a:	bd70      	pop	{r4, r5, r6, pc}

0000458c <mbed::FileLike::FileLike(char const*)>:
    458c:	b510      	push	{r4, lr}
    458e:	4604      	mov	r4, r0
    4590:	4b06      	ldr	r3, [pc, #24]	; (45ac <mbed::FileLike::FileLike(char const*)+0x20>)
    4592:	2200      	movs	r2, #0
    4594:	f840 3b04 	str.w	r3, [r0], #4
    4598:	f7ff ffae 	bl	44f8 <mbed::FileBase::FileBase(char const*, mbed::PathType)>
    459c:	4b04      	ldr	r3, [pc, #16]	; (45b0 <mbed::FileLike::FileLike(char const*)+0x24>)
    459e:	4620      	mov	r0, r4
    45a0:	f103 0208 	add.w	r2, r3, #8
    45a4:	3334      	adds	r3, #52	; 0x34
    45a6:	e884 000c 	stmia.w	r4, {r2, r3}
    45aa:	bd10      	pop	{r4, pc}
    45ac:	00007bf0 	.word	0x00007bf0
    45b0:	00007a90 	.word	0x00007a90

000045b4 <mbed::FileLike::~FileLike()>:
    45b4:	b510      	push	{r4, lr}
    45b6:	4604      	mov	r4, r0
    45b8:	4b06      	ldr	r3, [pc, #24]	; (45d4 <mbed::FileLike::~FileLike()+0x20>)
    45ba:	f103 0208 	add.w	r2, r3, #8
    45be:	3334      	adds	r3, #52	; 0x34
    45c0:	6022      	str	r2, [r4, #0]
    45c2:	f840 3f04 	str.w	r3, [r0, #4]!
    45c6:	f7ff ff61 	bl	448c <mbed::FileBase::~FileBase()>
    45ca:	4620      	mov	r0, r4
    45cc:	f000 fa9c 	bl	4b08 <mbed::FileHandle::~FileHandle()>
    45d0:	4620      	mov	r0, r4
    45d2:	bd10      	pop	{r4, pc}
    45d4:	00007a90 	.word	0x00007a90

000045d8 <mbed::FilePath::FilePath(char const*)>:
    45d8:	b538      	push	{r3, r4, r5, lr}
    45da:	2300      	movs	r3, #0
    45dc:	6003      	str	r3, [r0, #0]
    45de:	6043      	str	r3, [r0, #4]
    45e0:	780a      	ldrb	r2, [r1, #0]
    45e2:	4604      	mov	r4, r0
    45e4:	2a2f      	cmp	r2, #47	; 0x2f
    45e6:	d001      	beq.n	45ec <mbed::FilePath::FilePath(char const*)+0x14>
    45e8:	4620      	mov	r0, r4
    45ea:	bd38      	pop	{r3, r4, r5, pc}
    45ec:	784a      	ldrb	r2, [r1, #1]
    45ee:	2a00      	cmp	r2, #0
    45f0:	d0fa      	beq.n	45e8 <mbed::FilePath::FilePath(char const*)+0x10>
    45f2:	1c48      	adds	r0, r1, #1
    45f4:	6020      	str	r0, [r4, #0]
    45f6:	784d      	ldrb	r5, [r1, #1]
    45f8:	2d2f      	cmp	r5, #47	; 0x2f
    45fa:	d013      	beq.n	4624 <mbed::FilePath::FilePath(char const*)+0x4c>
    45fc:	b185      	cbz	r5, 4620 <mbed::FilePath::FilePath(char const*)+0x48>
    45fe:	4603      	mov	r3, r0
    4600:	e000      	b.n	4604 <mbed::FilePath::FilePath(char const*)+0x2c>
    4602:	b16a      	cbz	r2, 4620 <mbed::FilePath::FilePath(char const*)+0x48>
    4604:	1a5d      	subs	r5, r3, r1
    4606:	3301      	adds	r3, #1
    4608:	6023      	str	r3, [r4, #0]
    460a:	781a      	ldrb	r2, [r3, #0]
    460c:	2a2f      	cmp	r2, #47	; 0x2f
    460e:	d1f8      	bne.n	4602 <mbed::FilePath::FilePath(char const*)+0x2a>
    4610:	4629      	mov	r1, r5
    4612:	3301      	adds	r3, #1
    4614:	6023      	str	r3, [r4, #0]
    4616:	f7ff ff83 	bl	4520 <mbed::FileBase::lookup(char const*, unsigned int)>
    461a:	6060      	str	r0, [r4, #4]
    461c:	4620      	mov	r0, r4
    461e:	bd38      	pop	{r3, r4, r5, pc}
    4620:	4629      	mov	r1, r5
    4622:	e7f8      	b.n	4616 <mbed::FilePath::FilePath(char const*)+0x3e>
    4624:	4619      	mov	r1, r3
    4626:	4603      	mov	r3, r0
    4628:	e7f3      	b.n	4612 <mbed::FilePath::FilePath(char const*)+0x3a>
    462a:	bf00      	nop

0000462c <mbed::FilePath::fileName()>:
    462c:	6800      	ldr	r0, [r0, #0]
    462e:	4770      	bx	lr

00004630 <mbed::FilePath::fileSystem()>:
    4630:	6843      	ldr	r3, [r0, #4]
    4632:	b143      	cbz	r3, 4646 <mbed::FilePath::fileSystem()+0x16>
    4634:	b510      	push	{r4, lr}
    4636:	4604      	mov	r4, r0
    4638:	4618      	mov	r0, r3
    463a:	f7ff ff8b 	bl	4554 <mbed::FileBase::getPathType()>
    463e:	2801      	cmp	r0, #1
    4640:	d103      	bne.n	464a <mbed::FilePath::fileSystem()+0x1a>
    4642:	6860      	ldr	r0, [r4, #4]
    4644:	bd10      	pop	{r4, pc}
    4646:	2000      	movs	r0, #0
    4648:	4770      	bx	lr
    464a:	2000      	movs	r0, #0
    464c:	bd10      	pop	{r4, pc}
    464e:	bf00      	nop

00004650 <mbed::FilePath::isFile()>:
    4650:	6840      	ldr	r0, [r0, #4]
    4652:	b130      	cbz	r0, 4662 <mbed::FilePath::isFile()+0x12>
    4654:	b508      	push	{r3, lr}
    4656:	f7ff ff7d 	bl	4554 <mbed::FileBase::getPathType()>
    465a:	fab0 f080 	clz	r0, r0
    465e:	0940      	lsrs	r0, r0, #5
    4660:	bd08      	pop	{r3, pc}
    4662:	4770      	bx	lr

00004664 <mbed::FilePath::file()>:
    4664:	6843      	ldr	r3, [r0, #4]
    4666:	b14b      	cbz	r3, 467c <mbed::FilePath::file()+0x18>
    4668:	b510      	push	{r4, lr}
    466a:	4604      	mov	r4, r0
    466c:	4618      	mov	r0, r3
    466e:	f7ff ff71 	bl	4554 <mbed::FileBase::getPathType()>
    4672:	b928      	cbnz	r0, 4680 <mbed::FilePath::file()+0x1c>
    4674:	6860      	ldr	r0, [r4, #4]
    4676:	b118      	cbz	r0, 4680 <mbed::FilePath::file()+0x1c>
    4678:	3804      	subs	r0, #4
    467a:	bd10      	pop	{r4, pc}
    467c:	2000      	movs	r0, #0
    467e:	4770      	bx	lr
    4680:	2000      	movs	r0, #0
    4682:	bd10      	pop	{r4, pc}

00004684 <mbed::FilePath::exists()>:
    4684:	6840      	ldr	r0, [r0, #4]
    4686:	3000      	adds	r0, #0
    4688:	bf18      	it	ne
    468a:	2001      	movne	r0, #1
    468c:	4770      	bx	lr
    468e:	bf00      	nop

00004690 <mbed::InterruptIn::~InterruptIn()>:
    4690:	b510      	push	{r4, lr}
    4692:	4604      	mov	r4, r0
    4694:	4b03      	ldr	r3, [pc, #12]	; (46a4 <mbed::InterruptIn::~InterruptIn()+0x14>)
    4696:	f840 3b1c 	str.w	r3, [r0], #28
    469a:	f7ff f93d 	bl	3918 <gpio_irq_free>
    469e:	4620      	mov	r0, r4
    46a0:	bd10      	pop	{r4, pc}
    46a2:	bf00      	nop
    46a4:	00007ad8 	.word	0x00007ad8

000046a8 <mbed::InterruptIn::~InterruptIn()>:
    46a8:	b510      	push	{r4, lr}
    46aa:	4604      	mov	r4, r0
    46ac:	4b04      	ldr	r3, [pc, #16]	; (46c0 <mbed::InterruptIn::~InterruptIn()+0x18>)
    46ae:	f840 3b1c 	str.w	r3, [r0], #28
    46b2:	f7ff f931 	bl	3918 <gpio_irq_free>
    46b6:	4620      	mov	r0, r4
    46b8:	f000 fbb1 	bl	4e1e <operator delete(void*)>
    46bc:	4620      	mov	r0, r4
    46be:	bd10      	pop	{r4, pc}
    46c0:	00007ad8 	.word	0x00007ad8

000046c4 <mbed::InterruptIn::_irq_handler(unsigned long, gpio_irq_event)>:
    46c4:	2901      	cmp	r1, #1
    46c6:	4603      	mov	r3, r0
    46c8:	d00c      	beq.n	46e4 <mbed::InterruptIn::_irq_handler(unsigned long, gpio_irq_event)+0x20>
    46ca:	2902      	cmp	r1, #2
    46cc:	d106      	bne.n	46dc <mbed::InterruptIn::_irq_handler(unsigned long, gpio_irq_event)+0x18>
    46ce:	6d42      	ldr	r2, [r0, #84]	; 0x54
    46d0:	b12a      	cbz	r2, 46de <mbed::InterruptIn::_irq_handler(unsigned long, gpio_irq_event)+0x1a>
    46d2:	6c00      	ldr	r0, [r0, #64]	; 0x40
    46d4:	b128      	cbz	r0, 46e2 <mbed::InterruptIn::_irq_handler(unsigned long, gpio_irq_event)+0x1e>
    46d6:	f103 0144 	add.w	r1, r3, #68	; 0x44
    46da:	4710      	bx	r2
    46dc:	4770      	bx	lr
    46de:	6c03      	ldr	r3, [r0, #64]	; 0x40
    46e0:	b95b      	cbnz	r3, 46fa <mbed::InterruptIn::_irq_handler(unsigned long, gpio_irq_event)+0x36>
    46e2:	4770      	bx	lr
    46e4:	6bc2      	ldr	r2, [r0, #60]	; 0x3c
    46e6:	b12a      	cbz	r2, 46f4 <mbed::InterruptIn::_irq_handler(unsigned long, gpio_irq_event)+0x30>
    46e8:	6a80      	ldr	r0, [r0, #40]	; 0x28
    46ea:	2800      	cmp	r0, #0
    46ec:	d0f9      	beq.n	46e2 <mbed::InterruptIn::_irq_handler(unsigned long, gpio_irq_event)+0x1e>
    46ee:	f103 012c 	add.w	r1, r3, #44	; 0x2c
    46f2:	4710      	bx	r2
    46f4:	6a83      	ldr	r3, [r0, #40]	; 0x28
    46f6:	2b00      	cmp	r3, #0
    46f8:	d0f3      	beq.n	46e2 <mbed::InterruptIn::_irq_handler(unsigned long, gpio_irq_event)+0x1e>
    46fa:	4718      	bx	r3

000046fc <mbed::InterruptIn::InterruptIn(PinName)>:
    46fc:	b538      	push	{r3, r4, r5, lr}
    46fe:	4604      	mov	r4, r0
    4700:	460d      	mov	r5, r1
    4702:	4a0d      	ldr	r2, [pc, #52]	; (4738 <mbed::InterruptIn::InterruptIn(PinName)+0x3c>)
    4704:	2300      	movs	r3, #0
    4706:	e880 000c 	stmia.w	r0, {r2, r3}
    470a:	6083      	str	r3, [r0, #8]
    470c:	60c3      	str	r3, [r0, #12]
    470e:	6103      	str	r3, [r0, #16]
    4710:	6143      	str	r3, [r0, #20]
    4712:	6183      	str	r3, [r0, #24]
    4714:	61c3      	str	r3, [r0, #28]
    4716:	6203      	str	r3, [r0, #32]
    4718:	6243      	str	r3, [r0, #36]	; 0x24
    471a:	6283      	str	r3, [r0, #40]	; 0x28
    471c:	63c3      	str	r3, [r0, #60]	; 0x3c
    471e:	6403      	str	r3, [r0, #64]	; 0x40
    4720:	6543      	str	r3, [r0, #84]	; 0x54
    4722:	4a06      	ldr	r2, [pc, #24]	; (473c <mbed::InterruptIn::InterruptIn(PinName)+0x40>)
    4724:	4623      	mov	r3, r4
    4726:	301c      	adds	r0, #28
    4728:	f7ff f8bc 	bl	38a4 <gpio_irq_init>
    472c:	1d20      	adds	r0, r4, #4
    472e:	4629      	mov	r1, r5
    4730:	f7fe fe2e 	bl	3390 <gpio_init_in>
    4734:	4620      	mov	r0, r4
    4736:	bd38      	pop	{r3, r4, r5, pc}
    4738:	00007ad8 	.word	0x00007ad8
    473c:	000046c5 	.word	0x000046c5

00004740 <mbed::Serial::_getc()>:
    4740:	f000 b89a 	b.w	4878 <mbed::SerialBase::_base_getc()>

00004744 <non-virtual thunk to mbed::Serial::_getc()>:
    4744:	f1a0 0040 	sub.w	r0, r0, #64	; 0x40
    4748:	f7ff bffa 	b.w	4740 <mbed::Serial::_getc()>

0000474c <mbed::Serial::_putc(int)>:
    474c:	f000 b898 	b.w	4880 <mbed::SerialBase::_base_putc(int)>

00004750 <non-virtual thunk to mbed::Serial::_putc(int)>:
    4750:	f1a0 0040 	sub.w	r0, r0, #64	; 0x40
    4754:	f7ff bffa 	b.w	474c <mbed::Serial::_putc(int)>

00004758 <mbed::Serial::~Serial()>:
    4758:	b510      	push	{r4, lr}
    475a:	4604      	mov	r4, r0
    475c:	4b06      	ldr	r3, [pc, #24]	; (4778 <mbed::Serial::~Serial()+0x20>)
    475e:	3040      	adds	r0, #64	; 0x40
    4760:	f103 0108 	add.w	r1, r3, #8
    4764:	f103 0220 	add.w	r2, r3, #32
    4768:	3354      	adds	r3, #84	; 0x54
    476a:	6021      	str	r1, [r4, #0]
    476c:	6422      	str	r2, [r4, #64]	; 0x40
    476e:	6463      	str	r3, [r4, #68]	; 0x44
    4770:	f000 f8e6 	bl	4940 <mbed::Stream::~Stream()>
    4774:	4620      	mov	r0, r4
    4776:	bd10      	pop	{r4, pc}
    4778:	00007ae0 	.word	0x00007ae0

0000477c <non-virtual thunk to mbed::Serial::~Serial()>:
    477c:	f1a0 0040 	sub.w	r0, r0, #64	; 0x40
    4780:	f7ff bfea 	b.w	4758 <mbed::Serial::~Serial()>

00004784 <non-virtual thunk to mbed::Serial::~Serial()>:
    4784:	f1a0 0044 	sub.w	r0, r0, #68	; 0x44
    4788:	f7ff bfe6 	b.w	4758 <mbed::Serial::~Serial()>

0000478c <mbed::Serial::~Serial()>:
    478c:	b510      	push	{r4, lr}
    478e:	4604      	mov	r4, r0
    4790:	4b08      	ldr	r3, [pc, #32]	; (47b4 <mbed::Serial::~Serial()+0x28>)
    4792:	3040      	adds	r0, #64	; 0x40
    4794:	f103 0108 	add.w	r1, r3, #8
    4798:	f103 0220 	add.w	r2, r3, #32
    479c:	3354      	adds	r3, #84	; 0x54
    479e:	6021      	str	r1, [r4, #0]
    47a0:	6422      	str	r2, [r4, #64]	; 0x40
    47a2:	6463      	str	r3, [r4, #68]	; 0x44
    47a4:	f000 f8cc 	bl	4940 <mbed::Stream::~Stream()>
    47a8:	4620      	mov	r0, r4
    47aa:	f000 fb38 	bl	4e1e <operator delete(void*)>
    47ae:	4620      	mov	r0, r4
    47b0:	bd10      	pop	{r4, pc}
    47b2:	bf00      	nop
    47b4:	00007ae0 	.word	0x00007ae0

000047b8 <non-virtual thunk to mbed::Serial::~Serial()>:
    47b8:	f1a0 0040 	sub.w	r0, r0, #64	; 0x40
    47bc:	e7e6      	b.n	478c <mbed::Serial::~Serial()>
    47be:	bf00      	nop

000047c0 <non-virtual thunk to mbed::Serial::~Serial()>:
    47c0:	f1a0 0044 	sub.w	r0, r0, #68	; 0x44
    47c4:	e7e2      	b.n	478c <mbed::Serial::~Serial()>
    47c6:	bf00      	nop

000047c8 <mbed::Serial::Serial(PinName, PinName, char const*)>:
    47c8:	b538      	push	{r3, r4, r5, lr}
    47ca:	4604      	mov	r4, r0
    47cc:	461d      	mov	r5, r3
    47ce:	f000 f82d 	bl	482c <mbed::SerialBase::SerialBase(PinName, PinName)>
    47d2:	4629      	mov	r1, r5
    47d4:	f104 0040 	add.w	r0, r4, #64	; 0x40
    47d8:	f000 f890 	bl	48fc <mbed::Stream::Stream(char const*)>
    47dc:	4b05      	ldr	r3, [pc, #20]	; (47f4 <mbed::Serial::Serial(PinName, PinName, char const*)+0x2c>)
    47de:	4620      	mov	r0, r4
    47e0:	f103 0108 	add.w	r1, r3, #8
    47e4:	f103 0220 	add.w	r2, r3, #32
    47e8:	3354      	adds	r3, #84	; 0x54
    47ea:	6021      	str	r1, [r4, #0]
    47ec:	6422      	str	r2, [r4, #64]	; 0x40
    47ee:	6463      	str	r3, [r4, #68]	; 0x44
    47f0:	bd38      	pop	{r3, r4, r5, pc}
    47f2:	bf00      	nop
    47f4:	00007ae0 	.word	0x00007ae0

000047f8 <mbed::SerialBase::_irq_handler(unsigned long, SerialIrq)>:
    47f8:	1c4a      	adds	r2, r1, #1
    47fa:	eb02 0242 	add.w	r2, r2, r2, lsl #1
    47fe:	eb00 02c2 	add.w	r2, r0, r2, lsl #3
    4802:	6893      	ldr	r3, [r2, #8]
    4804:	b153      	cbz	r3, 481c <mbed::SerialBase::_irq_handler(unsigned long, SerialIrq)+0x24>
    4806:	eb01 0141 	add.w	r1, r1, r1, lsl #1
    480a:	00c9      	lsls	r1, r1, #3
    480c:	1842      	adds	r2, r0, r1
    480e:	68d2      	ldr	r2, [r2, #12]
    4810:	b11a      	cbz	r2, 481a <mbed::SerialBase::_irq_handler(unsigned long, SerialIrq)+0x22>
    4812:	4401      	add	r1, r0
    4814:	3110      	adds	r1, #16
    4816:	4610      	mov	r0, r2
    4818:	4718      	bx	r3
    481a:	4770      	bx	lr
    481c:	eb01 0341 	add.w	r3, r1, r1, lsl #1
    4820:	eb00 01c3 	add.w	r1, r0, r3, lsl #3
    4824:	68cb      	ldr	r3, [r1, #12]
    4826:	2b00      	cmp	r3, #0
    4828:	d0f7      	beq.n	481a <mbed::SerialBase::_irq_handler(unsigned long, SerialIrq)+0x22>
    482a:	4718      	bx	r3

0000482c <mbed::SerialBase::SerialBase(PinName, PinName)>:
    482c:	b570      	push	{r4, r5, r6, lr}
    482e:	4604      	mov	r4, r0
    4830:	4e0b      	ldr	r6, [pc, #44]	; (4860 <mbed::SerialBase::SerialBase(PinName, PinName)+0x34>)
    4832:	2300      	movs	r3, #0
    4834:	1d25      	adds	r5, r4, #4
    4836:	f44f 5016 	mov.w	r0, #9600	; 0x2580
    483a:	63e0      	str	r0, [r4, #60]	; 0x3c
    483c:	6063      	str	r3, [r4, #4]
    483e:	4628      	mov	r0, r5
    4840:	60a3      	str	r3, [r4, #8]
    4842:	60e3      	str	r3, [r4, #12]
    4844:	6223      	str	r3, [r4, #32]
    4846:	6263      	str	r3, [r4, #36]	; 0x24
    4848:	63a3      	str	r3, [r4, #56]	; 0x38
    484a:	6026      	str	r6, [r4, #0]
    484c:	f7ff fcf4 	bl	4238 <serial_init>
    4850:	4628      	mov	r0, r5
    4852:	4622      	mov	r2, r4
    4854:	4903      	ldr	r1, [pc, #12]	; (4864 <mbed::SerialBase::SerialBase(PinName, PinName)+0x38>)
    4856:	f7ff fbcf 	bl	3ff8 <serial_irq_handler>
    485a:	4620      	mov	r0, r4
    485c:	bd70      	pop	{r4, r5, r6, pc}
    485e:	bf00      	nop
    4860:	00007b48 	.word	0x00007b48
    4864:	000047f9 	.word	0x000047f9

00004868 <mbed::SerialBase::baud(int)>:
    4868:	b538      	push	{r3, r4, r5, lr}
    486a:	4604      	mov	r4, r0
    486c:	460d      	mov	r5, r1
    486e:	3004      	adds	r0, #4
    4870:	f7ff fae2 	bl	3e38 <serial_baud>
    4874:	63e5      	str	r5, [r4, #60]	; 0x3c
    4876:	bd38      	pop	{r3, r4, r5, pc}

00004878 <mbed::SerialBase::_base_getc()>:
    4878:	3004      	adds	r0, #4
    487a:	f7ff bbdf 	b.w	403c <serial_getc>
    487e:	bf00      	nop

00004880 <mbed::SerialBase::_base_putc(int)>:
    4880:	b510      	push	{r4, lr}
    4882:	460c      	mov	r4, r1
    4884:	3004      	adds	r0, #4
    4886:	f7ff fc25 	bl	40d4 <serial_putc>
    488a:	4620      	mov	r0, r4
    488c:	bd10      	pop	{r4, pc}
    488e:	bf00      	nop

00004890 <mbed::Stream::close()>:
    4890:	2000      	movs	r0, #0
    4892:	4770      	bx	lr

00004894 <mbed::Stream::write(void const*, unsigned int)>:
    4894:	b5f8      	push	{r3, r4, r5, r6, r7, lr}
    4896:	188e      	adds	r6, r1, r2
    4898:	42b1      	cmp	r1, r6
    489a:	460f      	mov	r7, r1
    489c:	d00e      	beq.n	48bc <mbed::Stream::write(void const*, unsigned int)+0x28>
    489e:	4605      	mov	r5, r0
    48a0:	460c      	mov	r4, r1
    48a2:	e001      	b.n	48a8 <mbed::Stream::write(void const*, unsigned int)+0x14>
    48a4:	42a6      	cmp	r6, r4
    48a6:	d007      	beq.n	48b8 <mbed::Stream::write(void const*, unsigned int)+0x24>
    48a8:	682b      	ldr	r3, [r5, #0]
    48aa:	4628      	mov	r0, r5
    48ac:	6a5b      	ldr	r3, [r3, #36]	; 0x24
    48ae:	f814 1b01 	ldrb.w	r1, [r4], #1
    48b2:	4798      	blx	r3
    48b4:	3001      	adds	r0, #1
    48b6:	d1f5      	bne.n	48a4 <mbed::Stream::write(void const*, unsigned int)+0x10>
    48b8:	1be0      	subs	r0, r4, r7
    48ba:	bdf8      	pop	{r3, r4, r5, r6, r7, pc}
    48bc:	460c      	mov	r4, r1
    48be:	e7fb      	b.n	48b8 <mbed::Stream::write(void const*, unsigned int)+0x24>

000048c0 <mbed::Stream::read(void*, unsigned int)>:
    48c0:	b5f8      	push	{r3, r4, r5, r6, r7, lr}
    48c2:	188e      	adds	r6, r1, r2
    48c4:	42b1      	cmp	r1, r6
    48c6:	460f      	mov	r7, r1
    48c8:	d00e      	beq.n	48e8 <mbed::Stream::read(void*, unsigned int)+0x28>
    48ca:	4605      	mov	r5, r0
    48cc:	460c      	mov	r4, r1
    48ce:	e003      	b.n	48d8 <mbed::Stream::read(void*, unsigned int)+0x18>
    48d0:	f804 0b01 	strb.w	r0, [r4], #1
    48d4:	42a6      	cmp	r6, r4
    48d6:	d005      	beq.n	48e4 <mbed::Stream::read(void*, unsigned int)+0x24>
    48d8:	682b      	ldr	r3, [r5, #0]
    48da:	4628      	mov	r0, r5
    48dc:	6a9b      	ldr	r3, [r3, #40]	; 0x28
    48de:	4798      	blx	r3
    48e0:	1c43      	adds	r3, r0, #1
    48e2:	d1f5      	bne.n	48d0 <mbed::Stream::read(void*, unsigned int)+0x10>
    48e4:	1be0      	subs	r0, r4, r7
    48e6:	bdf8      	pop	{r3, r4, r5, r6, r7, pc}
    48e8:	460c      	mov	r4, r1
    48ea:	e7fb      	b.n	48e4 <mbed::Stream::read(void*, unsigned int)+0x24>

000048ec <mbed::Stream::lseek(long, int)>:
    48ec:	2000      	movs	r0, #0
    48ee:	4770      	bx	lr

000048f0 <mbed::Stream::isatty()>:
    48f0:	2000      	movs	r0, #0
    48f2:	4770      	bx	lr

000048f4 <mbed::Stream::fsync()>:
    48f4:	2000      	movs	r0, #0
    48f6:	4770      	bx	lr

000048f8 <mbed::Stream::flen()>:
    48f8:	2000      	movs	r0, #0
    48fa:	4770      	bx	lr

000048fc <mbed::Stream::Stream(char const*)>:
    48fc:	b510      	push	{r4, lr}
    48fe:	4604      	mov	r4, r0
    4900:	b084      	sub	sp, #16
    4902:	f7ff fe43 	bl	458c <mbed::FileLike::FileLike(char const*)>
    4906:	4b0b      	ldr	r3, [pc, #44]	; (4934 <mbed::Stream::Stream(char const*)+0x38>)
    4908:	2200      	movs	r2, #0
    490a:	f103 0108 	add.w	r1, r3, #8
    490e:	333c      	adds	r3, #60	; 0x3c
    4910:	e884 000a 	stmia.w	r4, {r1, r3}
    4914:	6162      	str	r2, [r4, #20]
    4916:	a801      	add	r0, sp, #4
    4918:	4622      	mov	r2, r4
    491a:	4907      	ldr	r1, [pc, #28]	; (4938 <mbed::Stream::Stream(char const*)+0x3c>)
    491c:	f001 ff2e 	bl	677c <siprintf>
    4920:	4906      	ldr	r1, [pc, #24]	; (493c <mbed::Stream::Stream(char const*)+0x40>)
    4922:	a801      	add	r0, sp, #4
    4924:	f000 ffa0 	bl	5868 <fopen>
    4928:	6160      	str	r0, [r4, #20]
    492a:	f000 fa4d 	bl	4dc8 <mbed::mbed_set_unbuffered_stream(__sFILE*)>
    492e:	4620      	mov	r0, r4
    4930:	b004      	add	sp, #16
    4932:	bd10      	pop	{r4, pc}
    4934:	00007b50 	.word	0x00007b50
    4938:	00007b94 	.word	0x00007b94
    493c:	00007b98 	.word	0x00007b98

00004940 <mbed::Stream::~Stream()>:
    4940:	b510      	push	{r4, lr}
    4942:	4604      	mov	r4, r0
    4944:	4b06      	ldr	r3, [pc, #24]	; (4960 <mbed::Stream::~Stream()+0x20>)
    4946:	6940      	ldr	r0, [r0, #20]
    4948:	f103 0208 	add.w	r2, r3, #8
    494c:	333c      	adds	r3, #60	; 0x3c
    494e:	e884 000c 	stmia.w	r4, {r2, r3}
    4952:	f000 fdd5 	bl	5500 <fclose>
    4956:	4620      	mov	r0, r4
    4958:	f7ff fe2c 	bl	45b4 <mbed::FileLike::~FileLike()>
    495c:	4620      	mov	r0, r4
    495e:	bd10      	pop	{r4, pc}
    4960:	00007b50 	.word	0x00007b50

00004964 <mbed::Stream::putc(int)>:
    4964:	b538      	push	{r3, r4, r5, lr}
    4966:	460d      	mov	r5, r1
    4968:	4604      	mov	r4, r0
    496a:	6940      	ldr	r0, [r0, #20]
    496c:	f000 fe7e 	bl	566c <fflush>
    4970:	4628      	mov	r0, r5
    4972:	6961      	ldr	r1, [r4, #20]
    4974:	e8bd 4038 	ldmia.w	sp!, {r3, r4, r5, lr}
    4978:	f000 bfa4 	b.w	58c4 <fputc>

0000497c <mbed::Ticker::handler()>:
    497c:	b510      	push	{r4, lr}
    497e:	4604      	mov	r4, r0
    4980:	6843      	ldr	r3, [r0, #4]
    4982:	6941      	ldr	r1, [r0, #20]
    4984:	4419      	add	r1, r3
    4986:	f000 f8a7 	bl	4ad8 <mbed::TimerEvent::insert(unsigned long)>
    498a:	6ae3      	ldr	r3, [r4, #44]	; 0x2c
    498c:	b13b      	cbz	r3, 499e <mbed::Ticker::handler()+0x22>
    498e:	69a0      	ldr	r0, [r4, #24]
    4990:	b120      	cbz	r0, 499c <mbed::Ticker::handler()+0x20>
    4992:	f104 011c 	add.w	r1, r4, #28
    4996:	e8bd 4010 	ldmia.w	sp!, {r4, lr}
    499a:	4718      	bx	r3
    499c:	bd10      	pop	{r4, pc}
    499e:	69a3      	ldr	r3, [r4, #24]
    49a0:	2b00      	cmp	r3, #0
    49a2:	d0fb      	beq.n	499c <mbed::Ticker::handler()+0x20>
    49a4:	e8bd 4010 	ldmia.w	sp!, {r4, lr}
    49a8:	4718      	bx	r3
    49aa:	bf00      	nop

000049ac <mbed::Ticker::~Ticker()>:
    49ac:	b510      	push	{r4, lr}
    49ae:	4604      	mov	r4, r0
    49b0:	4b05      	ldr	r3, [pc, #20]	; (49c8 <mbed::Ticker::~Ticker()+0x1c>)
    49b2:	6003      	str	r3, [r0, #0]
    49b4:	f000 f896 	bl	4ae4 <mbed::TimerEvent::remove()>
    49b8:	2300      	movs	r3, #0
    49ba:	61a3      	str	r3, [r4, #24]
    49bc:	62e3      	str	r3, [r4, #44]	; 0x2c
    49be:	4620      	mov	r0, r4
    49c0:	f000 f87e 	bl	4ac0 <mbed::TimerEvent::~TimerEvent()>
    49c4:	4620      	mov	r0, r4
    49c6:	bd10      	pop	{r4, pc}
    49c8:	00007ba8 	.word	0x00007ba8

000049cc <mbed::Ticker::~Ticker()>:
    49cc:	b510      	push	{r4, lr}
    49ce:	4604      	mov	r4, r0
    49d0:	4b07      	ldr	r3, [pc, #28]	; (49f0 <mbed::Ticker::~Ticker()+0x24>)
    49d2:	6003      	str	r3, [r0, #0]
    49d4:	f000 f886 	bl	4ae4 <mbed::TimerEvent::remove()>
    49d8:	2300      	movs	r3, #0
    49da:	61a3      	str	r3, [r4, #24]
    49dc:	62e3      	str	r3, [r4, #44]	; 0x2c
    49de:	4620      	mov	r0, r4
    49e0:	f000 f86e 	bl	4ac0 <mbed::TimerEvent::~TimerEvent()>
    49e4:	4620      	mov	r0, r4
    49e6:	f000 fa1a 	bl	4e1e <operator delete(void*)>
    49ea:	4620      	mov	r0, r4
    49ec:	bd10      	pop	{r4, pc}
    49ee:	bf00      	nop
    49f0:	00007ba8 	.word	0x00007ba8

000049f4 <mbed::Ticker::detach()>:
    49f4:	b510      	push	{r4, lr}
    49f6:	4604      	mov	r4, r0
    49f8:	f000 f874 	bl	4ae4 <mbed::TimerEvent::remove()>
    49fc:	2300      	movs	r3, #0
    49fe:	61a3      	str	r3, [r4, #24]
    4a00:	62e3      	str	r3, [r4, #44]	; 0x2c
    4a02:	bd10      	pop	{r4, pc}

00004a04 <mbed::Ticker::setup(unsigned long)>:
    4a04:	b538      	push	{r3, r4, r5, lr}
    4a06:	460c      	mov	r4, r1
    4a08:	4605      	mov	r5, r0
    4a0a:	f000 f86b 	bl	4ae4 <mbed::TimerEvent::remove()>
    4a0e:	616c      	str	r4, [r5, #20]
    4a10:	6928      	ldr	r0, [r5, #16]
    4a12:	f7fe fde9 	bl	35e8 <ticker_read>
    4a16:	1901      	adds	r1, r0, r4
    4a18:	4628      	mov	r0, r5
    4a1a:	e8bd 4038 	ldmia.w	sp!, {r3, r4, r5, lr}
    4a1e:	f000 b85b 	b.w	4ad8 <mbed::TimerEvent::insert(unsigned long)>
    4a22:	bf00      	nop

00004a24 <mbed::Timer::slicetime() [clone .part.0]>:
    4a24:	b510      	push	{r4, lr}
    4a26:	4604      	mov	r4, r0
    4a28:	68c0      	ldr	r0, [r0, #12]
    4a2a:	f7fe fddd 	bl	35e8 <ticker_read>
    4a2e:	6863      	ldr	r3, [r4, #4]
    4a30:	1ac0      	subs	r0, r0, r3
    4a32:	bd10      	pop	{r4, pc}

00004a34 <mbed::Timer::Timer()>:
    4a34:	b538      	push	{r3, r4, r5, lr}
    4a36:	2500      	movs	r5, #0
    4a38:	6005      	str	r5, [r0, #0]
    4a3a:	6045      	str	r5, [r0, #4]
    4a3c:	6085      	str	r5, [r0, #8]
    4a3e:	4604      	mov	r4, r0
    4a40:	f7fe fdd6 	bl	35f0 <get_us_ticker_data>
    4a44:	60e0      	str	r0, [r4, #12]
    4a46:	f7fe fdcf 	bl	35e8 <ticker_read>
    4a4a:	60a5      	str	r5, [r4, #8]
    4a4c:	6060      	str	r0, [r4, #4]
    4a4e:	4620      	mov	r0, r4
    4a50:	bd38      	pop	{r3, r4, r5, pc}
    4a52:	bf00      	nop

00004a54 <mbed::Timer::start()>:
    4a54:	6803      	ldr	r3, [r0, #0]
    4a56:	b103      	cbz	r3, 4a5a <mbed::Timer::start()+0x6>
    4a58:	4770      	bx	lr
    4a5a:	b510      	push	{r4, lr}
    4a5c:	4604      	mov	r4, r0
    4a5e:	68c0      	ldr	r0, [r0, #12]
    4a60:	f7fe fdc2 	bl	35e8 <ticker_read>
    4a64:	2301      	movs	r3, #1
    4a66:	6060      	str	r0, [r4, #4]
    4a68:	6023      	str	r3, [r4, #0]
    4a6a:	bd10      	pop	{r4, pc}

00004a6c <mbed::Timer::read_ms()>:
    4a6c:	6803      	ldr	r3, [r0, #0]
    4a6e:	b510      	push	{r4, lr}
    4a70:	6884      	ldr	r4, [r0, #8]
    4a72:	b113      	cbz	r3, 4a7a <mbed::Timer::read_ms()+0xe>
    4a74:	f7ff ffd6 	bl	4a24 <mbed::Timer::slicetime() [clone .part.0]>
    4a78:	4603      	mov	r3, r0
    4a7a:	4804      	ldr	r0, [pc, #16]	; (4a8c <mbed::Timer::read_ms()+0x20>)
    4a7c:	4423      	add	r3, r4
    4a7e:	fb80 2003 	smull	r2, r0, r0, r3
    4a82:	17db      	asrs	r3, r3, #31
    4a84:	ebc3 10a0 	rsb	r0, r3, r0, asr #6
    4a88:	bd10      	pop	{r4, pc}
    4a8a:	bf00      	nop
    4a8c:	10624dd3 	.word	0x10624dd3

00004a90 <mbed::TimerEvent::irq(unsigned long)>:
    4a90:	6803      	ldr	r3, [r0, #0]
    4a92:	689b      	ldr	r3, [r3, #8]
    4a94:	4718      	bx	r3
    4a96:	bf00      	nop

00004a98 <mbed::TimerEvent::TimerEvent()>:
    4a98:	4a07      	ldr	r2, [pc, #28]	; (4ab8 <mbed::TimerEvent::TimerEvent()+0x20>)
    4a9a:	2300      	movs	r3, #0
    4a9c:	b510      	push	{r4, lr}
    4a9e:	e880 000c 	stmia.w	r0, {r2, r3}
    4aa2:	6083      	str	r3, [r0, #8]
    4aa4:	60c3      	str	r3, [r0, #12]
    4aa6:	4604      	mov	r4, r0
    4aa8:	f7fe fda2 	bl	35f0 <get_us_ticker_data>
    4aac:	4903      	ldr	r1, [pc, #12]	; (4abc <mbed::TimerEvent::TimerEvent()+0x24>)
    4aae:	6120      	str	r0, [r4, #16]
    4ab0:	f7fe fd22 	bl	34f8 <ticker_set_handler>
    4ab4:	4620      	mov	r0, r4
    4ab6:	bd10      	pop	{r4, pc}
    4ab8:	00007bc0 	.word	0x00007bc0
    4abc:	00004a91 	.word	0x00004a91

00004ac0 <mbed::TimerEvent::~TimerEvent()>:
    4ac0:	b510      	push	{r4, lr}
    4ac2:	4604      	mov	r4, r0
    4ac4:	4b03      	ldr	r3, [pc, #12]	; (4ad4 <mbed::TimerEvent::~TimerEvent()+0x14>)
    4ac6:	6900      	ldr	r0, [r0, #16]
    4ac8:	1d21      	adds	r1, r4, #4
    4aca:	6023      	str	r3, [r4, #0]
    4acc:	f7fe fd68 	bl	35a0 <ticker_remove_event>
    4ad0:	4620      	mov	r0, r4
    4ad2:	bd10      	pop	{r4, pc}
    4ad4:	00007bc0 	.word	0x00007bc0

00004ad8 <mbed::TimerEvent::insert(unsigned long)>:
    4ad8:	4603      	mov	r3, r0
    4ada:	460a      	mov	r2, r1
    4adc:	6900      	ldr	r0, [r0, #16]
    4ade:	1d19      	adds	r1, r3, #4
    4ae0:	f7fe bd3a 	b.w	3558 <ticker_insert_event>

00004ae4 <mbed::TimerEvent::remove()>:
    4ae4:	4601      	mov	r1, r0
    4ae6:	6900      	ldr	r0, [r0, #16]
    4ae8:	3104      	adds	r1, #4
    4aea:	f7fe bd59 	b.w	35a0 <ticker_remove_event>
    4aee:	bf00      	nop

00004af0 <init_serial() [clone .part.0]>:
    4af0:	4802      	ldr	r0, [pc, #8]	; (4afc <init_serial() [clone .part.0]+0xc>)
    4af2:	4903      	ldr	r1, [pc, #12]	; (4b00 <init_serial() [clone .part.0]+0x10>)
    4af4:	4a03      	ldr	r2, [pc, #12]	; (4b04 <init_serial() [clone .part.0]+0x14>)
    4af6:	f7ff bb9f 	b.w	4238 <serial_init>
    4afa:	bf00      	nop
    4afc:	10000da8 	.word	0x10000da8
    4b00:	2009c002 	.word	0x2009c002
    4b04:	2009c003 	.word	0x2009c003

00004b08 <mbed::FileHandle::~FileHandle()>:
    4b08:	4a08      	ldr	r2, [pc, #32]	; (4b2c <mbed::FileHandle::~FileHandle()+0x24>)
    4b0a:	4b09      	ldr	r3, [pc, #36]	; (4b30 <mbed::FileHandle::~FileHandle()+0x28>)
    4b0c:	b410      	push	{r4}
    4b0e:	6002      	str	r2, [r0, #0]
    4b10:	f503 7180 	add.w	r1, r3, #256	; 0x100
    4b14:	2400      	movs	r4, #0
    4b16:	f853 2f04 	ldr.w	r2, [r3, #4]!
    4b1a:	4282      	cmp	r2, r0
    4b1c:	bf08      	it	eq
    4b1e:	601c      	streq	r4, [r3, #0]
    4b20:	428b      	cmp	r3, r1
    4b22:	d1f8      	bne.n	4b16 <mbed::FileHandle::~FileHandle()+0xe>
    4b24:	f85d 4b04 	ldr.w	r4, [sp], #4
    4b28:	4770      	bx	lr
    4b2a:	bf00      	nop
    4b2c:	00007bf0 	.word	0x00007bf0
    4b30:	10000c9c 	.word	0x10000c9c

00004b34 <_open>:
    4b34:	b5f0      	push	{r4, r5, r6, r7, lr}
    4b36:	460e      	mov	r6, r1
    4b38:	b085      	sub	sp, #20
    4b3a:	4937      	ldr	r1, [pc, #220]	; (4c18 <_open+0xe4>)
    4b3c:	4605      	mov	r5, r0
    4b3e:	f001 feb0 	bl	68a2 <strcmp>
    4b42:	b928      	cbnz	r0, 4b50 <_open+0x1c>
    4b44:	4b35      	ldr	r3, [pc, #212]	; (4c1c <_open+0xe8>)
    4b46:	681b      	ldr	r3, [r3, #0]
    4b48:	2b00      	cmp	r3, #0
    4b4a:	d042      	beq.n	4bd2 <_open+0x9e>
    4b4c:	b005      	add	sp, #20
    4b4e:	bdf0      	pop	{r4, r5, r6, r7, pc}
    4b50:	4628      	mov	r0, r5
    4b52:	4933      	ldr	r1, [pc, #204]	; (4c20 <_open+0xec>)
    4b54:	f001 fea5 	bl	68a2 <strcmp>
    4b58:	b930      	cbnz	r0, 4b68 <_open+0x34>
    4b5a:	4b30      	ldr	r3, [pc, #192]	; (4c1c <_open+0xe8>)
    4b5c:	681b      	ldr	r3, [r3, #0]
    4b5e:	2b00      	cmp	r3, #0
    4b60:	d042      	beq.n	4be8 <_open+0xb4>
    4b62:	2001      	movs	r0, #1
    4b64:	b005      	add	sp, #20
    4b66:	bdf0      	pop	{r4, r5, r6, r7, pc}
    4b68:	4628      	mov	r0, r5
    4b6a:	492e      	ldr	r1, [pc, #184]	; (4c24 <_open+0xf0>)
    4b6c:	f001 fe99 	bl	68a2 <strcmp>
    4b70:	2800      	cmp	r0, #0
    4b72:	d034      	beq.n	4bde <_open+0xaa>
    4b74:	4b2c      	ldr	r3, [pc, #176]	; (4c28 <_open+0xf4>)
    4b76:	2400      	movs	r4, #0
    4b78:	e002      	b.n	4b80 <_open+0x4c>
    4b7a:	3401      	adds	r4, #1
    4b7c:	2c40      	cmp	r4, #64	; 0x40
    4b7e:	d03c      	beq.n	4bfa <_open+0xc6>
    4b80:	f853 2f04 	ldr.w	r2, [r3, #4]!
    4b84:	2a00      	cmp	r2, #0
    4b86:	d1f8      	bne.n	4b7a <_open+0x46>
    4b88:	782b      	ldrb	r3, [r5, #0]
    4b8a:	2b3a      	cmp	r3, #58	; 0x3a
    4b8c:	d03c      	beq.n	4c08 <_open+0xd4>
    4b8e:	4629      	mov	r1, r5
    4b90:	a802      	add	r0, sp, #8
    4b92:	f7ff fd21 	bl	45d8 <mbed::FilePath::FilePath(char const*)>
    4b96:	a802      	add	r0, sp, #8
    4b98:	f7ff fd74 	bl	4684 <mbed::FilePath::exists()>
    4b9c:	b368      	cbz	r0, 4bfa <_open+0xc6>
    4b9e:	a802      	add	r0, sp, #8
    4ba0:	f7ff fd56 	bl	4650 <mbed::FilePath::isFile()>
    4ba4:	bb20      	cbnz	r0, 4bf0 <_open+0xbc>
    4ba6:	a802      	add	r0, sp, #8
    4ba8:	f7ff fd42 	bl	4630 <mbed::FilePath::fileSystem()>
    4bac:	4605      	mov	r5, r0
    4bae:	b320      	cbz	r0, 4bfa <_open+0xc6>
    4bb0:	6803      	ldr	r3, [r0, #0]
    4bb2:	a802      	add	r0, sp, #8
    4bb4:	689f      	ldr	r7, [r3, #8]
    4bb6:	f7ff fd39 	bl	462c <mbed::FilePath::fileName()>
    4bba:	4632      	mov	r2, r6
    4bbc:	4601      	mov	r1, r0
    4bbe:	4628      	mov	r0, r5
    4bc0:	47b8      	blx	r7
    4bc2:	4603      	mov	r3, r0
    4bc4:	b1cb      	cbz	r3, 4bfa <_open+0xc6>
    4bc6:	4a19      	ldr	r2, [pc, #100]	; (4c2c <_open+0xf8>)
    4bc8:	1ce0      	adds	r0, r4, #3
    4bca:	f842 3024 	str.w	r3, [r2, r4, lsl #2]
    4bce:	b005      	add	sp, #20
    4bd0:	bdf0      	pop	{r4, r5, r6, r7, pc}
    4bd2:	9001      	str	r0, [sp, #4]
    4bd4:	f7ff ff8c 	bl	4af0 <init_serial() [clone .part.0]>
    4bd8:	9801      	ldr	r0, [sp, #4]
    4bda:	b005      	add	sp, #20
    4bdc:	bdf0      	pop	{r4, r5, r6, r7, pc}
    4bde:	4b0f      	ldr	r3, [pc, #60]	; (4c1c <_open+0xe8>)
    4be0:	681b      	ldr	r3, [r3, #0]
    4be2:	b16b      	cbz	r3, 4c00 <_open+0xcc>
    4be4:	2002      	movs	r0, #2
    4be6:	e7b1      	b.n	4b4c <_open+0x18>
    4be8:	f7ff ff82 	bl	4af0 <init_serial() [clone .part.0]>
    4bec:	2001      	movs	r0, #1
    4bee:	e7ad      	b.n	4b4c <_open+0x18>
    4bf0:	a802      	add	r0, sp, #8
    4bf2:	f7ff fd37 	bl	4664 <mbed::FilePath::file()>
    4bf6:	4603      	mov	r3, r0
    4bf8:	e7e4      	b.n	4bc4 <_open+0x90>
    4bfa:	f04f 30ff 	mov.w	r0, #4294967295
    4bfe:	e7a5      	b.n	4b4c <_open+0x18>
    4c00:	f7ff ff76 	bl	4af0 <init_serial() [clone .part.0]>
    4c04:	2002      	movs	r0, #2
    4c06:	e7a1      	b.n	4b4c <_open+0x18>
    4c08:	4628      	mov	r0, r5
    4c0a:	4909      	ldr	r1, [pc, #36]	; (4c30 <_open+0xfc>)
    4c0c:	aa02      	add	r2, sp, #8
    4c0e:	f001 fdd9 	bl	67c4 <siscanf>
    4c12:	9b02      	ldr	r3, [sp, #8]
    4c14:	e7d6      	b.n	4bc4 <_open+0x90>
    4c16:	bf00      	nop
    4c18:	00007bcc 	.word	0x00007bcc
    4c1c:	10000bb0 	.word	0x10000bb0
    4c20:	00007bdc 	.word	0x00007bdc
    4c24:	00007bd4 	.word	0x00007bd4
    4c28:	10000c9c 	.word	0x10000c9c
    4c2c:	10000ca0 	.word	0x10000ca0
    4c30:	00007b94 	.word	0x00007b94

00004c34 <_close>:
    4c34:	2802      	cmp	r0, #2
    4c36:	dd0a      	ble.n	4c4e <_close+0x1a>
    4c38:	4a07      	ldr	r2, [pc, #28]	; (4c58 <_close+0x24>)
    4c3a:	1ec3      	subs	r3, r0, #3
    4c3c:	f852 0023 	ldr.w	r0, [r2, r3, lsl #2]
    4c40:	2100      	movs	r1, #0
    4c42:	f842 1023 	str.w	r1, [r2, r3, lsl #2]
    4c46:	b120      	cbz	r0, 4c52 <_close+0x1e>
    4c48:	6803      	ldr	r3, [r0, #0]
    4c4a:	685b      	ldr	r3, [r3, #4]
    4c4c:	4718      	bx	r3
    4c4e:	2000      	movs	r0, #0
    4c50:	4770      	bx	lr
    4c52:	f04f 30ff 	mov.w	r0, #4294967295
    4c56:	4770      	bx	lr
    4c58:	10000ca0 	.word	0x10000ca0

00004c5c <_write>:
    4c5c:	2802      	cmp	r0, #2
    4c5e:	dc12      	bgt.n	4c86 <_write+0x2a>
    4c60:	4b0e      	ldr	r3, [pc, #56]	; (4c9c <_write+0x40>)
    4c62:	b570      	push	{r4, r5, r6, lr}
    4c64:	681b      	ldr	r3, [r3, #0]
    4c66:	460c      	mov	r4, r1
    4c68:	4616      	mov	r6, r2
    4c6a:	b90b      	cbnz	r3, 4c70 <_write+0x14>
    4c6c:	f7ff ff40 	bl	4af0 <init_serial() [clone .part.0]>
    4c70:	19a5      	adds	r5, r4, r6
    4c72:	b136      	cbz	r6, 4c82 <_write+0x26>
    4c74:	f814 1b01 	ldrb.w	r1, [r4], #1
    4c78:	4809      	ldr	r0, [pc, #36]	; (4ca0 <_write+0x44>)
    4c7a:	f7ff fa2b 	bl	40d4 <serial_putc>
    4c7e:	42ac      	cmp	r4, r5
    4c80:	d1f8      	bne.n	4c74 <_write+0x18>
    4c82:	4630      	mov	r0, r6
    4c84:	bd70      	pop	{r4, r5, r6, pc}
    4c86:	4b07      	ldr	r3, [pc, #28]	; (4ca4 <_write+0x48>)
    4c88:	3803      	subs	r0, #3
    4c8a:	f853 0020 	ldr.w	r0, [r3, r0, lsl #2]
    4c8e:	b110      	cbz	r0, 4c96 <_write+0x3a>
    4c90:	6803      	ldr	r3, [r0, #0]
    4c92:	681b      	ldr	r3, [r3, #0]
    4c94:	4718      	bx	r3
    4c96:	f04f 30ff 	mov.w	r0, #4294967295
    4c9a:	4770      	bx	lr
    4c9c:	10000bb0 	.word	0x10000bb0
    4ca0:	10000da8 	.word	0x10000da8
    4ca4:	10000ca0 	.word	0x10000ca0

00004ca8 <_read>:
    4ca8:	2802      	cmp	r0, #2
    4caa:	dc0d      	bgt.n	4cc8 <_read+0x20>
    4cac:	4b0c      	ldr	r3, [pc, #48]	; (4ce0 <_read+0x38>)
    4cae:	b510      	push	{r4, lr}
    4cb0:	681b      	ldr	r3, [r3, #0]
    4cb2:	460c      	mov	r4, r1
    4cb4:	b90b      	cbnz	r3, 4cba <_read+0x12>
    4cb6:	f7ff ff1b 	bl	4af0 <init_serial() [clone .part.0]>
    4cba:	480a      	ldr	r0, [pc, #40]	; (4ce4 <_read+0x3c>)
    4cbc:	f7ff f9be 	bl	403c <serial_getc>
    4cc0:	2301      	movs	r3, #1
    4cc2:	7020      	strb	r0, [r4, #0]
    4cc4:	4618      	mov	r0, r3
    4cc6:	bd10      	pop	{r4, pc}
    4cc8:	4b07      	ldr	r3, [pc, #28]	; (4ce8 <_read+0x40>)
    4cca:	3803      	subs	r0, #3
    4ccc:	f853 0020 	ldr.w	r0, [r3, r0, lsl #2]
    4cd0:	b110      	cbz	r0, 4cd8 <_read+0x30>
    4cd2:	6803      	ldr	r3, [r0, #0]
    4cd4:	689b      	ldr	r3, [r3, #8]
    4cd6:	4718      	bx	r3
    4cd8:	f04f 33ff 	mov.w	r3, #4294967295
    4cdc:	4618      	mov	r0, r3
    4cde:	4770      	bx	lr
    4ce0:	10000bb0 	.word	0x10000bb0
    4ce4:	10000da8 	.word	0x10000da8
    4ce8:	10000ca0 	.word	0x10000ca0

00004cec <_isatty>:
    4cec:	2802      	cmp	r0, #2
    4cee:	dd07      	ble.n	4d00 <_isatty+0x14>
    4cf0:	4b06      	ldr	r3, [pc, #24]	; (4d0c <_isatty+0x20>)
    4cf2:	3803      	subs	r0, #3
    4cf4:	f853 0020 	ldr.w	r0, [r3, r0, lsl #2]
    4cf8:	b120      	cbz	r0, 4d04 <_isatty+0x18>
    4cfa:	6803      	ldr	r3, [r0, #0]
    4cfc:	68db      	ldr	r3, [r3, #12]
    4cfe:	4718      	bx	r3
    4d00:	2001      	movs	r0, #1
    4d02:	4770      	bx	lr
    4d04:	f04f 30ff 	mov.w	r0, #4294967295
    4d08:	4770      	bx	lr
    4d0a:	bf00      	nop
    4d0c:	10000ca0 	.word	0x10000ca0

00004d10 <_lseek>:
    4d10:	2802      	cmp	r0, #2
    4d12:	dd07      	ble.n	4d24 <_lseek+0x14>
    4d14:	4b06      	ldr	r3, [pc, #24]	; (4d30 <_lseek+0x20>)
    4d16:	3803      	subs	r0, #3
    4d18:	f853 0020 	ldr.w	r0, [r3, r0, lsl #2]
    4d1c:	b120      	cbz	r0, 4d28 <_lseek+0x18>
    4d1e:	6803      	ldr	r3, [r0, #0]
    4d20:	691b      	ldr	r3, [r3, #16]
    4d22:	4718      	bx	r3
    4d24:	2000      	movs	r0, #0
    4d26:	4770      	bx	lr
    4d28:	f04f 30ff 	mov.w	r0, #4294967295
    4d2c:	4770      	bx	lr
    4d2e:	bf00      	nop
    4d30:	10000ca0 	.word	0x10000ca0

00004d34 <_fstat>:
    4d34:	2802      	cmp	r0, #2
    4d36:	b508      	push	{r3, lr}
    4d38:	d804      	bhi.n	4d44 <_fstat+0x10>
    4d3a:	f44f 5300 	mov.w	r3, #8192	; 0x2000
    4d3e:	604b      	str	r3, [r1, #4]
    4d40:	2000      	movs	r0, #0
    4d42:	bd08      	pop	{r3, pc}
    4d44:	f000 fb70 	bl	5428 <__errno>
    4d48:	2309      	movs	r3, #9
    4d4a:	6003      	str	r3, [r0, #0]
    4d4c:	f04f 30ff 	mov.w	r0, #4294967295
    4d50:	bd08      	pop	{r3, pc}
    4d52:	bf00      	nop

00004d54 <mbed_main>:
    4d54:	4770      	bx	lr
    4d56:	bf00      	nop

00004d58 <mbed_sdk_init>:
    4d58:	4770      	bx	lr
    4d5a:	bf00      	nop

00004d5c <__wrap_main>:
    4d5c:	b508      	push	{r3, lr}
    4d5e:	f7ff fffb 	bl	4d58 <mbed_sdk_init>
    4d62:	f7ff fff7 	bl	4d54 <mbed_main>
    4d66:	e8bd 4008 	ldmia.w	sp!, {r3, lr}
    4d6a:	f7fc b999 	b.w	10a0 <main>
    4d6e:	bf00      	nop

00004d70 <_sbrk>:
    4d70:	4a07      	ldr	r2, [pc, #28]	; (4d90 <_sbrk+0x20>)
    4d72:	6813      	ldr	r3, [r2, #0]
    4d74:	1819      	adds	r1, r3, r0
    4d76:	f3ef 8008 	mrs	r0, MSP
    4d7a:	4281      	cmp	r1, r0
    4d7c:	d202      	bcs.n	4d84 <_sbrk+0x14>
    4d7e:	4618      	mov	r0, r3
    4d80:	6011      	str	r1, [r2, #0]
    4d82:	4770      	bx	lr
    4d84:	4b03      	ldr	r3, [pc, #12]	; (4d94 <_sbrk+0x24>)
    4d86:	220c      	movs	r2, #12
    4d88:	601a      	str	r2, [r3, #0]
    4d8a:	f04f 30ff 	mov.w	r0, #4294967295
    4d8e:	4770      	bx	lr
    4d90:	100000f0 	.word	0x100000f0
    4d94:	10000db0 	.word	0x10000db0

00004d98 <_exit>:
    4d98:	4c0a      	ldr	r4, [pc, #40]	; (4dc4 <_exit+0x2c>)
    4d9a:	b508      	push	{r3, lr}
    4d9c:	6823      	ldr	r3, [r4, #0]
    4d9e:	4605      	mov	r5, r0
    4da0:	6898      	ldr	r0, [r3, #8]
    4da2:	f000 fc63 	bl	566c <fflush>
    4da6:	6823      	ldr	r3, [r4, #0]
    4da8:	68d8      	ldr	r0, [r3, #12]
    4daa:	f000 fc5f 	bl	566c <fflush>
    4dae:	f7fe fb33 	bl	3418 <mbed_interface_connected>
    4db2:	b920      	cbnz	r0, 4dbe <_exit+0x26>
    4db4:	b905      	cbnz	r5, 4db8 <_exit+0x20>
    4db6:	e7fe      	b.n	4db6 <_exit+0x1e>
    4db8:	f7fe fa9e 	bl	32f8 <mbed_die>
    4dbc:	e7fb      	b.n	4db6 <_exit+0x1e>
    4dbe:	f7fe fb87 	bl	34d0 <semihost_exit>
    4dc2:	e7f7      	b.n	4db4 <_exit+0x1c>
    4dc4:	10000154 	.word	0x10000154

00004dc8 <mbed::mbed_set_unbuffered_stream(__sFILE*)>:
    4dc8:	2100      	movs	r1, #0
    4dca:	f001 bc46 	b.w	665a <setbuf>
    4dce:	bf00      	nop

00004dd0 <Reset_Handler>:
    4dd0:	4906      	ldr	r1, [pc, #24]	; (4dec <Reset_Handler+0x1c>)
    4dd2:	4a07      	ldr	r2, [pc, #28]	; (4df0 <Reset_Handler+0x20>)
    4dd4:	4b07      	ldr	r3, [pc, #28]	; (4df4 <Reset_Handler+0x24>)
    4dd6:	429a      	cmp	r2, r3
    4dd8:	bfbe      	ittt	lt
    4dda:	f851 0b04 	ldrlt.w	r0, [r1], #4
    4dde:	f842 0b04 	strlt.w	r0, [r2], #4
    4de2:	e7f8      	blt.n	4dd6 <Reset_Handler+0x6>
    4de4:	4804      	ldr	r0, [pc, #16]	; (4df8 <Reset_Handler+0x28>)
    4de6:	4780      	blx	r0
    4de8:	4804      	ldr	r0, [pc, #16]	; (4dfc <Reset_Handler+0x2c>)
    4dea:	4700      	bx	r0
    4dec:	00007e10 	.word	0x00007e10
    4df0:	100000c8 	.word	0x100000c8
    4df4:	10000168 	.word	0x10000168
    4df8:	00003665 	.word	0x00003665
    4dfc:	00002b8d 	.word	0x00002b8d

00004e00 <NMI_Handler>:
    4e00:	e7fe      	b.n	4e00 <NMI_Handler>

00004e02 <HardFault_Handler>:
    4e02:	e7fe      	b.n	4e02 <HardFault_Handler>

00004e04 <MemManage_Handler>:
    4e04:	e7fe      	b.n	4e04 <MemManage_Handler>

00004e06 <BusFault_Handler>:
    4e06:	e7fe      	b.n	4e06 <BusFault_Handler>

00004e08 <UsageFault_Handler>:
    4e08:	e7fe      	b.n	4e08 <UsageFault_Handler>

00004e0a <SVC_Handler>:
    4e0a:	e7fe      	b.n	4e0a <SVC_Handler>

00004e0c <DebugMon_Handler>:
    4e0c:	e7fe      	b.n	4e0c <DebugMon_Handler>

00004e0e <PendSV_Handler>:
    4e0e:	e7fe      	b.n	4e0e <PendSV_Handler>

00004e10 <SysTick_Handler>:
    4e10:	e7fe      	b.n	4e10 <SysTick_Handler>

00004e12 <ADC_IRQHandler>:
    4e12:	e7fe      	b.n	4e12 <ADC_IRQHandler>

00004e14 <__aeabi_atexit>:
    4e14:	4603      	mov	r3, r0
    4e16:	4608      	mov	r0, r1
    4e18:	4619      	mov	r1, r3
    4e1a:	f000 baf7 	b.w	540c <__cxa_atexit>

00004e1e <operator delete(void*)>:
    4e1e:	f7fd bedb 	b.w	2bd8 <__wrap_free>
	...

00004e24 <__aeabi_frsub>:
    4e24:	f080 4000 	eor.w	r0, r0, #2147483648	; 0x80000000
    4e28:	e002      	b.n	4e30 <__addsf3>
    4e2a:	bf00      	nop

00004e2c <__aeabi_fsub>:
    4e2c:	f081 4100 	eor.w	r1, r1, #2147483648	; 0x80000000

00004e30 <__addsf3>:
    4e30:	0042      	lsls	r2, r0, #1
    4e32:	bf1f      	itttt	ne
    4e34:	ea5f 0341 	movsne.w	r3, r1, lsl #1
    4e38:	ea92 0f03 	teqne	r2, r3
    4e3c:	ea7f 6c22 	mvnsne.w	r12, r2, asr #24
    4e40:	ea7f 6c23 	mvnsne.w	r12, r3, asr #24
    4e44:	d06a      	beq.n	4f1c <__addsf3+0xec>
    4e46:	ea4f 6212 	mov.w	r2, r2, lsr #24
    4e4a:	ebd2 6313 	rsbs	r3, r2, r3, lsr #24
    4e4e:	bfc1      	itttt	gt
    4e50:	18d2      	addgt	r2, r2, r3
    4e52:	4041      	eorgt	r1, r0
    4e54:	4048      	eorgt	r0, r1
    4e56:	4041      	eorgt	r1, r0
    4e58:	bfb8      	it	lt
    4e5a:	425b      	neglt	r3, r3
    4e5c:	2b19      	cmp	r3, #25
    4e5e:	bf88      	it	hi
    4e60:	4770      	bxhi	lr
    4e62:	f010 4f00 	tst.w	r0, #2147483648	; 0x80000000
    4e66:	f440 0000 	orr.w	r0, r0, #8388608	; 0x800000
    4e6a:	f020 407f 	bic.w	r0, r0, #4278190080	; 0xff000000
    4e6e:	bf18      	it	ne
    4e70:	4240      	negne	r0, r0
    4e72:	f011 4f00 	tst.w	r1, #2147483648	; 0x80000000
    4e76:	f441 0100 	orr.w	r1, r1, #8388608	; 0x800000
    4e7a:	f021 417f 	bic.w	r1, r1, #4278190080	; 0xff000000
    4e7e:	bf18      	it	ne
    4e80:	4249      	negne	r1, r1
    4e82:	ea92 0f03 	teq	r2, r3
    4e86:	d03f      	beq.n	4f08 <__addsf3+0xd8>
    4e88:	f1a2 0201 	sub.w	r2, r2, #1
    4e8c:	fa41 fc03 	asr.w	r12, r1, r3
    4e90:	eb10 000c 	adds.w	r0, r0, r12
    4e94:	f1c3 0320 	rsb	r3, r3, #32
    4e98:	fa01 f103 	lsl.w	r1, r1, r3
    4e9c:	f000 4300 	and.w	r3, r0, #2147483648	; 0x80000000
    4ea0:	d502      	bpl.n	4ea8 <__addsf3+0x78>
    4ea2:	4249      	negs	r1, r1
    4ea4:	eb60 0040 	sbc.w	r0, r0, r0, lsl #1
    4ea8:	f5b0 0f00 	cmp.w	r0, #8388608	; 0x800000
    4eac:	d313      	bcc.n	4ed6 <__addsf3+0xa6>
    4eae:	f1b0 7f80 	cmp.w	r0, #16777216	; 0x1000000
    4eb2:	d306      	bcc.n	4ec2 <__addsf3+0x92>
    4eb4:	0840      	lsrs	r0, r0, #1
    4eb6:	ea4f 0131 	mov.w	r1, r1, rrx
    4eba:	f102 0201 	add.w	r2, r2, #1
    4ebe:	2afe      	cmp	r2, #254	; 0xfe
    4ec0:	d251      	bcs.n	4f66 <__addsf3+0x136>
    4ec2:	f1b1 4f00 	cmp.w	r1, #2147483648	; 0x80000000
    4ec6:	eb40 50c2 	adc.w	r0, r0, r2, lsl #23
    4eca:	bf08      	it	eq
    4ecc:	f020 0001 	biceq.w	r0, r0, #1
    4ed0:	ea40 0003 	orr.w	r0, r0, r3
    4ed4:	4770      	bx	lr
    4ed6:	0049      	lsls	r1, r1, #1
    4ed8:	eb40 0000 	adc.w	r0, r0, r0
    4edc:	f410 0f00 	tst.w	r0, #8388608	; 0x800000
    4ee0:	f1a2 0201 	sub.w	r2, r2, #1
    4ee4:	d1ed      	bne.n	4ec2 <__addsf3+0x92>
    4ee6:	fab0 fc80 	clz	r12, r0
    4eea:	f1ac 0c08 	sub.w	r12, r12, #8
    4eee:	ebb2 020c 	subs.w	r2, r2, r12
    4ef2:	fa00 f00c 	lsl.w	r0, r0, r12
    4ef6:	bfaa      	itet	ge
    4ef8:	eb00 50c2 	addge.w	r0, r0, r2, lsl #23
    4efc:	4252      	neglt	r2, r2
    4efe:	4318      	orrge	r0, r3
    4f00:	bfbc      	itt	lt
    4f02:	40d0      	lsrlt	r0, r2
    4f04:	4318      	orrlt	r0, r3
    4f06:	4770      	bx	lr
    4f08:	f092 0f00 	teq	r2, #0
    4f0c:	f481 0100 	eor.w	r1, r1, #8388608	; 0x800000
    4f10:	bf06      	itte	eq
    4f12:	f480 0000 	eoreq.w	r0, r0, #8388608	; 0x800000
    4f16:	3201      	addeq	r2, #1
    4f18:	3b01      	subne	r3, #1
    4f1a:	e7b5      	b.n	4e88 <__addsf3+0x58>
    4f1c:	ea4f 0341 	mov.w	r3, r1, lsl #1
    4f20:	ea7f 6c22 	mvns.w	r12, r2, asr #24
    4f24:	bf18      	it	ne
    4f26:	ea7f 6c23 	mvnsne.w	r12, r3, asr #24
    4f2a:	d021      	beq.n	4f70 <__addsf3+0x140>
    4f2c:	ea92 0f03 	teq	r2, r3
    4f30:	d004      	beq.n	4f3c <__addsf3+0x10c>
    4f32:	f092 0f00 	teq	r2, #0
    4f36:	bf08      	it	eq
    4f38:	4608      	moveq	r0, r1
    4f3a:	4770      	bx	lr
    4f3c:	ea90 0f01 	teq	r0, r1
    4f40:	bf1c      	itt	ne
    4f42:	2000      	movne	r0, #0
    4f44:	4770      	bxne	lr
    4f46:	f012 4f7f 	tst.w	r2, #4278190080	; 0xff000000
    4f4a:	d104      	bne.n	4f56 <__addsf3+0x126>
    4f4c:	0040      	lsls	r0, r0, #1
    4f4e:	bf28      	it	cs
    4f50:	f040 4000 	orrcs.w	r0, r0, #2147483648	; 0x80000000
    4f54:	4770      	bx	lr
    4f56:	f112 7200 	adds.w	r2, r2, #33554432	; 0x2000000
    4f5a:	bf3c      	itt	cc
    4f5c:	f500 0000 	addcc.w	r0, r0, #8388608	; 0x800000
    4f60:	4770      	bxcc	lr
    4f62:	f000 4300 	and.w	r3, r0, #2147483648	; 0x80000000
    4f66:	f043 40fe 	orr.w	r0, r3, #2130706432	; 0x7f000000
    4f6a:	f440 0000 	orr.w	r0, r0, #8388608	; 0x800000
    4f6e:	4770      	bx	lr
    4f70:	ea7f 6222 	mvns.w	r2, r2, asr #24
    4f74:	bf16      	itet	ne
    4f76:	4608      	movne	r0, r1
    4f78:	ea7f 6323 	mvnseq.w	r3, r3, asr #24
    4f7c:	4601      	movne	r1, r0
    4f7e:	0242      	lsls	r2, r0, #9
    4f80:	bf06      	itte	eq
    4f82:	ea5f 2341 	movseq.w	r3, r1, lsl #9
    4f86:	ea90 0f01 	teqeq	r0, r1
    4f8a:	f440 0080 	orrne.w	r0, r0, #4194304	; 0x400000
    4f8e:	4770      	bx	lr

00004f90 <__aeabi_ui2f>:
    4f90:	f04f 0300 	mov.w	r3, #0
    4f94:	e004      	b.n	4fa0 <__aeabi_i2f+0x8>
    4f96:	bf00      	nop

00004f98 <__aeabi_i2f>:
    4f98:	f010 4300 	ands.w	r3, r0, #2147483648	; 0x80000000
    4f9c:	bf48      	it	mi
    4f9e:	4240      	negmi	r0, r0
    4fa0:	ea5f 0c00 	movs.w	r12, r0
    4fa4:	bf08      	it	eq
    4fa6:	4770      	bxeq	lr
    4fa8:	f043 4396 	orr.w	r3, r3, #1258291200	; 0x4b000000
    4fac:	4601      	mov	r1, r0
    4fae:	f04f 0000 	mov.w	r0, #0
    4fb2:	e01c      	b.n	4fee <__aeabi_l2f+0x2a>

00004fb4 <__aeabi_ul2f>:
    4fb4:	ea50 0201 	orrs.w	r2, r0, r1
    4fb8:	bf08      	it	eq
    4fba:	4770      	bxeq	lr
    4fbc:	f04f 0300 	mov.w	r3, #0
    4fc0:	e00a      	b.n	4fd8 <__aeabi_l2f+0x14>
    4fc2:	bf00      	nop

00004fc4 <__aeabi_l2f>:
    4fc4:	ea50 0201 	orrs.w	r2, r0, r1
    4fc8:	bf08      	it	eq
    4fca:	4770      	bxeq	lr
    4fcc:	f011 4300 	ands.w	r3, r1, #2147483648	; 0x80000000
    4fd0:	d502      	bpl.n	4fd8 <__aeabi_l2f+0x14>
    4fd2:	4240      	negs	r0, r0
    4fd4:	eb61 0141 	sbc.w	r1, r1, r1, lsl #1
    4fd8:	ea5f 0c01 	movs.w	r12, r1
    4fdc:	bf02      	ittt	eq
    4fde:	4684      	moveq	r12, r0
    4fe0:	4601      	moveq	r1, r0
    4fe2:	2000      	moveq	r0, #0
    4fe4:	f043 43b6 	orr.w	r3, r3, #1526726656	; 0x5b000000
    4fe8:	bf08      	it	eq
    4fea:	f1a3 5380 	subeq.w	r3, r3, #268435456	; 0x10000000
    4fee:	f5a3 0300 	sub.w	r3, r3, #8388608	; 0x800000
    4ff2:	fabc f28c 	clz	r2, r12
    4ff6:	3a08      	subs	r2, #8
    4ff8:	eba3 53c2 	sub.w	r3, r3, r2, lsl #23
    4ffc:	db10      	blt.n	5020 <__aeabi_l2f+0x5c>
    4ffe:	fa01 fc02 	lsl.w	r12, r1, r2
    5002:	4463      	add	r3, r12
    5004:	fa00 fc02 	lsl.w	r12, r0, r2
    5008:	f1c2 0220 	rsb	r2, r2, #32
    500c:	f1bc 4f00 	cmp.w	r12, #2147483648	; 0x80000000
    5010:	fa20 f202 	lsr.w	r2, r0, r2
    5014:	eb43 0002 	adc.w	r0, r3, r2
    5018:	bf08      	it	eq
    501a:	f020 0001 	biceq.w	r0, r0, #1
    501e:	4770      	bx	lr
    5020:	f102 0220 	add.w	r2, r2, #32
    5024:	fa01 fc02 	lsl.w	r12, r1, r2
    5028:	f1c2 0220 	rsb	r2, r2, #32
    502c:	ea50 004c 	orrs.w	r0, r0, r12, lsl #1
    5030:	fa21 f202 	lsr.w	r2, r1, r2
    5034:	eb43 0002 	adc.w	r0, r3, r2
    5038:	bf08      	it	eq
    503a:	ea20 70dc 	biceq.w	r0, r0, r12, lsr #31
    503e:	4770      	bx	lr

00005040 <__aeabi_fmul>:
    5040:	f04f 0cff 	mov.w	r12, #255	; 0xff
    5044:	ea1c 52d0 	ands.w	r2, r12, r0, lsr #23
    5048:	bf1e      	ittt	ne
    504a:	ea1c 53d1 	andsne.w	r3, r12, r1, lsr #23
    504e:	ea92 0f0c 	teqne	r2, r12
    5052:	ea93 0f0c 	teqne	r3, r12
    5056:	d06f      	beq.n	5138 <__aeabi_fmul+0xf8>
    5058:	441a      	add	r2, r3
    505a:	ea80 0c01 	eor.w	r12, r0, r1
    505e:	0240      	lsls	r0, r0, #9
    5060:	bf18      	it	ne
    5062:	ea5f 2141 	movsne.w	r1, r1, lsl #9
    5066:	d01e      	beq.n	50a6 <__aeabi_fmul+0x66>
    5068:	f04f 6300 	mov.w	r3, #134217728	; 0x8000000
    506c:	ea43 1050 	orr.w	r0, r3, r0, lsr #5
    5070:	ea43 1151 	orr.w	r1, r3, r1, lsr #5
    5074:	fba0 3101 	umull	r3, r1, r0, r1
    5078:	f00c 4000 	and.w	r0, r12, #2147483648	; 0x80000000
    507c:	f5b1 0f00 	cmp.w	r1, #8388608	; 0x800000
    5080:	bf3e      	ittt	cc
    5082:	0049      	lslcc	r1, r1, #1
    5084:	ea41 71d3 	orrcc.w	r1, r1, r3, lsr #31
    5088:	005b      	lslcc	r3, r3, #1
    508a:	ea40 0001 	orr.w	r0, r0, r1
    508e:	f162 027f 	sbc.w	r2, r2, #127	; 0x7f
    5092:	2afd      	cmp	r2, #253	; 0xfd
    5094:	d81d      	bhi.n	50d2 <__aeabi_fmul+0x92>
    5096:	f1b3 4f00 	cmp.w	r3, #2147483648	; 0x80000000
    509a:	eb40 50c2 	adc.w	r0, r0, r2, lsl #23
    509e:	bf08      	it	eq
    50a0:	f020 0001 	biceq.w	r0, r0, #1
    50a4:	4770      	bx	lr
    50a6:	f090 0f00 	teq	r0, #0
    50aa:	f00c 4c00 	and.w	r12, r12, #2147483648	; 0x80000000
    50ae:	bf08      	it	eq
    50b0:	0249      	lsleq	r1, r1, #9
    50b2:	ea4c 2050 	orr.w	r0, r12, r0, lsr #9
    50b6:	ea40 2051 	orr.w	r0, r0, r1, lsr #9
    50ba:	3a7f      	subs	r2, #127	; 0x7f
    50bc:	bfc2      	ittt	gt
    50be:	f1d2 03ff 	rsbsgt	r3, r2, #255	; 0xff
    50c2:	ea40 50c2 	orrgt.w	r0, r0, r2, lsl #23
    50c6:	4770      	bxgt	lr
    50c8:	f440 0000 	orr.w	r0, r0, #8388608	; 0x800000
    50cc:	f04f 0300 	mov.w	r3, #0
    50d0:	3a01      	subs	r2, #1
    50d2:	dc5d      	bgt.n	5190 <__aeabi_fmul+0x150>
    50d4:	f112 0f19 	cmn.w	r2, #25
    50d8:	bfdc      	itt	le
    50da:	f000 4000 	andle.w	r0, r0, #2147483648	; 0x80000000
    50de:	4770      	bxle	lr
    50e0:	f1c2 0200 	rsb	r2, r2, #0
    50e4:	0041      	lsls	r1, r0, #1
    50e6:	fa21 f102 	lsr.w	r1, r1, r2
    50ea:	f1c2 0220 	rsb	r2, r2, #32
    50ee:	fa00 fc02 	lsl.w	r12, r0, r2
    50f2:	ea5f 0031 	movs.w	r0, r1, rrx
    50f6:	f140 0000 	adc.w	r0, r0, #0
    50fa:	ea53 034c 	orrs.w	r3, r3, r12, lsl #1
    50fe:	bf08      	it	eq
    5100:	ea20 70dc 	biceq.w	r0, r0, r12, lsr #31
    5104:	4770      	bx	lr
    5106:	f092 0f00 	teq	r2, #0
    510a:	f000 4c00 	and.w	r12, r0, #2147483648	; 0x80000000
    510e:	bf02      	ittt	eq
    5110:	0040      	lsleq	r0, r0, #1
    5112:	f410 0f00 	tsteq.w	r0, #8388608	; 0x800000
    5116:	3a01      	subeq	r2, #1
    5118:	d0f9      	beq.n	510e <__aeabi_fmul+0xce>
    511a:	ea40 000c 	orr.w	r0, r0, r12
    511e:	f093 0f00 	teq	r3, #0
    5122:	f001 4c00 	and.w	r12, r1, #2147483648	; 0x80000000
    5126:	bf02      	ittt	eq
    5128:	0049      	lsleq	r1, r1, #1
    512a:	f411 0f00 	tsteq.w	r1, #8388608	; 0x800000
    512e:	3b01      	subeq	r3, #1
    5130:	d0f9      	beq.n	5126 <__aeabi_fmul+0xe6>
    5132:	ea41 010c 	orr.w	r1, r1, r12
    5136:	e78f      	b.n	5058 <__aeabi_fmul+0x18>
    5138:	ea0c 53d1 	and.w	r3, r12, r1, lsr #23
    513c:	ea92 0f0c 	teq	r2, r12
    5140:	bf18      	it	ne
    5142:	ea93 0f0c 	teqne	r3, r12
    5146:	d00a      	beq.n	515e <__aeabi_fmul+0x11e>
    5148:	f030 4c00 	bics.w	r12, r0, #2147483648	; 0x80000000
    514c:	bf18      	it	ne
    514e:	f031 4c00 	bicsne.w	r12, r1, #2147483648	; 0x80000000
    5152:	d1d8      	bne.n	5106 <__aeabi_fmul+0xc6>
    5154:	ea80 0001 	eor.w	r0, r0, r1
    5158:	f000 4000 	and.w	r0, r0, #2147483648	; 0x80000000
    515c:	4770      	bx	lr
    515e:	f090 0f00 	teq	r0, #0
    5162:	bf17      	itett	ne
    5164:	f090 4f00 	teqne	r0, #2147483648	; 0x80000000
    5168:	4608      	moveq	r0, r1
    516a:	f091 0f00 	teqne	r1, #0
    516e:	f091 4f00 	teqne	r1, #2147483648	; 0x80000000
    5172:	d014      	beq.n	519e <__aeabi_fmul+0x15e>
    5174:	ea92 0f0c 	teq	r2, r12
    5178:	d101      	bne.n	517e <__aeabi_fmul+0x13e>
    517a:	0242      	lsls	r2, r0, #9
    517c:	d10f      	bne.n	519e <__aeabi_fmul+0x15e>
    517e:	ea93 0f0c 	teq	r3, r12
    5182:	d103      	bne.n	518c <__aeabi_fmul+0x14c>
    5184:	024b      	lsls	r3, r1, #9
    5186:	bf18      	it	ne
    5188:	4608      	movne	r0, r1
    518a:	d108      	bne.n	519e <__aeabi_fmul+0x15e>
    518c:	ea80 0001 	eor.w	r0, r0, r1
    5190:	f000 4000 	and.w	r0, r0, #2147483648	; 0x80000000
    5194:	f040 40fe 	orr.w	r0, r0, #2130706432	; 0x7f000000
    5198:	f440 0000 	orr.w	r0, r0, #8388608	; 0x800000
    519c:	4770      	bx	lr
    519e:	f040 40fe 	orr.w	r0, r0, #2130706432	; 0x7f000000
    51a2:	f440 0040 	orr.w	r0, r0, #12582912	; 0xc00000
    51a6:	4770      	bx	lr

000051a8 <__aeabi_fdiv>:
    51a8:	f04f 0cff 	mov.w	r12, #255	; 0xff
    51ac:	ea1c 52d0 	ands.w	r2, r12, r0, lsr #23
    51b0:	bf1e      	ittt	ne
    51b2:	ea1c 53d1 	andsne.w	r3, r12, r1, lsr #23
    51b6:	ea92 0f0c 	teqne	r2, r12
    51ba:	ea93 0f0c 	teqne	r3, r12
    51be:	d069      	beq.n	5294 <__aeabi_fdiv+0xec>
    51c0:	eba2 0203 	sub.w	r2, r2, r3
    51c4:	ea80 0c01 	eor.w	r12, r0, r1
    51c8:	0249      	lsls	r1, r1, #9
    51ca:	ea4f 2040 	mov.w	r0, r0, lsl #9
    51ce:	d037      	beq.n	5240 <__aeabi_fdiv+0x98>
    51d0:	f04f 5380 	mov.w	r3, #268435456	; 0x10000000
    51d4:	ea43 1111 	orr.w	r1, r3, r1, lsr #4
    51d8:	ea43 1310 	orr.w	r3, r3, r0, lsr #4
    51dc:	f00c 4000 	and.w	r0, r12, #2147483648	; 0x80000000
    51e0:	428b      	cmp	r3, r1
    51e2:	bf38      	it	cc
    51e4:	005b      	lslcc	r3, r3, #1
    51e6:	f142 027d 	adc.w	r2, r2, #125	; 0x7d
    51ea:	f44f 0c00 	mov.w	r12, #8388608	; 0x800000
    51ee:	428b      	cmp	r3, r1
    51f0:	bf24      	itt	cs
    51f2:	1a5b      	subcs	r3, r3, r1
    51f4:	ea40 000c 	orrcs.w	r0, r0, r12
    51f8:	ebb3 0f51 	cmp.w	r3, r1, lsr #1
    51fc:	bf24      	itt	cs
    51fe:	eba3 0351 	subcs.w	r3, r3, r1, lsr #1
    5202:	ea40 005c 	orrcs.w	r0, r0, r12, lsr #1
    5206:	ebb3 0f91 	cmp.w	r3, r1, lsr #2
    520a:	bf24      	itt	cs
    520c:	eba3 0391 	subcs.w	r3, r3, r1, lsr #2
    5210:	ea40 009c 	orrcs.w	r0, r0, r12, lsr #2
    5214:	ebb3 0fd1 	cmp.w	r3, r1, lsr #3
    5218:	bf24      	itt	cs
    521a:	eba3 03d1 	subcs.w	r3, r3, r1, lsr #3
    521e:	ea40 00dc 	orrcs.w	r0, r0, r12, lsr #3
    5222:	011b      	lsls	r3, r3, #4
    5224:	bf18      	it	ne
    5226:	ea5f 1c1c 	movsne.w	r12, r12, lsr #4
    522a:	d1e0      	bne.n	51ee <__aeabi_fdiv+0x46>
    522c:	2afd      	cmp	r2, #253	; 0xfd
    522e:	f63f af50 	bhi.w	50d2 <__aeabi_fmul+0x92>
    5232:	428b      	cmp	r3, r1
    5234:	eb40 50c2 	adc.w	r0, r0, r2, lsl #23
    5238:	bf08      	it	eq
    523a:	f020 0001 	biceq.w	r0, r0, #1
    523e:	4770      	bx	lr
    5240:	f00c 4c00 	and.w	r12, r12, #2147483648	; 0x80000000
    5244:	ea4c 2050 	orr.w	r0, r12, r0, lsr #9
    5248:	327f      	adds	r2, #127	; 0x7f
    524a:	bfc2      	ittt	gt
    524c:	f1d2 03ff 	rsbsgt	r3, r2, #255	; 0xff
    5250:	ea40 50c2 	orrgt.w	r0, r0, r2, lsl #23
    5254:	4770      	bxgt	lr
    5256:	f440 0000 	orr.w	r0, r0, #8388608	; 0x800000
    525a:	f04f 0300 	mov.w	r3, #0
    525e:	3a01      	subs	r2, #1
    5260:	e737      	b.n	50d2 <__aeabi_fmul+0x92>
    5262:	f092 0f00 	teq	r2, #0
    5266:	f000 4c00 	and.w	r12, r0, #2147483648	; 0x80000000
    526a:	bf02      	ittt	eq
    526c:	0040      	lsleq	r0, r0, #1
    526e:	f410 0f00 	tsteq.w	r0, #8388608	; 0x800000
    5272:	3a01      	subeq	r2, #1
    5274:	d0f9      	beq.n	526a <__aeabi_fdiv+0xc2>
    5276:	ea40 000c 	orr.w	r0, r0, r12
    527a:	f093 0f00 	teq	r3, #0
    527e:	f001 4c00 	and.w	r12, r1, #2147483648	; 0x80000000
    5282:	bf02      	ittt	eq
    5284:	0049      	lsleq	r1, r1, #1
    5286:	f411 0f00 	tsteq.w	r1, #8388608	; 0x800000
    528a:	3b01      	subeq	r3, #1
    528c:	d0f9      	beq.n	5282 <__aeabi_fdiv+0xda>
    528e:	ea41 010c 	orr.w	r1, r1, r12
    5292:	e795      	b.n	51c0 <__aeabi_fdiv+0x18>
    5294:	ea0c 53d1 	and.w	r3, r12, r1, lsr #23
    5298:	ea92 0f0c 	teq	r2, r12
    529c:	d108      	bne.n	52b0 <__aeabi_fdiv+0x108>
    529e:	0242      	lsls	r2, r0, #9
    52a0:	f47f af7d 	bne.w	519e <__aeabi_fmul+0x15e>
    52a4:	ea93 0f0c 	teq	r3, r12
    52a8:	f47f af70 	bne.w	518c <__aeabi_fmul+0x14c>
    52ac:	4608      	mov	r0, r1
    52ae:	e776      	b.n	519e <__aeabi_fmul+0x15e>
    52b0:	ea93 0f0c 	teq	r3, r12
    52b4:	d104      	bne.n	52c0 <__aeabi_fdiv+0x118>
    52b6:	024b      	lsls	r3, r1, #9
    52b8:	f43f af4c 	beq.w	5154 <__aeabi_fmul+0x114>
    52bc:	4608      	mov	r0, r1
    52be:	e76e      	b.n	519e <__aeabi_fmul+0x15e>
    52c0:	f030 4c00 	bics.w	r12, r0, #2147483648	; 0x80000000
    52c4:	bf18      	it	ne
    52c6:	f031 4c00 	bicsne.w	r12, r1, #2147483648	; 0x80000000
    52ca:	d1ca      	bne.n	5262 <__aeabi_fdiv+0xba>
    52cc:	f030 4200 	bics.w	r2, r0, #2147483648	; 0x80000000
    52d0:	f47f af5c 	bne.w	518c <__aeabi_fmul+0x14c>
    52d4:	f031 4300 	bics.w	r3, r1, #2147483648	; 0x80000000
    52d8:	f47f af3c 	bne.w	5154 <__aeabi_fmul+0x114>
    52dc:	e75f      	b.n	519e <__aeabi_fmul+0x15e>
    52de:	bf00      	nop

000052e0 <__gesf2>:
    52e0:	f04f 3cff 	mov.w	r12, #4294967295
    52e4:	e006      	b.n	52f4 <__cmpsf2+0x4>
    52e6:	bf00      	nop

000052e8 <__lesf2>:
    52e8:	f04f 0c01 	mov.w	r12, #1
    52ec:	e002      	b.n	52f4 <__cmpsf2+0x4>
    52ee:	bf00      	nop

000052f0 <__cmpsf2>:
    52f0:	f04f 0c01 	mov.w	r12, #1
    52f4:	f84d cd04 	str.w	r12, [sp, #-4]!
    52f8:	ea4f 0240 	mov.w	r2, r0, lsl #1
    52fc:	ea4f 0341 	mov.w	r3, r1, lsl #1
    5300:	ea7f 6c22 	mvns.w	r12, r2, asr #24
    5304:	bf18      	it	ne
    5306:	ea7f 6c23 	mvnsne.w	r12, r3, asr #24
    530a:	d011      	beq.n	5330 <__cmpsf2+0x40>
    530c:	b001      	add	sp, #4
    530e:	ea52 0c53 	orrs.w	r12, r2, r3, lsr #1
    5312:	bf18      	it	ne
    5314:	ea90 0f01 	teqne	r0, r1
    5318:	bf58      	it	pl
    531a:	ebb2 0003 	subspl.w	r0, r2, r3
    531e:	bf88      	it	hi
    5320:	17c8      	asrhi	r0, r1, #31
    5322:	bf38      	it	cc
    5324:	ea6f 70e1 	mvncc.w	r0, r1, asr #31
    5328:	bf18      	it	ne
    532a:	f040 0001 	orrne.w	r0, r0, #1
    532e:	4770      	bx	lr
    5330:	ea7f 6c22 	mvns.w	r12, r2, asr #24
    5334:	d102      	bne.n	533c <__cmpsf2+0x4c>
    5336:	ea5f 2c40 	movs.w	r12, r0, lsl #9
    533a:	d105      	bne.n	5348 <__cmpsf2+0x58>
    533c:	ea7f 6c23 	mvns.w	r12, r3, asr #24
    5340:	d1e4      	bne.n	530c <__cmpsf2+0x1c>
    5342:	ea5f 2c41 	movs.w	r12, r1, lsl #9
    5346:	d0e1      	beq.n	530c <__cmpsf2+0x1c>
    5348:	f85d 0b04 	ldr.w	r0, [sp], #4
    534c:	4770      	bx	lr
    534e:	bf00      	nop

00005350 <__aeabi_cfrcmple>:
    5350:	4684      	mov	r12, r0
    5352:	4608      	mov	r0, r1
    5354:	4661      	mov	r1, r12
    5356:	e7ff      	b.n	5358 <__aeabi_cfcmpeq>

00005358 <__aeabi_cfcmpeq>:
    5358:	b50f      	push	{r0, r1, r2, r3, lr}
    535a:	f7ff ffc9 	bl	52f0 <__cmpsf2>
    535e:	2800      	cmp	r0, #0
    5360:	bf48      	it	mi
    5362:	f110 0f00 	cmnmi.w	r0, #0
    5366:	bd0f      	pop	{r0, r1, r2, r3, pc}

00005368 <__aeabi_fcmpeq>:
    5368:	f84d ed08 	str.w	lr, [sp, #-8]!
    536c:	f7ff fff4 	bl	5358 <__aeabi_cfcmpeq>
    5370:	bf0c      	ite	eq
    5372:	2001      	moveq	r0, #1
    5374:	2000      	movne	r0, #0
    5376:	f85d fb08 	ldr.w	pc, [sp], #8
    537a:	bf00      	nop

0000537c <__aeabi_fcmplt>:
    537c:	f84d ed08 	str.w	lr, [sp, #-8]!
    5380:	f7ff ffea 	bl	5358 <__aeabi_cfcmpeq>
    5384:	bf34      	ite	cc
    5386:	2001      	movcc	r0, #1
    5388:	2000      	movcs	r0, #0
    538a:	f85d fb08 	ldr.w	pc, [sp], #8
    538e:	bf00      	nop

00005390 <__aeabi_fcmple>:
    5390:	f84d ed08 	str.w	lr, [sp, #-8]!
    5394:	f7ff ffe0 	bl	5358 <__aeabi_cfcmpeq>
    5398:	bf94      	ite	ls
    539a:	2001      	movls	r0, #1
    539c:	2000      	movhi	r0, #0
    539e:	f85d fb08 	ldr.w	pc, [sp], #8
    53a2:	bf00      	nop

000053a4 <__aeabi_fcmpge>:
    53a4:	f84d ed08 	str.w	lr, [sp, #-8]!
    53a8:	f7ff ffd2 	bl	5350 <__aeabi_cfrcmple>
    53ac:	bf94      	ite	ls
    53ae:	2001      	movls	r0, #1
    53b0:	2000      	movhi	r0, #0
    53b2:	f85d fb08 	ldr.w	pc, [sp], #8
    53b6:	bf00      	nop

000053b8 <__aeabi_fcmpgt>:
    53b8:	f84d ed08 	str.w	lr, [sp, #-8]!
    53bc:	f7ff ffc8 	bl	5350 <__aeabi_cfrcmple>
    53c0:	bf34      	ite	cc
    53c2:	2001      	movcc	r0, #1
    53c4:	2000      	movcs	r0, #0
    53c6:	f85d fb08 	ldr.w	pc, [sp], #8
    53ca:	bf00      	nop

000053cc <__aeabi_f2uiz>:
    53cc:	0042      	lsls	r2, r0, #1
    53ce:	d20e      	bcs.n	53ee <__aeabi_f2uiz+0x22>
    53d0:	f1b2 4ffe 	cmp.w	r2, #2130706432	; 0x7f000000
    53d4:	d30b      	bcc.n	53ee <__aeabi_f2uiz+0x22>
    53d6:	f04f 039e 	mov.w	r3, #158	; 0x9e
    53da:	ebb3 6212 	subs.w	r2, r3, r2, lsr #24
    53de:	d409      	bmi.n	53f4 <__aeabi_f2uiz+0x28>
    53e0:	ea4f 2300 	mov.w	r3, r0, lsl #8
    53e4:	f043 4300 	orr.w	r3, r3, #2147483648	; 0x80000000
    53e8:	fa23 f002 	lsr.w	r0, r3, r2
    53ec:	4770      	bx	lr
    53ee:	f04f 0000 	mov.w	r0, #0
    53f2:	4770      	bx	lr
    53f4:	f112 0f61 	cmn.w	r2, #97	; 0x61
    53f8:	d101      	bne.n	53fe <__aeabi_f2uiz+0x32>
    53fa:	0242      	lsls	r2, r0, #9
    53fc:	d102      	bne.n	5404 <__aeabi_f2uiz+0x38>
    53fe:	f04f 30ff 	mov.w	r0, #4294967295
    5402:	4770      	bx	lr
    5404:	f04f 0000 	mov.w	r0, #0
    5408:	4770      	bx	lr
    540a:	bf00      	nop

0000540c <__cxa_atexit>:
    540c:	b538      	push	{r3, r4, r5, lr}
    540e:	4605      	mov	r5, r0
    5410:	4804      	ldr	r0, [pc, #16]	; (5424 <__cxa_atexit+0x18>)
    5412:	460c      	mov	r4, r1
    5414:	4613      	mov	r3, r2
    5416:	b120      	cbz	r0, 5422 <__cxa_atexit+0x16>
    5418:	2002      	movs	r0, #2
    541a:	4629      	mov	r1, r5
    541c:	4622      	mov	r2, r4
    541e:	f3af 8000 	nop.w
    5422:	bd38      	pop	{r3, r4, r5, pc}
    5424:	00000000 	.word	0x00000000

00005428 <__errno>:
    5428:	4b01      	ldr	r3, [pc, #4]	; (5430 <__errno+0x8>)
    542a:	6818      	ldr	r0, [r3, #0]
    542c:	4770      	bx	lr
    542e:	bf00      	nop
    5430:	10000154 	.word	0x10000154

00005434 <exit>:
    5434:	b508      	push	{r3, lr}
    5436:	4b07      	ldr	r3, [pc, #28]	; (5454 <exit+0x20>)
    5438:	4604      	mov	r4, r0
    543a:	b113      	cbz	r3, 5442 <exit+0xe>
    543c:	2100      	movs	r1, #0
    543e:	f3af 8000 	nop.w
    5442:	4b05      	ldr	r3, [pc, #20]	; (5458 <exit+0x24>)
    5444:	6818      	ldr	r0, [r3, #0]
    5446:	6a83      	ldr	r3, [r0, #40]	; 0x28
    5448:	b103      	cbz	r3, 544c <exit+0x18>
    544a:	4798      	blx	r3
    544c:	4620      	mov	r0, r4
    544e:	f7ff fca3 	bl	4d98 <_exit>
    5452:	bf00      	nop
    5454:	00000000 	.word	0x00000000
    5458:	00007c84 	.word	0x00007c84

0000545c <_fclose_r>:
    545c:	b570      	push	{r4, r5, r6, lr}
    545e:	4605      	mov	r5, r0
    5460:	460c      	mov	r4, r1
    5462:	b909      	cbnz	r1, 5468 <_fclose_r+0xc>
    5464:	2000      	movs	r0, #0
    5466:	bd70      	pop	{r4, r5, r6, pc}
    5468:	b118      	cbz	r0, 5472 <_fclose_r+0x16>
    546a:	6983      	ldr	r3, [r0, #24]
    546c:	b90b      	cbnz	r3, 5472 <_fclose_r+0x16>
    546e:	f000 f94f 	bl	5710 <__sinit>
    5472:	4b20      	ldr	r3, [pc, #128]	; (54f4 <_fclose_r+0x98>)
    5474:	429c      	cmp	r4, r3
    5476:	d101      	bne.n	547c <_fclose_r+0x20>
    5478:	686c      	ldr	r4, [r5, #4]
    547a:	e008      	b.n	548e <_fclose_r+0x32>
    547c:	4b1e      	ldr	r3, [pc, #120]	; (54f8 <_fclose_r+0x9c>)
    547e:	429c      	cmp	r4, r3
    5480:	d101      	bne.n	5486 <_fclose_r+0x2a>
    5482:	68ac      	ldr	r4, [r5, #8]
    5484:	e003      	b.n	548e <_fclose_r+0x32>
    5486:	4b1d      	ldr	r3, [pc, #116]	; (54fc <_fclose_r+0xa0>)
    5488:	429c      	cmp	r4, r3
    548a:	bf08      	it	eq
    548c:	68ec      	ldreq	r4, [r5, #12]
    548e:	f9b4 300c 	ldrsh.w	r3, [r4, #12]
    5492:	2b00      	cmp	r3, #0
    5494:	d0e6      	beq.n	5464 <_fclose_r+0x8>
    5496:	4628      	mov	r0, r5
    5498:	4621      	mov	r1, r4
    549a:	f000 f839 	bl	5510 <__sflush_r>
    549e:	6b23      	ldr	r3, [r4, #48]	; 0x30
    54a0:	4606      	mov	r6, r0
    54a2:	b133      	cbz	r3, 54b2 <_fclose_r+0x56>
    54a4:	4628      	mov	r0, r5
    54a6:	6a21      	ldr	r1, [r4, #32]
    54a8:	4798      	blx	r3
    54aa:	2800      	cmp	r0, #0
    54ac:	bfb8      	it	lt
    54ae:	f04f 36ff 	movlt.w	r6, #4294967295
    54b2:	89a3      	ldrh	r3, [r4, #12]
    54b4:	061b      	lsls	r3, r3, #24
    54b6:	d503      	bpl.n	54c0 <_fclose_r+0x64>
    54b8:	4628      	mov	r0, r5
    54ba:	6921      	ldr	r1, [r4, #16]
    54bc:	f000 fb76 	bl	5bac <_free_r>
    54c0:	6b61      	ldr	r1, [r4, #52]	; 0x34
    54c2:	b141      	cbz	r1, 54d6 <_fclose_r+0x7a>
    54c4:	f104 0344 	add.w	r3, r4, #68	; 0x44
    54c8:	4299      	cmp	r1, r3
    54ca:	d002      	beq.n	54d2 <_fclose_r+0x76>
    54cc:	4628      	mov	r0, r5
    54ce:	f000 fb6d 	bl	5bac <_free_r>
    54d2:	2300      	movs	r3, #0
    54d4:	6363      	str	r3, [r4, #52]	; 0x34
    54d6:	6ca1      	ldr	r1, [r4, #72]	; 0x48
    54d8:	b121      	cbz	r1, 54e4 <_fclose_r+0x88>
    54da:	4628      	mov	r0, r5
    54dc:	f000 fb66 	bl	5bac <_free_r>
    54e0:	2300      	movs	r3, #0
    54e2:	64a3      	str	r3, [r4, #72]	; 0x48
    54e4:	f000 f97e 	bl	57e4 <__sfp_lock_acquire>
    54e8:	2300      	movs	r3, #0
    54ea:	81a3      	strh	r3, [r4, #12]
    54ec:	f000 f97b 	bl	57e6 <__sfp_lock_release>
    54f0:	4630      	mov	r0, r6
    54f2:	bd70      	pop	{r4, r5, r6, pc}
    54f4:	00007c20 	.word	0x00007c20
    54f8:	00007c40 	.word	0x00007c40
    54fc:	00007c60 	.word	0x00007c60

00005500 <fclose>:
    5500:	4b02      	ldr	r3, [pc, #8]	; (550c <fclose+0xc>)
    5502:	4601      	mov	r1, r0
    5504:	6818      	ldr	r0, [r3, #0]
    5506:	f7ff bfa9 	b.w	545c <_fclose_r>
    550a:	bf00      	nop
    550c:	10000154 	.word	0x10000154

00005510 <__sflush_r>:
    5510:	898a      	ldrh	r2, [r1, #12]
    5512:	e92d 41f0 	stmdb	sp!, {r4, r5, r6, r7, r8, lr}
    5516:	4605      	mov	r5, r0
    5518:	0710      	lsls	r0, r2, #28
    551a:	460c      	mov	r4, r1
    551c:	d457      	bmi.n	55ce <__sflush_r+0xbe>
    551e:	684b      	ldr	r3, [r1, #4]
    5520:	2b00      	cmp	r3, #0
    5522:	dc02      	bgt.n	552a <__sflush_r+0x1a>
    5524:	6c0b      	ldr	r3, [r1, #64]	; 0x40
    5526:	2b00      	cmp	r3, #0
    5528:	dd18      	ble.n	555c <__sflush_r+0x4c>
    552a:	6ae6      	ldr	r6, [r4, #44]	; 0x2c
    552c:	b1b6      	cbz	r6, 555c <__sflush_r+0x4c>
    552e:	f402 5280 	and.w	r2, r2, #4096	; 0x1000
    5532:	2300      	movs	r3, #0
    5534:	b292      	uxth	r2, r2
    5536:	682f      	ldr	r7, [r5, #0]
    5538:	602b      	str	r3, [r5, #0]
    553a:	b10a      	cbz	r2, 5540 <__sflush_r+0x30>
    553c:	6d62      	ldr	r2, [r4, #84]	; 0x54
    553e:	e010      	b.n	5562 <__sflush_r+0x52>
    5540:	6a21      	ldr	r1, [r4, #32]
    5542:	4628      	mov	r0, r5
    5544:	2301      	movs	r3, #1
    5546:	47b0      	blx	r6
    5548:	1c41      	adds	r1, r0, #1
    554a:	4602      	mov	r2, r0
    554c:	d109      	bne.n	5562 <__sflush_r+0x52>
    554e:	682b      	ldr	r3, [r5, #0]
    5550:	b13b      	cbz	r3, 5562 <__sflush_r+0x52>
    5552:	2b1d      	cmp	r3, #29
    5554:	d001      	beq.n	555a <__sflush_r+0x4a>
    5556:	2b16      	cmp	r3, #22
    5558:	d146      	bne.n	55e8 <__sflush_r+0xd8>
    555a:	602f      	str	r7, [r5, #0]
    555c:	2000      	movs	r0, #0
    555e:	e8bd 81f0 	ldmia.w	sp!, {r4, r5, r6, r7, r8, pc}
    5562:	89a3      	ldrh	r3, [r4, #12]
    5564:	075b      	lsls	r3, r3, #29
    5566:	d505      	bpl.n	5574 <__sflush_r+0x64>
    5568:	6863      	ldr	r3, [r4, #4]
    556a:	1ad2      	subs	r2, r2, r3
    556c:	6b63      	ldr	r3, [r4, #52]	; 0x34
    556e:	b10b      	cbz	r3, 5574 <__sflush_r+0x64>
    5570:	6c23      	ldr	r3, [r4, #64]	; 0x40
    5572:	1ad2      	subs	r2, r2, r3
    5574:	6ae6      	ldr	r6, [r4, #44]	; 0x2c
    5576:	2300      	movs	r3, #0
    5578:	4628      	mov	r0, r5
    557a:	6a21      	ldr	r1, [r4, #32]
    557c:	47b0      	blx	r6
    557e:	1c46      	adds	r6, r0, #1
    5580:	89a3      	ldrh	r3, [r4, #12]
    5582:	d105      	bne.n	5590 <__sflush_r+0x80>
    5584:	682a      	ldr	r2, [r5, #0]
    5586:	b11a      	cbz	r2, 5590 <__sflush_r+0x80>
    5588:	2a1d      	cmp	r2, #29
    558a:	d001      	beq.n	5590 <__sflush_r+0x80>
    558c:	2a16      	cmp	r2, #22
    558e:	d119      	bne.n	55c4 <__sflush_r+0xb4>
    5590:	2200      	movs	r2, #0
    5592:	6062      	str	r2, [r4, #4]
    5594:	6922      	ldr	r2, [r4, #16]
    5596:	04d9      	lsls	r1, r3, #19
    5598:	6022      	str	r2, [r4, #0]
    559a:	d504      	bpl.n	55a6 <__sflush_r+0x96>
    559c:	1c42      	adds	r2, r0, #1
    559e:	d101      	bne.n	55a4 <__sflush_r+0x94>
    55a0:	682b      	ldr	r3, [r5, #0]
    55a2:	b903      	cbnz	r3, 55a6 <__sflush_r+0x96>
    55a4:	6560      	str	r0, [r4, #84]	; 0x54
    55a6:	6b61      	ldr	r1, [r4, #52]	; 0x34
    55a8:	602f      	str	r7, [r5, #0]
    55aa:	2900      	cmp	r1, #0
    55ac:	d0d6      	beq.n	555c <__sflush_r+0x4c>
    55ae:	f104 0344 	add.w	r3, r4, #68	; 0x44
    55b2:	4299      	cmp	r1, r3
    55b4:	d002      	beq.n	55bc <__sflush_r+0xac>
    55b6:	4628      	mov	r0, r5
    55b8:	f000 faf8 	bl	5bac <_free_r>
    55bc:	2000      	movs	r0, #0
    55be:	6360      	str	r0, [r4, #52]	; 0x34
    55c0:	e8bd 81f0 	ldmia.w	sp!, {r4, r5, r6, r7, r8, pc}
    55c4:	f043 0340 	orr.w	r3, r3, #64	; 0x40
    55c8:	81a3      	strh	r3, [r4, #12]
    55ca:	e8bd 81f0 	ldmia.w	sp!, {r4, r5, r6, r7, r8, pc}
    55ce:	690f      	ldr	r7, [r1, #16]
    55d0:	2f00      	cmp	r7, #0
    55d2:	d0c3      	beq.n	555c <__sflush_r+0x4c>
    55d4:	0793      	lsls	r3, r2, #30
    55d6:	680e      	ldr	r6, [r1, #0]
    55d8:	bf0c      	ite	eq
    55da:	694b      	ldreq	r3, [r1, #20]
    55dc:	2300      	movne	r3, #0
    55de:	ebc7 0806 	rsb	r8, r7, r6
    55e2:	600f      	str	r7, [r1, #0]
    55e4:	608b      	str	r3, [r1, #8]
    55e6:	e012      	b.n	560e <__sflush_r+0xfe>
    55e8:	89a3      	ldrh	r3, [r4, #12]
    55ea:	f04f 30ff 	mov.w	r0, #4294967295
    55ee:	f043 0340 	orr.w	r3, r3, #64	; 0x40
    55f2:	81a3      	strh	r3, [r4, #12]
    55f4:	e8bd 81f0 	ldmia.w	sp!, {r4, r5, r6, r7, r8, pc}
    55f8:	4628      	mov	r0, r5
    55fa:	6a21      	ldr	r1, [r4, #32]
    55fc:	463a      	mov	r2, r7
    55fe:	4643      	mov	r3, r8
    5600:	6aa6      	ldr	r6, [r4, #40]	; 0x28
    5602:	47b0      	blx	r6
    5604:	2800      	cmp	r0, #0
    5606:	ddef      	ble.n	55e8 <__sflush_r+0xd8>
    5608:	4407      	add	r7, r0
    560a:	ebc0 0808 	rsb	r8, r0, r8
    560e:	f1b8 0f00 	cmp.w	r8, #0
    5612:	dcf1      	bgt.n	55f8 <__sflush_r+0xe8>
    5614:	e7a2      	b.n	555c <__sflush_r+0x4c>
	...

00005618 <_fflush_r>:
    5618:	b538      	push	{r3, r4, r5, lr}
    561a:	690b      	ldr	r3, [r1, #16]
    561c:	4605      	mov	r5, r0
    561e:	460c      	mov	r4, r1
    5620:	b1db      	cbz	r3, 565a <_fflush_r+0x42>
    5622:	b118      	cbz	r0, 562c <_fflush_r+0x14>
    5624:	6983      	ldr	r3, [r0, #24]
    5626:	b90b      	cbnz	r3, 562c <_fflush_r+0x14>
    5628:	f000 f872 	bl	5710 <__sinit>
    562c:	4b0c      	ldr	r3, [pc, #48]	; (5660 <_fflush_r+0x48>)
    562e:	429c      	cmp	r4, r3
    5630:	d101      	bne.n	5636 <_fflush_r+0x1e>
    5632:	686c      	ldr	r4, [r5, #4]
    5634:	e008      	b.n	5648 <_fflush_r+0x30>
    5636:	4b0b      	ldr	r3, [pc, #44]	; (5664 <_fflush_r+0x4c>)
    5638:	429c      	cmp	r4, r3
    563a:	d101      	bne.n	5640 <_fflush_r+0x28>
    563c:	68ac      	ldr	r4, [r5, #8]
    563e:	e003      	b.n	5648 <_fflush_r+0x30>
    5640:	4b09      	ldr	r3, [pc, #36]	; (5668 <_fflush_r+0x50>)
    5642:	429c      	cmp	r4, r3
    5644:	bf08      	it	eq
    5646:	68ec      	ldreq	r4, [r5, #12]
    5648:	f9b4 300c 	ldrsh.w	r3, [r4, #12]
    564c:	b12b      	cbz	r3, 565a <_fflush_r+0x42>
    564e:	4628      	mov	r0, r5
    5650:	4621      	mov	r1, r4
    5652:	e8bd 4038 	ldmia.w	sp!, {r3, r4, r5, lr}
    5656:	f7ff bf5b 	b.w	5510 <__sflush_r>
    565a:	2000      	movs	r0, #0
    565c:	bd38      	pop	{r3, r4, r5, pc}
    565e:	bf00      	nop
    5660:	00007c20 	.word	0x00007c20
    5664:	00007c40 	.word	0x00007c40
    5668:	00007c60 	.word	0x00007c60

0000566c <fflush>:
    566c:	4601      	mov	r1, r0
    566e:	b920      	cbnz	r0, 567a <fflush+0xe>
    5670:	4b04      	ldr	r3, [pc, #16]	; (5684 <fflush+0x18>)
    5672:	4905      	ldr	r1, [pc, #20]	; (5688 <fflush+0x1c>)
    5674:	6818      	ldr	r0, [r3, #0]
    5676:	f000 b9bd 	b.w	59f4 <_fwalk_reent>
    567a:	4b04      	ldr	r3, [pc, #16]	; (568c <fflush+0x20>)
    567c:	6818      	ldr	r0, [r3, #0]
    567e:	f7ff bfcb 	b.w	5618 <_fflush_r>
    5682:	bf00      	nop
    5684:	00007c84 	.word	0x00007c84
    5688:	00005619 	.word	0x00005619
    568c:	10000154 	.word	0x10000154

00005690 <_cleanup_r>:
    5690:	4901      	ldr	r1, [pc, #4]	; (5698 <_cleanup_r+0x8>)
    5692:	f000 b9af 	b.w	59f4 <_fwalk_reent>
    5696:	bf00      	nop
    5698:	00005619 	.word	0x00005619

0000569c <std.isra.0>:
    569c:	b510      	push	{r4, lr}
    569e:	4604      	mov	r4, r0
    56a0:	2300      	movs	r3, #0
    56a2:	6003      	str	r3, [r0, #0]
    56a4:	6043      	str	r3, [r0, #4]
    56a6:	6083      	str	r3, [r0, #8]
    56a8:	8181      	strh	r1, [r0, #12]
    56aa:	6643      	str	r3, [r0, #100]	; 0x64
    56ac:	81c2      	strh	r2, [r0, #14]
    56ae:	6103      	str	r3, [r0, #16]
    56b0:	6143      	str	r3, [r0, #20]
    56b2:	6183      	str	r3, [r0, #24]
    56b4:	4619      	mov	r1, r3
    56b6:	305c      	adds	r0, #92	; 0x5c
    56b8:	2208      	movs	r2, #8
    56ba:	f000 fa6f 	bl	5b9c <memset>
    56be:	4b05      	ldr	r3, [pc, #20]	; (56d4 <std.isra.0+0x38>)
    56c0:	6224      	str	r4, [r4, #32]
    56c2:	6263      	str	r3, [r4, #36]	; 0x24
    56c4:	4b04      	ldr	r3, [pc, #16]	; (56d8 <std.isra.0+0x3c>)
    56c6:	62a3      	str	r3, [r4, #40]	; 0x28
    56c8:	4b04      	ldr	r3, [pc, #16]	; (56dc <std.isra.0+0x40>)
    56ca:	62e3      	str	r3, [r4, #44]	; 0x2c
    56cc:	4b04      	ldr	r3, [pc, #16]	; (56e0 <std.isra.0+0x44>)
    56ce:	6323      	str	r3, [r4, #48]	; 0x30
    56d0:	bd10      	pop	{r4, pc}
    56d2:	bf00      	nop
    56d4:	00006819 	.word	0x00006819
    56d8:	0000683f 	.word	0x0000683f
    56dc:	00006877 	.word	0x00006877
    56e0:	0000689b 	.word	0x0000689b

000056e4 <__sfmoreglue>:
    56e4:	b570      	push	{r4, r5, r6, lr}
    56e6:	2368      	movs	r3, #104	; 0x68
    56e8:	1e4d      	subs	r5, r1, #1
    56ea:	435d      	muls	r5, r3
    56ec:	460e      	mov	r6, r1
    56ee:	f105 0174 	add.w	r1, r5, #116	; 0x74
    56f2:	f000 fa9f 	bl	5c34 <_malloc_r>
    56f6:	4604      	mov	r4, r0
    56f8:	b140      	cbz	r0, 570c <__sfmoreglue+0x28>
    56fa:	2100      	movs	r1, #0
    56fc:	e880 0042 	stmia.w	r0, {r1, r6}
    5700:	300c      	adds	r0, #12
    5702:	60a0      	str	r0, [r4, #8]
    5704:	f105 0268 	add.w	r2, r5, #104	; 0x68
    5708:	f000 fa48 	bl	5b9c <memset>
    570c:	4620      	mov	r0, r4
    570e:	bd70      	pop	{r4, r5, r6, pc}

00005710 <__sinit>:
    5710:	6983      	ldr	r3, [r0, #24]
    5712:	b510      	push	{r4, lr}
    5714:	4604      	mov	r4, r0
    5716:	bb33      	cbnz	r3, 5766 <__sinit+0x56>
    5718:	6483      	str	r3, [r0, #72]	; 0x48
    571a:	64c3      	str	r3, [r0, #76]	; 0x4c
    571c:	6503      	str	r3, [r0, #80]	; 0x50
    571e:	4b12      	ldr	r3, [pc, #72]	; (5768 <__sinit+0x58>)
    5720:	4a12      	ldr	r2, [pc, #72]	; (576c <__sinit+0x5c>)
    5722:	681b      	ldr	r3, [r3, #0]
    5724:	6282      	str	r2, [r0, #40]	; 0x28
    5726:	4298      	cmp	r0, r3
    5728:	bf04      	itt	eq
    572a:	2301      	moveq	r3, #1
    572c:	6183      	streq	r3, [r0, #24]
    572e:	f000 f81f 	bl	5770 <__sfp>
    5732:	6060      	str	r0, [r4, #4]
    5734:	4620      	mov	r0, r4
    5736:	f000 f81b 	bl	5770 <__sfp>
    573a:	60a0      	str	r0, [r4, #8]
    573c:	4620      	mov	r0, r4
    573e:	f000 f817 	bl	5770 <__sfp>
    5742:	2104      	movs	r1, #4
    5744:	60e0      	str	r0, [r4, #12]
    5746:	2200      	movs	r2, #0
    5748:	6860      	ldr	r0, [r4, #4]
    574a:	f7ff ffa7 	bl	569c <std.isra.0>
    574e:	68a0      	ldr	r0, [r4, #8]
    5750:	2109      	movs	r1, #9
    5752:	2201      	movs	r2, #1
    5754:	f7ff ffa2 	bl	569c <std.isra.0>
    5758:	68e0      	ldr	r0, [r4, #12]
    575a:	2112      	movs	r1, #18
    575c:	2202      	movs	r2, #2
    575e:	f7ff ff9d 	bl	569c <std.isra.0>
    5762:	2301      	movs	r3, #1
    5764:	61a3      	str	r3, [r4, #24]
    5766:	bd10      	pop	{r4, pc}
    5768:	00007c84 	.word	0x00007c84
    576c:	00005691 	.word	0x00005691

00005770 <__sfp>:
    5770:	b5f8      	push	{r3, r4, r5, r6, r7, lr}
    5772:	4b1b      	ldr	r3, [pc, #108]	; (57e0 <__sfp+0x70>)
    5774:	4607      	mov	r7, r0
    5776:	681e      	ldr	r6, [r3, #0]
    5778:	69b3      	ldr	r3, [r6, #24]
    577a:	b913      	cbnz	r3, 5782 <__sfp+0x12>
    577c:	4630      	mov	r0, r6
    577e:	f7ff ffc7 	bl	5710 <__sinit>
    5782:	3648      	adds	r6, #72	; 0x48
    5784:	68b4      	ldr	r4, [r6, #8]
    5786:	6873      	ldr	r3, [r6, #4]
    5788:	3b01      	subs	r3, #1
    578a:	d404      	bmi.n	5796 <__sfp+0x26>
    578c:	f9b4 500c 	ldrsh.w	r5, [r4, #12]
    5790:	b175      	cbz	r5, 57b0 <__sfp+0x40>
    5792:	3468      	adds	r4, #104	; 0x68
    5794:	e7f8      	b.n	5788 <__sfp+0x18>
    5796:	6833      	ldr	r3, [r6, #0]
    5798:	b92b      	cbnz	r3, 57a6 <__sfp+0x36>
    579a:	4638      	mov	r0, r7
    579c:	2104      	movs	r1, #4
    579e:	f7ff ffa1 	bl	56e4 <__sfmoreglue>
    57a2:	6030      	str	r0, [r6, #0]
    57a4:	b108      	cbz	r0, 57aa <__sfp+0x3a>
    57a6:	6836      	ldr	r6, [r6, #0]
    57a8:	e7ec      	b.n	5784 <__sfp+0x14>
    57aa:	230c      	movs	r3, #12
    57ac:	603b      	str	r3, [r7, #0]
    57ae:	bdf8      	pop	{r3, r4, r5, r6, r7, pc}
    57b0:	f64f 73ff 	movw	r3, #65535	; 0xffff
    57b4:	81e3      	strh	r3, [r4, #14]
    57b6:	2301      	movs	r3, #1
    57b8:	81a3      	strh	r3, [r4, #12]
    57ba:	6665      	str	r5, [r4, #100]	; 0x64
    57bc:	6025      	str	r5, [r4, #0]
    57be:	60a5      	str	r5, [r4, #8]
    57c0:	6065      	str	r5, [r4, #4]
    57c2:	6125      	str	r5, [r4, #16]
    57c4:	6165      	str	r5, [r4, #20]
    57c6:	61a5      	str	r5, [r4, #24]
    57c8:	f104 005c 	add.w	r0, r4, #92	; 0x5c
    57cc:	4629      	mov	r1, r5
    57ce:	2208      	movs	r2, #8
    57d0:	f000 f9e4 	bl	5b9c <memset>
    57d4:	6365      	str	r5, [r4, #52]	; 0x34
    57d6:	63a5      	str	r5, [r4, #56]	; 0x38
    57d8:	64a5      	str	r5, [r4, #72]	; 0x48
    57da:	64e5      	str	r5, [r4, #76]	; 0x4c
    57dc:	4620      	mov	r0, r4
    57de:	bdf8      	pop	{r3, r4, r5, r6, r7, pc}
    57e0:	00007c84 	.word	0x00007c84

000057e4 <__sfp_lock_acquire>:
    57e4:	4770      	bx	lr

000057e6 <__sfp_lock_release>:
    57e6:	4770      	bx	lr

000057e8 <_fopen_r>:
    57e8:	b5f7      	push	{r0, r1, r2, r4, r5, r6, r7, lr}
    57ea:	460f      	mov	r7, r1
    57ec:	4611      	mov	r1, r2
    57ee:	aa01      	add	r2, sp, #4
    57f0:	4605      	mov	r5, r0
    57f2:	f001 fa9f 	bl	6d34 <__sflags>
    57f6:	4606      	mov	r6, r0
    57f8:	b908      	cbnz	r0, 57fe <_fopen_r+0x16>
    57fa:	2000      	movs	r0, #0
    57fc:	e029      	b.n	5852 <_fopen_r+0x6a>
    57fe:	4628      	mov	r0, r5
    5800:	f7ff ffb6 	bl	5770 <__sfp>
    5804:	4604      	mov	r4, r0
    5806:	2800      	cmp	r0, #0
    5808:	d0f7      	beq.n	57fa <_fopen_r+0x12>
    580a:	4628      	mov	r0, r5
    580c:	4639      	mov	r1, r7
    580e:	9a01      	ldr	r2, [sp, #4]
    5810:	f44f 73db 	mov.w	r3, #438	; 0x1b6
    5814:	f000 fe88 	bl	6528 <_open_r>
    5818:	2800      	cmp	r0, #0
    581a:	da06      	bge.n	582a <_fopen_r+0x42>
    581c:	2500      	movs	r5, #0
    581e:	f7ff ffe1 	bl	57e4 <__sfp_lock_acquire>
    5822:	81a5      	strh	r5, [r4, #12]
    5824:	f7ff ffdf 	bl	57e6 <__sfp_lock_release>
    5828:	e7e7      	b.n	57fa <_fopen_r+0x12>
    582a:	4b0b      	ldr	r3, [pc, #44]	; (5858 <_fopen_r+0x70>)
    582c:	81e0      	strh	r0, [r4, #14]
    582e:	6263      	str	r3, [r4, #36]	; 0x24
    5830:	4b0a      	ldr	r3, [pc, #40]	; (585c <_fopen_r+0x74>)
    5832:	81a6      	strh	r6, [r4, #12]
    5834:	62a3      	str	r3, [r4, #40]	; 0x28
    5836:	4b0a      	ldr	r3, [pc, #40]	; (5860 <_fopen_r+0x78>)
    5838:	6224      	str	r4, [r4, #32]
    583a:	62e3      	str	r3, [r4, #44]	; 0x2c
    583c:	4b09      	ldr	r3, [pc, #36]	; (5864 <_fopen_r+0x7c>)
    583e:	6323      	str	r3, [r4, #48]	; 0x30
    5840:	05f3      	lsls	r3, r6, #23
    5842:	d505      	bpl.n	5850 <_fopen_r+0x68>
    5844:	4628      	mov	r0, r5
    5846:	4621      	mov	r1, r4
    5848:	2200      	movs	r2, #0
    584a:	2302      	movs	r3, #2
    584c:	f000 f844 	bl	58d8 <_fseek_r>
    5850:	4620      	mov	r0, r4
    5852:	b003      	add	sp, #12
    5854:	bdf0      	pop	{r4, r5, r6, r7, pc}
    5856:	bf00      	nop
    5858:	00006819 	.word	0x00006819
    585c:	0000683f 	.word	0x0000683f
    5860:	00006877 	.word	0x00006877
    5864:	0000689b 	.word	0x0000689b

00005868 <fopen>:
    5868:	4603      	mov	r3, r0
    586a:	460a      	mov	r2, r1
    586c:	4902      	ldr	r1, [pc, #8]	; (5878 <fopen+0x10>)
    586e:	6808      	ldr	r0, [r1, #0]
    5870:	4619      	mov	r1, r3
    5872:	f7ff bfb9 	b.w	57e8 <_fopen_r>
    5876:	bf00      	nop
    5878:	10000154 	.word	0x10000154

0000587c <_fputc_r>:
    587c:	b570      	push	{r4, r5, r6, lr}
    587e:	460e      	mov	r6, r1
    5880:	4614      	mov	r4, r2
    5882:	4605      	mov	r5, r0
    5884:	b118      	cbz	r0, 588e <_fputc_r+0x12>
    5886:	6983      	ldr	r3, [r0, #24]
    5888:	b90b      	cbnz	r3, 588e <_fputc_r+0x12>
    588a:	f7ff ff41 	bl	5710 <__sinit>
    588e:	4b0a      	ldr	r3, [pc, #40]	; (58b8 <_fputc_r+0x3c>)
    5890:	429c      	cmp	r4, r3
    5892:	d101      	bne.n	5898 <_fputc_r+0x1c>
    5894:	686c      	ldr	r4, [r5, #4]
    5896:	e008      	b.n	58aa <_fputc_r+0x2e>
    5898:	4b08      	ldr	r3, [pc, #32]	; (58bc <_fputc_r+0x40>)
    589a:	429c      	cmp	r4, r3
    589c:	d101      	bne.n	58a2 <_fputc_r+0x26>
    589e:	68ac      	ldr	r4, [r5, #8]
    58a0:	e003      	b.n	58aa <_fputc_r+0x2e>
    58a2:	4b07      	ldr	r3, [pc, #28]	; (58c0 <_fputc_r+0x44>)
    58a4:	429c      	cmp	r4, r3
    58a6:	bf08      	it	eq
    58a8:	68ec      	ldreq	r4, [r5, #12]
    58aa:	4628      	mov	r0, r5
    58ac:	4631      	mov	r1, r6
    58ae:	4622      	mov	r2, r4
    58b0:	e8bd 4070 	ldmia.w	sp!, {r4, r5, r6, lr}
    58b4:	f000 be4a 	b.w	654c <_putc_r>
    58b8:	00007c20 	.word	0x00007c20
    58bc:	00007c40 	.word	0x00007c40
    58c0:	00007c60 	.word	0x00007c60

000058c4 <fputc>:
    58c4:	4603      	mov	r3, r0
    58c6:	460a      	mov	r2, r1
    58c8:	4902      	ldr	r1, [pc, #8]	; (58d4 <fputc+0x10>)
    58ca:	6808      	ldr	r0, [r1, #0]
    58cc:	4619      	mov	r1, r3
    58ce:	f7ff bfd5 	b.w	587c <_fputc_r>
    58d2:	bf00      	nop
    58d4:	10000154 	.word	0x10000154

000058d8 <_fseek_r>:
    58d8:	f000 b800 	b.w	58dc <_fseeko_r>

000058dc <_fseeko_r>:
    58dc:	e92d 43f8 	stmdb	sp!, {r3, r4, r5, r6, r7, r8, r9, lr}
    58e0:	460c      	mov	r4, r1
    58e2:	4690      	mov	r8, r2
    58e4:	461e      	mov	r6, r3
    58e6:	4605      	mov	r5, r0
    58e8:	b118      	cbz	r0, 58f2 <_fseeko_r+0x16>
    58ea:	6983      	ldr	r3, [r0, #24]
    58ec:	b90b      	cbnz	r3, 58f2 <_fseeko_r+0x16>
    58ee:	f7ff ff0f 	bl	5710 <__sinit>
    58f2:	4b3d      	ldr	r3, [pc, #244]	; (59e8 <_fseeko_r+0x10c>)
    58f4:	429c      	cmp	r4, r3
    58f6:	d101      	bne.n	58fc <_fseeko_r+0x20>
    58f8:	686c      	ldr	r4, [r5, #4]
    58fa:	e008      	b.n	590e <_fseeko_r+0x32>
    58fc:	4b3b      	ldr	r3, [pc, #236]	; (59ec <_fseeko_r+0x110>)
    58fe:	429c      	cmp	r4, r3
    5900:	d101      	bne.n	5906 <_fseeko_r+0x2a>
    5902:	68ac      	ldr	r4, [r5, #8]
    5904:	e003      	b.n	590e <_fseeko_r+0x32>
    5906:	4b3a      	ldr	r3, [pc, #232]	; (59f0 <_fseeko_r+0x114>)
    5908:	429c      	cmp	r4, r3
    590a:	bf08      	it	eq
    590c:	68ec      	ldreq	r4, [r5, #12]
    590e:	89a3      	ldrh	r3, [r4, #12]
    5910:	f403 7384 	and.w	r3, r3, #264	; 0x108
    5914:	f5b3 7f84 	cmp.w	r3, #264	; 0x108
    5918:	d103      	bne.n	5922 <_fseeko_r+0x46>
    591a:	4628      	mov	r0, r5
    591c:	4621      	mov	r1, r4
    591e:	f7ff fe7b 	bl	5618 <_fflush_r>
    5922:	6ae7      	ldr	r7, [r4, #44]	; 0x2c
    5924:	b90f      	cbnz	r7, 592a <_fseeko_r+0x4e>
    5926:	231d      	movs	r3, #29
    5928:	e02b      	b.n	5982 <_fseeko_r+0xa6>
    592a:	2e01      	cmp	r6, #1
    592c:	d004      	beq.n	5938 <_fseeko_r+0x5c>
    592e:	2e02      	cmp	r6, #2
    5930:	d02b      	beq.n	598a <_fseeko_r+0xae>
    5932:	b356      	cbz	r6, 598a <_fseeko_r+0xae>
    5934:	2316      	movs	r3, #22
    5936:	e024      	b.n	5982 <_fseeko_r+0xa6>
    5938:	4628      	mov	r0, r5
    593a:	4621      	mov	r1, r4
    593c:	f7ff fe6c 	bl	5618 <_fflush_r>
    5940:	89a2      	ldrh	r2, [r4, #12]
    5942:	f402 5280 	and.w	r2, r2, #4096	; 0x1000
    5946:	b292      	uxth	r2, r2
    5948:	b10a      	cbz	r2, 594e <_fseeko_r+0x72>
    594a:	6d60      	ldr	r0, [r4, #84]	; 0x54
    594c:	e005      	b.n	595a <_fseeko_r+0x7e>
    594e:	6a21      	ldr	r1, [r4, #32]
    5950:	4628      	mov	r0, r5
    5952:	4633      	mov	r3, r6
    5954:	47b8      	blx	r7
    5956:	1c41      	adds	r1, r0, #1
    5958:	d014      	beq.n	5984 <_fseeko_r+0xa8>
    595a:	89a3      	ldrh	r3, [r4, #12]
    595c:	075a      	lsls	r2, r3, #29
    595e:	d506      	bpl.n	596e <_fseeko_r+0x92>
    5960:	6863      	ldr	r3, [r4, #4]
    5962:	1ac0      	subs	r0, r0, r3
    5964:	6b63      	ldr	r3, [r4, #52]	; 0x34
    5966:	b14b      	cbz	r3, 597c <_fseeko_r+0xa0>
    5968:	6c23      	ldr	r3, [r4, #64]	; 0x40
    596a:	1ac0      	subs	r0, r0, r3
    596c:	e006      	b.n	597c <_fseeko_r+0xa0>
    596e:	071b      	lsls	r3, r3, #28
    5970:	d504      	bpl.n	597c <_fseeko_r+0xa0>
    5972:	6823      	ldr	r3, [r4, #0]
    5974:	b113      	cbz	r3, 597c <_fseeko_r+0xa0>
    5976:	6922      	ldr	r2, [r4, #16]
    5978:	1a9b      	subs	r3, r3, r2
    597a:	4418      	add	r0, r3
    597c:	4480      	add	r8, r0
    597e:	2600      	movs	r6, #0
    5980:	e003      	b.n	598a <_fseeko_r+0xae>
    5982:	602b      	str	r3, [r5, #0]
    5984:	f04f 39ff 	mov.w	r9, #4294967295
    5988:	e02b      	b.n	59e2 <_fseeko_r+0x106>
    598a:	6923      	ldr	r3, [r4, #16]
    598c:	b91b      	cbnz	r3, 5996 <_fseeko_r+0xba>
    598e:	4628      	mov	r0, r5
    5990:	4621      	mov	r1, r4
    5992:	f000 f873 	bl	5a7c <__smakebuf_r>
    5996:	4628      	mov	r0, r5
    5998:	4621      	mov	r1, r4
    599a:	f7ff fe3d 	bl	5618 <_fflush_r>
    599e:	4681      	mov	r9, r0
    59a0:	2800      	cmp	r0, #0
    59a2:	d1ef      	bne.n	5984 <_fseeko_r+0xa8>
    59a4:	4628      	mov	r0, r5
    59a6:	6a21      	ldr	r1, [r4, #32]
    59a8:	4642      	mov	r2, r8
    59aa:	4633      	mov	r3, r6
    59ac:	47b8      	blx	r7
    59ae:	3001      	adds	r0, #1
    59b0:	d0e8      	beq.n	5984 <_fseeko_r+0xa8>
    59b2:	6b61      	ldr	r1, [r4, #52]	; 0x34
    59b4:	b141      	cbz	r1, 59c8 <_fseeko_r+0xec>
    59b6:	f104 0344 	add.w	r3, r4, #68	; 0x44
    59ba:	4299      	cmp	r1, r3
    59bc:	d002      	beq.n	59c4 <_fseeko_r+0xe8>
    59be:	4628      	mov	r0, r5
    59c0:	f000 f8f4 	bl	5bac <_free_r>
    59c4:	2300      	movs	r3, #0
    59c6:	6363      	str	r3, [r4, #52]	; 0x34
    59c8:	6923      	ldr	r3, [r4, #16]
    59ca:	2100      	movs	r1, #0
    59cc:	6023      	str	r3, [r4, #0]
    59ce:	89a3      	ldrh	r3, [r4, #12]
    59d0:	6061      	str	r1, [r4, #4]
    59d2:	f423 6302 	bic.w	r3, r3, #2080	; 0x820
    59d6:	81a3      	strh	r3, [r4, #12]
    59d8:	f104 005c 	add.w	r0, r4, #92	; 0x5c
    59dc:	2208      	movs	r2, #8
    59de:	f000 f8dd 	bl	5b9c <memset>
    59e2:	4648      	mov	r0, r9
    59e4:	e8bd 83f8 	ldmia.w	sp!, {r3, r4, r5, r6, r7, r8, r9, pc}
    59e8:	00007c20 	.word	0x00007c20
    59ec:	00007c40 	.word	0x00007c40
    59f0:	00007c60 	.word	0x00007c60

000059f4 <_fwalk_reent>:
    59f4:	e92d 43f8 	stmdb	sp!, {r3, r4, r5, r6, r7, r8, r9, lr}
    59f8:	4680      	mov	r8, r0
    59fa:	4689      	mov	r9, r1
    59fc:	f100 0448 	add.w	r4, r0, #72	; 0x48
    5a00:	2600      	movs	r6, #0
    5a02:	b194      	cbz	r4, 5a2a <_fwalk_reent+0x36>
    5a04:	68a5      	ldr	r5, [r4, #8]
    5a06:	6867      	ldr	r7, [r4, #4]
    5a08:	3f01      	subs	r7, #1
    5a0a:	d40c      	bmi.n	5a26 <_fwalk_reent+0x32>
    5a0c:	89ab      	ldrh	r3, [r5, #12]
    5a0e:	2b01      	cmp	r3, #1
    5a10:	d907      	bls.n	5a22 <_fwalk_reent+0x2e>
    5a12:	f9b5 300e 	ldrsh.w	r3, [r5, #14]
    5a16:	3301      	adds	r3, #1
    5a18:	d003      	beq.n	5a22 <_fwalk_reent+0x2e>
    5a1a:	4640      	mov	r0, r8
    5a1c:	4629      	mov	r1, r5
    5a1e:	47c8      	blx	r9
    5a20:	4306      	orrs	r6, r0
    5a22:	3568      	adds	r5, #104	; 0x68
    5a24:	e7f0      	b.n	5a08 <_fwalk_reent+0x14>
    5a26:	6824      	ldr	r4, [r4, #0]
    5a28:	e7eb      	b.n	5a02 <_fwalk_reent+0xe>
    5a2a:	4630      	mov	r0, r6
    5a2c:	e8bd 83f8 	ldmia.w	sp!, {r3, r4, r5, r6, r7, r8, r9, pc}

00005a30 <__libc_init_array>:
    5a30:	4b0e      	ldr	r3, [pc, #56]	; (5a6c <__libc_init_array+0x3c>)
    5a32:	b570      	push	{r4, r5, r6, lr}
    5a34:	461e      	mov	r6, r3
    5a36:	4c0e      	ldr	r4, [pc, #56]	; (5a70 <__libc_init_array+0x40>)
    5a38:	2500      	movs	r5, #0
    5a3a:	1ae4      	subs	r4, r4, r3
    5a3c:	10a4      	asrs	r4, r4, #2
    5a3e:	42a5      	cmp	r5, r4
    5a40:	d004      	beq.n	5a4c <__libc_init_array+0x1c>
    5a42:	f856 3025 	ldr.w	r3, [r6, r5, lsl #2]
    5a46:	4798      	blx	r3
    5a48:	3501      	adds	r5, #1
    5a4a:	e7f8      	b.n	5a3e <__libc_init_array+0xe>
    5a4c:	f001 fd14 	bl	7478 <_init>
    5a50:	4b08      	ldr	r3, [pc, #32]	; (5a74 <__libc_init_array+0x44>)
    5a52:	4c09      	ldr	r4, [pc, #36]	; (5a78 <__libc_init_array+0x48>)
    5a54:	461e      	mov	r6, r3
    5a56:	1ae4      	subs	r4, r4, r3
    5a58:	10a4      	asrs	r4, r4, #2
    5a5a:	2500      	movs	r5, #0
    5a5c:	42a5      	cmp	r5, r4
    5a5e:	d004      	beq.n	5a6a <__libc_init_array+0x3a>
    5a60:	f856 3025 	ldr.w	r3, [r6, r5, lsl #2]
    5a64:	4798      	blx	r3
    5a66:	3501      	adds	r5, #1
    5a68:	e7f8      	b.n	5a5c <__libc_init_array+0x2c>
    5a6a:	bd70      	pop	{r4, r5, r6, pc}
    5a6c:	1000015c 	.word	0x1000015c
    5a70:	1000015c 	.word	0x1000015c
    5a74:	1000015c 	.word	0x1000015c
    5a78:	10000164 	.word	0x10000164

00005a7c <__smakebuf_r>:
    5a7c:	b5f0      	push	{r4, r5, r6, r7, lr}
    5a7e:	898b      	ldrh	r3, [r1, #12]
    5a80:	b091      	sub	sp, #68	; 0x44
    5a82:	079d      	lsls	r5, r3, #30
    5a84:	4606      	mov	r6, r0
    5a86:	460c      	mov	r4, r1
    5a88:	d425      	bmi.n	5ad6 <__smakebuf_r+0x5a>
    5a8a:	f9b1 100e 	ldrsh.w	r1, [r1, #14]
    5a8e:	2900      	cmp	r1, #0
    5a90:	da08      	bge.n	5aa4 <__smakebuf_r+0x28>
    5a92:	89a3      	ldrh	r3, [r4, #12]
    5a94:	2500      	movs	r5, #0
    5a96:	f013 0f80 	tst.w	r3, #128	; 0x80
    5a9a:	bf14      	ite	ne
    5a9c:	2740      	movne	r7, #64	; 0x40
    5a9e:	f44f 6780 	moveq.w	r7, #1024	; 0x400
    5aa2:	e00d      	b.n	5ac0 <__smakebuf_r+0x44>
    5aa4:	aa01      	add	r2, sp, #4
    5aa6:	f001 f97d 	bl	6da4 <_fstat_r>
    5aaa:	2800      	cmp	r0, #0
    5aac:	dbf1      	blt.n	5a92 <__smakebuf_r+0x16>
    5aae:	9d02      	ldr	r5, [sp, #8]
    5ab0:	f44f 6780 	mov.w	r7, #1024	; 0x400
    5ab4:	f405 4570 	and.w	r5, r5, #61440	; 0xf000
    5ab8:	f5a5 5100 	sub.w	r1, r5, #8192	; 0x2000
    5abc:	424d      	negs	r5, r1
    5abe:	414d      	adcs	r5, r1
    5ac0:	4630      	mov	r0, r6
    5ac2:	4639      	mov	r1, r7
    5ac4:	f000 f8b6 	bl	5c34 <_malloc_r>
    5ac8:	b960      	cbnz	r0, 5ae4 <__smakebuf_r+0x68>
    5aca:	89a3      	ldrh	r3, [r4, #12]
    5acc:	059a      	lsls	r2, r3, #22
    5ace:	d41d      	bmi.n	5b0c <__smakebuf_r+0x90>
    5ad0:	f043 0302 	orr.w	r3, r3, #2
    5ad4:	81a3      	strh	r3, [r4, #12]
    5ad6:	f104 0347 	add.w	r3, r4, #71	; 0x47
    5ada:	6023      	str	r3, [r4, #0]
    5adc:	6123      	str	r3, [r4, #16]
    5ade:	2301      	movs	r3, #1
    5ae0:	6163      	str	r3, [r4, #20]
    5ae2:	e013      	b.n	5b0c <__smakebuf_r+0x90>
    5ae4:	4b0a      	ldr	r3, [pc, #40]	; (5b10 <__smakebuf_r+0x94>)
    5ae6:	62b3      	str	r3, [r6, #40]	; 0x28
    5ae8:	89a3      	ldrh	r3, [r4, #12]
    5aea:	6020      	str	r0, [r4, #0]
    5aec:	f043 0380 	orr.w	r3, r3, #128	; 0x80
    5af0:	81a3      	strh	r3, [r4, #12]
    5af2:	6120      	str	r0, [r4, #16]
    5af4:	6167      	str	r7, [r4, #20]
    5af6:	b14d      	cbz	r5, 5b0c <__smakebuf_r+0x90>
    5af8:	4630      	mov	r0, r6
    5afa:	f9b4 100e 	ldrsh.w	r1, [r4, #14]
    5afe:	f001 f963 	bl	6dc8 <_isatty_r>
    5b02:	b118      	cbz	r0, 5b0c <__smakebuf_r+0x90>
    5b04:	89a3      	ldrh	r3, [r4, #12]
    5b06:	f043 0301 	orr.w	r3, r3, #1
    5b0a:	81a3      	strh	r3, [r4, #12]
    5b0c:	b011      	add	sp, #68	; 0x44
    5b0e:	bdf0      	pop	{r4, r5, r6, r7, pc}
    5b10:	00005691 	.word	0x00005691

00005b14 <malloc>:
    5b14:	4b02      	ldr	r3, [pc, #8]	; (5b20 <malloc+0xc>)
    5b16:	4601      	mov	r1, r0
    5b18:	6818      	ldr	r0, [r3, #0]
    5b1a:	f000 b88b 	b.w	5c34 <_malloc_r>
    5b1e:	bf00      	nop
    5b20:	10000154 	.word	0x10000154

00005b24 <free>:
    5b24:	4b02      	ldr	r3, [pc, #8]	; (5b30 <free+0xc>)
    5b26:	4601      	mov	r1, r0
    5b28:	6818      	ldr	r0, [r3, #0]
    5b2a:	f000 b83f 	b.w	5bac <_free_r>
    5b2e:	bf00      	nop
    5b30:	10000154 	.word	0x10000154

00005b34 <memchr>:
    5b34:	b510      	push	{r4, lr}
    5b36:	b2c9      	uxtb	r1, r1
    5b38:	4402      	add	r2, r0
    5b3a:	4290      	cmp	r0, r2
    5b3c:	4603      	mov	r3, r0
    5b3e:	d005      	beq.n	5b4c <memchr+0x18>
    5b40:	781c      	ldrb	r4, [r3, #0]
    5b42:	3001      	adds	r0, #1
    5b44:	428c      	cmp	r4, r1
    5b46:	d1f8      	bne.n	5b3a <memchr+0x6>
    5b48:	4618      	mov	r0, r3
    5b4a:	bd10      	pop	{r4, pc}
    5b4c:	2000      	movs	r0, #0
    5b4e:	bd10      	pop	{r4, pc}

00005b50 <memcpy>:
    5b50:	b510      	push	{r4, lr}
    5b52:	1e43      	subs	r3, r0, #1
    5b54:	440a      	add	r2, r1
    5b56:	4291      	cmp	r1, r2
    5b58:	d004      	beq.n	5b64 <memcpy+0x14>
    5b5a:	f811 4b01 	ldrb.w	r4, [r1], #1
    5b5e:	f803 4f01 	strb.w	r4, [r3, #1]!
    5b62:	e7f8      	b.n	5b56 <memcpy+0x6>
    5b64:	bd10      	pop	{r4, pc}

00005b66 <memmove>:
    5b66:	4281      	cmp	r1, r0
    5b68:	b510      	push	{r4, lr}
    5b6a:	eb01 0302 	add.w	r3, r1, r2
    5b6e:	d301      	bcc.n	5b74 <memmove+0xe>
    5b70:	1e42      	subs	r2, r0, #1
    5b72:	e00b      	b.n	5b8c <memmove+0x26>
    5b74:	4298      	cmp	r0, r3
    5b76:	d2fb      	bcs.n	5b70 <memmove+0xa>
    5b78:	1881      	adds	r1, r0, r2
    5b7a:	1ad2      	subs	r2, r2, r3
    5b7c:	42d3      	cmn	r3, r2
    5b7e:	d004      	beq.n	5b8a <memmove+0x24>
    5b80:	f813 4d01 	ldrb.w	r4, [r3, #-1]!
    5b84:	f801 4d01 	strb.w	r4, [r1, #-1]!
    5b88:	e7f8      	b.n	5b7c <memmove+0x16>
    5b8a:	bd10      	pop	{r4, pc}
    5b8c:	4299      	cmp	r1, r3
    5b8e:	d004      	beq.n	5b9a <memmove+0x34>
    5b90:	f811 4b01 	ldrb.w	r4, [r1], #1
    5b94:	f802 4f01 	strb.w	r4, [r2, #1]!
    5b98:	e7f8      	b.n	5b8c <memmove+0x26>
    5b9a:	bd10      	pop	{r4, pc}

00005b9c <memset>:
    5b9c:	4603      	mov	r3, r0
    5b9e:	4402      	add	r2, r0
    5ba0:	4293      	cmp	r3, r2
    5ba2:	d002      	beq.n	5baa <memset+0xe>
    5ba4:	f803 1b01 	strb.w	r1, [r3], #1
    5ba8:	e7fa      	b.n	5ba0 <memset+0x4>
    5baa:	4770      	bx	lr

00005bac <_free_r>:
    5bac:	b530      	push	{r4, r5, lr}
    5bae:	2900      	cmp	r1, #0
    5bb0:	d03c      	beq.n	5c2c <_free_r+0x80>
    5bb2:	f851 2c04 	ldr.w	r2, [r1, #-4]
    5bb6:	1f0b      	subs	r3, r1, #4
    5bb8:	491d      	ldr	r1, [pc, #116]	; (5c30 <_free_r+0x84>)
    5bba:	2a00      	cmp	r2, #0
    5bbc:	bfb8      	it	lt
    5bbe:	189b      	addlt	r3, r3, r2
    5bc0:	680a      	ldr	r2, [r1, #0]
    5bc2:	460c      	mov	r4, r1
    5bc4:	b912      	cbnz	r2, 5bcc <_free_r+0x20>
    5bc6:	605a      	str	r2, [r3, #4]
    5bc8:	600b      	str	r3, [r1, #0]
    5bca:	bd30      	pop	{r4, r5, pc}
    5bcc:	4293      	cmp	r3, r2
    5bce:	d20d      	bcs.n	5bec <_free_r+0x40>
    5bd0:	6819      	ldr	r1, [r3, #0]
    5bd2:	1858      	adds	r0, r3, r1
    5bd4:	4290      	cmp	r0, r2
    5bd6:	bf01      	itttt	eq
    5bd8:	585a      	ldreq	r2, [r3, r1]
    5bda:	1852      	addeq	r2, r2, r1
    5bdc:	601a      	streq	r2, [r3, #0]
    5bde:	6842      	ldreq	r2, [r0, #4]
    5be0:	6023      	str	r3, [r4, #0]
    5be2:	605a      	str	r2, [r3, #4]
    5be4:	bd30      	pop	{r4, r5, pc}
    5be6:	4299      	cmp	r1, r3
    5be8:	d803      	bhi.n	5bf2 <_free_r+0x46>
    5bea:	460a      	mov	r2, r1
    5bec:	6851      	ldr	r1, [r2, #4]
    5bee:	2900      	cmp	r1, #0
    5bf0:	d1f9      	bne.n	5be6 <_free_r+0x3a>
    5bf2:	6814      	ldr	r4, [r2, #0]
    5bf4:	1915      	adds	r5, r2, r4
    5bf6:	429d      	cmp	r5, r3
    5bf8:	d10a      	bne.n	5c10 <_free_r+0x64>
    5bfa:	681b      	ldr	r3, [r3, #0]
    5bfc:	4423      	add	r3, r4
    5bfe:	18d0      	adds	r0, r2, r3
    5c00:	4288      	cmp	r0, r1
    5c02:	6013      	str	r3, [r2, #0]
    5c04:	d112      	bne.n	5c2c <_free_r+0x80>
    5c06:	6808      	ldr	r0, [r1, #0]
    5c08:	4403      	add	r3, r0
    5c0a:	6013      	str	r3, [r2, #0]
    5c0c:	684b      	ldr	r3, [r1, #4]
    5c0e:	e00c      	b.n	5c2a <_free_r+0x7e>
    5c10:	d902      	bls.n	5c18 <_free_r+0x6c>
    5c12:	230c      	movs	r3, #12
    5c14:	6003      	str	r3, [r0, #0]
    5c16:	bd30      	pop	{r4, r5, pc}
    5c18:	681c      	ldr	r4, [r3, #0]
    5c1a:	1918      	adds	r0, r3, r4
    5c1c:	4288      	cmp	r0, r1
    5c1e:	bf01      	itttt	eq
    5c20:	6808      	ldreq	r0, [r1, #0]
    5c22:	6849      	ldreq	r1, [r1, #4]
    5c24:	1900      	addeq	r0, r0, r4
    5c26:	6018      	streq	r0, [r3, #0]
    5c28:	6059      	str	r1, [r3, #4]
    5c2a:	6053      	str	r3, [r2, #4]
    5c2c:	bd30      	pop	{r4, r5, pc}
    5c2e:	bf00      	nop
    5c30:	10000da4 	.word	0x10000da4

00005c34 <_malloc_r>:
    5c34:	b570      	push	{r4, r5, r6, lr}
    5c36:	1ccc      	adds	r4, r1, #3
    5c38:	f024 0403 	bic.w	r4, r4, #3
    5c3c:	3408      	adds	r4, #8
    5c3e:	2c0c      	cmp	r4, #12
    5c40:	bf38      	it	cc
    5c42:	240c      	movcc	r4, #12
    5c44:	2c00      	cmp	r4, #0
    5c46:	4606      	mov	r6, r0
    5c48:	da03      	bge.n	5c52 <_malloc_r+0x1e>
    5c4a:	230c      	movs	r3, #12
    5c4c:	6033      	str	r3, [r6, #0]
    5c4e:	2000      	movs	r0, #0
    5c50:	bd70      	pop	{r4, r5, r6, pc}
    5c52:	428c      	cmp	r4, r1
    5c54:	d3f9      	bcc.n	5c4a <_malloc_r+0x16>
    5c56:	4a20      	ldr	r2, [pc, #128]	; (5cd8 <_malloc_r+0xa4>)
    5c58:	6813      	ldr	r3, [r2, #0]
    5c5a:	4610      	mov	r0, r2
    5c5c:	4619      	mov	r1, r3
    5c5e:	b1a1      	cbz	r1, 5c8a <_malloc_r+0x56>
    5c60:	680a      	ldr	r2, [r1, #0]
    5c62:	1b12      	subs	r2, r2, r4
    5c64:	d40e      	bmi.n	5c84 <_malloc_r+0x50>
    5c66:	2a0b      	cmp	r2, #11
    5c68:	d903      	bls.n	5c72 <_malloc_r+0x3e>
    5c6a:	600a      	str	r2, [r1, #0]
    5c6c:	188b      	adds	r3, r1, r2
    5c6e:	508c      	str	r4, [r1, r2]
    5c70:	e01f      	b.n	5cb2 <_malloc_r+0x7e>
    5c72:	428b      	cmp	r3, r1
    5c74:	bf0b      	itete	eq
    5c76:	685a      	ldreq	r2, [r3, #4]
    5c78:	684a      	ldrne	r2, [r1, #4]
    5c7a:	6002      	streq	r2, [r0, #0]
    5c7c:	605a      	strne	r2, [r3, #4]
    5c7e:	bf18      	it	ne
    5c80:	460b      	movne	r3, r1
    5c82:	e016      	b.n	5cb2 <_malloc_r+0x7e>
    5c84:	460b      	mov	r3, r1
    5c86:	6849      	ldr	r1, [r1, #4]
    5c88:	e7e9      	b.n	5c5e <_malloc_r+0x2a>
    5c8a:	4d14      	ldr	r5, [pc, #80]	; (5cdc <_malloc_r+0xa8>)
    5c8c:	682b      	ldr	r3, [r5, #0]
    5c8e:	b91b      	cbnz	r3, 5c98 <_malloc_r+0x64>
    5c90:	4630      	mov	r0, r6
    5c92:	f000 fca1 	bl	65d8 <_sbrk_r>
    5c96:	6028      	str	r0, [r5, #0]
    5c98:	4630      	mov	r0, r6
    5c9a:	4621      	mov	r1, r4
    5c9c:	f000 fc9c 	bl	65d8 <_sbrk_r>
    5ca0:	1c42      	adds	r2, r0, #1
    5ca2:	4603      	mov	r3, r0
    5ca4:	d0d1      	beq.n	5c4a <_malloc_r+0x16>
    5ca6:	1cc5      	adds	r5, r0, #3
    5ca8:	f025 0503 	bic.w	r5, r5, #3
    5cac:	4285      	cmp	r5, r0
    5cae:	d10a      	bne.n	5cc6 <_malloc_r+0x92>
    5cb0:	601c      	str	r4, [r3, #0]
    5cb2:	f103 000b 	add.w	r0, r3, #11
    5cb6:	1d1a      	adds	r2, r3, #4
    5cb8:	f020 0007 	bic.w	r0, r0, #7
    5cbc:	1a82      	subs	r2, r0, r2
    5cbe:	d00a      	beq.n	5cd6 <_malloc_r+0xa2>
    5cc0:	4251      	negs	r1, r2
    5cc2:	5099      	str	r1, [r3, r2]
    5cc4:	bd70      	pop	{r4, r5, r6, pc}
    5cc6:	4630      	mov	r0, r6
    5cc8:	1ae9      	subs	r1, r5, r3
    5cca:	f000 fc85 	bl	65d8 <_sbrk_r>
    5cce:	3001      	adds	r0, #1
    5cd0:	d0bb      	beq.n	5c4a <_malloc_r+0x16>
    5cd2:	462b      	mov	r3, r5
    5cd4:	e7ec      	b.n	5cb0 <_malloc_r+0x7c>
    5cd6:	bd70      	pop	{r4, r5, r6, pc}
    5cd8:	10000da4 	.word	0x10000da4
    5cdc:	10000da0 	.word	0x10000da0

00005ce0 <__sfputc_r>:
    5ce0:	6893      	ldr	r3, [r2, #8]
    5ce2:	b510      	push	{r4, lr}
    5ce4:	3b01      	subs	r3, #1
    5ce6:	2b00      	cmp	r3, #0
    5ce8:	6093      	str	r3, [r2, #8]
    5cea:	da09      	bge.n	5d00 <__sfputc_r+0x20>
    5cec:	6994      	ldr	r4, [r2, #24]
    5cee:	42a3      	cmp	r3, r4
    5cf0:	db02      	blt.n	5cf8 <__sfputc_r+0x18>
    5cf2:	b2cb      	uxtb	r3, r1
    5cf4:	2b0a      	cmp	r3, #10
    5cf6:	d103      	bne.n	5d00 <__sfputc_r+0x20>
    5cf8:	e8bd 4010 	ldmia.w	sp!, {r4, lr}
    5cfc:	f000 bf38 	b.w	6b70 <__swbuf_r>
    5d00:	6813      	ldr	r3, [r2, #0]
    5d02:	1c58      	adds	r0, r3, #1
    5d04:	6010      	str	r0, [r2, #0]
    5d06:	7019      	strb	r1, [r3, #0]
    5d08:	b2c8      	uxtb	r0, r1
    5d0a:	bd10      	pop	{r4, pc}

00005d0c <__sfputs_r>:
    5d0c:	b5f8      	push	{r3, r4, r5, r6, r7, lr}
    5d0e:	4606      	mov	r6, r0
    5d10:	460f      	mov	r7, r1
    5d12:	4614      	mov	r4, r2
    5d14:	18d5      	adds	r5, r2, r3
    5d16:	42ac      	cmp	r4, r5
    5d18:	d008      	beq.n	5d2c <__sfputs_r+0x20>
    5d1a:	4630      	mov	r0, r6
    5d1c:	f814 1b01 	ldrb.w	r1, [r4], #1
    5d20:	463a      	mov	r2, r7
    5d22:	f7ff ffdd 	bl	5ce0 <__sfputc_r>
    5d26:	1c43      	adds	r3, r0, #1
    5d28:	d1f5      	bne.n	5d16 <__sfputs_r+0xa>
    5d2a:	e000      	b.n	5d2e <__sfputs_r+0x22>
    5d2c:	2000      	movs	r0, #0
    5d2e:	bdf8      	pop	{r3, r4, r5, r6, r7, pc}

00005d30 <_vfiprintf_r>:
    5d30:	e92d 43f0 	stmdb	sp!, {r4, r5, r6, r7, r8, r9, lr}
    5d34:	b09d      	sub	sp, #116	; 0x74
    5d36:	460d      	mov	r5, r1
    5d38:	4690      	mov	r8, r2
    5d3a:	9303      	str	r3, [sp, #12]
    5d3c:	4606      	mov	r6, r0
    5d3e:	b118      	cbz	r0, 5d48 <_vfiprintf_r+0x18>
    5d40:	6983      	ldr	r3, [r0, #24]
    5d42:	b90b      	cbnz	r3, 5d48 <_vfiprintf_r+0x18>
    5d44:	f7ff fce4 	bl	5710 <__sinit>
    5d48:	4b75      	ldr	r3, [pc, #468]	; (5f20 <_vfiprintf_r+0x1f0>)
    5d4a:	429d      	cmp	r5, r3
    5d4c:	d101      	bne.n	5d52 <_vfiprintf_r+0x22>
    5d4e:	6875      	ldr	r5, [r6, #4]
    5d50:	e008      	b.n	5d64 <_vfiprintf_r+0x34>
    5d52:	4b74      	ldr	r3, [pc, #464]	; (5f24 <_vfiprintf_r+0x1f4>)
    5d54:	429d      	cmp	r5, r3
    5d56:	d101      	bne.n	5d5c <_vfiprintf_r+0x2c>
    5d58:	68b5      	ldr	r5, [r6, #8]
    5d5a:	e003      	b.n	5d64 <_vfiprintf_r+0x34>
    5d5c:	4b72      	ldr	r3, [pc, #456]	; (5f28 <_vfiprintf_r+0x1f8>)
    5d5e:	429d      	cmp	r5, r3
    5d60:	bf08      	it	eq
    5d62:	68f5      	ldreq	r5, [r6, #12]
    5d64:	89ab      	ldrh	r3, [r5, #12]
    5d66:	071c      	lsls	r4, r3, #28
    5d68:	d50a      	bpl.n	5d80 <_vfiprintf_r+0x50>
    5d6a:	692b      	ldr	r3, [r5, #16]
    5d6c:	b143      	cbz	r3, 5d80 <_vfiprintf_r+0x50>
    5d6e:	2300      	movs	r3, #0
    5d70:	9309      	str	r3, [sp, #36]	; 0x24
    5d72:	2320      	movs	r3, #32
    5d74:	f88d 3029 	strb.w	r3, [sp, #41]	; 0x29
    5d78:	2330      	movs	r3, #48	; 0x30
    5d7a:	f88d 302a 	strb.w	r3, [sp, #42]	; 0x2a
    5d7e:	e041      	b.n	5e04 <_vfiprintf_r+0xd4>
    5d80:	4630      	mov	r0, r6
    5d82:	4629      	mov	r1, r5
    5d84:	f000 ff5a 	bl	6c3c <__swsetup_r>
    5d88:	2800      	cmp	r0, #0
    5d8a:	d0f0      	beq.n	5d6e <_vfiprintf_r+0x3e>
    5d8c:	f04f 30ff 	mov.w	r0, #4294967295
    5d90:	e0c2      	b.n	5f18 <_vfiprintf_r+0x1e8>
    5d92:	9a03      	ldr	r2, [sp, #12]
    5d94:	3401      	adds	r4, #1
    5d96:	1d11      	adds	r1, r2, #4
    5d98:	6812      	ldr	r2, [r2, #0]
    5d9a:	9103      	str	r1, [sp, #12]
    5d9c:	2a00      	cmp	r2, #0
    5d9e:	bfbb      	ittet	lt
    5da0:	4252      	neglt	r2, r2
    5da2:	f043 0302 	orrlt.w	r3, r3, #2
    5da6:	9207      	strge	r2, [sp, #28]
    5da8:	9207      	strlt	r2, [sp, #28]
    5daa:	bfb8      	it	lt
    5dac:	9304      	strlt	r3, [sp, #16]
    5dae:	7823      	ldrb	r3, [r4, #0]
    5db0:	2b2e      	cmp	r3, #46	; 0x2e
    5db2:	d07b      	beq.n	5eac <_vfiprintf_r+0x17c>
    5db4:	f8df 8180 	ldr.w	r8, [pc, #384]	; 5f38 <_vfiprintf_r+0x208>
    5db8:	7821      	ldrb	r1, [r4, #0]
    5dba:	4640      	mov	r0, r8
    5dbc:	2203      	movs	r2, #3
    5dbe:	f7ff feb9 	bl	5b34 <memchr>
    5dc2:	b138      	cbz	r0, 5dd4 <_vfiprintf_r+0xa4>
    5dc4:	9a04      	ldr	r2, [sp, #16]
    5dc6:	ebc8 0000 	rsb	r0, r8, r0
    5dca:	2340      	movs	r3, #64	; 0x40
    5dcc:	4083      	lsls	r3, r0
    5dce:	4313      	orrs	r3, r2
    5dd0:	9304      	str	r3, [sp, #16]
    5dd2:	3401      	adds	r4, #1
    5dd4:	7821      	ldrb	r1, [r4, #0]
    5dd6:	4855      	ldr	r0, [pc, #340]	; (5f2c <_vfiprintf_r+0x1fc>)
    5dd8:	2206      	movs	r2, #6
    5dda:	f104 0801 	add.w	r8, r4, #1
    5dde:	f88d 1028 	strb.w	r1, [sp, #40]	; 0x28
    5de2:	f7ff fea7 	bl	5b34 <memchr>
    5de6:	2800      	cmp	r0, #0
    5de8:	f000 8085 	beq.w	5ef6 <_vfiprintf_r+0x1c6>
    5dec:	4b50      	ldr	r3, [pc, #320]	; (5f30 <_vfiprintf_r+0x200>)
    5dee:	2b00      	cmp	r3, #0
    5df0:	d178      	bne.n	5ee4 <_vfiprintf_r+0x1b4>
    5df2:	9b03      	ldr	r3, [sp, #12]
    5df4:	3307      	adds	r3, #7
    5df6:	f023 0307 	bic.w	r3, r3, #7
    5dfa:	3308      	adds	r3, #8
    5dfc:	9303      	str	r3, [sp, #12]
    5dfe:	9b09      	ldr	r3, [sp, #36]	; 0x24
    5e00:	443b      	add	r3, r7
    5e02:	9309      	str	r3, [sp, #36]	; 0x24
    5e04:	4643      	mov	r3, r8
    5e06:	461c      	mov	r4, r3
    5e08:	f813 2b01 	ldrb.w	r2, [r3], #1
    5e0c:	b91a      	cbnz	r2, 5e16 <_vfiprintf_r+0xe6>
    5e0e:	ebb4 0908 	subs.w	r9, r4, r8
    5e12:	d00e      	beq.n	5e32 <_vfiprintf_r+0x102>
    5e14:	e002      	b.n	5e1c <_vfiprintf_r+0xec>
    5e16:	2a25      	cmp	r2, #37	; 0x25
    5e18:	d1f5      	bne.n	5e06 <_vfiprintf_r+0xd6>
    5e1a:	e7f8      	b.n	5e0e <_vfiprintf_r+0xde>
    5e1c:	4630      	mov	r0, r6
    5e1e:	4629      	mov	r1, r5
    5e20:	4642      	mov	r2, r8
    5e22:	464b      	mov	r3, r9
    5e24:	f7ff ff72 	bl	5d0c <__sfputs_r>
    5e28:	3001      	adds	r0, #1
    5e2a:	d070      	beq.n	5f0e <_vfiprintf_r+0x1de>
    5e2c:	9b09      	ldr	r3, [sp, #36]	; 0x24
    5e2e:	444b      	add	r3, r9
    5e30:	9309      	str	r3, [sp, #36]	; 0x24
    5e32:	7823      	ldrb	r3, [r4, #0]
    5e34:	2b00      	cmp	r3, #0
    5e36:	d06a      	beq.n	5f0e <_vfiprintf_r+0x1de>
    5e38:	2300      	movs	r3, #0
    5e3a:	f04f 32ff 	mov.w	r2, #4294967295
    5e3e:	9304      	str	r3, [sp, #16]
    5e40:	9307      	str	r3, [sp, #28]
    5e42:	9205      	str	r2, [sp, #20]
    5e44:	9306      	str	r3, [sp, #24]
    5e46:	f88d 3053 	strb.w	r3, [sp, #83]	; 0x53
    5e4a:	931a      	str	r3, [sp, #104]	; 0x68
    5e4c:	f104 0801 	add.w	r8, r4, #1
    5e50:	4644      	mov	r4, r8
    5e52:	f8df 90e8 	ldr.w	r9, [pc, #232]	; 5f3c <_vfiprintf_r+0x20c>
    5e56:	7821      	ldrb	r1, [r4, #0]
    5e58:	4648      	mov	r0, r9
    5e5a:	2205      	movs	r2, #5
    5e5c:	f7ff fe6a 	bl	5b34 <memchr>
    5e60:	f108 0801 	add.w	r8, r8, #1
    5e64:	9b04      	ldr	r3, [sp, #16]
    5e66:	b130      	cbz	r0, 5e76 <_vfiprintf_r+0x146>
    5e68:	ebc9 0000 	rsb	r0, r9, r0
    5e6c:	2201      	movs	r2, #1
    5e6e:	4082      	lsls	r2, r0
    5e70:	4313      	orrs	r3, r2
    5e72:	9304      	str	r3, [sp, #16]
    5e74:	e7ec      	b.n	5e50 <_vfiprintf_r+0x120>
    5e76:	06d8      	lsls	r0, r3, #27
    5e78:	bf44      	itt	mi
    5e7a:	2220      	movmi	r2, #32
    5e7c:	f88d 2053 	strbmi.w	r2, [sp, #83]	; 0x53
    5e80:	0719      	lsls	r1, r3, #28
    5e82:	bf44      	itt	mi
    5e84:	222b      	movmi	r2, #43	; 0x2b
    5e86:	f88d 2053 	strbmi.w	r2, [sp, #83]	; 0x53
    5e8a:	7822      	ldrb	r2, [r4, #0]
    5e8c:	2a2a      	cmp	r2, #42	; 0x2a
    5e8e:	d080      	beq.n	5d92 <_vfiprintf_r+0x62>
    5e90:	4623      	mov	r3, r4
    5e92:	9907      	ldr	r1, [sp, #28]
    5e94:	461c      	mov	r4, r3
    5e96:	7822      	ldrb	r2, [r4, #0]
    5e98:	3301      	adds	r3, #1
    5e9a:	3a30      	subs	r2, #48	; 0x30
    5e9c:	2a09      	cmp	r2, #9
    5e9e:	d803      	bhi.n	5ea8 <_vfiprintf_r+0x178>
    5ea0:	200a      	movs	r0, #10
    5ea2:	fb00 2101 	mla	r1, r0, r1, r2
    5ea6:	e7f5      	b.n	5e94 <_vfiprintf_r+0x164>
    5ea8:	9107      	str	r1, [sp, #28]
    5eaa:	e780      	b.n	5dae <_vfiprintf_r+0x7e>
    5eac:	7863      	ldrb	r3, [r4, #1]
    5eae:	2b2a      	cmp	r3, #42	; 0x2a
    5eb0:	d10a      	bne.n	5ec8 <_vfiprintf_r+0x198>
    5eb2:	9b03      	ldr	r3, [sp, #12]
    5eb4:	3402      	adds	r4, #2
    5eb6:	1d1a      	adds	r2, r3, #4
    5eb8:	681b      	ldr	r3, [r3, #0]
    5eba:	9203      	str	r2, [sp, #12]
    5ebc:	2b00      	cmp	r3, #0
    5ebe:	bfb8      	it	lt
    5ec0:	f04f 33ff 	movlt.w	r3, #4294967295
    5ec4:	9305      	str	r3, [sp, #20]
    5ec6:	e775      	b.n	5db4 <_vfiprintf_r+0x84>
    5ec8:	1c61      	adds	r1, r4, #1
    5eca:	2200      	movs	r2, #0
    5ecc:	460c      	mov	r4, r1
    5ece:	7823      	ldrb	r3, [r4, #0]
    5ed0:	3101      	adds	r1, #1
    5ed2:	3b30      	subs	r3, #48	; 0x30
    5ed4:	2b09      	cmp	r3, #9
    5ed6:	d803      	bhi.n	5ee0 <_vfiprintf_r+0x1b0>
    5ed8:	200a      	movs	r0, #10
    5eda:	fb00 3202 	mla	r2, r0, r2, r3
    5ede:	e7f5      	b.n	5ecc <_vfiprintf_r+0x19c>
    5ee0:	9205      	str	r2, [sp, #20]
    5ee2:	e767      	b.n	5db4 <_vfiprintf_r+0x84>
    5ee4:	ab03      	add	r3, sp, #12
    5ee6:	9300      	str	r3, [sp, #0]
    5ee8:	4630      	mov	r0, r6
    5eea:	a904      	add	r1, sp, #16
    5eec:	462a      	mov	r2, r5
    5eee:	4b11      	ldr	r3, [pc, #68]	; (5f34 <_vfiprintf_r+0x204>)
    5ef0:	f3af 8000 	nop.w
    5ef4:	e007      	b.n	5f06 <_vfiprintf_r+0x1d6>
    5ef6:	ab03      	add	r3, sp, #12
    5ef8:	9300      	str	r3, [sp, #0]
    5efa:	4630      	mov	r0, r6
    5efc:	a904      	add	r1, sp, #16
    5efe:	462a      	mov	r2, r5
    5f00:	4b0c      	ldr	r3, [pc, #48]	; (5f34 <_vfiprintf_r+0x204>)
    5f02:	f000 f8a1 	bl	6048 <_printf_i>
    5f06:	1c42      	adds	r2, r0, #1
    5f08:	4607      	mov	r7, r0
    5f0a:	f47f af78 	bne.w	5dfe <_vfiprintf_r+0xce>
    5f0e:	89ab      	ldrh	r3, [r5, #12]
    5f10:	065b      	lsls	r3, r3, #25
    5f12:	f53f af3b 	bmi.w	5d8c <_vfiprintf_r+0x5c>
    5f16:	9809      	ldr	r0, [sp, #36]	; 0x24
    5f18:	b01d      	add	sp, #116	; 0x74
    5f1a:	e8bd 83f0 	ldmia.w	sp!, {r4, r5, r6, r7, r8, r9, pc}
    5f1e:	bf00      	nop
    5f20:	00007c20 	.word	0x00007c20
    5f24:	00007c40 	.word	0x00007c40
    5f28:	00007c60 	.word	0x00007c60
    5f2c:	00007c92 	.word	0x00007c92
    5f30:	00000000 	.word	0x00000000
    5f34:	00005d0d 	.word	0x00005d0d
    5f38:	00007c8e 	.word	0x00007c8e
    5f3c:	00007c88 	.word	0x00007c88

00005f40 <vfiprintf>:
    5f40:	b530      	push	{r4, r5, lr}
    5f42:	4605      	mov	r5, r0
    5f44:	460c      	mov	r4, r1
    5f46:	4613      	mov	r3, r2
    5f48:	4a03      	ldr	r2, [pc, #12]	; (5f58 <vfiprintf+0x18>)
    5f4a:	4629      	mov	r1, r5
    5f4c:	6810      	ldr	r0, [r2, #0]
    5f4e:	4622      	mov	r2, r4
    5f50:	e8bd 4030 	ldmia.w	sp!, {r4, r5, lr}
    5f54:	f7ff beec 	b.w	5d30 <_vfiprintf_r>
    5f58:	10000154 	.word	0x10000154

00005f5c <_printf_common>:
    5f5c:	e92d 43f8 	stmdb	sp!, {r3, r4, r5, r6, r7, r8, r9, lr}
    5f60:	4691      	mov	r9, r2
    5f62:	461f      	mov	r7, r3
    5f64:	688a      	ldr	r2, [r1, #8]
    5f66:	690b      	ldr	r3, [r1, #16]
    5f68:	4606      	mov	r6, r0
    5f6a:	4293      	cmp	r3, r2
    5f6c:	bfb8      	it	lt
    5f6e:	4613      	movlt	r3, r2
    5f70:	f8c9 3000 	str.w	r3, [r9]
    5f74:	f891 2043 	ldrb.w	r2, [r1, #67]	; 0x43
    5f78:	460c      	mov	r4, r1
    5f7a:	f8dd 8020 	ldr.w	r8, [sp, #32]
    5f7e:	b112      	cbz	r2, 5f86 <_printf_common+0x2a>
    5f80:	3301      	adds	r3, #1
    5f82:	f8c9 3000 	str.w	r3, [r9]
    5f86:	6823      	ldr	r3, [r4, #0]
    5f88:	0699      	lsls	r1, r3, #26
    5f8a:	bf42      	ittt	mi
    5f8c:	f8d9 3000 	ldrmi.w	r3, [r9]
    5f90:	3302      	addmi	r3, #2
    5f92:	f8c9 3000 	strmi.w	r3, [r9]
    5f96:	6825      	ldr	r5, [r4, #0]
    5f98:	f015 0506 	ands.w	r5, r5, #6
    5f9c:	d01c      	beq.n	5fd8 <_printf_common+0x7c>
    5f9e:	f894 3043 	ldrb.w	r3, [r4, #67]	; 0x43
    5fa2:	6822      	ldr	r2, [r4, #0]
    5fa4:	3300      	adds	r3, #0
    5fa6:	bf18      	it	ne
    5fa8:	2301      	movne	r3, #1
    5faa:	0692      	lsls	r2, r2, #26
    5fac:	d51f      	bpl.n	5fee <_printf_common+0x92>
    5fae:	18e1      	adds	r1, r4, r3
    5fb0:	2030      	movs	r0, #48	; 0x30
    5fb2:	f881 0043 	strb.w	r0, [r1, #67]	; 0x43
    5fb6:	1c5a      	adds	r2, r3, #1
    5fb8:	f894 1045 	ldrb.w	r1, [r4, #69]	; 0x45
    5fbc:	4422      	add	r2, r4
    5fbe:	3302      	adds	r3, #2
    5fc0:	f882 1043 	strb.w	r1, [r2, #67]	; 0x43
    5fc4:	e013      	b.n	5fee <_printf_common+0x92>
    5fc6:	4630      	mov	r0, r6
    5fc8:	4639      	mov	r1, r7
    5fca:	f104 0219 	add.w	r2, r4, #25
    5fce:	2301      	movs	r3, #1
    5fd0:	47c0      	blx	r8
    5fd2:	3001      	adds	r0, #1
    5fd4:	d007      	beq.n	5fe6 <_printf_common+0x8a>
    5fd6:	3501      	adds	r5, #1
    5fd8:	68e3      	ldr	r3, [r4, #12]
    5fda:	f8d9 2000 	ldr.w	r2, [r9]
    5fde:	1a9b      	subs	r3, r3, r2
    5fe0:	429d      	cmp	r5, r3
    5fe2:	dbf0      	blt.n	5fc6 <_printf_common+0x6a>
    5fe4:	e7db      	b.n	5f9e <_printf_common+0x42>
    5fe6:	f04f 30ff 	mov.w	r0, #4294967295
    5fea:	e8bd 83f8 	ldmia.w	sp!, {r3, r4, r5, r6, r7, r8, r9, pc}
    5fee:	4630      	mov	r0, r6
    5ff0:	4639      	mov	r1, r7
    5ff2:	f104 0243 	add.w	r2, r4, #67	; 0x43
    5ff6:	47c0      	blx	r8
    5ff8:	3001      	adds	r0, #1
    5ffa:	d0f4      	beq.n	5fe6 <_printf_common+0x8a>
    5ffc:	6822      	ldr	r2, [r4, #0]
    5ffe:	f8d9 5000 	ldr.w	r5, [r9]
    6002:	68e3      	ldr	r3, [r4, #12]
    6004:	f002 0206 	and.w	r2, r2, #6
    6008:	2a04      	cmp	r2, #4
    600a:	bf08      	it	eq
    600c:	1b5d      	subeq	r5, r3, r5
    600e:	6922      	ldr	r2, [r4, #16]
    6010:	68a3      	ldr	r3, [r4, #8]
    6012:	bf0c      	ite	eq
    6014:	ea25 75e5 	biceq.w	r5, r5, r5, asr #31
    6018:	2500      	movne	r5, #0
    601a:	4293      	cmp	r3, r2
    601c:	bfc4      	itt	gt
    601e:	1a9b      	subgt	r3, r3, r2
    6020:	18ed      	addgt	r5, r5, r3
    6022:	f04f 0900 	mov.w	r9, #0
    6026:	45a9      	cmp	r9, r5
    6028:	da0a      	bge.n	6040 <_printf_common+0xe4>
    602a:	4630      	mov	r0, r6
    602c:	4639      	mov	r1, r7
    602e:	f104 021a 	add.w	r2, r4, #26
    6032:	2301      	movs	r3, #1
    6034:	47c0      	blx	r8
    6036:	3001      	adds	r0, #1
    6038:	d0d5      	beq.n	5fe6 <_printf_common+0x8a>
    603a:	f109 0901 	add.w	r9, r9, #1
    603e:	e7f2      	b.n	6026 <_printf_common+0xca>
    6040:	2000      	movs	r0, #0
    6042:	e8bd 83f8 	ldmia.w	sp!, {r3, r4, r5, r6, r7, r8, r9, pc}
	...

00006048 <_printf_i>:
    6048:	e92d 41ff 	stmdb	sp!, {r0, r1, r2, r3, r4, r5, r6, r7, r8, lr}
    604c:	460c      	mov	r4, r1
    604e:	4617      	mov	r7, r2
    6050:	7e22      	ldrb	r2, [r4, #24]
    6052:	4698      	mov	r8, r3
    6054:	2a6e      	cmp	r2, #110	; 0x6e
    6056:	4606      	mov	r6, r0
    6058:	9b0a      	ldr	r3, [sp, #40]	; 0x28
    605a:	f101 0143 	add.w	r1, r1, #67	; 0x43
    605e:	f000 80b0 	beq.w	61c2 <_printf_i+0x17a>
    6062:	d812      	bhi.n	608a <_printf_i+0x42>
    6064:	2a63      	cmp	r2, #99	; 0x63
    6066:	d023      	beq.n	60b0 <_printf_i+0x68>
    6068:	d80a      	bhi.n	6080 <_printf_i+0x38>
    606a:	2a00      	cmp	r2, #0
    606c:	f000 80bd 	beq.w	61ea <_printf_i+0x1a2>
    6070:	2a58      	cmp	r2, #88	; 0x58
    6072:	f040 80cc 	bne.w	620e <_printf_i+0x1c6>
    6076:	f884 2045 	strb.w	r2, [r4, #69]	; 0x45
    607a:	f8df e204 	ldr.w	lr, [pc, #516]	; 6280 <_printf_i+0x238>
    607e:	e057      	b.n	6130 <_printf_i+0xe8>
    6080:	2a64      	cmp	r2, #100	; 0x64
    6082:	d01e      	beq.n	60c2 <_printf_i+0x7a>
    6084:	2a69      	cmp	r2, #105	; 0x69
    6086:	d01c      	beq.n	60c2 <_printf_i+0x7a>
    6088:	e0c1      	b.n	620e <_printf_i+0x1c6>
    608a:	2a73      	cmp	r2, #115	; 0x73
    608c:	f000 80b1 	beq.w	61f2 <_printf_i+0x1aa>
    6090:	d809      	bhi.n	60a6 <_printf_i+0x5e>
    6092:	2a6f      	cmp	r2, #111	; 0x6f
    6094:	d02e      	beq.n	60f4 <_printf_i+0xac>
    6096:	2a70      	cmp	r2, #112	; 0x70
    6098:	f040 80b9 	bne.w	620e <_printf_i+0x1c6>
    609c:	6822      	ldr	r2, [r4, #0]
    609e:	f042 0220 	orr.w	r2, r2, #32
    60a2:	6022      	str	r2, [r4, #0]
    60a4:	e03f      	b.n	6126 <_printf_i+0xde>
    60a6:	2a75      	cmp	r2, #117	; 0x75
    60a8:	d024      	beq.n	60f4 <_printf_i+0xac>
    60aa:	2a78      	cmp	r2, #120	; 0x78
    60ac:	d03b      	beq.n	6126 <_printf_i+0xde>
    60ae:	e0ae      	b.n	620e <_printf_i+0x1c6>
    60b0:	681a      	ldr	r2, [r3, #0]
    60b2:	f104 0542 	add.w	r5, r4, #66	; 0x42
    60b6:	1d11      	adds	r1, r2, #4
    60b8:	6019      	str	r1, [r3, #0]
    60ba:	6813      	ldr	r3, [r2, #0]
    60bc:	f884 3042 	strb.w	r3, [r4, #66]	; 0x42
    60c0:	e0a9      	b.n	6216 <_printf_i+0x1ce>
    60c2:	6820      	ldr	r0, [r4, #0]
    60c4:	681a      	ldr	r2, [r3, #0]
    60c6:	f010 0f80 	tst.w	r0, #128	; 0x80
    60ca:	d002      	beq.n	60d2 <_printf_i+0x8a>
    60cc:	1d10      	adds	r0, r2, #4
    60ce:	6018      	str	r0, [r3, #0]
    60d0:	e008      	b.n	60e4 <_printf_i+0x9c>
    60d2:	f010 0f40 	tst.w	r0, #64	; 0x40
    60d6:	f102 0004 	add.w	r0, r2, #4
    60da:	6018      	str	r0, [r3, #0]
    60dc:	d002      	beq.n	60e4 <_printf_i+0x9c>
    60de:	f9b2 3000 	ldrsh.w	r3, [r2]
    60e2:	e000      	b.n	60e6 <_printf_i+0x9e>
    60e4:	6813      	ldr	r3, [r2, #0]
    60e6:	2b00      	cmp	r3, #0
    60e8:	da3e      	bge.n	6168 <_printf_i+0x120>
    60ea:	222d      	movs	r2, #45	; 0x2d
    60ec:	425b      	negs	r3, r3
    60ee:	f884 2043 	strb.w	r2, [r4, #67]	; 0x43
    60f2:	e039      	b.n	6168 <_printf_i+0x120>
    60f4:	6820      	ldr	r0, [r4, #0]
    60f6:	681a      	ldr	r2, [r3, #0]
    60f8:	f010 0f80 	tst.w	r0, #128	; 0x80
    60fc:	d002      	beq.n	6104 <_printf_i+0xbc>
    60fe:	1d10      	adds	r0, r2, #4
    6100:	6018      	str	r0, [r3, #0]
    6102:	e007      	b.n	6114 <_printf_i+0xcc>
    6104:	f010 0f40 	tst.w	r0, #64	; 0x40
    6108:	f102 0004 	add.w	r0, r2, #4
    610c:	6018      	str	r0, [r3, #0]
    610e:	d001      	beq.n	6114 <_printf_i+0xcc>
    6110:	8813      	ldrh	r3, [r2, #0]
    6112:	e000      	b.n	6116 <_printf_i+0xce>
    6114:	6813      	ldr	r3, [r2, #0]
    6116:	7e22      	ldrb	r2, [r4, #24]
    6118:	f8df e164 	ldr.w	lr, [pc, #356]	; 6280 <_printf_i+0x238>
    611c:	2a6f      	cmp	r2, #111	; 0x6f
    611e:	bf0c      	ite	eq
    6120:	2208      	moveq	r2, #8
    6122:	220a      	movne	r2, #10
    6124:	e01c      	b.n	6160 <_printf_i+0x118>
    6126:	2278      	movs	r2, #120	; 0x78
    6128:	f8df e158 	ldr.w	lr, [pc, #344]	; 6284 <_printf_i+0x23c>
    612c:	f884 2045 	strb.w	r2, [r4, #69]	; 0x45
    6130:	6822      	ldr	r2, [r4, #0]
    6132:	6818      	ldr	r0, [r3, #0]
    6134:	f012 0f80 	tst.w	r2, #128	; 0x80
    6138:	f100 0504 	add.w	r5, r0, #4
    613c:	601d      	str	r5, [r3, #0]
    613e:	d103      	bne.n	6148 <_printf_i+0x100>
    6140:	0655      	lsls	r5, r2, #25
    6142:	d501      	bpl.n	6148 <_printf_i+0x100>
    6144:	8803      	ldrh	r3, [r0, #0]
    6146:	e000      	b.n	614a <_printf_i+0x102>
    6148:	6803      	ldr	r3, [r0, #0]
    614a:	07d0      	lsls	r0, r2, #31
    614c:	bf44      	itt	mi
    614e:	f042 0220 	orrmi.w	r2, r2, #32
    6152:	6022      	strmi	r2, [r4, #0]
    6154:	b91b      	cbnz	r3, 615e <_printf_i+0x116>
    6156:	6822      	ldr	r2, [r4, #0]
    6158:	f022 0220 	bic.w	r2, r2, #32
    615c:	6022      	str	r2, [r4, #0]
    615e:	2210      	movs	r2, #16
    6160:	2000      	movs	r0, #0
    6162:	f884 0043 	strb.w	r0, [r4, #67]	; 0x43
    6166:	e002      	b.n	616e <_printf_i+0x126>
    6168:	f8df e114 	ldr.w	lr, [pc, #276]	; 6280 <_printf_i+0x238>
    616c:	220a      	movs	r2, #10
    616e:	6865      	ldr	r5, [r4, #4]
    6170:	2d00      	cmp	r5, #0
    6172:	bfa8      	it	ge
    6174:	6820      	ldrge	r0, [r4, #0]
    6176:	60a5      	str	r5, [r4, #8]
    6178:	bfa4      	itt	ge
    617a:	f020 0004 	bicge.w	r0, r0, #4
    617e:	6020      	strge	r0, [r4, #0]
    6180:	b903      	cbnz	r3, 6184 <_printf_i+0x13c>
    6182:	b165      	cbz	r5, 619e <_printf_i+0x156>
    6184:	460d      	mov	r5, r1
    6186:	fbb3 f0f2 	udiv	r0, r3, r2
    618a:	fb02 3310 	mls	r3, r2, r0, r3
    618e:	f81e 3003 	ldrb.w	r3, [lr, r3]
    6192:	f805 3d01 	strb.w	r3, [r5, #-1]!
    6196:	4603      	mov	r3, r0
    6198:	2800      	cmp	r0, #0
    619a:	d1f4      	bne.n	6186 <_printf_i+0x13e>
    619c:	e000      	b.n	61a0 <_printf_i+0x158>
    619e:	460d      	mov	r5, r1
    61a0:	2a08      	cmp	r2, #8
    61a2:	d10b      	bne.n	61bc <_printf_i+0x174>
    61a4:	6823      	ldr	r3, [r4, #0]
    61a6:	07da      	lsls	r2, r3, #31
    61a8:	d508      	bpl.n	61bc <_printf_i+0x174>
    61aa:	6923      	ldr	r3, [r4, #16]
    61ac:	6862      	ldr	r2, [r4, #4]
    61ae:	429a      	cmp	r2, r3
    61b0:	bfde      	ittt	le
    61b2:	2330      	movle	r3, #48	; 0x30
    61b4:	f805 3c01 	strble.w	r3, [r5, #-1]
    61b8:	f105 35ff 	addle.w	r5, r5, #4294967295
    61bc:	1b49      	subs	r1, r1, r5
    61be:	6121      	str	r1, [r4, #16]
    61c0:	e02e      	b.n	6220 <_printf_i+0x1d8>
    61c2:	6825      	ldr	r5, [r4, #0]
    61c4:	681a      	ldr	r2, [r3, #0]
    61c6:	f015 0f80 	tst.w	r5, #128	; 0x80
    61ca:	6960      	ldr	r0, [r4, #20]
    61cc:	d003      	beq.n	61d6 <_printf_i+0x18e>
    61ce:	1d15      	adds	r5, r2, #4
    61d0:	601d      	str	r5, [r3, #0]
    61d2:	6813      	ldr	r3, [r2, #0]
    61d4:	e008      	b.n	61e8 <_printf_i+0x1a0>
    61d6:	f015 0f40 	tst.w	r5, #64	; 0x40
    61da:	f102 0504 	add.w	r5, r2, #4
    61de:	601d      	str	r5, [r3, #0]
    61e0:	6813      	ldr	r3, [r2, #0]
    61e2:	d001      	beq.n	61e8 <_printf_i+0x1a0>
    61e4:	8018      	strh	r0, [r3, #0]
    61e6:	e000      	b.n	61ea <_printf_i+0x1a2>
    61e8:	6018      	str	r0, [r3, #0]
    61ea:	2300      	movs	r3, #0
    61ec:	6123      	str	r3, [r4, #16]
    61ee:	460d      	mov	r5, r1
    61f0:	e016      	b.n	6220 <_printf_i+0x1d8>
    61f2:	681a      	ldr	r2, [r3, #0]
    61f4:	1d11      	adds	r1, r2, #4
    61f6:	6019      	str	r1, [r3, #0]
    61f8:	6815      	ldr	r5, [r2, #0]
    61fa:	2100      	movs	r1, #0
    61fc:	4628      	mov	r0, r5
    61fe:	6862      	ldr	r2, [r4, #4]
    6200:	f7ff fc98 	bl	5b34 <memchr>
    6204:	b108      	cbz	r0, 620a <_printf_i+0x1c2>
    6206:	1b40      	subs	r0, r0, r5
    6208:	6060      	str	r0, [r4, #4]
    620a:	6863      	ldr	r3, [r4, #4]
    620c:	e004      	b.n	6218 <_printf_i+0x1d0>
    620e:	f104 0542 	add.w	r5, r4, #66	; 0x42
    6212:	f884 2042 	strb.w	r2, [r4, #66]	; 0x42
    6216:	2301      	movs	r3, #1
    6218:	6123      	str	r3, [r4, #16]
    621a:	2300      	movs	r3, #0
    621c:	f884 3043 	strb.w	r3, [r4, #67]	; 0x43
    6220:	f8cd 8000 	str.w	r8, [sp]
    6224:	4630      	mov	r0, r6
    6226:	4621      	mov	r1, r4
    6228:	aa03      	add	r2, sp, #12
    622a:	463b      	mov	r3, r7
    622c:	f7ff fe96 	bl	5f5c <_printf_common>
    6230:	3001      	adds	r0, #1
    6232:	d102      	bne.n	623a <_printf_i+0x1f2>
    6234:	f04f 30ff 	mov.w	r0, #4294967295
    6238:	e01f      	b.n	627a <_printf_i+0x232>
    623a:	4630      	mov	r0, r6
    623c:	4639      	mov	r1, r7
    623e:	462a      	mov	r2, r5
    6240:	6923      	ldr	r3, [r4, #16]
    6242:	47c0      	blx	r8
    6244:	3001      	adds	r0, #1
    6246:	d0f5      	beq.n	6234 <_printf_i+0x1ec>
    6248:	6823      	ldr	r3, [r4, #0]
    624a:	079b      	lsls	r3, r3, #30
    624c:	d405      	bmi.n	625a <_printf_i+0x212>
    624e:	68e0      	ldr	r0, [r4, #12]
    6250:	9b03      	ldr	r3, [sp, #12]
    6252:	4298      	cmp	r0, r3
    6254:	bfb8      	it	lt
    6256:	4618      	movlt	r0, r3
    6258:	e00f      	b.n	627a <_printf_i+0x232>
    625a:	2500      	movs	r5, #0
    625c:	68e3      	ldr	r3, [r4, #12]
    625e:	9a03      	ldr	r2, [sp, #12]
    6260:	1a9b      	subs	r3, r3, r2
    6262:	429d      	cmp	r5, r3
    6264:	daf3      	bge.n	624e <_printf_i+0x206>
    6266:	4630      	mov	r0, r6
    6268:	4639      	mov	r1, r7
    626a:	f104 0219 	add.w	r2, r4, #25
    626e:	2301      	movs	r3, #1
    6270:	47c0      	blx	r8
    6272:	3001      	adds	r0, #1
    6274:	d0de      	beq.n	6234 <_printf_i+0x1ec>
    6276:	3501      	adds	r5, #1
    6278:	e7f0      	b.n	625c <_printf_i+0x214>
    627a:	b004      	add	sp, #16
    627c:	e8bd 81f0 	ldmia.w	sp!, {r4, r5, r6, r7, r8, pc}
    6280:	00007c99 	.word	0x00007c99
    6284:	00007caa 	.word	0x00007caa

00006288 <_scanf_chars>:
    6288:	e92d 41f0 	stmdb	sp!, {r4, r5, r6, r7, r8, lr}
    628c:	4615      	mov	r5, r2
    628e:	688a      	ldr	r2, [r1, #8]
    6290:	4680      	mov	r8, r0
    6292:	460c      	mov	r4, r1
    6294:	b932      	cbnz	r2, 62a4 <_scanf_chars+0x1c>
    6296:	698a      	ldr	r2, [r1, #24]
    6298:	2a00      	cmp	r2, #0
    629a:	bf0c      	ite	eq
    629c:	2201      	moveq	r2, #1
    629e:	f04f 32ff 	movne.w	r2, #4294967295
    62a2:	608a      	str	r2, [r1, #8]
    62a4:	6822      	ldr	r2, [r4, #0]
    62a6:	2600      	movs	r6, #0
    62a8:	06d1      	lsls	r1, r2, #27
    62aa:	bf5f      	itttt	pl
    62ac:	681a      	ldrpl	r2, [r3, #0]
    62ae:	1d11      	addpl	r1, r2, #4
    62b0:	6019      	strpl	r1, [r3, #0]
    62b2:	6817      	ldrpl	r7, [r2, #0]
    62b4:	69a0      	ldr	r0, [r4, #24]
    62b6:	b9f8      	cbnz	r0, 62f8 <_scanf_chars+0x70>
    62b8:	6823      	ldr	r3, [r4, #0]
    62ba:	3601      	adds	r6, #1
    62bc:	06da      	lsls	r2, r3, #27
    62be:	bf5e      	ittt	pl
    62c0:	682b      	ldrpl	r3, [r5, #0]
    62c2:	781b      	ldrbpl	r3, [r3, #0]
    62c4:	703b      	strbpl	r3, [r7, #0]
    62c6:	682a      	ldr	r2, [r5, #0]
    62c8:	686b      	ldr	r3, [r5, #4]
    62ca:	f102 0201 	add.w	r2, r2, #1
    62ce:	602a      	str	r2, [r5, #0]
    62d0:	68a2      	ldr	r2, [r4, #8]
    62d2:	f103 33ff 	add.w	r3, r3, #4294967295
    62d6:	f102 32ff 	add.w	r2, r2, #4294967295
    62da:	606b      	str	r3, [r5, #4]
    62dc:	bf58      	it	pl
    62de:	3701      	addpl	r7, #1
    62e0:	60a2      	str	r2, [r4, #8]
    62e2:	b1ea      	cbz	r2, 6320 <_scanf_chars+0x98>
    62e4:	2b00      	cmp	r3, #0
    62e6:	dce5      	bgt.n	62b4 <_scanf_chars+0x2c>
    62e8:	f8d4 3180 	ldr.w	r3, [r4, #384]	; 0x180
    62ec:	4640      	mov	r0, r8
    62ee:	4629      	mov	r1, r5
    62f0:	4798      	blx	r3
    62f2:	2800      	cmp	r0, #0
    62f4:	d0de      	beq.n	62b4 <_scanf_chars+0x2c>
    62f6:	e013      	b.n	6320 <_scanf_chars+0x98>
    62f8:	2801      	cmp	r0, #1
    62fa:	d107      	bne.n	630c <_scanf_chars+0x84>
    62fc:	682b      	ldr	r3, [r5, #0]
    62fe:	6962      	ldr	r2, [r4, #20]
    6300:	781b      	ldrb	r3, [r3, #0]
    6302:	5cd3      	ldrb	r3, [r2, r3]
    6304:	2b00      	cmp	r3, #0
    6306:	d1d7      	bne.n	62b8 <_scanf_chars+0x30>
    6308:	b1c6      	cbz	r6, 633c <_scanf_chars+0xb4>
    630a:	e009      	b.n	6320 <_scanf_chars+0x98>
    630c:	2802      	cmp	r0, #2
    630e:	d107      	bne.n	6320 <_scanf_chars+0x98>
    6310:	682b      	ldr	r3, [r5, #0]
    6312:	4a0b      	ldr	r2, [pc, #44]	; (6340 <_scanf_chars+0xb8>)
    6314:	781b      	ldrb	r3, [r3, #0]
    6316:	6812      	ldr	r2, [r2, #0]
    6318:	4413      	add	r3, r2
    631a:	785b      	ldrb	r3, [r3, #1]
    631c:	071b      	lsls	r3, r3, #28
    631e:	d5cb      	bpl.n	62b8 <_scanf_chars+0x30>
    6320:	6823      	ldr	r3, [r4, #0]
    6322:	f013 0310 	ands.w	r3, r3, #16
    6326:	d105      	bne.n	6334 <_scanf_chars+0xac>
    6328:	68e2      	ldr	r2, [r4, #12]
    632a:	3201      	adds	r2, #1
    632c:	60e2      	str	r2, [r4, #12]
    632e:	69a2      	ldr	r2, [r4, #24]
    6330:	b102      	cbz	r2, 6334 <_scanf_chars+0xac>
    6332:	703b      	strb	r3, [r7, #0]
    6334:	6923      	ldr	r3, [r4, #16]
    6336:	2000      	movs	r0, #0
    6338:	441e      	add	r6, r3
    633a:	6126      	str	r6, [r4, #16]
    633c:	e8bd 81f0 	ldmia.w	sp!, {r4, r5, r6, r7, r8, pc}
    6340:	10000158 	.word	0x10000158

00006344 <_scanf_i>:
    6344:	e92d 4ff0 	stmdb	sp!, {r4, r5, r6, r7, r8, r9, r10, r11, lr}
    6348:	460c      	mov	r4, r1
    634a:	469a      	mov	r10, r3
    634c:	4b72      	ldr	r3, [pc, #456]	; (6518 <_scanf_i+0x1d4>)
    634e:	b087      	sub	sp, #28
    6350:	4683      	mov	r11, r0
    6352:	4616      	mov	r6, r2
    6354:	e893 0007 	ldmia.w	r3, {r0, r1, r2}
    6358:	ab03      	add	r3, sp, #12
    635a:	e883 0007 	stmia.w	r3, {r0, r1, r2}
    635e:	4b6f      	ldr	r3, [pc, #444]	; (651c <_scanf_i+0x1d8>)
    6360:	69a1      	ldr	r1, [r4, #24]
    6362:	4a6f      	ldr	r2, [pc, #444]	; (6520 <_scanf_i+0x1dc>)
    6364:	f104 091c 	add.w	r9, r4, #28
    6368:	2903      	cmp	r1, #3
    636a:	bf18      	it	ne
    636c:	461a      	movne	r2, r3
    636e:	68a3      	ldr	r3, [r4, #8]
    6370:	9200      	str	r2, [sp, #0]
    6372:	1e5a      	subs	r2, r3, #1
    6374:	f5b2 7fae 	cmp.w	r2, #348	; 0x15c
    6378:	bf82      	ittt	hi
    637a:	f46f 75ae 	mvnhi.w	r5, #348	; 0x15c
    637e:	eb03 0805 	addhi.w	r8, r3, r5
    6382:	f240 135d 	movwhi	r3, #349	; 0x15d
    6386:	464f      	mov	r7, r9
    6388:	bf88      	it	hi
    638a:	60a3      	strhi	r3, [r4, #8]
    638c:	6823      	ldr	r3, [r4, #0]
    638e:	bf98      	it	ls
    6390:	f04f 0800 	movls.w	r8, #0
    6394:	f443 6350 	orr.w	r3, r3, #3328	; 0xd00
    6398:	6023      	str	r3, [r4, #0]
    639a:	2300      	movs	r3, #0
    639c:	6832      	ldr	r2, [r6, #0]
    639e:	a903      	add	r1, sp, #12
    63a0:	f851 0023 	ldr.w	r0, [r1, r3, lsl #2]
    63a4:	7811      	ldrb	r1, [r2, #0]
    63a6:	2202      	movs	r2, #2
    63a8:	9301      	str	r3, [sp, #4]
    63aa:	f7ff fbc3 	bl	5b34 <memchr>
    63ae:	9b01      	ldr	r3, [sp, #4]
    63b0:	2800      	cmp	r0, #0
    63b2:	d035      	beq.n	6420 <_scanf_i+0xdc>
    63b4:	2b01      	cmp	r3, #1
    63b6:	d10b      	bne.n	63d0 <_scanf_i+0x8c>
    63b8:	6862      	ldr	r2, [r4, #4]
    63ba:	b92a      	cbnz	r2, 63c8 <_scanf_i+0x84>
    63bc:	2208      	movs	r2, #8
    63be:	6062      	str	r2, [r4, #4]
    63c0:	6822      	ldr	r2, [r4, #0]
    63c2:	f442 7200 	orr.w	r2, r2, #512	; 0x200
    63c6:	6022      	str	r2, [r4, #0]
    63c8:	6822      	ldr	r2, [r4, #0]
    63ca:	f422 62a0 	bic.w	r2, r2, #1280	; 0x500
    63ce:	e00b      	b.n	63e8 <_scanf_i+0xa4>
    63d0:	2b02      	cmp	r3, #2
    63d2:	d10a      	bne.n	63ea <_scanf_i+0xa6>
    63d4:	6822      	ldr	r2, [r4, #0]
    63d6:	f402 61c0 	and.w	r1, r2, #1536	; 0x600
    63da:	f5b1 7f00 	cmp.w	r1, #512	; 0x200
    63de:	d11f      	bne.n	6420 <_scanf_i+0xdc>
    63e0:	2110      	movs	r1, #16
    63e2:	6061      	str	r1, [r4, #4]
    63e4:	f442 7280 	orr.w	r2, r2, #256	; 0x100
    63e8:	6022      	str	r2, [r4, #0]
    63ea:	68a2      	ldr	r2, [r4, #8]
    63ec:	1e51      	subs	r1, r2, #1
    63ee:	60a1      	str	r1, [r4, #8]
    63f0:	b1b2      	cbz	r2, 6420 <_scanf_i+0xdc>
    63f2:	6832      	ldr	r2, [r6, #0]
    63f4:	1c7d      	adds	r5, r7, #1
    63f6:	1c51      	adds	r1, r2, #1
    63f8:	6031      	str	r1, [r6, #0]
    63fa:	7812      	ldrb	r2, [r2, #0]
    63fc:	703a      	strb	r2, [r7, #0]
    63fe:	6872      	ldr	r2, [r6, #4]
    6400:	3a01      	subs	r2, #1
    6402:	2a00      	cmp	r2, #0
    6404:	6072      	str	r2, [r6, #4]
    6406:	dc0a      	bgt.n	641e <_scanf_i+0xda>
    6408:	f8d4 2180 	ldr.w	r2, [r4, #384]	; 0x180
    640c:	4658      	mov	r0, r11
    640e:	4631      	mov	r1, r6
    6410:	9301      	str	r3, [sp, #4]
    6412:	4790      	blx	r2
    6414:	2800      	cmp	r0, #0
    6416:	d141      	bne.n	649c <_scanf_i+0x158>
    6418:	462f      	mov	r7, r5
    641a:	9b01      	ldr	r3, [sp, #4]
    641c:	e000      	b.n	6420 <_scanf_i+0xdc>
    641e:	462f      	mov	r7, r5
    6420:	3301      	adds	r3, #1
    6422:	2b03      	cmp	r3, #3
    6424:	d1ba      	bne.n	639c <_scanf_i+0x58>
    6426:	6863      	ldr	r3, [r4, #4]
    6428:	b90b      	cbnz	r3, 642e <_scanf_i+0xea>
    642a:	230a      	movs	r3, #10
    642c:	6063      	str	r3, [r4, #4]
    642e:	6863      	ldr	r3, [r4, #4]
    6430:	493c      	ldr	r1, [pc, #240]	; (6524 <_scanf_i+0x1e0>)
    6432:	6960      	ldr	r0, [r4, #20]
    6434:	1ac9      	subs	r1, r1, r3
    6436:	f000 f8df 	bl	65f8 <__sccl>
    643a:	463d      	mov	r5, r7
    643c:	2700      	movs	r7, #0
    643e:	68a3      	ldr	r3, [r4, #8]
    6440:	b36b      	cbz	r3, 649e <_scanf_i+0x15a>
    6442:	6831      	ldr	r1, [r6, #0]
    6444:	6960      	ldr	r0, [r4, #20]
    6446:	780a      	ldrb	r2, [r1, #0]
    6448:	5c80      	ldrb	r0, [r0, r2]
    644a:	b340      	cbz	r0, 649e <_scanf_i+0x15a>
    644c:	2a30      	cmp	r2, #48	; 0x30
    644e:	6822      	ldr	r2, [r4, #0]
    6450:	d10a      	bne.n	6468 <_scanf_i+0x124>
    6452:	0510      	lsls	r0, r2, #20
    6454:	d508      	bpl.n	6468 <_scanf_i+0x124>
    6456:	3701      	adds	r7, #1
    6458:	f1b8 0f00 	cmp.w	r8, #0
    645c:	d00b      	beq.n	6476 <_scanf_i+0x132>
    645e:	3301      	adds	r3, #1
    6460:	f108 38ff 	add.w	r8, r8, #4294967295
    6464:	60a3      	str	r3, [r4, #8]
    6466:	e006      	b.n	6476 <_scanf_i+0x132>
    6468:	f422 6210 	bic.w	r2, r2, #2304	; 0x900
    646c:	6022      	str	r2, [r4, #0]
    646e:	780b      	ldrb	r3, [r1, #0]
    6470:	3501      	adds	r5, #1
    6472:	f805 3c01 	strb.w	r3, [r5, #-1]
    6476:	6873      	ldr	r3, [r6, #4]
    6478:	3b01      	subs	r3, #1
    647a:	2b00      	cmp	r3, #0
    647c:	6073      	str	r3, [r6, #4]
    647e:	dd03      	ble.n	6488 <_scanf_i+0x144>
    6480:	6833      	ldr	r3, [r6, #0]
    6482:	3301      	adds	r3, #1
    6484:	6033      	str	r3, [r6, #0]
    6486:	e005      	b.n	6494 <_scanf_i+0x150>
    6488:	f8d4 3180 	ldr.w	r3, [r4, #384]	; 0x180
    648c:	4658      	mov	r0, r11
    648e:	4631      	mov	r1, r6
    6490:	4798      	blx	r3
    6492:	b920      	cbnz	r0, 649e <_scanf_i+0x15a>
    6494:	68a3      	ldr	r3, [r4, #8]
    6496:	3b01      	subs	r3, #1
    6498:	60a3      	str	r3, [r4, #8]
    649a:	e7d0      	b.n	643e <_scanf_i+0xfa>
    649c:	2700      	movs	r7, #0
    649e:	6823      	ldr	r3, [r4, #0]
    64a0:	05d9      	lsls	r1, r3, #23
    64a2:	d50d      	bpl.n	64c0 <_scanf_i+0x17c>
    64a4:	454d      	cmp	r5, r9
    64a6:	d909      	bls.n	64bc <_scanf_i+0x178>
    64a8:	f815 1c01 	ldrb.w	r1, [r5, #-1]
    64ac:	f105 38ff 	add.w	r8, r5, #4294967295
    64b0:	f8d4 317c 	ldr.w	r3, [r4, #380]	; 0x17c
    64b4:	4658      	mov	r0, r11
    64b6:	4632      	mov	r2, r6
    64b8:	4798      	blx	r3
    64ba:	4645      	mov	r5, r8
    64bc:	454d      	cmp	r5, r9
    64be:	d027      	beq.n	6510 <_scanf_i+0x1cc>
    64c0:	6822      	ldr	r2, [r4, #0]
    64c2:	f012 0210 	ands.w	r2, r2, #16
    64c6:	d11b      	bne.n	6500 <_scanf_i+0x1bc>
    64c8:	702a      	strb	r2, [r5, #0]
    64ca:	6863      	ldr	r3, [r4, #4]
    64cc:	4658      	mov	r0, r11
    64ce:	4649      	mov	r1, r9
    64d0:	9e00      	ldr	r6, [sp, #0]
    64d2:	47b0      	blx	r6
    64d4:	6822      	ldr	r2, [r4, #0]
    64d6:	f8da 3000 	ldr.w	r3, [r10]
    64da:	f012 0f20 	tst.w	r2, #32
    64de:	d107      	bne.n	64f0 <_scanf_i+0x1ac>
    64e0:	07d2      	lsls	r2, r2, #31
    64e2:	d505      	bpl.n	64f0 <_scanf_i+0x1ac>
    64e4:	1d1a      	adds	r2, r3, #4
    64e6:	f8ca 2000 	str.w	r2, [r10]
    64ea:	681b      	ldr	r3, [r3, #0]
    64ec:	8018      	strh	r0, [r3, #0]
    64ee:	e004      	b.n	64fa <_scanf_i+0x1b6>
    64f0:	1d1a      	adds	r2, r3, #4
    64f2:	f8ca 2000 	str.w	r2, [r10]
    64f6:	681b      	ldr	r3, [r3, #0]
    64f8:	6018      	str	r0, [r3, #0]
    64fa:	68e3      	ldr	r3, [r4, #12]
    64fc:	3301      	adds	r3, #1
    64fe:	60e3      	str	r3, [r4, #12]
    6500:	ebc9 0505 	rsb	r5, r9, r5
    6504:	443d      	add	r5, r7
    6506:	6927      	ldr	r7, [r4, #16]
    6508:	2000      	movs	r0, #0
    650a:	443d      	add	r5, r7
    650c:	6125      	str	r5, [r4, #16]
    650e:	e000      	b.n	6512 <_scanf_i+0x1ce>
    6510:	2001      	movs	r0, #1
    6512:	b007      	add	sp, #28
    6514:	e8bd 8ff0 	ldmia.w	sp!, {r4, r5, r6, r7, r8, r9, r10, r11, pc}
    6518:	00007cbc 	.word	0x00007cbc
    651c:	00006a05 	.word	0x00006a05
    6520:	000068f9 	.word	0x000068f9
    6524:	00007cd8 	.word	0x00007cd8

00006528 <_open_r>:
    6528:	b538      	push	{r3, r4, r5, lr}
    652a:	4c07      	ldr	r4, [pc, #28]	; (6548 <_open_r+0x20>)
    652c:	4605      	mov	r5, r0
    652e:	2000      	movs	r0, #0
    6530:	6020      	str	r0, [r4, #0]
    6532:	4608      	mov	r0, r1
    6534:	4611      	mov	r1, r2
    6536:	461a      	mov	r2, r3
    6538:	f7fe fafc 	bl	4b34 <_open>
    653c:	1c43      	adds	r3, r0, #1
    653e:	d102      	bne.n	6546 <_open_r+0x1e>
    6540:	6823      	ldr	r3, [r4, #0]
    6542:	b103      	cbz	r3, 6546 <_open_r+0x1e>
    6544:	602b      	str	r3, [r5, #0]
    6546:	bd38      	pop	{r3, r4, r5, pc}
    6548:	10000db0 	.word	0x10000db0

0000654c <_putc_r>:
    654c:	b570      	push	{r4, r5, r6, lr}
    654e:	460e      	mov	r6, r1
    6550:	4614      	mov	r4, r2
    6552:	4605      	mov	r5, r0
    6554:	b118      	cbz	r0, 655e <_putc_r+0x12>
    6556:	6983      	ldr	r3, [r0, #24]
    6558:	b90b      	cbnz	r3, 655e <_putc_r+0x12>
    655a:	f7ff f8d9 	bl	5710 <__sinit>
    655e:	4b16      	ldr	r3, [pc, #88]	; (65b8 <_putc_r+0x6c>)
    6560:	429c      	cmp	r4, r3
    6562:	d101      	bne.n	6568 <_putc_r+0x1c>
    6564:	686c      	ldr	r4, [r5, #4]
    6566:	e008      	b.n	657a <_putc_r+0x2e>
    6568:	4b14      	ldr	r3, [pc, #80]	; (65bc <_putc_r+0x70>)
    656a:	429c      	cmp	r4, r3
    656c:	d101      	bne.n	6572 <_putc_r+0x26>
    656e:	68ac      	ldr	r4, [r5, #8]
    6570:	e003      	b.n	657a <_putc_r+0x2e>
    6572:	4b13      	ldr	r3, [pc, #76]	; (65c0 <_putc_r+0x74>)
    6574:	429c      	cmp	r4, r3
    6576:	bf08      	it	eq
    6578:	68ec      	ldreq	r4, [r5, #12]
    657a:	68a3      	ldr	r3, [r4, #8]
    657c:	3b01      	subs	r3, #1
    657e:	2b00      	cmp	r3, #0
    6580:	60a3      	str	r3, [r4, #8]
    6582:	da11      	bge.n	65a8 <_putc_r+0x5c>
    6584:	69a2      	ldr	r2, [r4, #24]
    6586:	4293      	cmp	r3, r2
    6588:	db07      	blt.n	659a <_putc_r+0x4e>
    658a:	6823      	ldr	r3, [r4, #0]
    658c:	701e      	strb	r6, [r3, #0]
    658e:	6823      	ldr	r3, [r4, #0]
    6590:	7819      	ldrb	r1, [r3, #0]
    6592:	290a      	cmp	r1, #10
    6594:	d10b      	bne.n	65ae <_putc_r+0x62>
    6596:	4628      	mov	r0, r5
    6598:	e001      	b.n	659e <_putc_r+0x52>
    659a:	4628      	mov	r0, r5
    659c:	4631      	mov	r1, r6
    659e:	4622      	mov	r2, r4
    65a0:	e8bd 4070 	ldmia.w	sp!, {r4, r5, r6, lr}
    65a4:	f000 bae4 	b.w	6b70 <__swbuf_r>
    65a8:	6823      	ldr	r3, [r4, #0]
    65aa:	701e      	strb	r6, [r3, #0]
    65ac:	6823      	ldr	r3, [r4, #0]
    65ae:	1c5a      	adds	r2, r3, #1
    65b0:	6022      	str	r2, [r4, #0]
    65b2:	7818      	ldrb	r0, [r3, #0]
    65b4:	bd70      	pop	{r4, r5, r6, pc}
    65b6:	bf00      	nop
    65b8:	00007c20 	.word	0x00007c20
    65bc:	00007c40 	.word	0x00007c40
    65c0:	00007c60 	.word	0x00007c60

000065c4 <realloc>:
    65c4:	4603      	mov	r3, r0
    65c6:	460a      	mov	r2, r1
    65c8:	4902      	ldr	r1, [pc, #8]	; (65d4 <realloc+0x10>)
    65ca:	6808      	ldr	r0, [r1, #0]
    65cc:	4619      	mov	r1, r3
    65ce:	f000 bc1d 	b.w	6e0c <_realloc_r>
    65d2:	bf00      	nop
    65d4:	10000154 	.word	0x10000154

000065d8 <_sbrk_r>:
    65d8:	b538      	push	{r3, r4, r5, lr}
    65da:	4c06      	ldr	r4, [pc, #24]	; (65f4 <_sbrk_r+0x1c>)
    65dc:	2300      	movs	r3, #0
    65de:	4605      	mov	r5, r0
    65e0:	4608      	mov	r0, r1
    65e2:	6023      	str	r3, [r4, #0]
    65e4:	f7fe fbc4 	bl	4d70 <_sbrk>
    65e8:	1c43      	adds	r3, r0, #1
    65ea:	d102      	bne.n	65f2 <_sbrk_r+0x1a>
    65ec:	6823      	ldr	r3, [r4, #0]
    65ee:	b103      	cbz	r3, 65f2 <_sbrk_r+0x1a>
    65f0:	602b      	str	r3, [r5, #0]
    65f2:	bd38      	pop	{r3, r4, r5, pc}
    65f4:	10000db0 	.word	0x10000db0

000065f8 <__sccl>:
    65f8:	b5f0      	push	{r4, r5, r6, r7, lr}
    65fa:	780a      	ldrb	r2, [r1, #0]
    65fc:	1e44      	subs	r4, r0, #1
    65fe:	2a5e      	cmp	r2, #94	; 0x5e
    6600:	bf13      	iteet	ne
    6602:	1c4b      	addne	r3, r1, #1
    6604:	1c8b      	addeq	r3, r1, #2
    6606:	784a      	ldrbeq	r2, [r1, #1]
    6608:	2100      	movne	r1, #0
    660a:	bf08      	it	eq
    660c:	2101      	moveq	r1, #1
    660e:	f100 05ff 	add.w	r5, r0, #255	; 0xff
    6612:	f804 1f01 	strb.w	r1, [r4, #1]!
    6616:	42ac      	cmp	r4, r5
    6618:	d1fb      	bne.n	6612 <__sccl+0x1a>
    661a:	b90a      	cbnz	r2, 6620 <__sccl+0x28>
    661c:	1e58      	subs	r0, r3, #1
    661e:	bdf0      	pop	{r4, r5, r6, r7, pc}
    6620:	f1c1 0401 	rsb	r4, r1, #1
    6624:	b2e7      	uxtb	r7, r4
    6626:	5487      	strb	r7, [r0, r2]
    6628:	7819      	ldrb	r1, [r3, #0]
    662a:	1c5e      	adds	r6, r3, #1
    662c:	292d      	cmp	r1, #45	; 0x2d
    662e:	d005      	beq.n	663c <__sccl+0x44>
    6630:	295d      	cmp	r1, #93	; 0x5d
    6632:	d00e      	beq.n	6652 <__sccl+0x5a>
    6634:	b179      	cbz	r1, 6656 <__sccl+0x5e>
    6636:	460a      	mov	r2, r1
    6638:	4633      	mov	r3, r6
    663a:	e7f3      	b.n	6624 <__sccl+0x2c>
    663c:	785d      	ldrb	r5, [r3, #1]
    663e:	2d5d      	cmp	r5, #93	; 0x5d
    6640:	d0f9      	beq.n	6636 <__sccl+0x3e>
    6642:	4295      	cmp	r5, r2
    6644:	dbf7      	blt.n	6636 <__sccl+0x3e>
    6646:	3302      	adds	r3, #2
    6648:	3201      	adds	r2, #1
    664a:	42aa      	cmp	r2, r5
    664c:	5487      	strb	r7, [r0, r2]
    664e:	dbfb      	blt.n	6648 <__sccl+0x50>
    6650:	e7ea      	b.n	6628 <__sccl+0x30>
    6652:	4630      	mov	r0, r6
    6654:	bdf0      	pop	{r4, r5, r6, r7, pc}
    6656:	4618      	mov	r0, r3
    6658:	bdf0      	pop	{r4, r5, r6, r7, pc}

0000665a <setbuf>:
    665a:	2900      	cmp	r1, #0
    665c:	bf0c      	ite	eq
    665e:	2202      	moveq	r2, #2
    6660:	2200      	movne	r2, #0
    6662:	f44f 6380 	mov.w	r3, #1024	; 0x400
    6666:	f000 b801 	b.w	666c <setvbuf>
	...

0000666c <setvbuf>:
    666c:	e92d 41f0 	stmdb	sp!, {r4, r5, r6, r7, r8, lr}
    6670:	461d      	mov	r5, r3
    6672:	4b3d      	ldr	r3, [pc, #244]	; (6768 <setvbuf+0xfc>)
    6674:	4604      	mov	r4, r0
    6676:	681e      	ldr	r6, [r3, #0]
    6678:	460f      	mov	r7, r1
    667a:	4690      	mov	r8, r2
    667c:	b126      	cbz	r6, 6688 <setvbuf+0x1c>
    667e:	69b3      	ldr	r3, [r6, #24]
    6680:	b913      	cbnz	r3, 6688 <setvbuf+0x1c>
    6682:	4630      	mov	r0, r6
    6684:	f7ff f844 	bl	5710 <__sinit>
    6688:	4b38      	ldr	r3, [pc, #224]	; (676c <setvbuf+0x100>)
    668a:	429c      	cmp	r4, r3
    668c:	d101      	bne.n	6692 <setvbuf+0x26>
    668e:	6874      	ldr	r4, [r6, #4]
    6690:	e008      	b.n	66a4 <setvbuf+0x38>
    6692:	4b37      	ldr	r3, [pc, #220]	; (6770 <setvbuf+0x104>)
    6694:	429c      	cmp	r4, r3
    6696:	d101      	bne.n	669c <setvbuf+0x30>
    6698:	68b4      	ldr	r4, [r6, #8]
    669a:	e003      	b.n	66a4 <setvbuf+0x38>
    669c:	4b35      	ldr	r3, [pc, #212]	; (6774 <setvbuf+0x108>)
    669e:	429c      	cmp	r4, r3
    66a0:	bf08      	it	eq
    66a2:	68f4      	ldreq	r4, [r6, #12]
    66a4:	f1b8 0f02 	cmp.w	r8, #2
    66a8:	d85a      	bhi.n	6760 <setvbuf+0xf4>
    66aa:	2d00      	cmp	r5, #0
    66ac:	db58      	blt.n	6760 <setvbuf+0xf4>
    66ae:	4630      	mov	r0, r6
    66b0:	4621      	mov	r1, r4
    66b2:	f7fe ffb1 	bl	5618 <_fflush_r>
    66b6:	2300      	movs	r3, #0
    66b8:	6063      	str	r3, [r4, #4]
    66ba:	61a3      	str	r3, [r4, #24]
    66bc:	89a3      	ldrh	r3, [r4, #12]
    66be:	061b      	lsls	r3, r3, #24
    66c0:	d503      	bpl.n	66ca <setvbuf+0x5e>
    66c2:	4630      	mov	r0, r6
    66c4:	6921      	ldr	r1, [r4, #16]
    66c6:	f7ff fa71 	bl	5bac <_free_r>
    66ca:	89a3      	ldrh	r3, [r4, #12]
    66cc:	f1b8 0f02 	cmp.w	r8, #2
    66d0:	f023 0383 	bic.w	r3, r3, #131	; 0x83
    66d4:	81a3      	strh	r3, [r4, #12]
    66d6:	d012      	beq.n	66fe <setvbuf+0x92>
    66d8:	bb37      	cbnz	r7, 6728 <setvbuf+0xbc>
    66da:	2d00      	cmp	r5, #0
    66dc:	bf08      	it	eq
    66de:	f44f 6580 	moveq.w	r5, #1024	; 0x400
    66e2:	4628      	mov	r0, r5
    66e4:	f7fc fa6c 	bl	2bc0 <__wrap_malloc>
    66e8:	4607      	mov	r7, r0
    66ea:	b9c8      	cbnz	r0, 6720 <setvbuf+0xb4>
    66ec:	f44f 6080 	mov.w	r0, #1024	; 0x400
    66f0:	f7fc fa66 	bl	2bc0 <__wrap_malloc>
    66f4:	4607      	mov	r7, r0
    66f6:	b988      	cbnz	r0, 671c <setvbuf+0xb0>
    66f8:	f04f 30ff 	mov.w	r0, #4294967295
    66fc:	e000      	b.n	6700 <setvbuf+0x94>
    66fe:	2000      	movs	r0, #0
    6700:	89a3      	ldrh	r3, [r4, #12]
    6702:	f043 0302 	orr.w	r3, r3, #2
    6706:	81a3      	strh	r3, [r4, #12]
    6708:	2300      	movs	r3, #0
    670a:	60a3      	str	r3, [r4, #8]
    670c:	f104 0347 	add.w	r3, r4, #71	; 0x47
    6710:	6023      	str	r3, [r4, #0]
    6712:	6123      	str	r3, [r4, #16]
    6714:	2301      	movs	r3, #1
    6716:	6163      	str	r3, [r4, #20]
    6718:	e8bd 81f0 	ldmia.w	sp!, {r4, r5, r6, r7, r8, pc}
    671c:	f44f 6580 	mov.w	r5, #1024	; 0x400
    6720:	89a3      	ldrh	r3, [r4, #12]
    6722:	f043 0380 	orr.w	r3, r3, #128	; 0x80
    6726:	81a3      	strh	r3, [r4, #12]
    6728:	f1b8 0f01 	cmp.w	r8, #1
    672c:	bf01      	itttt	eq
    672e:	89a3      	ldrheq	r3, [r4, #12]
    6730:	f043 0301 	orreq.w	r3, r3, #1
    6734:	81a3      	strheq	r3, [r4, #12]
    6736:	426b      	negeq	r3, r5
    6738:	bf08      	it	eq
    673a:	61a3      	streq	r3, [r4, #24]
    673c:	4b0e      	ldr	r3, [pc, #56]	; (6778 <setvbuf+0x10c>)
    673e:	62b3      	str	r3, [r6, #40]	; 0x28
    6740:	89a3      	ldrh	r3, [r4, #12]
    6742:	6027      	str	r7, [r4, #0]
    6744:	f003 0008 	and.w	r0, r3, #8
    6748:	b280      	uxth	r0, r0
    674a:	6127      	str	r7, [r4, #16]
    674c:	6165      	str	r5, [r4, #20]
    674e:	b148      	cbz	r0, 6764 <setvbuf+0xf8>
    6750:	f013 0f03 	tst.w	r3, #3
    6754:	bf18      	it	ne
    6756:	2500      	movne	r5, #0
    6758:	60a5      	str	r5, [r4, #8]
    675a:	2000      	movs	r0, #0
    675c:	e8bd 81f0 	ldmia.w	sp!, {r4, r5, r6, r7, r8, pc}
    6760:	f04f 30ff 	mov.w	r0, #4294967295
    6764:	e8bd 81f0 	ldmia.w	sp!, {r4, r5, r6, r7, r8, pc}
    6768:	10000154 	.word	0x10000154
    676c:	00007c20 	.word	0x00007c20
    6770:	00007c40 	.word	0x00007c40
    6774:	00007c60 	.word	0x00007c60
    6778:	00005691 	.word	0x00005691

0000677c <siprintf>:
    677c:	b40e      	push	{r1, r2, r3}
    677e:	b500      	push	{lr}
    6780:	f44f 7102 	mov.w	r1, #520	; 0x208
    6784:	b09c      	sub	sp, #112	; 0x70
    6786:	f8ad 1014 	strh.w	r1, [sp, #20]
    678a:	f06f 4100 	mvn.w	r1, #2147483648	; 0x80000000
    678e:	9104      	str	r1, [sp, #16]
    6790:	9107      	str	r1, [sp, #28]
    6792:	f64f 71ff 	movw	r1, #65535	; 0xffff
    6796:	ab1d      	add	r3, sp, #116	; 0x74
    6798:	f8ad 1016 	strh.w	r1, [sp, #22]
    679c:	4908      	ldr	r1, [pc, #32]	; (67c0 <siprintf+0x44>)
    679e:	f853 2b04 	ldr.w	r2, [r3], #4
    67a2:	9002      	str	r0, [sp, #8]
    67a4:	9006      	str	r0, [sp, #24]
    67a6:	6808      	ldr	r0, [r1, #0]
    67a8:	a902      	add	r1, sp, #8
    67aa:	9301      	str	r3, [sp, #4]
    67ac:	f000 fbae 	bl	6f0c <_svfiprintf_r>
    67b0:	9b02      	ldr	r3, [sp, #8]
    67b2:	2200      	movs	r2, #0
    67b4:	701a      	strb	r2, [r3, #0]
    67b6:	b01c      	add	sp, #112	; 0x70
    67b8:	f85d eb04 	ldr.w	lr, [sp], #4
    67bc:	b003      	add	sp, #12
    67be:	4770      	bx	lr
    67c0:	10000154 	.word	0x10000154

000067c4 <siscanf>:
    67c4:	b40e      	push	{r1, r2, r3}
    67c6:	b530      	push	{r4, r5, lr}
    67c8:	b09c      	sub	sp, #112	; 0x70
    67ca:	ac1f      	add	r4, sp, #124	; 0x7c
    67cc:	f44f 7201 	mov.w	r2, #516	; 0x204
    67d0:	f854 5b04 	ldr.w	r5, [r4], #4
    67d4:	f8ad 2014 	strh.w	r2, [sp, #20]
    67d8:	9002      	str	r0, [sp, #8]
    67da:	9006      	str	r0, [sp, #24]
    67dc:	f000 f86b 	bl	68b6 <strlen>
    67e0:	4b0b      	ldr	r3, [pc, #44]	; (6810 <siscanf+0x4c>)
    67e2:	9003      	str	r0, [sp, #12]
    67e4:	930b      	str	r3, [sp, #44]	; 0x2c
    67e6:	2300      	movs	r3, #0
    67e8:	930f      	str	r3, [sp, #60]	; 0x3c
    67ea:	9314      	str	r3, [sp, #80]	; 0x50
    67ec:	f64f 73ff 	movw	r3, #65535	; 0xffff
    67f0:	f8ad 3016 	strh.w	r3, [sp, #22]
    67f4:	4b07      	ldr	r3, [pc, #28]	; (6814 <siscanf+0x50>)
    67f6:	9007      	str	r0, [sp, #28]
    67f8:	a902      	add	r1, sp, #8
    67fa:	6818      	ldr	r0, [r3, #0]
    67fc:	462a      	mov	r2, r5
    67fe:	4623      	mov	r3, r4
    6800:	9401      	str	r4, [sp, #4]
    6802:	f000 fccf 	bl	71a4 <__ssvfiscanf_r>
    6806:	b01c      	add	sp, #112	; 0x70
    6808:	e8bd 4030 	ldmia.w	sp!, {r4, r5, lr}
    680c:	b003      	add	sp, #12
    680e:	4770      	bx	lr
    6810:	0000683b 	.word	0x0000683b
    6814:	10000154 	.word	0x10000154

00006818 <__sread>:
    6818:	b510      	push	{r4, lr}
    681a:	460c      	mov	r4, r1
    681c:	f9b1 100e 	ldrsh.w	r1, [r1, #14]
    6820:	f000 fe0e 	bl	7440 <_read_r>
    6824:	2800      	cmp	r0, #0
    6826:	bfab      	itete	ge
    6828:	6d63      	ldrge	r3, [r4, #84]	; 0x54
    682a:	89a3      	ldrhlt	r3, [r4, #12]
    682c:	181b      	addge	r3, r3, r0
    682e:	f423 5380 	biclt.w	r3, r3, #4096	; 0x1000
    6832:	bfac      	ite	ge
    6834:	6563      	strge	r3, [r4, #84]	; 0x54
    6836:	81a3      	strhlt	r3, [r4, #12]
    6838:	bd10      	pop	{r4, pc}

0000683a <__seofread>:
    683a:	2000      	movs	r0, #0
    683c:	4770      	bx	lr

0000683e <__swrite>:
    683e:	e92d 41f0 	stmdb	sp!, {r4, r5, r6, r7, r8, lr}
    6842:	461d      	mov	r5, r3
    6844:	898b      	ldrh	r3, [r1, #12]
    6846:	4607      	mov	r7, r0
    6848:	05db      	lsls	r3, r3, #23
    684a:	460c      	mov	r4, r1
    684c:	4616      	mov	r6, r2
    684e:	d505      	bpl.n	685c <__swrite+0x1e>
    6850:	f9b1 100e 	ldrsh.w	r1, [r1, #14]
    6854:	2200      	movs	r2, #0
    6856:	2302      	movs	r3, #2
    6858:	f000 fac6 	bl	6de8 <_lseek_r>
    685c:	89a3      	ldrh	r3, [r4, #12]
    685e:	4638      	mov	r0, r7
    6860:	f423 5380 	bic.w	r3, r3, #4096	; 0x1000
    6864:	81a3      	strh	r3, [r4, #12]
    6866:	f9b4 100e 	ldrsh.w	r1, [r4, #14]
    686a:	4632      	mov	r2, r6
    686c:	462b      	mov	r3, r5
    686e:	e8bd 41f0 	ldmia.w	sp!, {r4, r5, r6, r7, r8, lr}
    6872:	f000 b9d1 	b.w	6c18 <_write_r>

00006876 <__sseek>:
    6876:	b510      	push	{r4, lr}
    6878:	460c      	mov	r4, r1
    687a:	f9b1 100e 	ldrsh.w	r1, [r1, #14]
    687e:	f000 fab3 	bl	6de8 <_lseek_r>
    6882:	1c43      	adds	r3, r0, #1
    6884:	89a3      	ldrh	r3, [r4, #12]
    6886:	bf15      	itete	ne
    6888:	6560      	strne	r0, [r4, #84]	; 0x54
    688a:	f423 5380 	biceq.w	r3, r3, #4096	; 0x1000
    688e:	f443 5380 	orrne.w	r3, r3, #4096	; 0x1000
    6892:	81a3      	strheq	r3, [r4, #12]
    6894:	bf18      	it	ne
    6896:	81a3      	strhne	r3, [r4, #12]
    6898:	bd10      	pop	{r4, pc}

0000689a <__sclose>:
    689a:	f9b1 100e 	ldrsh.w	r1, [r1, #14]
    689e:	f000 ba39 	b.w	6d14 <_close_r>

000068a2 <strcmp>:
    68a2:	f810 2b01 	ldrb.w	r2, [r0], #1
    68a6:	f811 3b01 	ldrb.w	r3, [r1], #1
    68aa:	2a01      	cmp	r2, #1
    68ac:	bf28      	it	cs
    68ae:	429a      	cmpcs	r2, r3
    68b0:	d0f7      	beq.n	68a2 <strcmp>
    68b2:	1ad0      	subs	r0, r2, r3
    68b4:	4770      	bx	lr

000068b6 <strlen>:
    68b6:	4603      	mov	r3, r0
    68b8:	f813 2b01 	ldrb.w	r2, [r3], #1
    68bc:	2a00      	cmp	r2, #0
    68be:	d1fb      	bne.n	68b8 <strlen+0x2>
    68c0:	1a18      	subs	r0, r3, r0
    68c2:	3801      	subs	r0, #1
    68c4:	4770      	bx	lr

000068c6 <strncmp>:
    68c6:	b570      	push	{r4, r5, r6, lr}
    68c8:	b1a2      	cbz	r2, 68f4 <strncmp+0x2e>
    68ca:	1e45      	subs	r5, r0, #1
    68cc:	3901      	subs	r1, #1
    68ce:	786b      	ldrb	r3, [r5, #1]
    68d0:	f811 4f01 	ldrb.w	r4, [r1, #1]!
    68d4:	1c6e      	adds	r6, r5, #1
    68d6:	42a3      	cmp	r3, r4
    68d8:	d106      	bne.n	68e8 <strncmp+0x22>
    68da:	f06f 0401 	mvn.w	r4, #1
    68de:	1b64      	subs	r4, r4, r5
    68e0:	4414      	add	r4, r2
    68e2:	42e0      	cmn	r0, r4
    68e4:	d102      	bne.n	68ec <strncmp+0x26>
    68e6:	461c      	mov	r4, r3
    68e8:	1b18      	subs	r0, r3, r4
    68ea:	bd70      	pop	{r4, r5, r6, pc}
    68ec:	4635      	mov	r5, r6
    68ee:	2b00      	cmp	r3, #0
    68f0:	d1ed      	bne.n	68ce <strncmp+0x8>
    68f2:	e7f8      	b.n	68e6 <strncmp+0x20>
    68f4:	4610      	mov	r0, r2
    68f6:	bd70      	pop	{r4, r5, r6, pc}

000068f8 <_strtol_r>:
    68f8:	e92d 47f0 	stmdb	sp!, {r4, r5, r6, r7, r8, r9, r10, lr}
    68fc:	460f      	mov	r7, r1
    68fe:	4c40      	ldr	r4, [pc, #256]	; (6a00 <_strtol_r+0x108>)
    6900:	f8d4 9000 	ldr.w	r9, [r4]
    6904:	463d      	mov	r5, r7
    6906:	f815 eb01 	ldrb.w	lr, [r5], #1
    690a:	eb09 040e 	add.w	r4, r9, lr
    690e:	7866      	ldrb	r6, [r4, #1]
    6910:	f006 0408 	and.w	r4, r6, #8
    6914:	f004 06ff 	and.w	r6, r4, #255	; 0xff
    6918:	b10c      	cbz	r4, 691e <_strtol_r+0x26>
    691a:	462f      	mov	r7, r5
    691c:	e7f2      	b.n	6904 <_strtol_r+0xc>
    691e:	4674      	mov	r4, lr
    6920:	2c2d      	cmp	r4, #45	; 0x2d
    6922:	d103      	bne.n	692c <_strtol_r+0x34>
    6924:	1cbd      	adds	r5, r7, #2
    6926:	787c      	ldrb	r4, [r7, #1]
    6928:	2601      	movs	r6, #1
    692a:	e003      	b.n	6934 <_strtol_r+0x3c>
    692c:	2c2b      	cmp	r4, #43	; 0x2b
    692e:	bf04      	itt	eq
    6930:	787c      	ldrbeq	r4, [r7, #1]
    6932:	1cbd      	addeq	r5, r7, #2
    6934:	b113      	cbz	r3, 693c <_strtol_r+0x44>
    6936:	2b10      	cmp	r3, #16
    6938:	d10a      	bne.n	6950 <_strtol_r+0x58>
    693a:	e05a      	b.n	69f2 <_strtol_r+0xfa>
    693c:	2c30      	cmp	r4, #48	; 0x30
    693e:	d156      	bne.n	69ee <_strtol_r+0xf6>
    6940:	782c      	ldrb	r4, [r5, #0]
    6942:	f004 04df 	and.w	r4, r4, #223	; 0xdf
    6946:	2c58      	cmp	r4, #88	; 0x58
    6948:	d14c      	bne.n	69e4 <_strtol_r+0xec>
    694a:	786c      	ldrb	r4, [r5, #1]
    694c:	2310      	movs	r3, #16
    694e:	3502      	adds	r5, #2
    6950:	2e00      	cmp	r6, #0
    6952:	bf14      	ite	ne
    6954:	f04f 4800 	movne.w	r8, #2147483648	; 0x80000000
    6958:	f06f 4800 	mvneq.w	r8, #2147483648	; 0x80000000
    695c:	fbb8 faf3 	udiv	r10, r8, r3
    6960:	2700      	movs	r7, #0
    6962:	46be      	mov	lr, r7
    6964:	fb03 881a 	mls	r8, r3, r10, r8
    6968:	eb09 0c04 	add.w	r12, r9, r4
    696c:	f89c c001 	ldrb.w	r12, [r12, #1]
    6970:	f01c 0f04 	tst.w	r12, #4
    6974:	d001      	beq.n	697a <_strtol_r+0x82>
    6976:	3c30      	subs	r4, #48	; 0x30
    6978:	e00b      	b.n	6992 <_strtol_r+0x9a>
    697a:	f01c 0c03 	ands.w	r12, r12, #3
    697e:	d01b      	beq.n	69b8 <_strtol_r+0xc0>
    6980:	f1bc 0f01 	cmp.w	r12, #1
    6984:	bf0c      	ite	eq
    6986:	f04f 0c37 	moveq.w	r12, #55	; 0x37
    698a:	f04f 0c57 	movne.w	r12, #87	; 0x57
    698e:	ebcc 0404 	rsb	r4, r12, r4
    6992:	429c      	cmp	r4, r3
    6994:	da10      	bge.n	69b8 <_strtol_r+0xc0>
    6996:	f1b7 3fff 	cmp.w	r7, #4294967295
    699a:	d00a      	beq.n	69b2 <_strtol_r+0xba>
    699c:	45d6      	cmp	lr, r10
    699e:	d806      	bhi.n	69ae <_strtol_r+0xb6>
    69a0:	d101      	bne.n	69a6 <_strtol_r+0xae>
    69a2:	4544      	cmp	r4, r8
    69a4:	dc03      	bgt.n	69ae <_strtol_r+0xb6>
    69a6:	fb03 4e0e 	mla	lr, r3, lr, r4
    69aa:	2701      	movs	r7, #1
    69ac:	e001      	b.n	69b2 <_strtol_r+0xba>
    69ae:	f04f 37ff 	mov.w	r7, #4294967295
    69b2:	f815 4b01 	ldrb.w	r4, [r5], #1
    69b6:	e7d7      	b.n	6968 <_strtol_r+0x70>
    69b8:	1c7c      	adds	r4, r7, #1
    69ba:	4673      	mov	r3, lr
    69bc:	d10a      	bne.n	69d4 <_strtol_r+0xdc>
    69be:	2e00      	cmp	r6, #0
    69c0:	f04f 0122 	mov.w	r1, #34	; 0x22
    69c4:	bf14      	ite	ne
    69c6:	f04f 4300 	movne.w	r3, #2147483648	; 0x80000000
    69ca:	f06f 4300 	mvneq.w	r3, #2147483648	; 0x80000000
    69ce:	6001      	str	r1, [r0, #0]
    69d0:	b92a      	cbnz	r2, 69de <_strtol_r+0xe6>
    69d2:	e011      	b.n	69f8 <_strtol_r+0x100>
    69d4:	b10e      	cbz	r6, 69da <_strtol_r+0xe2>
    69d6:	f1ce 0300 	rsb	r3, lr, #0
    69da:	b16a      	cbz	r2, 69f8 <_strtol_r+0x100>
    69dc:	b107      	cbz	r7, 69e0 <_strtol_r+0xe8>
    69de:	1e69      	subs	r1, r5, #1
    69e0:	6011      	str	r1, [r2, #0]
    69e2:	e009      	b.n	69f8 <_strtol_r+0x100>
    69e4:	2430      	movs	r4, #48	; 0x30
    69e6:	2b00      	cmp	r3, #0
    69e8:	d1b2      	bne.n	6950 <_strtol_r+0x58>
    69ea:	2308      	movs	r3, #8
    69ec:	e7b0      	b.n	6950 <_strtol_r+0x58>
    69ee:	230a      	movs	r3, #10
    69f0:	e7ae      	b.n	6950 <_strtol_r+0x58>
    69f2:	2c30      	cmp	r4, #48	; 0x30
    69f4:	d1ac      	bne.n	6950 <_strtol_r+0x58>
    69f6:	e7a3      	b.n	6940 <_strtol_r+0x48>
    69f8:	4618      	mov	r0, r3
    69fa:	e8bd 87f0 	ldmia.w	sp!, {r4, r5, r6, r7, r8, r9, r10, pc}
    69fe:	bf00      	nop
    6a00:	10000158 	.word	0x10000158

00006a04 <_strtoul_r>:
    6a04:	e92d 47f0 	stmdb	sp!, {r4, r5, r6, r7, r8, r9, r10, lr}
    6a08:	460e      	mov	r6, r1
    6a0a:	4c3b      	ldr	r4, [pc, #236]	; (6af8 <_strtoul_r+0xf4>)
    6a0c:	f8d4 9000 	ldr.w	r9, [r4]
    6a10:	4635      	mov	r5, r6
    6a12:	f815 eb01 	ldrb.w	lr, [r5], #1
    6a16:	eb09 040e 	add.w	r4, r9, lr
    6a1a:	7867      	ldrb	r7, [r4, #1]
    6a1c:	f007 0408 	and.w	r4, r7, #8
    6a20:	f004 07ff 	and.w	r7, r4, #255	; 0xff
    6a24:	b10c      	cbz	r4, 6a2a <_strtoul_r+0x26>
    6a26:	462e      	mov	r6, r5
    6a28:	e7f2      	b.n	6a10 <_strtoul_r+0xc>
    6a2a:	4674      	mov	r4, lr
    6a2c:	2c2d      	cmp	r4, #45	; 0x2d
    6a2e:	d103      	bne.n	6a38 <_strtoul_r+0x34>
    6a30:	1cb5      	adds	r5, r6, #2
    6a32:	7874      	ldrb	r4, [r6, #1]
    6a34:	2701      	movs	r7, #1
    6a36:	e003      	b.n	6a40 <_strtoul_r+0x3c>
    6a38:	2c2b      	cmp	r4, #43	; 0x2b
    6a3a:	bf04      	itt	eq
    6a3c:	7874      	ldrbeq	r4, [r6, #1]
    6a3e:	1cb5      	addeq	r5, r6, #2
    6a40:	b113      	cbz	r3, 6a48 <_strtoul_r+0x44>
    6a42:	2b10      	cmp	r3, #16
    6a44:	d10a      	bne.n	6a5c <_strtoul_r+0x58>
    6a46:	e051      	b.n	6aec <_strtoul_r+0xe8>
    6a48:	2c30      	cmp	r4, #48	; 0x30
    6a4a:	d14d      	bne.n	6ae8 <_strtoul_r+0xe4>
    6a4c:	782c      	ldrb	r4, [r5, #0]
    6a4e:	f004 04df 	and.w	r4, r4, #223	; 0xdf
    6a52:	2c58      	cmp	r4, #88	; 0x58
    6a54:	d143      	bne.n	6ade <_strtoul_r+0xda>
    6a56:	786c      	ldrb	r4, [r5, #1]
    6a58:	2310      	movs	r3, #16
    6a5a:	3502      	adds	r5, #2
    6a5c:	f04f 38ff 	mov.w	r8, #4294967295
    6a60:	fbb8 f8f3 	udiv	r8, r8, r3
    6a64:	fb03 fa08 	mul.w	r10, r3, r8
    6a68:	2600      	movs	r6, #0
    6a6a:	ea6f 0a0a 	mvn.w	r10, r10
    6a6e:	46b6      	mov	lr, r6
    6a70:	eb09 0c04 	add.w	r12, r9, r4
    6a74:	f89c c001 	ldrb.w	r12, [r12, #1]
    6a78:	f01c 0f04 	tst.w	r12, #4
    6a7c:	d001      	beq.n	6a82 <_strtoul_r+0x7e>
    6a7e:	3c30      	subs	r4, #48	; 0x30
    6a80:	e00b      	b.n	6a9a <_strtoul_r+0x96>
    6a82:	f01c 0c03 	ands.w	r12, r12, #3
    6a86:	d01b      	beq.n	6ac0 <_strtoul_r+0xbc>
    6a88:	f1bc 0f01 	cmp.w	r12, #1
    6a8c:	bf0c      	ite	eq
    6a8e:	f04f 0c37 	moveq.w	r12, #55	; 0x37
    6a92:	f04f 0c57 	movne.w	r12, #87	; 0x57
    6a96:	ebcc 0404 	rsb	r4, r12, r4
    6a9a:	429c      	cmp	r4, r3
    6a9c:	da10      	bge.n	6ac0 <_strtoul_r+0xbc>
    6a9e:	f1b6 3fff 	cmp.w	r6, #4294967295
    6aa2:	d00a      	beq.n	6aba <_strtoul_r+0xb6>
    6aa4:	45c6      	cmp	lr, r8
    6aa6:	d806      	bhi.n	6ab6 <_strtoul_r+0xb2>
    6aa8:	d101      	bne.n	6aae <_strtoul_r+0xaa>
    6aaa:	4554      	cmp	r4, r10
    6aac:	dc03      	bgt.n	6ab6 <_strtoul_r+0xb2>
    6aae:	fb03 4e0e 	mla	lr, r3, lr, r4
    6ab2:	2601      	movs	r6, #1
    6ab4:	e001      	b.n	6aba <_strtoul_r+0xb6>
    6ab6:	f04f 36ff 	mov.w	r6, #4294967295
    6aba:	f815 4b01 	ldrb.w	r4, [r5], #1
    6abe:	e7d7      	b.n	6a70 <_strtoul_r+0x6c>
    6ac0:	1c74      	adds	r4, r6, #1
    6ac2:	4673      	mov	r3, lr
    6ac4:	d103      	bne.n	6ace <_strtoul_r+0xca>
    6ac6:	2322      	movs	r3, #34	; 0x22
    6ac8:	6003      	str	r3, [r0, #0]
    6aca:	4633      	mov	r3, r6
    6acc:	e002      	b.n	6ad4 <_strtoul_r+0xd0>
    6ace:	b10f      	cbz	r7, 6ad4 <_strtoul_r+0xd0>
    6ad0:	f1ce 0300 	rsb	r3, lr, #0
    6ad4:	b16a      	cbz	r2, 6af2 <_strtoul_r+0xee>
    6ad6:	b106      	cbz	r6, 6ada <_strtoul_r+0xd6>
    6ad8:	1e69      	subs	r1, r5, #1
    6ada:	6011      	str	r1, [r2, #0]
    6adc:	e009      	b.n	6af2 <_strtoul_r+0xee>
    6ade:	2430      	movs	r4, #48	; 0x30
    6ae0:	2b00      	cmp	r3, #0
    6ae2:	d1bb      	bne.n	6a5c <_strtoul_r+0x58>
    6ae4:	2308      	movs	r3, #8
    6ae6:	e7b9      	b.n	6a5c <_strtoul_r+0x58>
    6ae8:	230a      	movs	r3, #10
    6aea:	e7b7      	b.n	6a5c <_strtoul_r+0x58>
    6aec:	2c30      	cmp	r4, #48	; 0x30
    6aee:	d1b5      	bne.n	6a5c <_strtoul_r+0x58>
    6af0:	e7ac      	b.n	6a4c <_strtoul_r+0x48>
    6af2:	4618      	mov	r0, r3
    6af4:	e8bd 87f0 	ldmia.w	sp!, {r4, r5, r6, r7, r8, r9, r10, pc}
    6af8:	10000158 	.word	0x10000158

00006afc <__submore>:
    6afc:	e92d 41f0 	stmdb	sp!, {r4, r5, r6, r7, r8, lr}
    6b00:	460c      	mov	r4, r1
    6b02:	6b49      	ldr	r1, [r1, #52]	; 0x34
    6b04:	f104 0344 	add.w	r3, r4, #68	; 0x44
    6b08:	4299      	cmp	r1, r3
    6b0a:	d11a      	bne.n	6b42 <__submore+0x46>
    6b0c:	f44f 6180 	mov.w	r1, #1024	; 0x400
    6b10:	f7ff f890 	bl	5c34 <_malloc_r>
    6b14:	b918      	cbnz	r0, 6b1e <__submore+0x22>
    6b16:	f04f 30ff 	mov.w	r0, #4294967295
    6b1a:	e8bd 81f0 	ldmia.w	sp!, {r4, r5, r6, r7, r8, pc}
    6b1e:	f44f 6380 	mov.w	r3, #1024	; 0x400
    6b22:	63a3      	str	r3, [r4, #56]	; 0x38
    6b24:	f894 3046 	ldrb.w	r3, [r4, #70]	; 0x46
    6b28:	6360      	str	r0, [r4, #52]	; 0x34
    6b2a:	f880 33ff 	strb.w	r3, [r0, #1023]	; 0x3ff
    6b2e:	f894 3045 	ldrb.w	r3, [r4, #69]	; 0x45
    6b32:	f200 30fd 	addw	r0, r0, #1021	; 0x3fd
    6b36:	7043      	strb	r3, [r0, #1]
    6b38:	f894 3044 	ldrb.w	r3, [r4, #68]	; 0x44
    6b3c:	7003      	strb	r3, [r0, #0]
    6b3e:	6020      	str	r0, [r4, #0]
    6b40:	e012      	b.n	6b68 <__submore+0x6c>
    6b42:	6ba6      	ldr	r6, [r4, #56]	; 0x38
    6b44:	0077      	lsls	r7, r6, #1
    6b46:	463a      	mov	r2, r7
    6b48:	f000 f960 	bl	6e0c <_realloc_r>
    6b4c:	4605      	mov	r5, r0
    6b4e:	2800      	cmp	r0, #0
    6b50:	d0e1      	beq.n	6b16 <__submore+0x1a>
    6b52:	eb00 0806 	add.w	r8, r0, r6
    6b56:	4640      	mov	r0, r8
    6b58:	4629      	mov	r1, r5
    6b5a:	4632      	mov	r2, r6
    6b5c:	f7fe fff8 	bl	5b50 <memcpy>
    6b60:	f8c4 8000 	str.w	r8, [r4]
    6b64:	6365      	str	r5, [r4, #52]	; 0x34
    6b66:	63a7      	str	r7, [r4, #56]	; 0x38
    6b68:	2000      	movs	r0, #0
    6b6a:	e8bd 81f0 	ldmia.w	sp!, {r4, r5, r6, r7, r8, pc}
	...

00006b70 <__swbuf_r>:
    6b70:	b570      	push	{r4, r5, r6, lr}
    6b72:	460d      	mov	r5, r1
    6b74:	4614      	mov	r4, r2
    6b76:	4606      	mov	r6, r0
    6b78:	b118      	cbz	r0, 6b82 <__swbuf_r+0x12>
    6b7a:	6983      	ldr	r3, [r0, #24]
    6b7c:	b90b      	cbnz	r3, 6b82 <__swbuf_r+0x12>
    6b7e:	f7fe fdc7 	bl	5710 <__sinit>
    6b82:	4b22      	ldr	r3, [pc, #136]	; (6c0c <__swbuf_r+0x9c>)
    6b84:	429c      	cmp	r4, r3
    6b86:	d101      	bne.n	6b8c <__swbuf_r+0x1c>
    6b88:	6874      	ldr	r4, [r6, #4]
    6b8a:	e008      	b.n	6b9e <__swbuf_r+0x2e>
    6b8c:	4b20      	ldr	r3, [pc, #128]	; (6c10 <__swbuf_r+0xa0>)
    6b8e:	429c      	cmp	r4, r3
    6b90:	d101      	bne.n	6b96 <__swbuf_r+0x26>
    6b92:	68b4      	ldr	r4, [r6, #8]
    6b94:	e003      	b.n	6b9e <__swbuf_r+0x2e>
    6b96:	4b1f      	ldr	r3, [pc, #124]	; (6c14 <__swbuf_r+0xa4>)
    6b98:	429c      	cmp	r4, r3
    6b9a:	bf08      	it	eq
    6b9c:	68f4      	ldreq	r4, [r6, #12]
    6b9e:	69a3      	ldr	r3, [r4, #24]
    6ba0:	60a3      	str	r3, [r4, #8]
    6ba2:	89a3      	ldrh	r3, [r4, #12]
    6ba4:	071a      	lsls	r2, r3, #28
    6ba6:	d509      	bpl.n	6bbc <__swbuf_r+0x4c>
    6ba8:	6923      	ldr	r3, [r4, #16]
    6baa:	b13b      	cbz	r3, 6bbc <__swbuf_r+0x4c>
    6bac:	6823      	ldr	r3, [r4, #0]
    6bae:	6920      	ldr	r0, [r4, #16]
    6bb0:	b2ed      	uxtb	r5, r5
    6bb2:	1a18      	subs	r0, r3, r0
    6bb4:	6963      	ldr	r3, [r4, #20]
    6bb6:	4298      	cmp	r0, r3
    6bb8:	db0f      	blt.n	6bda <__swbuf_r+0x6a>
    6bba:	e008      	b.n	6bce <__swbuf_r+0x5e>
    6bbc:	4630      	mov	r0, r6
    6bbe:	4621      	mov	r1, r4
    6bc0:	f000 f83c 	bl	6c3c <__swsetup_r>
    6bc4:	2800      	cmp	r0, #0
    6bc6:	d0f1      	beq.n	6bac <__swbuf_r+0x3c>
    6bc8:	f04f 30ff 	mov.w	r0, #4294967295
    6bcc:	bd70      	pop	{r4, r5, r6, pc}
    6bce:	4630      	mov	r0, r6
    6bd0:	4621      	mov	r1, r4
    6bd2:	f7fe fd21 	bl	5618 <_fflush_r>
    6bd6:	2800      	cmp	r0, #0
    6bd8:	d1f6      	bne.n	6bc8 <__swbuf_r+0x58>
    6bda:	68a3      	ldr	r3, [r4, #8]
    6bdc:	3001      	adds	r0, #1
    6bde:	3b01      	subs	r3, #1
    6be0:	60a3      	str	r3, [r4, #8]
    6be2:	6823      	ldr	r3, [r4, #0]
    6be4:	1c5a      	adds	r2, r3, #1
    6be6:	6022      	str	r2, [r4, #0]
    6be8:	701d      	strb	r5, [r3, #0]
    6bea:	6963      	ldr	r3, [r4, #20]
    6bec:	4298      	cmp	r0, r3
    6bee:	d004      	beq.n	6bfa <__swbuf_r+0x8a>
    6bf0:	89a3      	ldrh	r3, [r4, #12]
    6bf2:	07db      	lsls	r3, r3, #31
    6bf4:	d507      	bpl.n	6c06 <__swbuf_r+0x96>
    6bf6:	2d0a      	cmp	r5, #10
    6bf8:	d105      	bne.n	6c06 <__swbuf_r+0x96>
    6bfa:	4630      	mov	r0, r6
    6bfc:	4621      	mov	r1, r4
    6bfe:	f7fe fd0b 	bl	5618 <_fflush_r>
    6c02:	2800      	cmp	r0, #0
    6c04:	d1e0      	bne.n	6bc8 <__swbuf_r+0x58>
    6c06:	4628      	mov	r0, r5
    6c08:	bd70      	pop	{r4, r5, r6, pc}
    6c0a:	bf00      	nop
    6c0c:	00007c20 	.word	0x00007c20
    6c10:	00007c40 	.word	0x00007c40
    6c14:	00007c60 	.word	0x00007c60

00006c18 <_write_r>:
    6c18:	b538      	push	{r3, r4, r5, lr}
    6c1a:	4c07      	ldr	r4, [pc, #28]	; (6c38 <_write_r+0x20>)
    6c1c:	4605      	mov	r5, r0
    6c1e:	2000      	movs	r0, #0
    6c20:	6020      	str	r0, [r4, #0]
    6c22:	4608      	mov	r0, r1
    6c24:	4611      	mov	r1, r2
    6c26:	461a      	mov	r2, r3
    6c28:	f7fe f818 	bl	4c5c <_write>
    6c2c:	1c43      	adds	r3, r0, #1
    6c2e:	d102      	bne.n	6c36 <_write_r+0x1e>
    6c30:	6823      	ldr	r3, [r4, #0]
    6c32:	b103      	cbz	r3, 6c36 <_write_r+0x1e>
    6c34:	602b      	str	r3, [r5, #0]
    6c36:	bd38      	pop	{r3, r4, r5, pc}
    6c38:	10000db0 	.word	0x10000db0

00006c3c <__swsetup_r>:
    6c3c:	4b31      	ldr	r3, [pc, #196]	; (6d04 <__swsetup_r+0xc8>)
    6c3e:	b570      	push	{r4, r5, r6, lr}
    6c40:	681d      	ldr	r5, [r3, #0]
    6c42:	4606      	mov	r6, r0
    6c44:	460c      	mov	r4, r1
    6c46:	b125      	cbz	r5, 6c52 <__swsetup_r+0x16>
    6c48:	69ab      	ldr	r3, [r5, #24]
    6c4a:	b913      	cbnz	r3, 6c52 <__swsetup_r+0x16>
    6c4c:	4628      	mov	r0, r5
    6c4e:	f7fe fd5f 	bl	5710 <__sinit>
    6c52:	4b2d      	ldr	r3, [pc, #180]	; (6d08 <__swsetup_r+0xcc>)
    6c54:	429c      	cmp	r4, r3
    6c56:	d101      	bne.n	6c5c <__swsetup_r+0x20>
    6c58:	686c      	ldr	r4, [r5, #4]
    6c5a:	e008      	b.n	6c6e <__swsetup_r+0x32>
    6c5c:	4b2b      	ldr	r3, [pc, #172]	; (6d0c <__swsetup_r+0xd0>)
    6c5e:	429c      	cmp	r4, r3
    6c60:	d101      	bne.n	6c66 <__swsetup_r+0x2a>
    6c62:	68ac      	ldr	r4, [r5, #8]
    6c64:	e003      	b.n	6c6e <__swsetup_r+0x32>
    6c66:	4b2a      	ldr	r3, [pc, #168]	; (6d10 <__swsetup_r+0xd4>)
    6c68:	429c      	cmp	r4, r3
    6c6a:	bf08      	it	eq
    6c6c:	68ec      	ldreq	r4, [r5, #12]
    6c6e:	89a3      	ldrh	r3, [r4, #12]
    6c70:	b29a      	uxth	r2, r3
    6c72:	0711      	lsls	r1, r2, #28
    6c74:	d41d      	bmi.n	6cb2 <__swsetup_r+0x76>
    6c76:	06d5      	lsls	r5, r2, #27
    6c78:	d402      	bmi.n	6c80 <__swsetup_r+0x44>
    6c7a:	2209      	movs	r2, #9
    6c7c:	6032      	str	r2, [r6, #0]
    6c7e:	e038      	b.n	6cf2 <__swsetup_r+0xb6>
    6c80:	0750      	lsls	r0, r2, #29
    6c82:	d512      	bpl.n	6caa <__swsetup_r+0x6e>
    6c84:	6b61      	ldr	r1, [r4, #52]	; 0x34
    6c86:	b141      	cbz	r1, 6c9a <__swsetup_r+0x5e>
    6c88:	f104 0344 	add.w	r3, r4, #68	; 0x44
    6c8c:	4299      	cmp	r1, r3
    6c8e:	d002      	beq.n	6c96 <__swsetup_r+0x5a>
    6c90:	4630      	mov	r0, r6
    6c92:	f7fe ff8b 	bl	5bac <_free_r>
    6c96:	2300      	movs	r3, #0
    6c98:	6363      	str	r3, [r4, #52]	; 0x34
    6c9a:	89a3      	ldrh	r3, [r4, #12]
    6c9c:	f023 0324 	bic.w	r3, r3, #36	; 0x24
    6ca0:	81a3      	strh	r3, [r4, #12]
    6ca2:	2300      	movs	r3, #0
    6ca4:	6063      	str	r3, [r4, #4]
    6ca6:	6923      	ldr	r3, [r4, #16]
    6ca8:	6023      	str	r3, [r4, #0]
    6caa:	89a3      	ldrh	r3, [r4, #12]
    6cac:	f043 0308 	orr.w	r3, r3, #8
    6cb0:	81a3      	strh	r3, [r4, #12]
    6cb2:	6923      	ldr	r3, [r4, #16]
    6cb4:	b94b      	cbnz	r3, 6cca <__swsetup_r+0x8e>
    6cb6:	89a3      	ldrh	r3, [r4, #12]
    6cb8:	f403 7320 	and.w	r3, r3, #640	; 0x280
    6cbc:	f5b3 7f00 	cmp.w	r3, #512	; 0x200
    6cc0:	d003      	beq.n	6cca <__swsetup_r+0x8e>
    6cc2:	4630      	mov	r0, r6
    6cc4:	4621      	mov	r1, r4
    6cc6:	f7fe fed9 	bl	5a7c <__smakebuf_r>
    6cca:	89a3      	ldrh	r3, [r4, #12]
    6ccc:	f013 0201 	ands.w	r2, r3, #1
    6cd0:	d005      	beq.n	6cde <__swsetup_r+0xa2>
    6cd2:	2200      	movs	r2, #0
    6cd4:	60a2      	str	r2, [r4, #8]
    6cd6:	6962      	ldr	r2, [r4, #20]
    6cd8:	4252      	negs	r2, r2
    6cda:	61a2      	str	r2, [r4, #24]
    6cdc:	e003      	b.n	6ce6 <__swsetup_r+0xaa>
    6cde:	0799      	lsls	r1, r3, #30
    6ce0:	bf58      	it	pl
    6ce2:	6962      	ldrpl	r2, [r4, #20]
    6ce4:	60a2      	str	r2, [r4, #8]
    6ce6:	6922      	ldr	r2, [r4, #16]
    6ce8:	b94a      	cbnz	r2, 6cfe <__swsetup_r+0xc2>
    6cea:	f003 0080 	and.w	r0, r3, #128	; 0x80
    6cee:	b280      	uxth	r0, r0
    6cf0:	b130      	cbz	r0, 6d00 <__swsetup_r+0xc4>
    6cf2:	f043 0340 	orr.w	r3, r3, #64	; 0x40
    6cf6:	81a3      	strh	r3, [r4, #12]
    6cf8:	f04f 30ff 	mov.w	r0, #4294967295
    6cfc:	bd70      	pop	{r4, r5, r6, pc}
    6cfe:	2000      	movs	r0, #0
    6d00:	bd70      	pop	{r4, r5, r6, pc}
    6d02:	bf00      	nop
    6d04:	10000154 	.word	0x10000154
    6d08:	00007c20 	.word	0x00007c20
    6d0c:	00007c40 	.word	0x00007c40
    6d10:	00007c60 	.word	0x00007c60

00006d14 <_close_r>:
    6d14:	b538      	push	{r3, r4, r5, lr}
    6d16:	4c06      	ldr	r4, [pc, #24]	; (6d30 <_close_r+0x1c>)
    6d18:	2300      	movs	r3, #0
    6d1a:	4605      	mov	r5, r0
    6d1c:	4608      	mov	r0, r1
    6d1e:	6023      	str	r3, [r4, #0]
    6d20:	f7fd ff88 	bl	4c34 <_close>
    6d24:	1c43      	adds	r3, r0, #1
    6d26:	d102      	bne.n	6d2e <_close_r+0x1a>
    6d28:	6823      	ldr	r3, [r4, #0]
    6d2a:	b103      	cbz	r3, 6d2e <_close_r+0x1a>
    6d2c:	602b      	str	r3, [r5, #0]
    6d2e:	bd38      	pop	{r3, r4, r5, pc}
    6d30:	10000db0 	.word	0x10000db0

00006d34 <__sflags>:
    6d34:	780b      	ldrb	r3, [r1, #0]
    6d36:	b530      	push	{r4, r5, lr}
    6d38:	2b72      	cmp	r3, #114	; 0x72
    6d3a:	d00e      	beq.n	6d5a <__sflags+0x26>
    6d3c:	2b77      	cmp	r3, #119	; 0x77
    6d3e:	d007      	beq.n	6d50 <__sflags+0x1c>
    6d40:	2b61      	cmp	r3, #97	; 0x61
    6d42:	d10e      	bne.n	6d62 <__sflags+0x2e>
    6d44:	f44f 7402 	mov.w	r4, #520	; 0x208
    6d48:	2301      	movs	r3, #1
    6d4a:	f44f 7084 	mov.w	r0, #264	; 0x108
    6d4e:	e01a      	b.n	6d86 <__sflags+0x52>
    6d50:	f44f 64c0 	mov.w	r4, #1536	; 0x600
    6d54:	2301      	movs	r3, #1
    6d56:	2008      	movs	r0, #8
    6d58:	e015      	b.n	6d86 <__sflags+0x52>
    6d5a:	2400      	movs	r4, #0
    6d5c:	4623      	mov	r3, r4
    6d5e:	2004      	movs	r0, #4
    6d60:	e011      	b.n	6d86 <__sflags+0x52>
    6d62:	2316      	movs	r3, #22
    6d64:	6003      	str	r3, [r0, #0]
    6d66:	2000      	movs	r0, #0
    6d68:	bd30      	pop	{r4, r5, pc}
    6d6a:	2d62      	cmp	r5, #98	; 0x62
    6d6c:	d010      	beq.n	6d90 <__sflags+0x5c>
    6d6e:	2d78      	cmp	r5, #120	; 0x78
    6d70:	d011      	beq.n	6d96 <__sflags+0x62>
    6d72:	2d2b      	cmp	r5, #43	; 0x2b
    6d74:	d107      	bne.n	6d86 <__sflags+0x52>
    6d76:	f020 001c 	bic.w	r0, r0, #28
    6d7a:	f023 0303 	bic.w	r3, r3, #3
    6d7e:	f040 0010 	orr.w	r0, r0, #16
    6d82:	f043 0302 	orr.w	r3, r3, #2
    6d86:	f811 5f01 	ldrb.w	r5, [r1, #1]!
    6d8a:	2d00      	cmp	r5, #0
    6d8c:	d1ed      	bne.n	6d6a <__sflags+0x36>
    6d8e:	e005      	b.n	6d9c <__sflags+0x68>
    6d90:	f443 3380 	orr.w	r3, r3, #65536	; 0x10000
    6d94:	e7f7      	b.n	6d86 <__sflags+0x52>
    6d96:	f443 6300 	orr.w	r3, r3, #2048	; 0x800
    6d9a:	e7f4      	b.n	6d86 <__sflags+0x52>
    6d9c:	4323      	orrs	r3, r4
    6d9e:	6013      	str	r3, [r2, #0]
    6da0:	bd30      	pop	{r4, r5, pc}
	...

00006da4 <_fstat_r>:
    6da4:	b538      	push	{r3, r4, r5, lr}
    6da6:	4c07      	ldr	r4, [pc, #28]	; (6dc4 <_fstat_r+0x20>)
    6da8:	2300      	movs	r3, #0
    6daa:	4605      	mov	r5, r0
    6dac:	4608      	mov	r0, r1
    6dae:	4611      	mov	r1, r2
    6db0:	6023      	str	r3, [r4, #0]
    6db2:	f7fd ffbf 	bl	4d34 <_fstat>
    6db6:	1c43      	adds	r3, r0, #1
    6db8:	d102      	bne.n	6dc0 <_fstat_r+0x1c>
    6dba:	6823      	ldr	r3, [r4, #0]
    6dbc:	b103      	cbz	r3, 6dc0 <_fstat_r+0x1c>
    6dbe:	602b      	str	r3, [r5, #0]
    6dc0:	bd38      	pop	{r3, r4, r5, pc}
    6dc2:	bf00      	nop
    6dc4:	10000db0 	.word	0x10000db0

00006dc8 <_isatty_r>:
    6dc8:	b538      	push	{r3, r4, r5, lr}
    6dca:	4c06      	ldr	r4, [pc, #24]	; (6de4 <_isatty_r+0x1c>)
    6dcc:	2300      	movs	r3, #0
    6dce:	4605      	mov	r5, r0
    6dd0:	4608      	mov	r0, r1
    6dd2:	6023      	str	r3, [r4, #0]
    6dd4:	f7fb feee 	bl	2bb4 <__wrap__isatty>
    6dd8:	1c43      	adds	r3, r0, #1
    6dda:	d102      	bne.n	6de2 <_isatty_r+0x1a>
    6ddc:	6823      	ldr	r3, [r4, #0]
    6dde:	b103      	cbz	r3, 6de2 <_isatty_r+0x1a>
    6de0:	602b      	str	r3, [r5, #0]
    6de2:	bd38      	pop	{r3, r4, r5, pc}
    6de4:	10000db0 	.word	0x10000db0

00006de8 <_lseek_r>:
    6de8:	b538      	push	{r3, r4, r5, lr}
    6dea:	4c07      	ldr	r4, [pc, #28]	; (6e08 <_lseek_r+0x20>)
    6dec:	4605      	mov	r5, r0
    6dee:	2000      	movs	r0, #0
    6df0:	6020      	str	r0, [r4, #0]
    6df2:	4608      	mov	r0, r1
    6df4:	4611      	mov	r1, r2
    6df6:	461a      	mov	r2, r3
    6df8:	f7fd ff8a 	bl	4d10 <_lseek>
    6dfc:	1c43      	adds	r3, r0, #1
    6dfe:	d102      	bne.n	6e06 <_lseek_r+0x1e>
    6e00:	6823      	ldr	r3, [r4, #0]
    6e02:	b103      	cbz	r3, 6e06 <_lseek_r+0x1e>
    6e04:	602b      	str	r3, [r5, #0]
    6e06:	bd38      	pop	{r3, r4, r5, pc}
    6e08:	10000db0 	.word	0x10000db0

00006e0c <_realloc_r>:
    6e0c:	b5f8      	push	{r3, r4, r5, r6, r7, lr}
    6e0e:	4607      	mov	r7, r0
    6e10:	4615      	mov	r5, r2
    6e12:	460e      	mov	r6, r1
    6e14:	b921      	cbnz	r1, 6e20 <_realloc_r+0x14>
    6e16:	4611      	mov	r1, r2
    6e18:	e8bd 40f8 	ldmia.w	sp!, {r3, r4, r5, r6, r7, lr}
    6e1c:	f7fe bf0a 	b.w	5c34 <_malloc_r>
    6e20:	b91a      	cbnz	r2, 6e2a <_realloc_r+0x1e>
    6e22:	f7fe fec3 	bl	5bac <_free_r>
    6e26:	4628      	mov	r0, r5
    6e28:	bdf8      	pop	{r3, r4, r5, r6, r7, pc}
    6e2a:	f000 fb1b 	bl	7464 <_malloc_usable_size_r>
    6e2e:	42a8      	cmp	r0, r5
    6e30:	d20e      	bcs.n	6e50 <_realloc_r+0x44>
    6e32:	4638      	mov	r0, r7
    6e34:	4629      	mov	r1, r5
    6e36:	f7fe fefd 	bl	5c34 <_malloc_r>
    6e3a:	4604      	mov	r4, r0
    6e3c:	b150      	cbz	r0, 6e54 <_realloc_r+0x48>
    6e3e:	4631      	mov	r1, r6
    6e40:	462a      	mov	r2, r5
    6e42:	f7fe fe85 	bl	5b50 <memcpy>
    6e46:	4638      	mov	r0, r7
    6e48:	4631      	mov	r1, r6
    6e4a:	f7fe feaf 	bl	5bac <_free_r>
    6e4e:	e001      	b.n	6e54 <_realloc_r+0x48>
    6e50:	4630      	mov	r0, r6
    6e52:	bdf8      	pop	{r3, r4, r5, r6, r7, pc}
    6e54:	4620      	mov	r0, r4
    6e56:	bdf8      	pop	{r3, r4, r5, r6, r7, pc}

00006e58 <__ssputs_r>:
    6e58:	e92d 47f0 	stmdb	sp!, {r4, r5, r6, r7, r8, r9, r10, lr}
    6e5c:	688e      	ldr	r6, [r1, #8]
    6e5e:	4682      	mov	r10, r0
    6e60:	42b3      	cmp	r3, r6
    6e62:	460c      	mov	r4, r1
    6e64:	4690      	mov	r8, r2
    6e66:	4699      	mov	r9, r3
    6e68:	d340      	bcc.n	6eec <__ssputs_r+0x94>
    6e6a:	898a      	ldrh	r2, [r1, #12]
    6e6c:	f412 6f90 	tst.w	r2, #1152	; 0x480
    6e70:	d03a      	beq.n	6ee8 <__ssputs_r+0x90>
    6e72:	6825      	ldr	r5, [r4, #0]
    6e74:	6909      	ldr	r1, [r1, #16]
    6e76:	2302      	movs	r3, #2
    6e78:	1a6f      	subs	r7, r5, r1
    6e7a:	6965      	ldr	r5, [r4, #20]
    6e7c:	eb05 0545 	add.w	r5, r5, r5, lsl #1
    6e80:	fb95 f5f3 	sdiv	r5, r5, r3
    6e84:	1c7b      	adds	r3, r7, #1
    6e86:	444b      	add	r3, r9
    6e88:	429d      	cmp	r5, r3
    6e8a:	bf38      	it	cc
    6e8c:	461d      	movcc	r5, r3
    6e8e:	0553      	lsls	r3, r2, #21
    6e90:	d50f      	bpl.n	6eb2 <__ssputs_r+0x5a>
    6e92:	4629      	mov	r1, r5
    6e94:	f7fe fece 	bl	5c34 <_malloc_r>
    6e98:	4606      	mov	r6, r0
    6e9a:	b198      	cbz	r0, 6ec4 <__ssputs_r+0x6c>
    6e9c:	6921      	ldr	r1, [r4, #16]
    6e9e:	463a      	mov	r2, r7
    6ea0:	f7fe fe56 	bl	5b50 <memcpy>
    6ea4:	89a3      	ldrh	r3, [r4, #12]
    6ea6:	f423 6390 	bic.w	r3, r3, #1152	; 0x480
    6eaa:	f043 0380 	orr.w	r3, r3, #128	; 0x80
    6eae:	81a3      	strh	r3, [r4, #12]
    6eb0:	e013      	b.n	6eda <__ssputs_r+0x82>
    6eb2:	462a      	mov	r2, r5
    6eb4:	f7ff ffaa 	bl	6e0c <_realloc_r>
    6eb8:	4606      	mov	r6, r0
    6eba:	b970      	cbnz	r0, 6eda <__ssputs_r+0x82>
    6ebc:	4650      	mov	r0, r10
    6ebe:	6921      	ldr	r1, [r4, #16]
    6ec0:	f7fe fe74 	bl	5bac <_free_r>
    6ec4:	230c      	movs	r3, #12
    6ec6:	f8ca 3000 	str.w	r3, [r10]
    6eca:	89a3      	ldrh	r3, [r4, #12]
    6ecc:	f04f 30ff 	mov.w	r0, #4294967295
    6ed0:	f043 0340 	orr.w	r3, r3, #64	; 0x40
    6ed4:	81a3      	strh	r3, [r4, #12]
    6ed6:	e8bd 87f0 	ldmia.w	sp!, {r4, r5, r6, r7, r8, r9, r10, pc}
    6eda:	6126      	str	r6, [r4, #16]
    6edc:	443e      	add	r6, r7
    6ede:	6026      	str	r6, [r4, #0]
    6ee0:	464e      	mov	r6, r9
    6ee2:	6165      	str	r5, [r4, #20]
    6ee4:	1bed      	subs	r5, r5, r7
    6ee6:	60a5      	str	r5, [r4, #8]
    6ee8:	45b1      	cmp	r9, r6
    6eea:	d200      	bcs.n	6eee <__ssputs_r+0x96>
    6eec:	464e      	mov	r6, r9
    6eee:	4632      	mov	r2, r6
    6ef0:	6820      	ldr	r0, [r4, #0]
    6ef2:	4641      	mov	r1, r8
    6ef4:	f7fe fe37 	bl	5b66 <memmove>
    6ef8:	68a3      	ldr	r3, [r4, #8]
    6efa:	2000      	movs	r0, #0
    6efc:	1b9b      	subs	r3, r3, r6
    6efe:	60a3      	str	r3, [r4, #8]
    6f00:	6823      	ldr	r3, [r4, #0]
    6f02:	441e      	add	r6, r3
    6f04:	6026      	str	r6, [r4, #0]
    6f06:	e8bd 87f0 	ldmia.w	sp!, {r4, r5, r6, r7, r8, r9, r10, pc}
	...

00006f0c <_svfiprintf_r>:
    6f0c:	e92d 43f0 	stmdb	sp!, {r4, r5, r6, r7, r8, r9, lr}
    6f10:	b09d      	sub	sp, #116	; 0x74
    6f12:	9303      	str	r3, [sp, #12]
    6f14:	898b      	ldrh	r3, [r1, #12]
    6f16:	4606      	mov	r6, r0
    6f18:	061c      	lsls	r4, r3, #24
    6f1a:	460d      	mov	r5, r1
    6f1c:	4690      	mov	r8, r2
    6f1e:	d50c      	bpl.n	6f3a <_svfiprintf_r+0x2e>
    6f20:	690b      	ldr	r3, [r1, #16]
    6f22:	b953      	cbnz	r3, 6f3a <_svfiprintf_r+0x2e>
    6f24:	2140      	movs	r1, #64	; 0x40
    6f26:	f7fe fe85 	bl	5c34 <_malloc_r>
    6f2a:	6028      	str	r0, [r5, #0]
    6f2c:	6128      	str	r0, [r5, #16]
    6f2e:	b910      	cbnz	r0, 6f36 <_svfiprintf_r+0x2a>
    6f30:	230c      	movs	r3, #12
    6f32:	6033      	str	r3, [r6, #0]
    6f34:	e0cc      	b.n	70d0 <_svfiprintf_r+0x1c4>
    6f36:	2340      	movs	r3, #64	; 0x40
    6f38:	616b      	str	r3, [r5, #20]
    6f3a:	2300      	movs	r3, #0
    6f3c:	9309      	str	r3, [sp, #36]	; 0x24
    6f3e:	2320      	movs	r3, #32
    6f40:	f88d 3029 	strb.w	r3, [sp, #41]	; 0x29
    6f44:	2330      	movs	r3, #48	; 0x30
    6f46:	f88d 302a 	strb.w	r3, [sp, #42]	; 0x2a
    6f4a:	4643      	mov	r3, r8
    6f4c:	461c      	mov	r4, r3
    6f4e:	f813 2b01 	ldrb.w	r2, [r3], #1
    6f52:	b91a      	cbnz	r2, 6f5c <_svfiprintf_r+0x50>
    6f54:	ebb4 0908 	subs.w	r9, r4, r8
    6f58:	d00f      	beq.n	6f7a <_svfiprintf_r+0x6e>
    6f5a:	e002      	b.n	6f62 <_svfiprintf_r+0x56>
    6f5c:	2a25      	cmp	r2, #37	; 0x25
    6f5e:	d1f5      	bne.n	6f4c <_svfiprintf_r+0x40>
    6f60:	e7f8      	b.n	6f54 <_svfiprintf_r+0x48>
    6f62:	4630      	mov	r0, r6
    6f64:	4629      	mov	r1, r5
    6f66:	4642      	mov	r2, r8
    6f68:	464b      	mov	r3, r9
    6f6a:	f7ff ff75 	bl	6e58 <__ssputs_r>
    6f6e:	3001      	adds	r0, #1
    6f70:	f000 80a9 	beq.w	70c6 <_svfiprintf_r+0x1ba>
    6f74:	9b09      	ldr	r3, [sp, #36]	; 0x24
    6f76:	444b      	add	r3, r9
    6f78:	9309      	str	r3, [sp, #36]	; 0x24
    6f7a:	7823      	ldrb	r3, [r4, #0]
    6f7c:	2b00      	cmp	r3, #0
    6f7e:	f000 80a2 	beq.w	70c6 <_svfiprintf_r+0x1ba>
    6f82:	2300      	movs	r3, #0
    6f84:	f04f 32ff 	mov.w	r2, #4294967295
    6f88:	9304      	str	r3, [sp, #16]
    6f8a:	9307      	str	r3, [sp, #28]
    6f8c:	9205      	str	r2, [sp, #20]
    6f8e:	9306      	str	r3, [sp, #24]
    6f90:	f88d 3053 	strb.w	r3, [sp, #83]	; 0x53
    6f94:	931a      	str	r3, [sp, #104]	; 0x68
    6f96:	f104 0801 	add.w	r8, r4, #1
    6f9a:	4644      	mov	r4, r8
    6f9c:	f8df 9148 	ldr.w	r9, [pc, #328]	; 70e8 <_svfiprintf_r+0x1dc>
    6fa0:	7821      	ldrb	r1, [r4, #0]
    6fa2:	4648      	mov	r0, r9
    6fa4:	2205      	movs	r2, #5
    6fa6:	f7fe fdc5 	bl	5b34 <memchr>
    6faa:	f108 0801 	add.w	r8, r8, #1
    6fae:	9b04      	ldr	r3, [sp, #16]
    6fb0:	b130      	cbz	r0, 6fc0 <_svfiprintf_r+0xb4>
    6fb2:	ebc9 0000 	rsb	r0, r9, r0
    6fb6:	2201      	movs	r2, #1
    6fb8:	4082      	lsls	r2, r0
    6fba:	4313      	orrs	r3, r2
    6fbc:	9304      	str	r3, [sp, #16]
    6fbe:	e7ec      	b.n	6f9a <_svfiprintf_r+0x8e>
    6fc0:	06d8      	lsls	r0, r3, #27
    6fc2:	bf44      	itt	mi
    6fc4:	2220      	movmi	r2, #32
    6fc6:	f88d 2053 	strbmi.w	r2, [sp, #83]	; 0x53
    6fca:	0719      	lsls	r1, r3, #28
    6fcc:	bf44      	itt	mi
    6fce:	222b      	movmi	r2, #43	; 0x2b
    6fd0:	f88d 2053 	strbmi.w	r2, [sp, #83]	; 0x53
    6fd4:	7822      	ldrb	r2, [r4, #0]
    6fd6:	2a2a      	cmp	r2, #42	; 0x2a
    6fd8:	d002      	beq.n	6fe0 <_svfiprintf_r+0xd4>
    6fda:	9907      	ldr	r1, [sp, #28]
    6fdc:	4623      	mov	r3, r4
    6fde:	e00e      	b.n	6ffe <_svfiprintf_r+0xf2>
    6fe0:	9a03      	ldr	r2, [sp, #12]
    6fe2:	3401      	adds	r4, #1
    6fe4:	1d11      	adds	r1, r2, #4
    6fe6:	6812      	ldr	r2, [r2, #0]
    6fe8:	9103      	str	r1, [sp, #12]
    6fea:	2a00      	cmp	r2, #0
    6fec:	bfbb      	ittet	lt
    6fee:	4252      	neglt	r2, r2
    6ff0:	f043 0302 	orrlt.w	r3, r3, #2
    6ff4:	9207      	strge	r2, [sp, #28]
    6ff6:	9207      	strlt	r2, [sp, #28]
    6ff8:	bfb8      	it	lt
    6ffa:	9304      	strlt	r3, [sp, #16]
    6ffc:	e00a      	b.n	7014 <_svfiprintf_r+0x108>
    6ffe:	461c      	mov	r4, r3
    7000:	7822      	ldrb	r2, [r4, #0]
    7002:	3301      	adds	r3, #1
    7004:	3a30      	subs	r2, #48	; 0x30
    7006:	2a09      	cmp	r2, #9
    7008:	d803      	bhi.n	7012 <_svfiprintf_r+0x106>
    700a:	200a      	movs	r0, #10
    700c:	fb00 2101 	mla	r1, r0, r1, r2
    7010:	e7f5      	b.n	6ffe <_svfiprintf_r+0xf2>
    7012:	9107      	str	r1, [sp, #28]
    7014:	7823      	ldrb	r3, [r4, #0]
    7016:	2b2e      	cmp	r3, #46	; 0x2e
    7018:	d11a      	bne.n	7050 <_svfiprintf_r+0x144>
    701a:	7863      	ldrb	r3, [r4, #1]
    701c:	2b2a      	cmp	r3, #42	; 0x2a
    701e:	d10a      	bne.n	7036 <_svfiprintf_r+0x12a>
    7020:	9b03      	ldr	r3, [sp, #12]
    7022:	3402      	adds	r4, #2
    7024:	1d1a      	adds	r2, r3, #4
    7026:	681b      	ldr	r3, [r3, #0]
    7028:	9203      	str	r2, [sp, #12]
    702a:	2b00      	cmp	r3, #0
    702c:	bfb8      	it	lt
    702e:	f04f 33ff 	movlt.w	r3, #4294967295
    7032:	9305      	str	r3, [sp, #20]
    7034:	e00c      	b.n	7050 <_svfiprintf_r+0x144>
    7036:	1c61      	adds	r1, r4, #1
    7038:	2200      	movs	r2, #0
    703a:	460c      	mov	r4, r1
    703c:	7823      	ldrb	r3, [r4, #0]
    703e:	3101      	adds	r1, #1
    7040:	3b30      	subs	r3, #48	; 0x30
    7042:	2b09      	cmp	r3, #9
    7044:	d803      	bhi.n	704e <_svfiprintf_r+0x142>
    7046:	200a      	movs	r0, #10
    7048:	fb00 3202 	mla	r2, r0, r2, r3
    704c:	e7f5      	b.n	703a <_svfiprintf_r+0x12e>
    704e:	9205      	str	r2, [sp, #20]
    7050:	f8df 8098 	ldr.w	r8, [pc, #152]	; 70ec <_svfiprintf_r+0x1e0>
    7054:	7821      	ldrb	r1, [r4, #0]
    7056:	4640      	mov	r0, r8
    7058:	2203      	movs	r2, #3
    705a:	f7fe fd6b 	bl	5b34 <memchr>
    705e:	b138      	cbz	r0, 7070 <_svfiprintf_r+0x164>
    7060:	9a04      	ldr	r2, [sp, #16]
    7062:	ebc8 0000 	rsb	r0, r8, r0
    7066:	2340      	movs	r3, #64	; 0x40
    7068:	4083      	lsls	r3, r0
    706a:	4313      	orrs	r3, r2
    706c:	9304      	str	r3, [sp, #16]
    706e:	3401      	adds	r4, #1
    7070:	7821      	ldrb	r1, [r4, #0]
    7072:	481a      	ldr	r0, [pc, #104]	; (70dc <_svfiprintf_r+0x1d0>)
    7074:	2206      	movs	r2, #6
    7076:	f104 0801 	add.w	r8, r4, #1
    707a:	f88d 1028 	strb.w	r1, [sp, #40]	; 0x28
    707e:	f7fe fd59 	bl	5b34 <memchr>
    7082:	b188      	cbz	r0, 70a8 <_svfiprintf_r+0x19c>
    7084:	4b16      	ldr	r3, [pc, #88]	; (70e0 <_svfiprintf_r+0x1d4>)
    7086:	b933      	cbnz	r3, 7096 <_svfiprintf_r+0x18a>
    7088:	9b03      	ldr	r3, [sp, #12]
    708a:	3307      	adds	r3, #7
    708c:	f023 0307 	bic.w	r3, r3, #7
    7090:	3308      	adds	r3, #8
    7092:	9303      	str	r3, [sp, #12]
    7094:	e013      	b.n	70be <_svfiprintf_r+0x1b2>
    7096:	ab03      	add	r3, sp, #12
    7098:	9300      	str	r3, [sp, #0]
    709a:	4630      	mov	r0, r6
    709c:	a904      	add	r1, sp, #16
    709e:	462a      	mov	r2, r5
    70a0:	4b10      	ldr	r3, [pc, #64]	; (70e4 <_svfiprintf_r+0x1d8>)
    70a2:	f3af 8000 	nop.w
    70a6:	e007      	b.n	70b8 <_svfiprintf_r+0x1ac>
    70a8:	ab03      	add	r3, sp, #12
    70aa:	9300      	str	r3, [sp, #0]
    70ac:	4630      	mov	r0, r6
    70ae:	a904      	add	r1, sp, #16
    70b0:	462a      	mov	r2, r5
    70b2:	4b0c      	ldr	r3, [pc, #48]	; (70e4 <_svfiprintf_r+0x1d8>)
    70b4:	f7fe ffc8 	bl	6048 <_printf_i>
    70b8:	1c42      	adds	r2, r0, #1
    70ba:	4607      	mov	r7, r0
    70bc:	d003      	beq.n	70c6 <_svfiprintf_r+0x1ba>
    70be:	9b09      	ldr	r3, [sp, #36]	; 0x24
    70c0:	443b      	add	r3, r7
    70c2:	9309      	str	r3, [sp, #36]	; 0x24
    70c4:	e741      	b.n	6f4a <_svfiprintf_r+0x3e>
    70c6:	89ab      	ldrh	r3, [r5, #12]
    70c8:	065b      	lsls	r3, r3, #25
    70ca:	d401      	bmi.n	70d0 <_svfiprintf_r+0x1c4>
    70cc:	9809      	ldr	r0, [sp, #36]	; 0x24
    70ce:	e001      	b.n	70d4 <_svfiprintf_r+0x1c8>
    70d0:	f04f 30ff 	mov.w	r0, #4294967295
    70d4:	b01d      	add	sp, #116	; 0x74
    70d6:	e8bd 83f0 	ldmia.w	sp!, {r4, r5, r6, r7, r8, r9, pc}
    70da:	bf00      	nop
    70dc:	00007c92 	.word	0x00007c92
    70e0:	00000000 	.word	0x00000000
    70e4:	00006e59 	.word	0x00006e59
    70e8:	00007c88 	.word	0x00007c88
    70ec:	00007c8e 	.word	0x00007c8e

000070f0 <_sungetc_r>:
    70f0:	b538      	push	{r3, r4, r5, lr}
    70f2:	1c4b      	adds	r3, r1, #1
    70f4:	4614      	mov	r4, r2
    70f6:	d102      	bne.n	70fe <_sungetc_r+0xe>
    70f8:	f04f 30ff 	mov.w	r0, #4294967295
    70fc:	bd38      	pop	{r3, r4, r5, pc}
    70fe:	8993      	ldrh	r3, [r2, #12]
    7100:	b2cd      	uxtb	r5, r1
    7102:	f023 0320 	bic.w	r3, r3, #32
    7106:	8193      	strh	r3, [r2, #12]
    7108:	6b53      	ldr	r3, [r2, #52]	; 0x34
    710a:	6852      	ldr	r2, [r2, #4]
    710c:	b183      	cbz	r3, 7130 <_sungetc_r+0x40>
    710e:	6ba3      	ldr	r3, [r4, #56]	; 0x38
    7110:	429a      	cmp	r2, r3
    7112:	da07      	bge.n	7124 <_sungetc_r+0x34>
    7114:	6823      	ldr	r3, [r4, #0]
    7116:	1e5a      	subs	r2, r3, #1
    7118:	6022      	str	r2, [r4, #0]
    711a:	f803 5c01 	strb.w	r5, [r3, #-1]
    711e:	6863      	ldr	r3, [r4, #4]
    7120:	3301      	adds	r3, #1
    7122:	e01f      	b.n	7164 <_sungetc_r+0x74>
    7124:	4621      	mov	r1, r4
    7126:	f7ff fce9 	bl	6afc <__submore>
    712a:	2800      	cmp	r0, #0
    712c:	d0f2      	beq.n	7114 <_sungetc_r+0x24>
    712e:	e7e3      	b.n	70f8 <_sungetc_r+0x8>
    7130:	6921      	ldr	r1, [r4, #16]
    7132:	6823      	ldr	r3, [r4, #0]
    7134:	b151      	cbz	r1, 714c <_sungetc_r+0x5c>
    7136:	428b      	cmp	r3, r1
    7138:	d908      	bls.n	714c <_sungetc_r+0x5c>
    713a:	f813 0c01 	ldrb.w	r0, [r3, #-1]
    713e:	42a8      	cmp	r0, r5
    7140:	d104      	bne.n	714c <_sungetc_r+0x5c>
    7142:	3b01      	subs	r3, #1
    7144:	3201      	adds	r2, #1
    7146:	6023      	str	r3, [r4, #0]
    7148:	6062      	str	r2, [r4, #4]
    714a:	bd38      	pop	{r3, r4, r5, pc}
    714c:	63e3      	str	r3, [r4, #60]	; 0x3c
    714e:	f104 0344 	add.w	r3, r4, #68	; 0x44
    7152:	6363      	str	r3, [r4, #52]	; 0x34
    7154:	2303      	movs	r3, #3
    7156:	63a3      	str	r3, [r4, #56]	; 0x38
    7158:	4623      	mov	r3, r4
    715a:	6422      	str	r2, [r4, #64]	; 0x40
    715c:	f803 5f46 	strb.w	r5, [r3, #70]!
    7160:	6023      	str	r3, [r4, #0]
    7162:	2301      	movs	r3, #1
    7164:	6063      	str	r3, [r4, #4]
    7166:	4628      	mov	r0, r5
    7168:	bd38      	pop	{r3, r4, r5, pc}

0000716a <__ssrefill_r>:
    716a:	b510      	push	{r4, lr}
    716c:	460c      	mov	r4, r1
    716e:	6b49      	ldr	r1, [r1, #52]	; 0x34
    7170:	b169      	cbz	r1, 718e <__ssrefill_r+0x24>
    7172:	f104 0344 	add.w	r3, r4, #68	; 0x44
    7176:	4299      	cmp	r1, r3
    7178:	d001      	beq.n	717e <__ssrefill_r+0x14>
    717a:	f7fe fd17 	bl	5bac <_free_r>
    717e:	6c23      	ldr	r3, [r4, #64]	; 0x40
    7180:	2000      	movs	r0, #0
    7182:	6360      	str	r0, [r4, #52]	; 0x34
    7184:	6063      	str	r3, [r4, #4]
    7186:	b113      	cbz	r3, 718e <__ssrefill_r+0x24>
    7188:	6be3      	ldr	r3, [r4, #60]	; 0x3c
    718a:	6023      	str	r3, [r4, #0]
    718c:	bd10      	pop	{r4, pc}
    718e:	6923      	ldr	r3, [r4, #16]
    7190:	f04f 30ff 	mov.w	r0, #4294967295
    7194:	6023      	str	r3, [r4, #0]
    7196:	2300      	movs	r3, #0
    7198:	6063      	str	r3, [r4, #4]
    719a:	89a3      	ldrh	r3, [r4, #12]
    719c:	f043 0320 	orr.w	r3, r3, #32
    71a0:	81a3      	strh	r3, [r4, #12]
    71a2:	bd10      	pop	{r4, pc}

000071a4 <__ssvfiscanf_r>:
    71a4:	e92d 47f0 	stmdb	sp!, {r4, r5, r6, r7, r8, r9, r10, lr}
    71a8:	4607      	mov	r7, r0
    71aa:	460c      	mov	r4, r1
    71ac:	4690      	mov	r8, r2
    71ae:	f5ad 7d24 	sub.w	sp, sp, #656	; 0x290
    71b2:	9301      	str	r3, [sp, #4]
    71b4:	2300      	movs	r3, #0
    71b6:	9346      	str	r3, [sp, #280]	; 0x118
    71b8:	9347      	str	r3, [sp, #284]	; 0x11c
    71ba:	4b9c      	ldr	r3, [pc, #624]	; (742c <__ssvfiscanf_r+0x288>)
    71bc:	f10d 0a0c 	add.w	r10, sp, #12
    71c0:	93a2      	str	r3, [sp, #648]	; 0x288
    71c2:	4b9b      	ldr	r3, [pc, #620]	; (7430 <__ssvfiscanf_r+0x28c>)
    71c4:	f8cd a120 	str.w	r10, [sp, #288]	; 0x120
    71c8:	93a3      	str	r3, [sp, #652]	; 0x28c
    71ca:	f898 5000 	ldrb.w	r5, [r8]
    71ce:	2d00      	cmp	r5, #0
    71d0:	f000 8124 	beq.w	741c <__ssvfiscanf_r+0x278>
    71d4:	4997      	ldr	r1, [pc, #604]	; (7434 <__ssvfiscanf_r+0x290>)
    71d6:	680b      	ldr	r3, [r1, #0]
    71d8:	4689      	mov	r9, r1
    71da:	442b      	add	r3, r5
    71dc:	785b      	ldrb	r3, [r3, #1]
    71de:	f003 0308 	and.w	r3, r3, #8
    71e2:	f003 02ff 	and.w	r2, r3, #255	; 0xff
    71e6:	b1eb      	cbz	r3, 7224 <__ssvfiscanf_r+0x80>
    71e8:	6863      	ldr	r3, [r4, #4]
    71ea:	2b00      	cmp	r3, #0
    71ec:	dd10      	ble.n	7210 <__ssvfiscanf_r+0x6c>
    71ee:	6823      	ldr	r3, [r4, #0]
    71f0:	f8d9 1000 	ldr.w	r1, [r9]
    71f4:	781a      	ldrb	r2, [r3, #0]
    71f6:	440a      	add	r2, r1
    71f8:	7852      	ldrb	r2, [r2, #1]
    71fa:	0715      	lsls	r5, r2, #28
    71fc:	d50e      	bpl.n	721c <__ssvfiscanf_r+0x78>
    71fe:	9a47      	ldr	r2, [sp, #284]	; 0x11c
    7200:	3301      	adds	r3, #1
    7202:	3201      	adds	r2, #1
    7204:	9247      	str	r2, [sp, #284]	; 0x11c
    7206:	6862      	ldr	r2, [r4, #4]
    7208:	6023      	str	r3, [r4, #0]
    720a:	3a01      	subs	r2, #1
    720c:	6062      	str	r2, [r4, #4]
    720e:	e7eb      	b.n	71e8 <__ssvfiscanf_r+0x44>
    7210:	9ba3      	ldr	r3, [sp, #652]	; 0x28c
    7212:	4638      	mov	r0, r7
    7214:	4621      	mov	r1, r4
    7216:	4798      	blx	r3
    7218:	2800      	cmp	r0, #0
    721a:	d0e8      	beq.n	71ee <__ssvfiscanf_r+0x4a>
    721c:	f108 0601 	add.w	r6, r8, #1
    7220:	46b0      	mov	r8, r6
    7222:	e7d2      	b.n	71ca <__ssvfiscanf_r+0x26>
    7224:	2d25      	cmp	r5, #37	; 0x25
    7226:	f108 0601 	add.w	r6, r8, #1
    722a:	d14f      	bne.n	72cc <__ssvfiscanf_r+0x128>
    722c:	9245      	str	r2, [sp, #276]	; 0x114
    722e:	9243      	str	r2, [sp, #268]	; 0x10c
    7230:	f898 3001 	ldrb.w	r3, [r8, #1]
    7234:	2b2a      	cmp	r3, #42	; 0x2a
    7236:	d103      	bne.n	7240 <__ssvfiscanf_r+0x9c>
    7238:	2310      	movs	r3, #16
    723a:	9343      	str	r3, [sp, #268]	; 0x10c
    723c:	f108 0602 	add.w	r6, r8, #2
    7240:	7831      	ldrb	r1, [r6, #0]
    7242:	4635      	mov	r5, r6
    7244:	f1a1 0330 	sub.w	r3, r1, #48	; 0x30
    7248:	2b09      	cmp	r3, #9
    724a:	f106 0601 	add.w	r6, r6, #1
    724e:	d806      	bhi.n	725e <__ssvfiscanf_r+0xba>
    7250:	9b45      	ldr	r3, [sp, #276]	; 0x114
    7252:	220a      	movs	r2, #10
    7254:	fb02 1303 	mla	r3, r2, r3, r1
    7258:	3b30      	subs	r3, #48	; 0x30
    725a:	9345      	str	r3, [sp, #276]	; 0x114
    725c:	e7f0      	b.n	7240 <__ssvfiscanf_r+0x9c>
    725e:	f8df 81dc 	ldr.w	r8, [pc, #476]	; 743c <__ssvfiscanf_r+0x298>
    7262:	2203      	movs	r2, #3
    7264:	4640      	mov	r0, r8
    7266:	f7fe fc65 	bl	5b34 <memchr>
    726a:	b140      	cbz	r0, 727e <__ssvfiscanf_r+0xda>
    726c:	4635      	mov	r5, r6
    726e:	2301      	movs	r3, #1
    7270:	ebc8 0000 	rsb	r0, r8, r0
    7274:	fa03 f200 	lsl.w	r2, r3, r0
    7278:	9b43      	ldr	r3, [sp, #268]	; 0x10c
    727a:	4313      	orrs	r3, r2
    727c:	9343      	str	r3, [sp, #268]	; 0x10c
    727e:	1c6e      	adds	r6, r5, #1
    7280:	782d      	ldrb	r5, [r5, #0]
    7282:	2d67      	cmp	r5, #103	; 0x67
    7284:	d80f      	bhi.n	72a6 <__ssvfiscanf_r+0x102>
    7286:	2d65      	cmp	r5, #101	; 0x65
    7288:	d278      	bcs.n	737c <__ssvfiscanf_r+0x1d8>
    728a:	2d5b      	cmp	r5, #91	; 0x5b
    728c:	d054      	beq.n	7338 <__ssvfiscanf_r+0x194>
    728e:	d805      	bhi.n	729c <__ssvfiscanf_r+0xf8>
    7290:	2d00      	cmp	r5, #0
    7292:	f000 80c5 	beq.w	7420 <__ssvfiscanf_r+0x27c>
    7296:	2d25      	cmp	r5, #37	; 0x25
    7298:	d018      	beq.n	72cc <__ssvfiscanf_r+0x128>
    729a:	e071      	b.n	7380 <__ssvfiscanf_r+0x1dc>
    729c:	2d63      	cmp	r5, #99	; 0x63
    729e:	d057      	beq.n	7350 <__ssvfiscanf_r+0x1ac>
    72a0:	2d64      	cmp	r5, #100	; 0x64
    72a2:	d03f      	beq.n	7324 <__ssvfiscanf_r+0x180>
    72a4:	e06c      	b.n	7380 <__ssvfiscanf_r+0x1dc>
    72a6:	2d70      	cmp	r5, #112	; 0x70
    72a8:	d032      	beq.n	7310 <__ssvfiscanf_r+0x16c>
    72aa:	d807      	bhi.n	72bc <__ssvfiscanf_r+0x118>
    72ac:	2d6e      	cmp	r5, #110	; 0x6e
    72ae:	d055      	beq.n	735c <__ssvfiscanf_r+0x1b8>
    72b0:	d83a      	bhi.n	7328 <__ssvfiscanf_r+0x184>
    72b2:	2d69      	cmp	r5, #105	; 0x69
    72b4:	d164      	bne.n	7380 <__ssvfiscanf_r+0x1dc>
    72b6:	2300      	movs	r3, #0
    72b8:	9344      	str	r3, [sp, #272]	; 0x110
    72ba:	e03b      	b.n	7334 <__ssvfiscanf_r+0x190>
    72bc:	2d75      	cmp	r5, #117	; 0x75
    72be:	d031      	beq.n	7324 <__ssvfiscanf_r+0x180>
    72c0:	2d78      	cmp	r5, #120	; 0x78
    72c2:	d029      	beq.n	7318 <__ssvfiscanf_r+0x174>
    72c4:	2d73      	cmp	r5, #115	; 0x73
    72c6:	d15b      	bne.n	7380 <__ssvfiscanf_r+0x1dc>
    72c8:	2302      	movs	r3, #2
    72ca:	e03f      	b.n	734c <__ssvfiscanf_r+0x1a8>
    72cc:	6863      	ldr	r3, [r4, #4]
    72ce:	2b00      	cmp	r3, #0
    72d0:	dd0d      	ble.n	72ee <__ssvfiscanf_r+0x14a>
    72d2:	6823      	ldr	r3, [r4, #0]
    72d4:	781a      	ldrb	r2, [r3, #0]
    72d6:	42aa      	cmp	r2, r5
    72d8:	f040 80a0 	bne.w	741c <__ssvfiscanf_r+0x278>
    72dc:	3301      	adds	r3, #1
    72de:	6862      	ldr	r2, [r4, #4]
    72e0:	6023      	str	r3, [r4, #0]
    72e2:	9b47      	ldr	r3, [sp, #284]	; 0x11c
    72e4:	3a01      	subs	r2, #1
    72e6:	3301      	adds	r3, #1
    72e8:	6062      	str	r2, [r4, #4]
    72ea:	9347      	str	r3, [sp, #284]	; 0x11c
    72ec:	e798      	b.n	7220 <__ssvfiscanf_r+0x7c>
    72ee:	9ba3      	ldr	r3, [sp, #652]	; 0x28c
    72f0:	4638      	mov	r0, r7
    72f2:	4621      	mov	r1, r4
    72f4:	4798      	blx	r3
    72f6:	2800      	cmp	r0, #0
    72f8:	d0eb      	beq.n	72d2 <__ssvfiscanf_r+0x12e>
    72fa:	9846      	ldr	r0, [sp, #280]	; 0x118
    72fc:	2800      	cmp	r0, #0
    72fe:	f000 808f 	beq.w	7420 <__ssvfiscanf_r+0x27c>
    7302:	89a3      	ldrh	r3, [r4, #12]
    7304:	f013 0f40 	tst.w	r3, #64	; 0x40
    7308:	bf18      	it	ne
    730a:	f04f 30ff 	movne.w	r0, #4294967295
    730e:	e089      	b.n	7424 <__ssvfiscanf_r+0x280>
    7310:	9b43      	ldr	r3, [sp, #268]	; 0x10c
    7312:	f043 0320 	orr.w	r3, r3, #32
    7316:	9343      	str	r3, [sp, #268]	; 0x10c
    7318:	9b43      	ldr	r3, [sp, #268]	; 0x10c
    731a:	f443 7300 	orr.w	r3, r3, #512	; 0x200
    731e:	9343      	str	r3, [sp, #268]	; 0x10c
    7320:	2310      	movs	r3, #16
    7322:	e002      	b.n	732a <__ssvfiscanf_r+0x186>
    7324:	230a      	movs	r3, #10
    7326:	e000      	b.n	732a <__ssvfiscanf_r+0x186>
    7328:	2308      	movs	r3, #8
    732a:	2d6e      	cmp	r5, #110	; 0x6e
    732c:	9344      	str	r3, [sp, #272]	; 0x110
    732e:	dd01      	ble.n	7334 <__ssvfiscanf_r+0x190>
    7330:	2304      	movs	r3, #4
    7332:	e00b      	b.n	734c <__ssvfiscanf_r+0x1a8>
    7334:	2303      	movs	r3, #3
    7336:	e009      	b.n	734c <__ssvfiscanf_r+0x1a8>
    7338:	4631      	mov	r1, r6
    733a:	4650      	mov	r0, r10
    733c:	f7ff f95c 	bl	65f8 <__sccl>
    7340:	4606      	mov	r6, r0
    7342:	9b43      	ldr	r3, [sp, #268]	; 0x10c
    7344:	f043 0340 	orr.w	r3, r3, #64	; 0x40
    7348:	9343      	str	r3, [sp, #268]	; 0x10c
    734a:	2301      	movs	r3, #1
    734c:	9349      	str	r3, [sp, #292]	; 0x124
    734e:	e01b      	b.n	7388 <__ssvfiscanf_r+0x1e4>
    7350:	9b43      	ldr	r3, [sp, #268]	; 0x10c
    7352:	f043 0340 	orr.w	r3, r3, #64	; 0x40
    7356:	9343      	str	r3, [sp, #268]	; 0x10c
    7358:	2300      	movs	r3, #0
    735a:	e7f7      	b.n	734c <__ssvfiscanf_r+0x1a8>
    735c:	9a43      	ldr	r2, [sp, #268]	; 0x10c
    735e:	06d0      	lsls	r0, r2, #27
    7360:	f53f af5e 	bmi.w	7220 <__ssvfiscanf_r+0x7c>
    7364:	f012 0f01 	tst.w	r2, #1
    7368:	9a01      	ldr	r2, [sp, #4]
    736a:	9b47      	ldr	r3, [sp, #284]	; 0x11c
    736c:	f102 0104 	add.w	r1, r2, #4
    7370:	9101      	str	r1, [sp, #4]
    7372:	6812      	ldr	r2, [r2, #0]
    7374:	bf14      	ite	ne
    7376:	8013      	strhne	r3, [r2, #0]
    7378:	6013      	streq	r3, [r2, #0]
    737a:	e751      	b.n	7220 <__ssvfiscanf_r+0x7c>
    737c:	2305      	movs	r3, #5
    737e:	e7e5      	b.n	734c <__ssvfiscanf_r+0x1a8>
    7380:	2303      	movs	r3, #3
    7382:	9349      	str	r3, [sp, #292]	; 0x124
    7384:	230a      	movs	r3, #10
    7386:	9344      	str	r3, [sp, #272]	; 0x110
    7388:	6863      	ldr	r3, [r4, #4]
    738a:	2b00      	cmp	r3, #0
    738c:	dd03      	ble.n	7396 <__ssvfiscanf_r+0x1f2>
    738e:	9b43      	ldr	r3, [sp, #268]	; 0x10c
    7390:	0659      	lsls	r1, r3, #25
    7392:	d511      	bpl.n	73b8 <__ssvfiscanf_r+0x214>
    7394:	e018      	b.n	73c8 <__ssvfiscanf_r+0x224>
    7396:	9ba3      	ldr	r3, [sp, #652]	; 0x28c
    7398:	4638      	mov	r0, r7
    739a:	4621      	mov	r1, r4
    739c:	4798      	blx	r3
    739e:	2800      	cmp	r0, #0
    73a0:	d0f5      	beq.n	738e <__ssvfiscanf_r+0x1ea>
    73a2:	e7aa      	b.n	72fa <__ssvfiscanf_r+0x156>
    73a4:	9a47      	ldr	r2, [sp, #284]	; 0x11c
    73a6:	3201      	adds	r2, #1
    73a8:	9247      	str	r2, [sp, #284]	; 0x11c
    73aa:	6862      	ldr	r2, [r4, #4]
    73ac:	3a01      	subs	r2, #1
    73ae:	2a00      	cmp	r2, #0
    73b0:	6062      	str	r2, [r4, #4]
    73b2:	dd13      	ble.n	73dc <__ssvfiscanf_r+0x238>
    73b4:	3301      	adds	r3, #1
    73b6:	6023      	str	r3, [r4, #0]
    73b8:	6823      	ldr	r3, [r4, #0]
    73ba:	f8d9 1000 	ldr.w	r1, [r9]
    73be:	781a      	ldrb	r2, [r3, #0]
    73c0:	440a      	add	r2, r1
    73c2:	7852      	ldrb	r2, [r2, #1]
    73c4:	0712      	lsls	r2, r2, #28
    73c6:	d4ed      	bmi.n	73a4 <__ssvfiscanf_r+0x200>
    73c8:	9b49      	ldr	r3, [sp, #292]	; 0x124
    73ca:	2b02      	cmp	r3, #2
    73cc:	dc0d      	bgt.n	73ea <__ssvfiscanf_r+0x246>
    73ce:	4638      	mov	r0, r7
    73d0:	a943      	add	r1, sp, #268	; 0x10c
    73d2:	4622      	mov	r2, r4
    73d4:	ab01      	add	r3, sp, #4
    73d6:	f7fe ff57 	bl	6288 <_scanf_chars>
    73da:	e019      	b.n	7410 <__ssvfiscanf_r+0x26c>
    73dc:	9ba3      	ldr	r3, [sp, #652]	; 0x28c
    73de:	4638      	mov	r0, r7
    73e0:	4621      	mov	r1, r4
    73e2:	4798      	blx	r3
    73e4:	2800      	cmp	r0, #0
    73e6:	d0e7      	beq.n	73b8 <__ssvfiscanf_r+0x214>
    73e8:	e787      	b.n	72fa <__ssvfiscanf_r+0x156>
    73ea:	2b04      	cmp	r3, #4
    73ec:	dc06      	bgt.n	73fc <__ssvfiscanf_r+0x258>
    73ee:	4638      	mov	r0, r7
    73f0:	a943      	add	r1, sp, #268	; 0x10c
    73f2:	4622      	mov	r2, r4
    73f4:	ab01      	add	r3, sp, #4
    73f6:	f7fe ffa5 	bl	6344 <_scanf_i>
    73fa:	e009      	b.n	7410 <__ssvfiscanf_r+0x26c>
    73fc:	4b0e      	ldr	r3, [pc, #56]	; (7438 <__ssvfiscanf_r+0x294>)
    73fe:	2b00      	cmp	r3, #0
    7400:	f43f af0e 	beq.w	7220 <__ssvfiscanf_r+0x7c>
    7404:	4638      	mov	r0, r7
    7406:	a943      	add	r1, sp, #268	; 0x10c
    7408:	4622      	mov	r2, r4
    740a:	ab01      	add	r3, sp, #4
    740c:	f3af 8000 	nop.w
    7410:	2801      	cmp	r0, #1
    7412:	d003      	beq.n	741c <__ssvfiscanf_r+0x278>
    7414:	2802      	cmp	r0, #2
    7416:	f47f af03 	bne.w	7220 <__ssvfiscanf_r+0x7c>
    741a:	e76e      	b.n	72fa <__ssvfiscanf_r+0x156>
    741c:	9846      	ldr	r0, [sp, #280]	; 0x118
    741e:	e001      	b.n	7424 <__ssvfiscanf_r+0x280>
    7420:	f04f 30ff 	mov.w	r0, #4294967295
    7424:	f50d 7d24 	add.w	sp, sp, #656	; 0x290
    7428:	e8bd 87f0 	ldmia.w	sp!, {r4, r5, r6, r7, r8, r9, r10, pc}
    742c:	000070f1 	.word	0x000070f1
    7430:	0000716b 	.word	0x0000716b
    7434:	10000158 	.word	0x10000158
    7438:	00000000 	.word	0x00000000
    743c:	00007c8e 	.word	0x00007c8e

00007440 <_read_r>:
    7440:	b538      	push	{r3, r4, r5, lr}
    7442:	4c07      	ldr	r4, [pc, #28]	; (7460 <_read_r+0x20>)
    7444:	4605      	mov	r5, r0
    7446:	2000      	movs	r0, #0
    7448:	6020      	str	r0, [r4, #0]
    744a:	4608      	mov	r0, r1
    744c:	4611      	mov	r1, r2
    744e:	461a      	mov	r2, r3
    7450:	f7fd fc2a 	bl	4ca8 <_read>
    7454:	1c43      	adds	r3, r0, #1
    7456:	d102      	bne.n	745e <_read_r+0x1e>
    7458:	6823      	ldr	r3, [r4, #0]
    745a:	b103      	cbz	r3, 745e <_read_r+0x1e>
    745c:	602b      	str	r3, [r5, #0]
    745e:	bd38      	pop	{r3, r4, r5, pc}
    7460:	10000db0 	.word	0x10000db0

00007464 <_malloc_usable_size_r>:
    7464:	f851 0c04 	ldr.w	r0, [r1, #-4]
    7468:	2800      	cmp	r0, #0
    746a:	bfbe      	ittt	lt
    746c:	1809      	addlt	r1, r1, r0
    746e:	f851 3c04 	ldrlt.w	r3, [r1, #-4]
    7472:	18c0      	addlt	r0, r0, r3
    7474:	3804      	subs	r0, #4
    7476:	4770      	bx	lr

00007478 <_init>:
    7478:	b5f8      	push	{r3, r4, r5, r6, r7, lr}
    747a:	bf00      	nop
    747c:	bcf8      	pop	{r3, r4, r5, r6, r7}
    747e:	bc08      	pop	{r3}
    7480:	469e      	mov	lr, r3
    7482:	4770      	bx	lr

00007484 <_fini>:
    7484:	b5f8      	push	{r3, r4, r5, r6, r7, lr}
    7486:	bf00      	nop
    7488:	bcf8      	pop	{r3, r4, r5, r6, r7}
    748a:	bc08      	pop	{r3}
    748c:	469e      	mov	lr, r3
    748e:	4770      	bx	lr

00007490 <vtable for std_msgs::Time>:
	...
    7498:	0129 0000 0155 0000 0199 0000 01a1 0000     )...U...........

000074a8 <vtable for rosserial_msgs::TopicInfo>:
	...
    74b0:	074d 0000 03a9 0000 01a9 0000 01b1 0000     M...............

000074c0 <vtable for rosserial_msgs::Log>:
	...
    74c8:	071d 0000 036d 0000 01b9 0000 01c1 0000     ....m...........

000074d8 <vtable for rosserial_msgs::RequestParamResponse>:
	...
    74e0:	0611 0000 0465 0000 01c9 0000 01d1 0000     ....e...........

000074f0 <vtable for std_msgs::MultiArrayDimension>:
	...
    74f8:	05b9 0000 02fd 0000 01d9 0000 01e1 0000     ................

00007508 <vtable for std_msgs::MultiArrayLayout>:
	...
    7510:	07e1 0000 08c5 0000 01e9 0000 01f1 0000     ................

00007520 <vtable for std_msgs::Float32MultiArray>:
	...
    7528:	09e9 0000 0cc9 0000 01f9 0000 0201 0000     ................

00007538 <vtable for ros::NodeHandle_<MbedHardware, 25, 25, 512, 512>>:
	...
    7540:	0e51 0000 2225 0000 0295 0000 0000 0000     Q...%"..........

00007550 <vtable for ros::Subscriber<std_msgs::Float32MultiArray>>:
	...
    7558:	0b39 0000 0281 0000 0285 0000 028d 0000     9...............
    7568:	7473 5f64 736d 7367 542f 6d69 0065 0000     std_msgs/Time...
    7578:	6463 3137 3636 3763 6334 3535 6332 3133     cd7166c74c552c31
    7588:	6631 6362 3263 6566 6135 6237 3263 3938     1fbcc2fe5a7bc289
    7598:	0000 0000 6f72 7373 7265 6169 5f6c 736d     ....rosserial_ms
    75a8:	7367 542f 706f 6369 6e49 6f66 0000 0000     gs/TopicInfo....
    75b8:	6130 3564 6631 3838 6366 3434 3938 6632     0ad51f88fc44892f
    75c8:	6338 3031 3836 3034 3737 3436 3036 3530     8c10684077646005
    75d8:	0000 0000 6f72 7373 7265 6169 5f6c 736d     ....rosserial_ms
    75e8:	7367 4c2f 676f 0000 3131 6261 3764 3133     gs/Log..11abd731
    75f8:	3263 3935 3333 3632 6331 3664 3831 6233     c25933261cd6183b
    7608:	3164 6432 3236 3539 0000 0000 6639 6530     d12d6295....9f0e
    7618:	3839 6462 3661 3935 3138 3839 6436 6664     98bda65981986ddf
    7628:	3335 6661 3761 3461 6530 3934 0000 0000     53afa7a40e49....
    7638:	7473 5f64 736d 7367 4d2f 6c75 6974 7241     std_msgs/MultiAr
    7648:	6172 4479 6d69 6e65 6973 6e6f 0000 0000     rayDimension....
    7658:	6334 3064 3863 6133 3638 3338 6564 6561     4cd0c83a8683deae
    7668:	3034 6365 6164 3663 6530 3335 6662 3861     40ecdac60e53bfa8
    7678:	0000 0000 7473 5f64 736d 7367 4d2f 6c75     ....std_msgs/Mul
    7688:	6974 7241 6172 4c79 7961 756f 0074 0000     tiArrayLayout...
    7698:	6630 6465 6132 3131 3163 6533 3131 3563     0fed2a11c13e11c5
    76a8:	3735 6231 6534 6132 3939 6135 3139 3361     571b4e2a995a91a3
    76b8:	0000 0000 7473 5f64 736d 7367 462f 6f6c     ....std_msgs/Flo
    76c8:	7461 3233 754d 746c 4169 7272 7961 0000     at32MultiArray..
    76d8:	6136 3034 3065 6666 3661 3161 6137 3035     6a40e0ffa6a17a50
    76e8:	6133 3363 3866 3136 3936 3139 3162 3666     3ac3f8616991b1f6
    76f8:	0000 0000 654d 7373 6761 2065 7266 6d6f     ....Message from
    7708:	6420 7665 6369 2065 7264 706f 6570 3a64      device dropped:
    7718:	6d20 7365 6173 6567 6c20 7261 6567 2072      message larger 
    7728:	6874 6e61 6220 6675 6566 2e72 0000 0000     than buffer.....
    7738:	6f6d 6f74 5f72 6f63 6d6d 6e61 0064 0000     motor_command...

00007748 <rosserial_msgs::REQUESTPARAM>:
    7748:	6f72 7373 7265 6169 5f6c 736d 7367 522f     rosserial_msgs/R
    7758:	7165 6575 7473 6150 6172 006d 0000 0000     equestParam.....

00007768 <vtable for AjK::MODSERIAL>:
	...
    7770:	2e11 0000 2e89 0000 2ebd 0000 2ead 0000     ................
    7780:	ffc0 ffff 0000 0000 4895 0000 4891 0000     .........H...H..
    7790:	48c1 0000 48f1 0000 48ed 0000 48f5 0000     .H...H...H...H..
    77a0:	48f9 0000 2e81 0000 2ea5 0000 2eb5 0000     .H..............
    77b0:	2ec5 0000 ffbc ffff 0000 0000 2e79 0000     ............y...
    77c0:	2e9d 0000 4f4d 5344 5245 4149 204c 756d     ....MODSERIAL mu
    77d0:	7473 6820 7661 2065 2061 6564 6966 656e     st have a define
    77e0:	2064 4155 5452 7420 206f 7566 636e 6974     d UART to functi
    77f0:	6e6f 002e 6f63 6c75 2064 6f6e 2074 6970     on..could not pi
    7800:	6f6e 7475 0000 0000 6970 6d6e 7061 6d20     nout....pinmap m
    7810:	7369 6d2d 7461 6863 0000 0000 6970 6d6e     is-match....pinm
    7820:	7061 6e20 746f 6620 756f 646e 6620 726f     ap not found for
    7830:	7020 7265 7069 6568 6172 006c 6970 6d6e      peripheral.pinm
    7840:	7061 6e20 746f 6620 756f 646e 6620 726f     ap not found for
    7850:	6620 6e75 7463 6f69 006e 0000                function...

0000785c <us_interface>:
    785c:	4431 0000 4441 0000 4471 0000 4481 0000     1D..AD..qD...D..
    786c:	445d 0000                                   ]D..

00007870 <us_data>:
    7870:	785c 0000 0ae0 1000 6970 736e 6f20 206e     \x......pins on 
    7880:	6874 7369 7020 726f 2074 6163 6e6e 746f     this port cannot
    7890:	6720 6e65 7265 7461 2065 6e69 6574 7272      generate interr
    78a0:	7075 7374 0000 0000                         upts....

000078a8 <PinMap_PWM>:
    78a8:	c032 2009 0001 0000 0002 0000 c034 2009     2.. ........4.. 
    78b8:	0002 0000 0002 0000 c035 2009 0003 0000     ........5.. ....
    78c8:	0002 0000 c037 2009 0004 0000 0002 0000     ....7.. ........
    78d8:	c038 2009 0005 0000 0002 0000 c03a 2009     8.. ........:.. 
    78e8:	0006 0000 0002 0000 c040 2009 0001 0000     ........@.. ....
    78f8:	0001 0000 c041 2009 0002 0000 0001 0000     ....A.. ........
    7908:	c042 2009 0003 0000 0001 0000 c043 2009     B.. ........C.. 
    7918:	0004 0000 0001 0000 c044 2009 0005 0000     ........D.. ....
    7928:	0001 0000 c045 2009 0006 0000 0001 0000     ....E.. ........
    7938:	c079 2009 0002 0000 0003 0000 c07a 2009     y.. ........z.. 
    7948:	0003 0000 0003 0000 ffff ffff ffff ffff     ................
    7958:	0000 0000                                   ....

0000795c <PinMap_UART_RTS>:
    795c:	c016 2009 0000 4001 0001 0000 c047 2009     ... ...@....G.. 
    796c:	0000 4001 0002 0000 ffff ffff ffff ffff     ...@............
    797c:	0000 0000                                   ....

00007980 <PinMap_UART_RX>:
    7980:	c001 2009 c000 4009 0002 0000 c003 2009     ... ...@....... 
    7990:	c000 4000 0001 0000 c00b 2009 8000 4009     ...@....... ...@
    79a0:	0001 0000 c010 2009 0000 4001 0001 0000     ....... ...@....
    79b0:	c01a 2009 c000 4009 0003 0000 c041 2009     ... ...@....A.. 
    79c0:	0000 4001 0002 0000 c049 2009 8000 4009     ...@....I.. ...@
    79d0:	0002 0000 c09d 2009 c000 4009 0003 0000     ....... ...@....
    79e0:	ffff ffff ffff ffff 0000 0000               ............

000079ec <PinMap_UART_TX>:
    79ec:	c000 2009 c000 4009 0002 0000 c002 2009     ... ...@....... 
    79fc:	c000 4000 0001 0000 c00a 2009 8000 4009     ...@....... ...@
    7a0c:	0001 0000 c00f 2009 0000 4001 0001 0000     ....... ...@....
    7a1c:	c019 2009 c000 4009 0003 0000 c040 2009     ... ...@....@.. 
    7a2c:	0000 4001 0002 0000 c048 2009 8000 4009     ...@....H.. ...@
    7a3c:	0002 0000 c09c 2009 c000 4009 0003 0000     ....... ...@....
    7a4c:	ffff ffff ffff ffff 0000 0000               ............

00007a58 <PinMap_UART_CTS>:
    7a58:	c011 2009 0000 4001 0001 0000 c042 2009     ... ...@....B.. 
    7a68:	0000 4001 0002 0000 ffff ffff ffff ffff     ...@............
	...

00007a80 <vtable for mbed::FileBase>:
	...
    7a88:	448d 0000 44bd 0000                         .D...D..

00007a90 <vtable for mbed::FileLike>:
	...
    7a98:	2bed 0000 2bed 0000 2bed 0000 2bed 0000     .+...+...+...+..
    7aa8:	2bed 0000 2bed 0000 4559 0000 0000 0000     .+...+..YE......
    7ab8:	0000 0000 fffc ffff 0000 0000 0000 0000     ................
	...

00007ad0 <vtable for mbed::InterruptIn>:
	...
    7ad8:	4691 0000 46a9 0000                         .F...F..

00007ae0 <vtable for mbed::Serial>:
	...
    7ae8:	4759 0000 478d 0000 4741 0000 474d 0000     YG...G..AG..MG..
    7af8:	ffc0 ffff 0000 0000 4895 0000 4891 0000     .........H...H..
    7b08:	48c1 0000 48f1 0000 48ed 0000 48f5 0000     .H...H...H...H..
    7b18:	48f9 0000 477d 0000 47b9 0000 4751 0000     .H..}G...G..QG..
    7b28:	4745 0000 ffbc ffff 0000 0000 4785 0000     EG...........G..
    7b38:	47c1 0000 0000 0000                         .G......

00007b40 <vtable for mbed::SerialBase>:
	...
    7b48:	2e01 0000 2e05 0000                         ........

00007b50 <vtable for mbed::Stream>:
	...
    7b58:	4895 0000 4891 0000 48c1 0000 48f1 0000     .H...H...H...H..
    7b68:	48ed 0000 48f5 0000 48f9 0000 0000 0000     .H...H...H......
    7b78:	0000 0000 2bed 0000 2bed 0000 fffc ffff     .....+...+......
	...
    7b94:	253a 0070 2b77 0000 0000 0000               :%p.w+......

00007ba0 <vtable for mbed::Ticker>:
	...
    7ba8:	49ad 0000 49cd 0000 497d 0000 0000 0000     .I...I..}I......

00007bb8 <vtable for mbed::TimerEvent>:
	...
    7bc8:	2bed 0000                                   .+..

00007bcc <__stdin_name>:
    7bcc:	732f 6474 6e69 0000                         /stdin..

00007bd4 <__stderr_name>:
    7bd4:	732f 6474 7265 0072                         /stderr.

00007bdc <__stdout_name>:
    7bdc:	732f 6474 756f 0074 0000 0000               /stdout.....

00007be8 <vtable for mbed::FileHandle>:
	...
    7bf0:	2bed 0000 2bed 0000 2bed 0000 2bed 0000     .+...+...+...+..
    7c00:	2bed 0000 2bed 0000 4559 0000 0000 0000     .+...+..YE......
    7c10:	0000 0000 7845 6563 7470 6f69 006e 0000     ....Exception...

00007c20 <__sf_fake_stdin>:
	...

00007c40 <__sf_fake_stdout>:
	...

00007c60 <__sf_fake_stderr>:
	...
    7c80:	0043 0000                                   C...

00007c84 <_global_impure_ptr>:
    7c84:	00f4 1000 2d23 2b30 0020 6c68 004c 6665     ....#-0+ .hlL.ef
    7c94:	4567 4746 3000 3231 3433 3635 3837 4139     gEFG.0123456789A
    7ca4:	4342 4544 0046 3130 3332 3534 3736 3938     BCDEF.0123456789
    7cb4:	6261 6463 6665 0000 7cda 0000 7cdd 0000     abcdef...|...|..
    7cc4:	7ce0 0000 2d41 6146 662d 3938 3130 3332     .|..A-Fa-f890123
    7cd4:	3534 3736 005d 2d2b 3000 0030 5878 0000          4567].+-.00.xX.

00007ce3 <_ctype_>:
    7ce3:	2000 2020 2020 2020 2020 2828 2828 2028     .         ((((( 
    7cf3:	2020 2020 2020 2020 2020 2020 2020 2020                     
    7d03:	8820 1010 1010 1010 1010 1010 1010 1010      ...............
    7d13:	0410 0404 0404 0404 0404 1004 1010 1010     ................
    7d23:	1010 4141 4141 4141 0101 0101 0101 0101     ..AAAAAA........
    7d33:	0101 0101 0101 0101 0101 0101 1010 1010     ................
    7d43:	1010 4242 4242 4242 0202 0202 0202 0202     ..BBBBBB........
    7d53:	0202 0202 0202 0202 0202 0202 1010 1010     ................
    7d63:	0020 0000 0000 0000 0000 0000 0000 0000      ...............
	...

00007de4 <__EH_FRAME_BEGIN__>:
    7de4:	0010 0000 0000 0000 7a01 0052 7c02 010e     .........zR..|..
    7df4:	0c1b 000d 0010 0000 0018 0000 eaa2 ffff     ................
    7e04:	0014 0000 0000 0000                         ........

00007e0c <__FRAME_END__>:
    7e0c:	0000 0000                                   ....
