
LPC1768/YOZAKURA_BODY.elf:     file format elf32-littlearm
architecture: arm, flags 0x00000112:
EXEC_P, HAS_SYMS, D_PAGED
start address 0x00004dd1


Disassembly of section .text:

00000000 <__isr_vector>:
       0:	10008000 	.word	0x10008000
       4:	00004dd1 	.word	0x00004dd1
       8:	00004e01 	.word	0x00004e01
       c:	00004e03 	.word	0x00004e03
      10:	00004e05 	.word	0x00004e05
      14:	00004e07 	.word	0x00004e07
      18:	00004e09 	.word	0x00004e09
	...
      2c:	00004e0b 	.word	0x00004e0b
      30:	00004e0d 	.word	0x00004e0d
      34:	00000000 	.word	0x00000000
      38:	00004e0f 	.word	0x00004e0f
      3c:	00004e11 	.word	0x00004e11
      40:	00004e13 	.word	0x00004e13
      44:	00004e13 	.word	0x00004e13
      48:	00004e13 	.word	0x00004e13
      4c:	00004e13 	.word	0x00004e13
      50:	00004e13 	.word	0x00004e13
      54:	00004e13 	.word	0x00004e13
      58:	00004e13 	.word	0x00004e13
      5c:	00004e13 	.word	0x00004e13
      60:	00004e13 	.word	0x00004e13
      64:	00004e13 	.word	0x00004e13
      68:	00004e13 	.word	0x00004e13
      6c:	00004e13 	.word	0x00004e13
      70:	00004e13 	.word	0x00004e13
      74:	00004e13 	.word	0x00004e13
      78:	00004e13 	.word	0x00004e13
      7c:	00004e13 	.word	0x00004e13
      80:	00004e13 	.word	0x00004e13
      84:	00004e13 	.word	0x00004e13
      88:	00004e13 	.word	0x00004e13
      8c:	00004e13 	.word	0x00004e13
      90:	00004e13 	.word	0x00004e13
      94:	00004e13 	.word	0x00004e13
      98:	00004e13 	.word	0x00004e13
      9c:	00004e13 	.word	0x00004e13
      a0:	00004e13 	.word	0x00004e13
      a4:	00004e13 	.word	0x00004e13
      a8:	00004e13 	.word	0x00004e13
      ac:	00004e13 	.word	0x00004e13
      b0:	00004e13 	.word	0x00004e13
      b4:	00004e13 	.word	0x00004e13
      b8:	00004e13 	.word	0x00004e13
      bc:	00004e13 	.word	0x00004e13
      c0:	00004e13 	.word	0x00004e13
      c4:	00004e13 	.word	0x00004e13
      c8:	00004e13 	.word	0x00004e13

000000cc <__do_global_dtors_aux>:
      cc:	b510      	push	{r4, lr}
      ce:	4c05      	ldr	r4, [pc, #20]	; (e4 <__do_global_dtors_aux+0x18>)
      d0:	7823      	ldrb	r3, [r4, #0]
      d2:	b933      	cbnz	r3, e2 <__do_global_dtors_aux+0x16>
      d4:	4b04      	ldr	r3, [pc, #16]	; (e8 <__do_global_dtors_aux+0x1c>)
      d6:	b113      	cbz	r3, de <__do_global_dtors_aux+0x12>
      d8:	4804      	ldr	r0, [pc, #16]	; (ec <__do_global_dtors_aux+0x20>)
      da:	f3af 8000 	nop.w
      de:	2301      	movs	r3, #1
      e0:	7023      	strb	r3, [r4, #0]
      e2:	bd10      	pop	{r4, pc}
      e4:	10000168 	.word	0x10000168
      e8:	00000000 	.word	0x00000000
      ec:	00007de4 	.word	0x00007de4

000000f0 <frame_dummy>:
      f0:	4b08      	ldr	r3, [pc, #32]	; (114 <frame_dummy+0x24>)
      f2:	b510      	push	{r4, lr}
      f4:	b11b      	cbz	r3, fe <frame_dummy+0xe>
      f6:	4808      	ldr	r0, [pc, #32]	; (118 <frame_dummy+0x28>)
      f8:	4908      	ldr	r1, [pc, #32]	; (11c <frame_dummy+0x2c>)
      fa:	f3af 8000 	nop.w
      fe:	4808      	ldr	r0, [pc, #32]	; (120 <frame_dummy+0x30>)
     100:	6803      	ldr	r3, [r0, #0]
     102:	b903      	cbnz	r3, 106 <frame_dummy+0x16>
     104:	bd10      	pop	{r4, pc}
     106:	4b07      	ldr	r3, [pc, #28]	; (124 <frame_dummy+0x34>)
     108:	2b00      	cmp	r3, #0
     10a:	d0fb      	beq.n	104 <frame_dummy+0x14>
     10c:	e8bd 4010 	ldmia.w	sp!, {r4, lr}
     110:	4718      	bx	r3
     112:	bf00      	nop
     114:	00000000 	.word	0x00000000
     118:	00007de4 	.word	0x00007de4
     11c:	1000016c 	.word	0x1000016c
     120:	10000168 	.word	0x10000168
     124:	00000000 	.word	0x00000000

00000128 <std_msgs::Time::serialize(unsigned char*) const>:
     128:	4603      	mov	r3, r0
     12a:	6842      	ldr	r2, [r0, #4]
     12c:	2008      	movs	r0, #8
     12e:	700a      	strb	r2, [r1, #0]
     130:	685a      	ldr	r2, [r3, #4]
     132:	40c2      	lsrs	r2, r0
     134:	704a      	strb	r2, [r1, #1]
     136:	88da      	ldrh	r2, [r3, #6]
     138:	708a      	strb	r2, [r1, #2]
     13a:	79da      	ldrb	r2, [r3, #7]
     13c:	70ca      	strb	r2, [r1, #3]
     13e:	689a      	ldr	r2, [r3, #8]
     140:	710a      	strb	r2, [r1, #4]
     142:	689a      	ldr	r2, [r3, #8]
     144:	40c2      	lsrs	r2, r0
     146:	714a      	strb	r2, [r1, #5]
     148:	895a      	ldrh	r2, [r3, #10]
     14a:	718a      	strb	r2, [r1, #6]
     14c:	7adb      	ldrb	r3, [r3, #11]
     14e:	71cb      	strb	r3, [r1, #7]
     150:	4770      	bx	lr
     152:	bf00      	nop

00000154 <std_msgs::Time::deserialize(unsigned char*)>:
     154:	4602      	mov	r2, r0
     156:	b410      	push	{r4}
     158:	780b      	ldrb	r3, [r1, #0]
     15a:	2008      	movs	r0, #8
     15c:	6053      	str	r3, [r2, #4]
     15e:	784c      	ldrb	r4, [r1, #1]
     160:	ea43 2304 	orr.w	r3, r3, r4, lsl #8
     164:	6053      	str	r3, [r2, #4]
     166:	788c      	ldrb	r4, [r1, #2]
     168:	ea43 4304 	orr.w	r3, r3, r4, lsl #16
     16c:	6053      	str	r3, [r2, #4]
     16e:	78cc      	ldrb	r4, [r1, #3]
     170:	ea43 6304 	orr.w	r3, r3, r4, lsl #24
     174:	6053      	str	r3, [r2, #4]
     176:	790b      	ldrb	r3, [r1, #4]
     178:	6093      	str	r3, [r2, #8]
     17a:	794c      	ldrb	r4, [r1, #5]
     17c:	ea43 2304 	orr.w	r3, r3, r4, lsl #8
     180:	6093      	str	r3, [r2, #8]
     182:	798c      	ldrb	r4, [r1, #6]
     184:	ea43 4304 	orr.w	r3, r3, r4, lsl #16
     188:	6093      	str	r3, [r2, #8]
     18a:	79c9      	ldrb	r1, [r1, #7]
     18c:	f85d 4b04 	ldr.w	r4, [sp], #4
     190:	ea43 6301 	orr.w	r3, r3, r1, lsl #24
     194:	6093      	str	r3, [r2, #8]
     196:	4770      	bx	lr

00000198 <std_msgs::Time::getType()>:
     198:	4800      	ldr	r0, [pc, #0]	; (19c <std_msgs::Time::getType()+0x4>)
     19a:	4770      	bx	lr
     19c:	00007568 	.word	0x00007568

000001a0 <std_msgs::Time::getMD5()>:
     1a0:	4800      	ldr	r0, [pc, #0]	; (1a4 <std_msgs::Time::getMD5()+0x4>)
     1a2:	4770      	bx	lr
     1a4:	00007578 	.word	0x00007578

000001a8 <rosserial_msgs::TopicInfo::getType()>:
     1a8:	4800      	ldr	r0, [pc, #0]	; (1ac <rosserial_msgs::TopicInfo::getType()+0x4>)
     1aa:	4770      	bx	lr
     1ac:	0000759c 	.word	0x0000759c

000001b0 <rosserial_msgs::TopicInfo::getMD5()>:
     1b0:	4800      	ldr	r0, [pc, #0]	; (1b4 <rosserial_msgs::TopicInfo::getMD5()+0x4>)
     1b2:	4770      	bx	lr
     1b4:	000075b8 	.word	0x000075b8

000001b8 <rosserial_msgs::Log::getType()>:
     1b8:	4800      	ldr	r0, [pc, #0]	; (1bc <rosserial_msgs::Log::getType()+0x4>)
     1ba:	4770      	bx	lr
     1bc:	000075dc 	.word	0x000075dc

000001c0 <rosserial_msgs::Log::getMD5()>:
     1c0:	4800      	ldr	r0, [pc, #0]	; (1c4 <rosserial_msgs::Log::getMD5()+0x4>)
     1c2:	4770      	bx	lr
     1c4:	000075f0 	.word	0x000075f0

000001c8 <rosserial_msgs::RequestParamResponse::getType()>:
     1c8:	4800      	ldr	r0, [pc, #0]	; (1cc <rosserial_msgs::RequestParamResponse::getType()+0x4>)
     1ca:	4770      	bx	lr
     1cc:	00007748 	.word	0x00007748

000001d0 <rosserial_msgs::RequestParamResponse::getMD5()>:
     1d0:	4800      	ldr	r0, [pc, #0]	; (1d4 <rosserial_msgs::RequestParamResponse::getMD5()+0x4>)
     1d2:	4770      	bx	lr
     1d4:	00007614 	.word	0x00007614

000001d8 <std_msgs::MultiArrayDimension::getType()>:
     1d8:	4800      	ldr	r0, [pc, #0]	; (1dc <std_msgs::MultiArrayDimension::getType()+0x4>)
     1da:	4770      	bx	lr
     1dc:	00007638 	.word	0x00007638

000001e0 <std_msgs::MultiArrayDimension::getMD5()>:
     1e0:	4800      	ldr	r0, [pc, #0]	; (1e4 <std_msgs::MultiArrayDimension::getMD5()+0x4>)
     1e2:	4770      	bx	lr
     1e4:	00007658 	.word	0x00007658

000001e8 <std_msgs::MultiArrayLayout::getType()>:
     1e8:	4800      	ldr	r0, [pc, #0]	; (1ec <std_msgs::MultiArrayLayout::getType()+0x4>)
     1ea:	4770      	bx	lr
     1ec:	0000767c 	.word	0x0000767c

000001f0 <std_msgs::MultiArrayLayout::getMD5()>:
     1f0:	4800      	ldr	r0, [pc, #0]	; (1f4 <std_msgs::MultiArrayLayout::getMD5()+0x4>)
     1f2:	4770      	bx	lr
     1f4:	00007698 	.word	0x00007698

000001f8 <std_msgs::Float32MultiArray::getType()>:
     1f8:	4800      	ldr	r0, [pc, #0]	; (1fc <std_msgs::Float32MultiArray::getType()+0x4>)
     1fa:	4770      	bx	lr
     1fc:	000076bc 	.word	0x000076bc

00000200 <std_msgs::Float32MultiArray::getMD5()>:
     200:	4800      	ldr	r0, [pc, #0]	; (204 <std_msgs::Float32MultiArray::getMD5()+0x4>)
     202:	4770      	bx	lr
     204:	000076d8 	.word	0x000076d8

00000208 <Motor::rise_()>:
     208:	69c2      	ldr	r2, [r0, #28]
     20a:	68c3      	ldr	r3, [r0, #12]
     20c:	6811      	ldr	r1, [r2, #0]
     20e:	f8d0 20ac 	ldr.w	r2, [r0, #172]	; 0xac
     212:	4219      	tst	r1, r3
     214:	bf0c      	ite	eq
     216:	f04f 33ff 	moveq.w	r3, #4294967295
     21a:	2301      	movne	r3, #1
     21c:	4413      	add	r3, r2
     21e:	f8c0 30ac 	str.w	r3, [r0, #172]	; 0xac
     222:	4770      	bx	lr

00000224 <Motor::calcVelocity_()>:
     224:	b570      	push	{r4, r5, r6, lr}
     226:	f8d0 50b4 	ldr.w	r5, [r0, #180]	; 0xb4
     22a:	4604      	mov	r4, r0
     22c:	f8d0 00ac 	ldr.w	r0, [r0, #172]	; 0xac
     230:	f004 feb2 	bl	4f98 <__aeabi_i2f>
     234:	4601      	mov	r1, r0
     236:	4628      	mov	r0, r5
     238:	f004 ff02 	bl	5040 <__aeabi_fmul>
     23c:	4629      	mov	r1, r5
     23e:	4606      	mov	r6, r0
     240:	f04f 507e 	mov.w	r0, #1065353216	; 0x3f800000
     244:	f004 fdf2 	bl	4e2c <__aeabi_fsub>
     248:	f8d4 10b0 	ldr.w	r1, [r4, #176]	; 0xb0
     24c:	f004 fef8 	bl	5040 <__aeabi_fmul>
     250:	4601      	mov	r1, r0
     252:	4630      	mov	r0, r6
     254:	f004 fdec 	bl	4e30 <__addsf3>
     258:	2300      	movs	r3, #0
     25a:	f8c4 00b0 	str.w	r0, [r4, #176]	; 0xb0
     25e:	f8c4 30ac 	str.w	r3, [r4, #172]	; 0xac
     262:	bd70      	pop	{r4, r5, r6, pc}

00000264 <void mbed::FunctionPointerArg1<void, void>::membercaller<Motor>(void*, unsigned int*)>:
     264:	684b      	ldr	r3, [r1, #4]
     266:	07da      	lsls	r2, r3, #31
     268:	d505      	bpl.n	276 <void mbed::FunctionPointerArg1<void, void>::membercaller<Motor>(void*, unsigned int*)+0x12>
     26a:	105b      	asrs	r3, r3, #1
     26c:	680a      	ldr	r2, [r1, #0]
     26e:	58c1      	ldr	r1, [r0, r3]
     270:	4418      	add	r0, r3
     272:	588a      	ldr	r2, [r1, r2]
     274:	4710      	bx	r2
     276:	680a      	ldr	r2, [r1, #0]
     278:	eb00 0063 	add.w	r0, r0, r3, asr #1
     27c:	4710      	bx	r2
     27e:	bf00      	nop

00000280 <ros::Subscriber<std_msgs::Float32MultiArray>::getEndpointType()>:
     280:	6c00      	ldr	r0, [r0, #64]	; 0x40
     282:	4770      	bx	lr

00000284 <ros::Subscriber<std_msgs::Float32MultiArray>::getMsgType()>:
     284:	4800      	ldr	r0, [pc, #0]	; (288 <ros::Subscriber<std_msgs::Float32MultiArray>::getMsgType()+0x4>)
     286:	4770      	bx	lr
     288:	000076bc 	.word	0x000076bc

0000028c <ros::Subscriber<std_msgs::Float32MultiArray>::getMsgMD5()>:
     28c:	4800      	ldr	r0, [pc, #0]	; (290 <ros::Subscriber<std_msgs::Float32MultiArray>::getMsgMD5()+0x4>)
     28e:	4770      	bx	lr
     290:	000076d8 	.word	0x000076d8

00000294 <ros::NodeHandle_<MbedHardware, 25, 25, 512, 512>::connected()>:
     294:	f890 05fc 	ldrb.w	r0, [r0, #1532]	; 0x5fc
     298:	4770      	bx	lr
     29a:	bf00      	nop

0000029c <commandCb(std_msgs::Float32MultiArray const&)>:
     29c:	e92d 41f0 	stmdb	sp!, {r4, r5, r6, r7, r8, lr}
     2a0:	4680      	mov	r8, r0
     2a2:	4c14      	ldr	r4, [pc, #80]	; (2f4 <commandCb(std_msgs::Float32MultiArray const&)+0x58>)
     2a4:	4f14      	ldr	r7, [pc, #80]	; (2f8 <commandCb(std_msgs::Float32MultiArray const&)+0x5c>)
     2a6:	2500      	movs	r5, #0
     2a8:	f8d8 302c 	ldr.w	r3, [r8, #44]	; 0x2c
     2ac:	6839      	ldr	r1, [r7, #0]
     2ae:	5958      	ldr	r0, [r3, r5]
     2b0:	f004 fec6 	bl	5040 <__aeabi_fmul>
     2b4:	f894 3020 	ldrb.w	r3, [r4, #32]
     2b8:	4606      	mov	r6, r0
     2ba:	2100      	movs	r1, #0
     2bc:	b18b      	cbz	r3, 2e2 <commandCb(std_msgs::Float32MultiArray const&)+0x46>
     2be:	f005 f85d 	bl	537c <__aeabi_fcmplt>
     2c2:	b998      	cbnz	r0, 2ec <commandCb(std_msgs::Float32MultiArray const&)+0x50>
     2c4:	69a3      	ldr	r3, [r4, #24]
     2c6:	68e2      	ldr	r2, [r4, #12]
     2c8:	601a      	str	r2, [r3, #0]
     2ca:	4620      	mov	r0, r4
     2cc:	f026 4100 	bic.w	r1, r6, #2147483648	; 0x80000000
     2d0:	3504      	adds	r5, #4
     2d2:	f003 fbd9 	bl	3a88 <pwmout_write>
     2d6:	2d10      	cmp	r5, #16
     2d8:	f104 04b8 	add.w	r4, r4, #184	; 0xb8
     2dc:	d1e4      	bne.n	2a8 <commandCb(std_msgs::Float32MultiArray const&)+0xc>
     2de:	e8bd 81f0 	ldmia.w	sp!, {r4, r5, r6, r7, r8, pc}
     2e2:	2100      	movs	r1, #0
     2e4:	f005 f84a 	bl	537c <__aeabi_fcmplt>
     2e8:	2800      	cmp	r0, #0
     2ea:	d1eb      	bne.n	2c4 <commandCb(std_msgs::Float32MultiArray const&)+0x28>
     2ec:	6963      	ldr	r3, [r4, #20]
     2ee:	68e2      	ldr	r2, [r4, #12]
     2f0:	601a      	str	r2, [r3, #0]
     2f2:	e7ea      	b.n	2ca <commandCb(std_msgs::Float32MultiArray const&)+0x2e>
     2f4:	10000800 	.word	0x10000800
     2f8:	100000cc 	.word	0x100000cc

000002fc <std_msgs::MultiArrayDimension::deserialize(unsigned char*)>:
     2fc:	b4f0      	push	{r4, r5, r6, r7}
     2fe:	4605      	mov	r5, r0
     300:	6808      	ldr	r0, [r1, #0]
     302:	b082      	sub	sp, #8
     304:	9001      	str	r0, [sp, #4]
     306:	9801      	ldr	r0, [sp, #4]
     308:	1ccf      	adds	r7, r1, #3
     30a:	1d06      	adds	r6, r0, #4
     30c:	2e04      	cmp	r6, #4
     30e:	d908      	bls.n	322 <std_msgs::MultiArrayDimension::deserialize(unsigned char*)+0x26>
     310:	463b      	mov	r3, r7
     312:	1cc4      	adds	r4, r0, #3
     314:	440c      	add	r4, r1
     316:	f813 2f01 	ldrb.w	r2, [r3, #1]!
     31a:	42a3      	cmp	r3, r4
     31c:	f803 2c01 	strb.w	r2, [r3, #-1]
     320:	d1f9      	bne.n	316 <std_msgs::MultiArrayDimension::deserialize(unsigned char*)+0x1a>
     322:	180a      	adds	r2, r1, r0
     324:	2300      	movs	r3, #0
     326:	70d3      	strb	r3, [r2, #3]
     328:	606f      	str	r7, [r5, #4]
     32a:	5d8b      	ldrb	r3, [r1, r6]
     32c:	300c      	adds	r0, #12
     32e:	60ab      	str	r3, [r5, #8]
     330:	7951      	ldrb	r1, [r2, #5]
     332:	ea43 2301 	orr.w	r3, r3, r1, lsl #8
     336:	60ab      	str	r3, [r5, #8]
     338:	7991      	ldrb	r1, [r2, #6]
     33a:	ea43 4301 	orr.w	r3, r3, r1, lsl #16
     33e:	60ab      	str	r3, [r5, #8]
     340:	79d1      	ldrb	r1, [r2, #7]
     342:	ea43 6301 	orr.w	r3, r3, r1, lsl #24
     346:	60ab      	str	r3, [r5, #8]
     348:	7a13      	ldrb	r3, [r2, #8]
     34a:	60eb      	str	r3, [r5, #12]
     34c:	7a51      	ldrb	r1, [r2, #9]
     34e:	ea43 2301 	orr.w	r3, r3, r1, lsl #8
     352:	60eb      	str	r3, [r5, #12]
     354:	7a91      	ldrb	r1, [r2, #10]
     356:	ea43 4301 	orr.w	r3, r3, r1, lsl #16
     35a:	60eb      	str	r3, [r5, #12]
     35c:	7ad2      	ldrb	r2, [r2, #11]
     35e:	ea43 6302 	orr.w	r3, r3, r2, lsl #24
     362:	60eb      	str	r3, [r5, #12]
     364:	b002      	add	sp, #8
     366:	bcf0      	pop	{r4, r5, r6, r7}
     368:	4770      	bx	lr
     36a:	bf00      	nop

0000036c <rosserial_msgs::Log::deserialize(unsigned char*)>:
     36c:	460b      	mov	r3, r1
     36e:	b4f0      	push	{r4, r5, r6, r7}
     370:	f813 2b01 	ldrb.w	r2, [r3], #1
     374:	4606      	mov	r6, r0
     376:	7102      	strb	r2, [r0, #4]
     378:	6818      	ldr	r0, [r3, #0]
     37a:	b082      	sub	sp, #8
     37c:	9001      	str	r0, [sp, #4]
     37e:	9d01      	ldr	r5, [sp, #4]
     380:	1d0f      	adds	r7, r1, #4
     382:	1d68      	adds	r0, r5, #5
     384:	2805      	cmp	r0, #5
     386:	d908      	bls.n	39a <rosserial_msgs::Log::deserialize(unsigned char*)+0x2e>
     388:	463b      	mov	r3, r7
     38a:	1d2c      	adds	r4, r5, #4
     38c:	440c      	add	r4, r1
     38e:	f813 2f01 	ldrb.w	r2, [r3, #1]!
     392:	42a3      	cmp	r3, r4
     394:	f803 2c01 	strb.w	r2, [r3, #-1]
     398:	d1f9      	bne.n	38e <rosserial_msgs::Log::deserialize(unsigned char*)+0x22>
     39a:	440d      	add	r5, r1
     39c:	2300      	movs	r3, #0
     39e:	712b      	strb	r3, [r5, #4]
     3a0:	60b7      	str	r7, [r6, #8]
     3a2:	b002      	add	sp, #8
     3a4:	bcf0      	pop	{r4, r5, r6, r7}
     3a6:	4770      	bx	lr

000003a8 <rosserial_msgs::TopicInfo::deserialize(unsigned char*)>:
     3a8:	b4f0      	push	{r4, r5, r6, r7}
     3aa:	780b      	ldrb	r3, [r1, #0]
     3ac:	4605      	mov	r5, r0
     3ae:	8083      	strh	r3, [r0, #4]
     3b0:	784a      	ldrb	r2, [r1, #1]
     3b2:	b084      	sub	sp, #16
     3b4:	ea43 2302 	orr.w	r3, r3, r2, lsl #8
     3b8:	8083      	strh	r3, [r0, #4]
     3ba:	f8d1 0002 	ldr.w	r0, [r1, #2]
     3be:	1d4f      	adds	r7, r1, #5
     3c0:	9001      	str	r0, [sp, #4]
     3c2:	9a01      	ldr	r2, [sp, #4]
     3c4:	1d96      	adds	r6, r2, #6
     3c6:	2e06      	cmp	r6, #6
     3c8:	d908      	bls.n	3dc <rosserial_msgs::TopicInfo::deserialize(unsigned char*)+0x34>
     3ca:	463b      	mov	r3, r7
     3cc:	1d54      	adds	r4, r2, #5
     3ce:	440c      	add	r4, r1
     3d0:	f813 0f01 	ldrb.w	r0, [r3, #1]!
     3d4:	42a3      	cmp	r3, r4
     3d6:	f803 0c01 	strb.w	r0, [r3, #-1]
     3da:	d1f9      	bne.n	3d0 <rosserial_msgs::TopicInfo::deserialize(unsigned char*)+0x28>
     3dc:	188b      	adds	r3, r1, r2
     3de:	2000      	movs	r0, #0
     3e0:	7158      	strb	r0, [r3, #5]
     3e2:	60af      	str	r7, [r5, #8]
     3e4:	5988      	ldr	r0, [r1, r6]
     3e6:	3604      	adds	r6, #4
     3e8:	9002      	str	r0, [sp, #8]
     3ea:	9b02      	ldr	r3, [sp, #8]
     3ec:	4433      	add	r3, r6
     3ee:	429e      	cmp	r6, r3
     3f0:	d209      	bcs.n	406 <rosserial_msgs::TopicInfo::deserialize(unsigned char*)+0x5e>
     3f2:	4630      	mov	r0, r6
     3f4:	3209      	adds	r2, #9
     3f6:	440a      	add	r2, r1
     3f8:	f812 4f01 	ldrb.w	r4, [r2, #1]!
     3fc:	3001      	adds	r0, #1
     3fe:	4298      	cmp	r0, r3
     400:	f802 4c01 	strb.w	r4, [r2, #-1]
     404:	d3f8      	bcc.n	3f8 <rosserial_msgs::TopicInfo::deserialize(unsigned char*)+0x50>
     406:	3e01      	subs	r6, #1
     408:	440e      	add	r6, r1
     40a:	18ca      	adds	r2, r1, r3
     40c:	2000      	movs	r0, #0
     40e:	f802 0c01 	strb.w	r0, [r2, #-1]
     412:	60ee      	str	r6, [r5, #12]
     414:	6810      	ldr	r0, [r2, #0]
     416:	1d1e      	adds	r6, r3, #4
     418:	9003      	str	r0, [sp, #12]
     41a:	9803      	ldr	r0, [sp, #12]
     41c:	4430      	add	r0, r6
     41e:	4286      	cmp	r6, r0
     420:	d209      	bcs.n	436 <rosserial_msgs::TopicInfo::deserialize(unsigned char*)+0x8e>
     422:	4632      	mov	r2, r6
     424:	3303      	adds	r3, #3
     426:	440b      	add	r3, r1
     428:	f813 4f01 	ldrb.w	r4, [r3, #1]!
     42c:	3201      	adds	r2, #1
     42e:	4282      	cmp	r2, r0
     430:	f803 4c01 	strb.w	r4, [r3, #-1]
     434:	d3f8      	bcc.n	428 <rosserial_msgs::TopicInfo::deserialize(unsigned char*)+0x80>
     436:	3e01      	subs	r6, #1
     438:	180c      	adds	r4, r1, r0
     43a:	440e      	add	r6, r1
     43c:	2300      	movs	r3, #0
     43e:	f804 3c01 	strb.w	r3, [r4, #-1]
     442:	612e      	str	r6, [r5, #16]
     444:	78a3      	ldrb	r3, [r4, #2]
     446:	7866      	ldrb	r6, [r4, #1]
     448:	5c0a      	ldrb	r2, [r1, r0]
     44a:	041b      	lsls	r3, r3, #16
     44c:	78e1      	ldrb	r1, [r4, #3]
     44e:	ea43 2306 	orr.w	r3, r3, r6, lsl #8
     452:	4313      	orrs	r3, r2
     454:	ea43 6301 	orr.w	r3, r3, r1, lsl #24
     458:	3004      	adds	r0, #4
     45a:	616b      	str	r3, [r5, #20]
     45c:	b004      	add	sp, #16
     45e:	bcf0      	pop	{r4, r5, r6, r7}
     460:	4770      	bx	lr
     462:	bf00      	nop

00000464 <rosserial_msgs::RequestParamResponse::deserialize(unsigned char*)>:
     464:	e92d 41f0 	stmdb	sp!, {r4, r5, r6, r7, r8, lr}
     468:	7903      	ldrb	r3, [r0, #4]
     46a:	780c      	ldrb	r4, [r1, #0]
     46c:	b082      	sub	sp, #8
     46e:	42a3      	cmp	r3, r4
     470:	4605      	mov	r5, r0
     472:	460e      	mov	r6, r1
     474:	f0c0 8082 	bcc.w	57c <rosserial_msgs::RequestParamResponse::deserialize(unsigned char*)+0x118>
     478:	712c      	strb	r4, [r5, #4]
     47a:	2c00      	cmp	r4, #0
     47c:	f000 8087 	beq.w	58e <rosserial_msgs::RequestParamResponse::deserialize(unsigned char*)+0x12a>
     480:	4633      	mov	r3, r6
     482:	f105 0708 	add.w	r7, r5, #8
     486:	2000      	movs	r0, #0
     488:	2404      	movs	r4, #4
     48a:	799a      	ldrb	r2, [r3, #6]
     48c:	f893 e005 	ldrb.w	lr, [r3, #5]
     490:	7919      	ldrb	r1, [r3, #4]
     492:	0412      	lsls	r2, r2, #16
     494:	ea42 220e 	orr.w	r2, r2, lr, lsl #8
     498:	f893 e007 	ldrb.w	lr, [r3, #7]
     49c:	430a      	orrs	r2, r1
     49e:	ea42 620e 	orr.w	r2, r2, lr, lsl #24
     4a2:	60aa      	str	r2, [r5, #8]
     4a4:	f8d7 e000 	ldr.w	lr, [r7]
     4a8:	68ea      	ldr	r2, [r5, #12]
     4aa:	1c41      	adds	r1, r0, #1
     4ac:	f842 e020 	str.w	lr, [r2, r0, lsl #2]
     4b0:	792a      	ldrb	r2, [r5, #4]
     4b2:	b2c8      	uxtb	r0, r1
     4b4:	4282      	cmp	r2, r0
     4b6:	f104 0404 	add.w	r4, r4, #4
     4ba:	f103 0304 	add.w	r3, r3, #4
     4be:	d8e4      	bhi.n	48a <rosserial_msgs::RequestParamResponse::deserialize(unsigned char*)+0x26>
     4c0:	4623      	mov	r3, r4
     4c2:	f816 8003 	ldrb.w	r8, [r6, r3]
     4c6:	7c2b      	ldrb	r3, [r5, #16]
     4c8:	1d27      	adds	r7, r4, #4
     4ca:	4543      	cmp	r3, r8
     4cc:	463c      	mov	r4, r7
     4ce:	d366      	bcc.n	59e <rosserial_msgs::RequestParamResponse::deserialize(unsigned char*)+0x13a>
     4d0:	f885 8010 	strb.w	r8, [r5, #16]
     4d4:	f1b8 0f00 	cmp.w	r8, #0
     4d8:	d01f      	beq.n	51a <rosserial_msgs::RequestParamResponse::deserialize(unsigned char*)+0xb6>
     4da:	1933      	adds	r3, r6, r4
     4dc:	f105 0e14 	add.w	lr, r5, #20
     4e0:	2000      	movs	r0, #0
     4e2:	f1c6 0704 	rsb	r7, r6, #4
     4e6:	789a      	ldrb	r2, [r3, #2]
     4e8:	785c      	ldrb	r4, [r3, #1]
     4ea:	7819      	ldrb	r1, [r3, #0]
     4ec:	0412      	lsls	r2, r2, #16
     4ee:	ea42 2204 	orr.w	r2, r2, r4, lsl #8
     4f2:	78dc      	ldrb	r4, [r3, #3]
     4f4:	430a      	orrs	r2, r1
     4f6:	ea42 6204 	orr.w	r2, r2, r4, lsl #24
     4fa:	616a      	str	r2, [r5, #20]
     4fc:	f8de 4000 	ldr.w	r4, [lr]
     500:	69aa      	ldr	r2, [r5, #24]
     502:	1c41      	adds	r1, r0, #1
     504:	f842 4020 	str.w	r4, [r2, r0, lsl #2]
     508:	7c2a      	ldrb	r2, [r5, #16]
     50a:	b2c8      	uxtb	r0, r1
     50c:	4282      	cmp	r2, r0
     50e:	eb07 0403 	add.w	r4, r7, r3
     512:	f103 0304 	add.w	r3, r3, #4
     516:	d8e6      	bhi.n	4e6 <rosserial_msgs::RequestParamResponse::deserialize(unsigned char*)+0x82>
     518:	4627      	mov	r7, r4
     51a:	5df7      	ldrb	r7, [r6, r7]
     51c:	7f2b      	ldrb	r3, [r5, #28]
     51e:	42bb      	cmp	r3, r7
     520:	d344      	bcc.n	5ac <rosserial_msgs::RequestParamResponse::deserialize(unsigned char*)+0x148>
     522:	1d23      	adds	r3, r4, #4
     524:	772f      	strb	r7, [r5, #28]
     526:	b32f      	cbz	r7, 574 <rosserial_msgs::RequestParamResponse::deserialize(unsigned char*)+0x110>
     528:	2700      	movs	r7, #0
     52a:	46bc      	mov	r12, r7
     52c:	f105 0e20 	add.w	lr, r5, #32
     530:	58f0      	ldr	r0, [r6, r3]
     532:	1d1c      	adds	r4, r3, #4
     534:	9001      	str	r0, [sp, #4]
     536:	9801      	ldr	r0, [sp, #4]
     538:	4420      	add	r0, r4
     53a:	4284      	cmp	r4, r0
     53c:	d209      	bcs.n	552 <rosserial_msgs::RequestParamResponse::deserialize(unsigned char*)+0xee>
     53e:	4622      	mov	r2, r4
     540:	3303      	adds	r3, #3
     542:	4433      	add	r3, r6
     544:	f813 1f01 	ldrb.w	r1, [r3, #1]!
     548:	3201      	adds	r2, #1
     54a:	4282      	cmp	r2, r0
     54c:	f803 1c01 	strb.w	r1, [r3, #-1]
     550:	d3f8      	bcc.n	544 <rosserial_msgs::RequestParamResponse::deserialize(unsigned char*)+0xe0>
     552:	3c01      	subs	r4, #1
     554:	1833      	adds	r3, r6, r0
     556:	4434      	add	r4, r6
     558:	f803 cc01 	strb.w	r12, [r3, #-1]
     55c:	622c      	str	r4, [r5, #32]
     55e:	6a6a      	ldr	r2, [r5, #36]	; 0x24
     560:	f8de 1000 	ldr.w	r1, [lr]
     564:	1c7b      	adds	r3, r7, #1
     566:	f842 1027 	str.w	r1, [r2, r7, lsl #2]
     56a:	7f2a      	ldrb	r2, [r5, #28]
     56c:	b2df      	uxtb	r7, r3
     56e:	42ba      	cmp	r2, r7
     570:	4603      	mov	r3, r0
     572:	d8dd      	bhi.n	530 <rosserial_msgs::RequestParamResponse::deserialize(unsigned char*)+0xcc>
     574:	4618      	mov	r0, r3
     576:	b002      	add	sp, #8
     578:	e8bd 81f0 	ldmia.w	sp!, {r4, r5, r6, r7, r8, pc}
     57c:	68c0      	ldr	r0, [r0, #12]
     57e:	00a1      	lsls	r1, r4, #2
     580:	f002 fb24 	bl	2bcc <__wrap_realloc>
     584:	712c      	strb	r4, [r5, #4]
     586:	60e8      	str	r0, [r5, #12]
     588:	2c00      	cmp	r4, #0
     58a:	f47f af79 	bne.w	480 <rosserial_msgs::RequestParamResponse::deserialize(unsigned char*)+0x1c>
     58e:	2304      	movs	r3, #4
     590:	f816 8003 	ldrb.w	r8, [r6, r3]
     594:	7c2b      	ldrb	r3, [r5, #16]
     596:	2708      	movs	r7, #8
     598:	4543      	cmp	r3, r8
     59a:	463c      	mov	r4, r7
     59c:	d298      	bcs.n	4d0 <rosserial_msgs::RequestParamResponse::deserialize(unsigned char*)+0x6c>
     59e:	69a8      	ldr	r0, [r5, #24]
     5a0:	ea4f 0188 	mov.w	r1, r8, lsl #2
     5a4:	f002 fb12 	bl	2bcc <__wrap_realloc>
     5a8:	61a8      	str	r0, [r5, #24]
     5aa:	e791      	b.n	4d0 <rosserial_msgs::RequestParamResponse::deserialize(unsigned char*)+0x6c>
     5ac:	6a68      	ldr	r0, [r5, #36]	; 0x24
     5ae:	00b9      	lsls	r1, r7, #2
     5b0:	f002 fb0c 	bl	2bcc <__wrap_realloc>
     5b4:	6268      	str	r0, [r5, #36]	; 0x24
     5b6:	e7b4      	b.n	522 <rosserial_msgs::RequestParamResponse::deserialize(unsigned char*)+0xbe>

000005b8 <std_msgs::MultiArrayDimension::serialize(unsigned char*) const>:
     5b8:	b570      	push	{r4, r5, r6, lr}
     5ba:	4605      	mov	r5, r0
     5bc:	b082      	sub	sp, #8
     5be:	460c      	mov	r4, r1
     5c0:	6840      	ldr	r0, [r0, #4]
     5c2:	f006 f978 	bl	68b6 <strlen>
     5c6:	4623      	mov	r3, r4
     5c8:	4606      	mov	r6, r0
     5ca:	aa02      	add	r2, sp, #8
     5cc:	f842 0d04 	str.w	r0, [r2, #-4]!
     5d0:	6810      	ldr	r0, [r2, #0]
     5d2:	4632      	mov	r2, r6
     5d4:	f843 0b04 	str.w	r0, [r3], #4
     5d8:	6869      	ldr	r1, [r5, #4]
     5da:	4618      	mov	r0, r3
     5dc:	f005 fab8 	bl	5b50 <memcpy>
     5e0:	68ab      	ldr	r3, [r5, #8]
     5e2:	19a1      	adds	r1, r4, r6
     5e4:	710b      	strb	r3, [r1, #4]
     5e6:	68ab      	ldr	r3, [r5, #8]
     5e8:	f106 000c 	add.w	r0, r6, #12
     5ec:	0a1b      	lsrs	r3, r3, #8
     5ee:	714b      	strb	r3, [r1, #5]
     5f0:	896b      	ldrh	r3, [r5, #10]
     5f2:	718b      	strb	r3, [r1, #6]
     5f4:	7aeb      	ldrb	r3, [r5, #11]
     5f6:	71cb      	strb	r3, [r1, #7]
     5f8:	68eb      	ldr	r3, [r5, #12]
     5fa:	720b      	strb	r3, [r1, #8]
     5fc:	68eb      	ldr	r3, [r5, #12]
     5fe:	0a1b      	lsrs	r3, r3, #8
     600:	724b      	strb	r3, [r1, #9]
     602:	89eb      	ldrh	r3, [r5, #14]
     604:	728b      	strb	r3, [r1, #10]
     606:	7beb      	ldrb	r3, [r5, #15]
     608:	72cb      	strb	r3, [r1, #11]
     60a:	b002      	add	sp, #8
     60c:	bd70      	pop	{r4, r5, r6, pc}
     60e:	bf00      	nop

00000610 <rosserial_msgs::RequestParamResponse::serialize(unsigned char*) const>:
     610:	e92d 43f0 	stmdb	sp!, {r4, r5, r6, r7, r8, r9, lr}
     614:	7903      	ldrb	r3, [r0, #4]
     616:	2400      	movs	r4, #0
     618:	700b      	strb	r3, [r1, #0]
     61a:	704c      	strb	r4, [r1, #1]
     61c:	708c      	strb	r4, [r1, #2]
     61e:	70cc      	strb	r4, [r1, #3]
     620:	7903      	ldrb	r3, [r0, #4]
     622:	b083      	sub	sp, #12
     624:	2b00      	cmp	r3, #0
     626:	d06f      	beq.n	708 <rosserial_msgs::RequestParamResponse::serialize(unsigned char*) const+0xf8>
     628:	460b      	mov	r3, r1
     62a:	2504      	movs	r5, #4
     62c:	68c2      	ldr	r2, [r0, #12]
     62e:	1c66      	adds	r6, r4, #1
     630:	f852 2024 	ldr.w	r2, [r2, r4, lsl #2]
     634:	b2f4      	uxtb	r4, r6
     636:	ea4f 2e12 	mov.w	lr, r2, lsr #8
     63a:	0c17      	lsrs	r7, r2, #16
     63c:	0e16      	lsrs	r6, r2, #24
     63e:	711a      	strb	r2, [r3, #4]
     640:	f883 e005 	strb.w	lr, [r3, #5]
     644:	719f      	strb	r7, [r3, #6]
     646:	71de      	strb	r6, [r3, #7]
     648:	7902      	ldrb	r2, [r0, #4]
     64a:	3504      	adds	r5, #4
     64c:	42a2      	cmp	r2, r4
     64e:	f103 0304 	add.w	r3, r3, #4
     652:	d8eb      	bhi.n	62c <rosserial_msgs::RequestParamResponse::serialize(unsigned char*) const+0x1c>
     654:	1d2a      	adds	r2, r5, #4
     656:	4616      	mov	r6, r2
     658:	f105 0c01 	add.w	r12, r5, #1
     65c:	f105 0e02 	add.w	lr, r5, #2
     660:	1cef      	adds	r7, r5, #3
     662:	7c03      	ldrb	r3, [r0, #16]
     664:	2400      	movs	r4, #0
     666:	554b      	strb	r3, [r1, r5]
     668:	f801 400c 	strb.w	r4, [r1, r12]
     66c:	f801 400e 	strb.w	r4, [r1, lr]
     670:	55cc      	strb	r4, [r1, r7]
     672:	7c03      	ldrb	r3, [r0, #16]
     674:	b1eb      	cbz	r3, 6b2 <rosserial_msgs::RequestParamResponse::serialize(unsigned char*) const+0xa2>
     676:	eb01 0806 	add.w	r8, r1, r6
     67a:	4643      	mov	r3, r8
     67c:	6982      	ldr	r2, [r0, #24]
     67e:	b2e5      	uxtb	r5, r4
     680:	f852 2025 	ldr.w	r2, [r2, r5, lsl #2]
     684:	1c65      	adds	r5, r4, #1
     686:	0e17      	lsrs	r7, r2, #24
     688:	ea4f 2c12 	mov.w	r12, r2, lsr #8
     68c:	ea4f 4e12 	mov.w	lr, r2, lsr #16
     690:	f808 2024 	strb.w	r2, [r8, r4, lsl #2]
     694:	f883 c001 	strb.w	r12, [r3, #1]
     698:	f883 e002 	strb.w	lr, [r3, #2]
     69c:	70df      	strb	r7, [r3, #3]
     69e:	7c07      	ldrb	r7, [r0, #16]
     6a0:	b2ea      	uxtb	r2, r5
     6a2:	4297      	cmp	r7, r2
     6a4:	f106 0604 	add.w	r6, r6, #4
     6a8:	f103 0304 	add.w	r3, r3, #4
     6ac:	462c      	mov	r4, r5
     6ae:	d8e5      	bhi.n	67c <rosserial_msgs::RequestParamResponse::serialize(unsigned char*) const+0x6c>
     6b0:	4632      	mov	r2, r6
     6b2:	7f05      	ldrb	r5, [r0, #28]
     6b4:	198b      	adds	r3, r1, r6
     6b6:	2400      	movs	r4, #0
     6b8:	548d      	strb	r5, [r1, r2]
     6ba:	705c      	strb	r4, [r3, #1]
     6bc:	709c      	strb	r4, [r3, #2]
     6be:	70dc      	strb	r4, [r3, #3]
     6c0:	7f03      	ldrb	r3, [r0, #28]
     6c2:	3604      	adds	r6, #4
     6c4:	b1e3      	cbz	r3, 700 <rosserial_msgs::RequestParamResponse::serialize(unsigned char*) const+0xf0>
     6c6:	4688      	mov	r8, r1
     6c8:	4607      	mov	r7, r0
     6ca:	6a7b      	ldr	r3, [r7, #36]	; 0x24
     6cc:	f106 0904 	add.w	r9, r6, #4
     6d0:	f853 0024 	ldr.w	r0, [r3, r4, lsl #2]
     6d4:	f006 f8ef 	bl	68b6 <strlen>
     6d8:	4605      	mov	r5, r0
     6da:	9001      	str	r0, [sp, #4]
     6dc:	9801      	ldr	r0, [sp, #4]
     6de:	462a      	mov	r2, r5
     6e0:	f848 0006 	str.w	r0, [r8, r6]
     6e4:	6a7b      	ldr	r3, [r7, #36]	; 0x24
     6e6:	eb08 0009 	add.w	r0, r8, r9
     6ea:	f853 1024 	ldr.w	r1, [r3, r4, lsl #2]
     6ee:	f005 fa2f 	bl	5b50 <memcpy>
     6f2:	3401      	adds	r4, #1
     6f4:	7f3b      	ldrb	r3, [r7, #28]
     6f6:	b2e4      	uxtb	r4, r4
     6f8:	42a3      	cmp	r3, r4
     6fa:	eb09 0605 	add.w	r6, r9, r5
     6fe:	d8e4      	bhi.n	6ca <rosserial_msgs::RequestParamResponse::serialize(unsigned char*) const+0xba>
     700:	4630      	mov	r0, r6
     702:	b003      	add	sp, #12
     704:	e8bd 83f0 	ldmia.w	sp!, {r4, r5, r6, r7, r8, r9, pc}
     708:	2208      	movs	r2, #8
     70a:	4616      	mov	r6, r2
     70c:	2707      	movs	r7, #7
     70e:	f04f 0e06 	mov.w	lr, #6
     712:	f04f 0c05 	mov.w	r12, #5
     716:	2504      	movs	r5, #4
     718:	e7a3      	b.n	662 <rosserial_msgs::RequestParamResponse::serialize(unsigned char*) const+0x52>
     71a:	bf00      	nop

0000071c <rosserial_msgs::Log::serialize(unsigned char*) const>:
     71c:	b570      	push	{r4, r5, r6, lr}
     71e:	7903      	ldrb	r3, [r0, #4]
     720:	b082      	sub	sp, #8
     722:	700b      	strb	r3, [r1, #0]
     724:	4606      	mov	r6, r0
     726:	6880      	ldr	r0, [r0, #8]
     728:	460d      	mov	r5, r1
     72a:	f006 f8c4 	bl	68b6 <strlen>
     72e:	4604      	mov	r4, r0
     730:	ab02      	add	r3, sp, #8
     732:	f843 0d04 	str.w	r0, [r3, #-4]!
     736:	6818      	ldr	r0, [r3, #0]
     738:	4622      	mov	r2, r4
     73a:	f8c5 0001 	str.w	r0, [r5, #1]
     73e:	68b1      	ldr	r1, [r6, #8]
     740:	1d68      	adds	r0, r5, #5
     742:	f005 fa05 	bl	5b50 <memcpy>
     746:	1d60      	adds	r0, r4, #5
     748:	b002      	add	sp, #8
     74a:	bd70      	pop	{r4, r5, r6, pc}

0000074c <rosserial_msgs::TopicInfo::serialize(unsigned char*) const>:
     74c:	8883      	ldrh	r3, [r0, #4]
     74e:	e92d 41f0 	stmdb	sp!, {r4, r5, r6, r7, r8, lr}
     752:	700b      	strb	r3, [r1, #0]
     754:	8883      	ldrh	r3, [r0, #4]
     756:	b084      	sub	sp, #16
     758:	0a1b      	lsrs	r3, r3, #8
     75a:	704b      	strb	r3, [r1, #1]
     75c:	4606      	mov	r6, r0
     75e:	6880      	ldr	r0, [r0, #8]
     760:	460c      	mov	r4, r1
     762:	f006 f8a8 	bl	68b6 <strlen>
     766:	4607      	mov	r7, r0
     768:	ab04      	add	r3, sp, #16
     76a:	f843 0d0c 	str.w	r0, [r3, #-12]!
     76e:	6818      	ldr	r0, [r3, #0]
     770:	463a      	mov	r2, r7
     772:	f8c4 0002 	str.w	r0, [r4, #2]
     776:	68b1      	ldr	r1, [r6, #8]
     778:	1da0      	adds	r0, r4, #6
     77a:	f005 f9e9 	bl	5b50 <memcpy>
     77e:	68f0      	ldr	r0, [r6, #12]
     780:	f006 f899 	bl	68b6 <strlen>
     784:	4605      	mov	r5, r0
     786:	ab04      	add	r3, sp, #16
     788:	f843 0d08 	str.w	r0, [r3, #-8]!
     78c:	6818      	ldr	r0, [r3, #0]
     78e:	1dbb      	adds	r3, r7, #6
     790:	50e0      	str	r0, [r4, r3]
     792:	f107 080a 	add.w	r8, r7, #10
     796:	68f1      	ldr	r1, [r6, #12]
     798:	462a      	mov	r2, r5
     79a:	eb04 0008 	add.w	r0, r4, r8
     79e:	f005 f9d7 	bl	5b50 <memcpy>
     7a2:	6930      	ldr	r0, [r6, #16]
     7a4:	f006 f887 	bl	68b6 <strlen>
     7a8:	4607      	mov	r7, r0
     7aa:	ab04      	add	r3, sp, #16
     7ac:	f843 0d04 	str.w	r0, [r3, #-4]!
     7b0:	6818      	ldr	r0, [r3, #0]
     7b2:	4445      	add	r5, r8
     7b4:	5160      	str	r0, [r4, r5]
     7b6:	3504      	adds	r5, #4
     7b8:	6931      	ldr	r1, [r6, #16]
     7ba:	463a      	mov	r2, r7
     7bc:	1960      	adds	r0, r4, r5
     7be:	f005 f9c7 	bl	5b50 <memcpy>
     7c2:	6973      	ldr	r3, [r6, #20]
     7c4:	19e8      	adds	r0, r5, r7
     7c6:	1822      	adds	r2, r4, r0
     7c8:	5423      	strb	r3, [r4, r0]
     7ca:	0a1f      	lsrs	r7, r3, #8
     7cc:	0c1e      	lsrs	r6, r3, #16
     7ce:	0e19      	lsrs	r1, r3, #24
     7d0:	3004      	adds	r0, #4
     7d2:	7057      	strb	r7, [r2, #1]
     7d4:	7096      	strb	r6, [r2, #2]
     7d6:	70d1      	strb	r1, [r2, #3]
     7d8:	b004      	add	sp, #16
     7da:	e8bd 81f0 	ldmia.w	sp!, {r4, r5, r6, r7, r8, pc}
     7de:	bf00      	nop

000007e0 <std_msgs::MultiArrayLayout::serialize(unsigned char*) const>:
     7e0:	e92d 4ff0 	stmdb	sp!, {r4, r5, r6, r7, r8, r9, r10, r11, lr}
     7e4:	7903      	ldrb	r3, [r0, #4]
     7e6:	2600      	movs	r6, #0
     7e8:	700b      	strb	r3, [r1, #0]
     7ea:	704e      	strb	r6, [r1, #1]
     7ec:	708e      	strb	r6, [r1, #2]
     7ee:	70ce      	strb	r6, [r1, #3]
     7f0:	7903      	ldrb	r3, [r0, #4]
     7f2:	b083      	sub	sp, #12
     7f4:	4683      	mov	r11, r0
     7f6:	4689      	mov	r9, r1
     7f8:	2b00      	cmp	r3, #0
     7fa:	d059      	beq.n	8b0 <Heap_Size+0xb0>
     7fc:	f8df a0c0 	ldr.w	r10, [pc, #192]	; 8c0 <Heap_Size+0xc0>
     800:	f04f 0804 	mov.w	r8, #4
     804:	e02a      	b.n	85c <Heap_Size+0x5c>
     806:	6860      	ldr	r0, [r4, #4]
     808:	f006 f855 	bl	68b6 <strlen>
     80c:	4607      	mov	r7, r0
     80e:	ab02      	add	r3, sp, #8
     810:	f843 0d04 	str.w	r0, [r3, #-4]!
     814:	6818      	ldr	r0, [r3, #0]
     816:	463a      	mov	r2, r7
     818:	f849 0008 	str.w	r0, [r9, r8]
     81c:	6861      	ldr	r1, [r4, #4]
     81e:	1d28      	adds	r0, r5, #4
     820:	f005 f996 	bl	5b50 <memcpy>
     824:	68a3      	ldr	r3, [r4, #8]
     826:	19e9      	adds	r1, r5, r7
     828:	710b      	strb	r3, [r1, #4]
     82a:	68a3      	ldr	r3, [r4, #8]
     82c:	f107 000c 	add.w	r0, r7, #12
     830:	0a1b      	lsrs	r3, r3, #8
     832:	714b      	strb	r3, [r1, #5]
     834:	8963      	ldrh	r3, [r4, #10]
     836:	718b      	strb	r3, [r1, #6]
     838:	7ae3      	ldrb	r3, [r4, #11]
     83a:	71cb      	strb	r3, [r1, #7]
     83c:	68e3      	ldr	r3, [r4, #12]
     83e:	720b      	strb	r3, [r1, #8]
     840:	68e3      	ldr	r3, [r4, #12]
     842:	0a1b      	lsrs	r3, r3, #8
     844:	724b      	strb	r3, [r1, #9]
     846:	89e3      	ldrh	r3, [r4, #14]
     848:	728b      	strb	r3, [r1, #10]
     84a:	7be3      	ldrb	r3, [r4, #15]
     84c:	72cb      	strb	r3, [r1, #11]
     84e:	3601      	adds	r6, #1
     850:	f89b 3004 	ldrb.w	r3, [r11, #4]
     854:	b2f6      	uxtb	r6, r6
     856:	42b3      	cmp	r3, r6
     858:	4480      	add	r8, r0
     85a:	d90d      	bls.n	878 <Heap_Size+0x78>
     85c:	f8db 4018 	ldr.w	r4, [r11, #24]
     860:	0133      	lsls	r3, r6, #4
     862:	58e2      	ldr	r2, [r4, r3]
     864:	441c      	add	r4, r3
     866:	6813      	ldr	r3, [r2, #0]
     868:	eb09 0508 	add.w	r5, r9, r8
     86c:	4553      	cmp	r3, r10
     86e:	d0ca      	beq.n	806 <Heap_Size+0x6>
     870:	4620      	mov	r0, r4
     872:	4629      	mov	r1, r5
     874:	4798      	blx	r3
     876:	e7ea      	b.n	84e <Heap_Size+0x4e>
     878:	f108 0401 	add.w	r4, r8, #1
     87c:	f108 0102 	add.w	r1, r8, #2
     880:	f108 0203 	add.w	r2, r8, #3
     884:	f108 0004 	add.w	r0, r8, #4
     888:	f8db 301c 	ldr.w	r3, [r11, #28]
     88c:	f809 3008 	strb.w	r3, [r9, r8]
     890:	f8db 301c 	ldr.w	r3, [r11, #28]
     894:	0a1b      	lsrs	r3, r3, #8
     896:	f809 3004 	strb.w	r3, [r9, r4]
     89a:	f8bb 301e 	ldrh.w	r3, [r11, #30]
     89e:	f809 3001 	strb.w	r3, [r9, r1]
     8a2:	f89b 301f 	ldrb.w	r3, [r11, #31]
     8a6:	f809 3002 	strb.w	r3, [r9, r2]
     8aa:	b003      	add	sp, #12
     8ac:	e8bd 8ff0 	ldmia.w	sp!, {r4, r5, r6, r7, r8, r9, r10, r11, pc}
     8b0:	2008      	movs	r0, #8
     8b2:	2207      	movs	r2, #7
     8b4:	2106      	movs	r1, #6
     8b6:	2405      	movs	r4, #5
     8b8:	f04f 0804 	mov.w	r8, #4
     8bc:	e7e4      	b.n	888 <Heap_Size+0x88>
     8be:	bf00      	nop
     8c0:	000005b9 	.word	0x000005b9

000008c4 <std_msgs::MultiArrayLayout::deserialize(unsigned char*)>:
     8c4:	e92d 47f0 	stmdb	sp!, {r4, r5, r6, r7, r8, r9, r10, lr}
     8c8:	7903      	ldrb	r3, [r0, #4]
     8ca:	780d      	ldrb	r5, [r1, #0]
     8cc:	b082      	sub	sp, #8
     8ce:	42ab      	cmp	r3, r5
     8d0:	4604      	mov	r4, r0
     8d2:	460f      	mov	r7, r1
     8d4:	d378      	bcc.n	9c8 <std_msgs::MultiArrayLayout::deserialize(unsigned char*)+0x104>
     8d6:	7125      	strb	r5, [r4, #4]
     8d8:	2d00      	cmp	r5, #0
     8da:	d07d      	beq.n	9d8 <std_msgs::MultiArrayLayout::deserialize(unsigned char*)+0x114>
     8dc:	2500      	movs	r5, #0
     8de:	46ac      	mov	r12, r5
     8e0:	f104 0608 	add.w	r6, r4, #8
     8e4:	f04f 0e04 	mov.w	lr, #4
     8e8:	eb07 080e 	add.w	r8, r7, lr
     8ec:	f8d8 0000 	ldr.w	r0, [r8]
     8f0:	f108 0a03 	add.w	r10, r8, #3
     8f4:	9001      	str	r0, [sp, #4]
     8f6:	9801      	ldr	r0, [sp, #4]
     8f8:	f100 0904 	add.w	r9, r0, #4
     8fc:	f1b9 0f04 	cmp.w	r9, #4
     900:	d908      	bls.n	914 <std_msgs::MultiArrayLayout::deserialize(unsigned char*)+0x50>
     902:	4653      	mov	r3, r10
     904:	1cc1      	adds	r1, r0, #3
     906:	4441      	add	r1, r8
     908:	f813 2f01 	ldrb.w	r2, [r3, #1]!
     90c:	428b      	cmp	r3, r1
     90e:	f803 2c01 	strb.w	r2, [r3, #-1]
     912:	d1f9      	bne.n	908 <std_msgs::MultiArrayLayout::deserialize(unsigned char*)+0x44>
     914:	eb08 0200 	add.w	r2, r8, r0
     918:	f882 c003 	strb.w	r12, [r2, #3]
     91c:	f8c4 a00c 	str.w	r10, [r4, #12]
     920:	f818 3009 	ldrb.w	r3, [r8, r9]
     924:	f8d4 8018 	ldr.w	r8, [r4, #24]
     928:	6123      	str	r3, [r4, #16]
     92a:	f892 9005 	ldrb.w	r9, [r2, #5]
     92e:	0129      	lsls	r1, r5, #4
     930:	ea43 2309 	orr.w	r3, r3, r9, lsl #8
     934:	6123      	str	r3, [r4, #16]
     936:	f892 9006 	ldrb.w	r9, [r2, #6]
     93a:	300c      	adds	r0, #12
     93c:	ea43 4309 	orr.w	r3, r3, r9, lsl #16
     940:	6123      	str	r3, [r4, #16]
     942:	f892 9007 	ldrb.w	r9, [r2, #7]
     946:	4486      	add	lr, r0
     948:	ea43 6309 	orr.w	r3, r3, r9, lsl #24
     94c:	6123      	str	r3, [r4, #16]
     94e:	7a13      	ldrb	r3, [r2, #8]
     950:	eb08 0001 	add.w	r0, r8, r1
     954:	6163      	str	r3, [r4, #20]
     956:	f892 9009 	ldrb.w	r9, [r2, #9]
     95a:	3501      	adds	r5, #1
     95c:	ea43 2309 	orr.w	r3, r3, r9, lsl #8
     960:	6163      	str	r3, [r4, #20]
     962:	f892 900a 	ldrb.w	r9, [r2, #10]
     966:	b2ed      	uxtb	r5, r5
     968:	ea43 4309 	orr.w	r3, r3, r9, lsl #16
     96c:	6163      	str	r3, [r4, #20]
     96e:	7ad2      	ldrb	r2, [r2, #11]
     970:	ea43 6302 	orr.w	r3, r3, r2, lsl #24
     974:	6163      	str	r3, [r4, #20]
     976:	68f3      	ldr	r3, [r6, #12]
     978:	f8d6 a000 	ldr.w	r10, [r6]
     97c:	f8d6 9004 	ldr.w	r9, [r6, #4]
     980:	68b2      	ldr	r2, [r6, #8]
     982:	f848 a001 	str.w	r10, [r8, r1]
     986:	f8c0 9004 	str.w	r9, [r0, #4]
     98a:	6082      	str	r2, [r0, #8]
     98c:	60c3      	str	r3, [r0, #12]
     98e:	7923      	ldrb	r3, [r4, #4]
     990:	42ab      	cmp	r3, r5
     992:	d8a9      	bhi.n	8e8 <std_msgs::MultiArrayLayout::deserialize(unsigned char*)+0x24>
     994:	f10e 0501 	add.w	r5, lr, #1
     998:	f10e 0102 	add.w	r1, lr, #2
     99c:	f10e 0203 	add.w	r2, lr, #3
     9a0:	f10e 0004 	add.w	r0, lr, #4
     9a4:	f817 300e 	ldrb.w	r3, [r7, lr]
     9a8:	61e3      	str	r3, [r4, #28]
     9aa:	5d7d      	ldrb	r5, [r7, r5]
     9ac:	ea43 2305 	orr.w	r3, r3, r5, lsl #8
     9b0:	61e3      	str	r3, [r4, #28]
     9b2:	5c79      	ldrb	r1, [r7, r1]
     9b4:	ea43 4301 	orr.w	r3, r3, r1, lsl #16
     9b8:	61e3      	str	r3, [r4, #28]
     9ba:	5cba      	ldrb	r2, [r7, r2]
     9bc:	ea43 6302 	orr.w	r3, r3, r2, lsl #24
     9c0:	61e3      	str	r3, [r4, #28]
     9c2:	b002      	add	sp, #8
     9c4:	e8bd 87f0 	ldmia.w	sp!, {r4, r5, r6, r7, r8, r9, r10, pc}
     9c8:	6980      	ldr	r0, [r0, #24]
     9ca:	0129      	lsls	r1, r5, #4
     9cc:	f002 f8fe 	bl	2bcc <__wrap_realloc>
     9d0:	7125      	strb	r5, [r4, #4]
     9d2:	61a0      	str	r0, [r4, #24]
     9d4:	2d00      	cmp	r5, #0
     9d6:	d181      	bne.n	8dc <std_msgs::MultiArrayLayout::deserialize(unsigned char*)+0x18>
     9d8:	2008      	movs	r0, #8
     9da:	2207      	movs	r2, #7
     9dc:	2106      	movs	r1, #6
     9de:	2505      	movs	r5, #5
     9e0:	f04f 0e04 	mov.w	lr, #4
     9e4:	e7de      	b.n	9a4 <std_msgs::MultiArrayLayout::deserialize(unsigned char*)+0xe0>
     9e6:	bf00      	nop

000009e8 <std_msgs::Float32MultiArray::serialize(unsigned char*) const>:
     9e8:	e92d 4ff0 	stmdb	sp!, {r4, r5, r6, r7, r8, r9, r10, r11, lr}
     9ec:	7a03      	ldrb	r3, [r0, #8]
     9ee:	2600      	movs	r6, #0
     9f0:	700b      	strb	r3, [r1, #0]
     9f2:	704e      	strb	r6, [r1, #1]
     9f4:	708e      	strb	r6, [r1, #2]
     9f6:	70ce      	strb	r6, [r1, #3]
     9f8:	7a03      	ldrb	r3, [r0, #8]
     9fa:	b083      	sub	sp, #12
     9fc:	4680      	mov	r8, r0
     9fe:	4689      	mov	r9, r1
     a00:	2b00      	cmp	r3, #0
     a02:	f000 8089 	beq.w	b18 <std_msgs::Float32MultiArray::serialize(unsigned char*) const+0x130>
     a06:	f8df a12c 	ldr.w	r10, [pc, #300]	; b34 <std_msgs::Float32MultiArray::serialize(unsigned char*) const+0x14c>
     a0a:	f04f 0b04 	mov.w	r11, #4
     a0e:	e02a      	b.n	a66 <std_msgs::Float32MultiArray::serialize(unsigned char*) const+0x7e>
     a10:	6860      	ldr	r0, [r4, #4]
     a12:	f005 ff50 	bl	68b6 <strlen>
     a16:	4607      	mov	r7, r0
     a18:	ab02      	add	r3, sp, #8
     a1a:	f843 0d04 	str.w	r0, [r3, #-4]!
     a1e:	6818      	ldr	r0, [r3, #0]
     a20:	463a      	mov	r2, r7
     a22:	f849 000b 	str.w	r0, [r9, r11]
     a26:	6861      	ldr	r1, [r4, #4]
     a28:	1d28      	adds	r0, r5, #4
     a2a:	f005 f891 	bl	5b50 <memcpy>
     a2e:	68a3      	ldr	r3, [r4, #8]
     a30:	19e9      	adds	r1, r5, r7
     a32:	710b      	strb	r3, [r1, #4]
     a34:	68a3      	ldr	r3, [r4, #8]
     a36:	f107 000c 	add.w	r0, r7, #12
     a3a:	0a1b      	lsrs	r3, r3, #8
     a3c:	714b      	strb	r3, [r1, #5]
     a3e:	8963      	ldrh	r3, [r4, #10]
     a40:	718b      	strb	r3, [r1, #6]
     a42:	7ae3      	ldrb	r3, [r4, #11]
     a44:	71cb      	strb	r3, [r1, #7]
     a46:	68e3      	ldr	r3, [r4, #12]
     a48:	720b      	strb	r3, [r1, #8]
     a4a:	68e3      	ldr	r3, [r4, #12]
     a4c:	0a1b      	lsrs	r3, r3, #8
     a4e:	724b      	strb	r3, [r1, #9]
     a50:	89e3      	ldrh	r3, [r4, #14]
     a52:	728b      	strb	r3, [r1, #10]
     a54:	7be3      	ldrb	r3, [r4, #15]
     a56:	72cb      	strb	r3, [r1, #11]
     a58:	3601      	adds	r6, #1
     a5a:	f898 3008 	ldrb.w	r3, [r8, #8]
     a5e:	b2f6      	uxtb	r6, r6
     a60:	42b3      	cmp	r3, r6
     a62:	4483      	add	r11, r0
     a64:	d90d      	bls.n	a82 <std_msgs::Float32MultiArray::serialize(unsigned char*) const+0x9a>
     a66:	f8d8 401c 	ldr.w	r4, [r8, #28]
     a6a:	0133      	lsls	r3, r6, #4
     a6c:	58e2      	ldr	r2, [r4, r3]
     a6e:	441c      	add	r4, r3
     a70:	6813      	ldr	r3, [r2, #0]
     a72:	eb09 050b 	add.w	r5, r9, r11
     a76:	4553      	cmp	r3, r10
     a78:	d0ca      	beq.n	a10 <std_msgs::Float32MultiArray::serialize(unsigned char*) const+0x28>
     a7a:	4620      	mov	r0, r4
     a7c:	4629      	mov	r1, r5
     a7e:	4798      	blx	r3
     a80:	e7ea      	b.n	a58 <std_msgs::Float32MultiArray::serialize(unsigned char*) const+0x70>
     a82:	f10b 0204 	add.w	r2, r11, #4
     a86:	1d10      	adds	r0, r2, #4
     a88:	f10b 0605 	add.w	r6, r11, #5
     a8c:	f10b 0506 	add.w	r5, r11, #6
     a90:	f10b 0407 	add.w	r4, r11, #7
     a94:	f10b 0c01 	add.w	r12, r11, #1
     a98:	f10b 0e02 	add.w	lr, r11, #2
     a9c:	f10b 0703 	add.w	r7, r11, #3
     aa0:	f8d8 3020 	ldr.w	r3, [r8, #32]
     aa4:	2100      	movs	r1, #0
     aa6:	f809 300b 	strb.w	r3, [r9, r11]
     aaa:	f8d8 3020 	ldr.w	r3, [r8, #32]
     aae:	0a1b      	lsrs	r3, r3, #8
     ab0:	f809 300c 	strb.w	r3, [r9, r12]
     ab4:	f8b8 3022 	ldrh.w	r3, [r8, #34]	; 0x22
     ab8:	f809 300e 	strb.w	r3, [r9, lr]
     abc:	f898 3023 	ldrb.w	r3, [r8, #35]	; 0x23
     ac0:	f809 3007 	strb.w	r3, [r9, r7]
     ac4:	f898 3024 	ldrb.w	r3, [r8, #36]	; 0x24
     ac8:	f809 3002 	strb.w	r3, [r9, r2]
     acc:	f809 1006 	strb.w	r1, [r9, r6]
     ad0:	f809 1005 	strb.w	r1, [r9, r5]
     ad4:	f809 1004 	strb.w	r1, [r9, r4]
     ad8:	f898 3024 	ldrb.w	r3, [r8, #36]	; 0x24
     adc:	b1cb      	cbz	r3, b12 <std_msgs::Float32MultiArray::serialize(unsigned char*) const+0x12a>
     ade:	4481      	add	r9, r0
     ae0:	464b      	mov	r3, r9
     ae2:	f8d8 202c 	ldr.w	r2, [r8, #44]	; 0x2c
     ae6:	b2cc      	uxtb	r4, r1
     ae8:	f852 2024 	ldr.w	r2, [r2, r4, lsl #2]
     aec:	1c4c      	adds	r4, r1, #1
     aee:	0e15      	lsrs	r5, r2, #24
     af0:	0a17      	lsrs	r7, r2, #8
     af2:	0c16      	lsrs	r6, r2, #16
     af4:	f809 2021 	strb.w	r2, [r9, r1, lsl #2]
     af8:	705f      	strb	r7, [r3, #1]
     afa:	709e      	strb	r6, [r3, #2]
     afc:	70dd      	strb	r5, [r3, #3]
     afe:	f898 5024 	ldrb.w	r5, [r8, #36]	; 0x24
     b02:	b2e2      	uxtb	r2, r4
     b04:	4295      	cmp	r5, r2
     b06:	f100 0004 	add.w	r0, r0, #4
     b0a:	f103 0304 	add.w	r3, r3, #4
     b0e:	4621      	mov	r1, r4
     b10:	d8e7      	bhi.n	ae2 <std_msgs::Float32MultiArray::serialize(unsigned char*) const+0xfa>
     b12:	b003      	add	sp, #12
     b14:	e8bd 8ff0 	ldmia.w	sp!, {r4, r5, r6, r7, r8, r9, r10, r11, pc}
     b18:	2208      	movs	r2, #8
     b1a:	2707      	movs	r7, #7
     b1c:	f04f 0e06 	mov.w	lr, #6
     b20:	f04f 0c05 	mov.w	r12, #5
     b24:	f04f 0b04 	mov.w	r11, #4
     b28:	240b      	movs	r4, #11
     b2a:	200c      	movs	r0, #12
     b2c:	250a      	movs	r5, #10
     b2e:	2609      	movs	r6, #9
     b30:	e7b6      	b.n	aa0 <std_msgs::Float32MultiArray::serialize(unsigned char*) const+0xb8>
     b32:	bf00      	nop
     b34:	000005b9 	.word	0x000005b9

00000b38 <ros::Subscriber<std_msgs::Float32MultiArray>::callback(unsigned char*)>:
     b38:	e92d 4ff0 	stmdb	sp!, {r4, r5, r6, r7, r8, r9, r10, r11, lr}
     b3c:	7d03      	ldrb	r3, [r0, #20]
     b3e:	780d      	ldrb	r5, [r1, #0]
     b40:	b083      	sub	sp, #12
     b42:	42ab      	cmp	r3, r5
     b44:	4604      	mov	r4, r0
     b46:	4688      	mov	r8, r1
     b48:	f100 090c 	add.w	r9, r0, #12
     b4c:	f0c0 80a5 	bcc.w	c9a <Stack_Size+0x9a>
     b50:	7525      	strb	r5, [r4, #20]
     b52:	2d00      	cmp	r5, #0
     b54:	f000 80aa 	beq.w	cac <Stack_Size+0xac>
     b58:	2500      	movs	r5, #0
     b5a:	46aa      	mov	r10, r5
     b5c:	f104 0718 	add.w	r7, r4, #24
     b60:	f04f 0e04 	mov.w	lr, #4
     b64:	eb08 060e 	add.w	r6, r8, lr
     b68:	6830      	ldr	r0, [r6, #0]
     b6a:	f106 0b03 	add.w	r11, r6, #3
     b6e:	9001      	str	r0, [sp, #4]
     b70:	9801      	ldr	r0, [sp, #4]
     b72:	f100 0c04 	add.w	r12, r0, #4
     b76:	f1bc 0f04 	cmp.w	r12, #4
     b7a:	d908      	bls.n	b8e <ros::Subscriber<std_msgs::Float32MultiArray>::callback(unsigned char*)+0x56>
     b7c:	465b      	mov	r3, r11
     b7e:	1cc1      	adds	r1, r0, #3
     b80:	4431      	add	r1, r6
     b82:	f813 2f01 	ldrb.w	r2, [r3, #1]!
     b86:	428b      	cmp	r3, r1
     b88:	f803 2c01 	strb.w	r2, [r3, #-1]
     b8c:	d1f9      	bne.n	b82 <ros::Subscriber<std_msgs::Float32MultiArray>::callback(unsigned char*)+0x4a>
     b8e:	1832      	adds	r2, r6, r0
     b90:	f882 a003 	strb.w	r10, [r2, #3]
     b94:	f8c4 b01c 	str.w	r11, [r4, #28]
     b98:	f816 300c 	ldrb.w	r3, [r6, r12]
     b9c:	6aa6      	ldr	r6, [r4, #40]	; 0x28
     b9e:	6223      	str	r3, [r4, #32]
     ba0:	f892 c005 	ldrb.w	r12, [r2, #5]
     ba4:	0129      	lsls	r1, r5, #4
     ba6:	ea43 230c 	orr.w	r3, r3, r12, lsl #8
     baa:	6223      	str	r3, [r4, #32]
     bac:	f892 c006 	ldrb.w	r12, [r2, #6]
     bb0:	300c      	adds	r0, #12
     bb2:	ea43 430c 	orr.w	r3, r3, r12, lsl #16
     bb6:	6223      	str	r3, [r4, #32]
     bb8:	f892 c007 	ldrb.w	r12, [r2, #7]
     bbc:	4486      	add	lr, r0
     bbe:	ea43 630c 	orr.w	r3, r3, r12, lsl #24
     bc2:	6223      	str	r3, [r4, #32]
     bc4:	7a13      	ldrb	r3, [r2, #8]
     bc6:	1870      	adds	r0, r6, r1
     bc8:	6263      	str	r3, [r4, #36]	; 0x24
     bca:	f892 c009 	ldrb.w	r12, [r2, #9]
     bce:	3501      	adds	r5, #1
     bd0:	ea43 230c 	orr.w	r3, r3, r12, lsl #8
     bd4:	6263      	str	r3, [r4, #36]	; 0x24
     bd6:	f892 c00a 	ldrb.w	r12, [r2, #10]
     bda:	b2ed      	uxtb	r5, r5
     bdc:	ea43 430c 	orr.w	r3, r3, r12, lsl #16
     be0:	6263      	str	r3, [r4, #36]	; 0x24
     be2:	7ad2      	ldrb	r2, [r2, #11]
     be4:	ea43 6302 	orr.w	r3, r3, r2, lsl #24
     be8:	6263      	str	r3, [r4, #36]	; 0x24
     bea:	68fb      	ldr	r3, [r7, #12]
     bec:	f8d7 b000 	ldr.w	r11, [r7]
     bf0:	f8d7 c004 	ldr.w	r12, [r7, #4]
     bf4:	68ba      	ldr	r2, [r7, #8]
     bf6:	f846 b001 	str.w	r11, [r6, r1]
     bfa:	f8c0 c004 	str.w	r12, [r0, #4]
     bfe:	6082      	str	r2, [r0, #8]
     c00:	60c3      	str	r3, [r0, #12]
     c02:	7d23      	ldrb	r3, [r4, #20]
     c04:	42ab      	cmp	r3, r5
     c06:	d8ad      	bhi.n	b64 <ros::Subscriber<std_msgs::Float32MultiArray>::callback(unsigned char*)+0x2c>
     c08:	f10e 0204 	add.w	r2, lr, #4
     c0c:	1d16      	adds	r6, r2, #4
     c0e:	f10e 0501 	add.w	r5, lr, #1
     c12:	f10e 0002 	add.w	r0, lr, #2
     c16:	f10e 0103 	add.w	r1, lr, #3
     c1a:	f818 300e 	ldrb.w	r3, [r8, lr]
     c1e:	f894 7030 	ldrb.w	r7, [r4, #48]	; 0x30
     c22:	62e3      	str	r3, [r4, #44]	; 0x2c
     c24:	f818 5005 	ldrb.w	r5, [r8, r5]
     c28:	ea43 2305 	orr.w	r3, r3, r5, lsl #8
     c2c:	62e3      	str	r3, [r4, #44]	; 0x2c
     c2e:	f818 0000 	ldrb.w	r0, [r8, r0]
     c32:	ea43 4300 	orr.w	r3, r3, r0, lsl #16
     c36:	62e3      	str	r3, [r4, #44]	; 0x2c
     c38:	f818 1001 	ldrb.w	r1, [r8, r1]
     c3c:	ea43 6301 	orr.w	r3, r3, r1, lsl #24
     c40:	62e3      	str	r3, [r4, #44]	; 0x2c
     c42:	f818 5002 	ldrb.w	r5, [r8, r2]
     c46:	42af      	cmp	r7, r5
     c48:	d338      	bcc.n	cbc <Stack_Size+0xbc>
     c4a:	f884 5030 	strb.w	r5, [r4, #48]	; 0x30
     c4e:	b1f5      	cbz	r5, c8e <Stack_Size+0x8e>
     c50:	44b0      	add	r8, r6
     c52:	f104 0034 	add.w	r0, r4, #52	; 0x34
     c56:	2100      	movs	r1, #0
     c58:	f898 3002 	ldrb.w	r3, [r8, #2]
     c5c:	f898 5001 	ldrb.w	r5, [r8, #1]
     c60:	f898 2000 	ldrb.w	r2, [r8]
     c64:	041b      	lsls	r3, r3, #16
     c66:	ea43 2305 	orr.w	r3, r3, r5, lsl #8
     c6a:	f898 5003 	ldrb.w	r5, [r8, #3]
     c6e:	4313      	orrs	r3, r2
     c70:	ea43 6305 	orr.w	r3, r3, r5, lsl #24
     c74:	6363      	str	r3, [r4, #52]	; 0x34
     c76:	6805      	ldr	r5, [r0, #0]
     c78:	6ba3      	ldr	r3, [r4, #56]	; 0x38
     c7a:	1c4a      	adds	r2, r1, #1
     c7c:	f843 5021 	str.w	r5, [r3, r1, lsl #2]
     c80:	f894 3030 	ldrb.w	r3, [r4, #48]	; 0x30
     c84:	b2d1      	uxtb	r1, r2
     c86:	428b      	cmp	r3, r1
     c88:	f108 0804 	add.w	r8, r8, #4
     c8c:	d8e4      	bhi.n	c58 <Stack_Size+0x58>
     c8e:	4648      	mov	r0, r9
     c90:	6be3      	ldr	r3, [r4, #60]	; 0x3c
     c92:	b003      	add	sp, #12
     c94:	e8bd 4ff0 	ldmia.w	sp!, {r4, r5, r6, r7, r8, r9, r10, r11, lr}
     c98:	4718      	bx	r3
     c9a:	6a80      	ldr	r0, [r0, #40]	; 0x28
     c9c:	0129      	lsls	r1, r5, #4
     c9e:	f001 ff95 	bl	2bcc <__wrap_realloc>
     ca2:	7525      	strb	r5, [r4, #20]
     ca4:	62a0      	str	r0, [r4, #40]	; 0x28
     ca6:	2d00      	cmp	r5, #0
     ca8:	f47f af56 	bne.w	b58 <ros::Subscriber<std_msgs::Float32MultiArray>::callback(unsigned char*)+0x20>
     cac:	2208      	movs	r2, #8
     cae:	2107      	movs	r1, #7
     cb0:	2006      	movs	r0, #6
     cb2:	2505      	movs	r5, #5
     cb4:	f04f 0e04 	mov.w	lr, #4
     cb8:	260c      	movs	r6, #12
     cba:	e7ae      	b.n	c1a <Stack_Size+0x1a>
     cbc:	6ba0      	ldr	r0, [r4, #56]	; 0x38
     cbe:	00a9      	lsls	r1, r5, #2
     cc0:	f001 ff84 	bl	2bcc <__wrap_realloc>
     cc4:	63a0      	str	r0, [r4, #56]	; 0x38
     cc6:	e7c0      	b.n	c4a <Stack_Size+0x4a>

00000cc8 <std_msgs::Float32MultiArray::deserialize(unsigned char*)>:
     cc8:	e92d 47f0 	stmdb	sp!, {r4, r5, r6, r7, r8, r9, r10, lr}
     ccc:	7a03      	ldrb	r3, [r0, #8]
     cce:	780d      	ldrb	r5, [r1, #0]
     cd0:	b082      	sub	sp, #8
     cd2:	42ab      	cmp	r3, r5
     cd4:	4604      	mov	r4, r0
     cd6:	460f      	mov	r7, r1
     cd8:	f0c0 80a3 	bcc.w	e22 <std_msgs::Float32MultiArray::deserialize(unsigned char*)+0x15a>
     cdc:	7225      	strb	r5, [r4, #8]
     cde:	2d00      	cmp	r5, #0
     ce0:	f000 80a8 	beq.w	e34 <std_msgs::Float32MultiArray::deserialize(unsigned char*)+0x16c>
     ce4:	2500      	movs	r5, #0
     ce6:	46ac      	mov	r12, r5
     ce8:	f104 060c 	add.w	r6, r4, #12
     cec:	f04f 0e04 	mov.w	lr, #4
     cf0:	eb07 080e 	add.w	r8, r7, lr
     cf4:	f8d8 0000 	ldr.w	r0, [r8]
     cf8:	f108 0a03 	add.w	r10, r8, #3
     cfc:	9001      	str	r0, [sp, #4]
     cfe:	9801      	ldr	r0, [sp, #4]
     d00:	f100 0904 	add.w	r9, r0, #4
     d04:	f1b9 0f04 	cmp.w	r9, #4
     d08:	d908      	bls.n	d1c <std_msgs::Float32MultiArray::deserialize(unsigned char*)+0x54>
     d0a:	4653      	mov	r3, r10
     d0c:	1cc1      	adds	r1, r0, #3
     d0e:	4441      	add	r1, r8
     d10:	f813 2f01 	ldrb.w	r2, [r3, #1]!
     d14:	428b      	cmp	r3, r1
     d16:	f803 2c01 	strb.w	r2, [r3, #-1]
     d1a:	d1f9      	bne.n	d10 <std_msgs::Float32MultiArray::deserialize(unsigned char*)+0x48>
     d1c:	eb08 0200 	add.w	r2, r8, r0
     d20:	f882 c003 	strb.w	r12, [r2, #3]
     d24:	f8c4 a010 	str.w	r10, [r4, #16]
     d28:	f818 3009 	ldrb.w	r3, [r8, r9]
     d2c:	f8d4 801c 	ldr.w	r8, [r4, #28]
     d30:	6163      	str	r3, [r4, #20]
     d32:	f892 9005 	ldrb.w	r9, [r2, #5]
     d36:	0129      	lsls	r1, r5, #4
     d38:	ea43 2309 	orr.w	r3, r3, r9, lsl #8
     d3c:	6163      	str	r3, [r4, #20]
     d3e:	f892 9006 	ldrb.w	r9, [r2, #6]
     d42:	300c      	adds	r0, #12
     d44:	ea43 4309 	orr.w	r3, r3, r9, lsl #16
     d48:	6163      	str	r3, [r4, #20]
     d4a:	f892 9007 	ldrb.w	r9, [r2, #7]
     d4e:	4486      	add	lr, r0
     d50:	ea43 6309 	orr.w	r3, r3, r9, lsl #24
     d54:	6163      	str	r3, [r4, #20]
     d56:	7a13      	ldrb	r3, [r2, #8]
     d58:	eb08 0001 	add.w	r0, r8, r1
     d5c:	61a3      	str	r3, [r4, #24]
     d5e:	f892 9009 	ldrb.w	r9, [r2, #9]
     d62:	3501      	adds	r5, #1
     d64:	ea43 2309 	orr.w	r3, r3, r9, lsl #8
     d68:	61a3      	str	r3, [r4, #24]
     d6a:	f892 900a 	ldrb.w	r9, [r2, #10]
     d6e:	b2ed      	uxtb	r5, r5
     d70:	ea43 4309 	orr.w	r3, r3, r9, lsl #16
     d74:	61a3      	str	r3, [r4, #24]
     d76:	7ad2      	ldrb	r2, [r2, #11]
     d78:	ea43 6302 	orr.w	r3, r3, r2, lsl #24
     d7c:	61a3      	str	r3, [r4, #24]
     d7e:	68f3      	ldr	r3, [r6, #12]
     d80:	f8d6 a000 	ldr.w	r10, [r6]
     d84:	f8d6 9004 	ldr.w	r9, [r6, #4]
     d88:	68b2      	ldr	r2, [r6, #8]
     d8a:	f848 a001 	str.w	r10, [r8, r1]
     d8e:	f8c0 9004 	str.w	r9, [r0, #4]
     d92:	6082      	str	r2, [r0, #8]
     d94:	60c3      	str	r3, [r0, #12]
     d96:	7a23      	ldrb	r3, [r4, #8]
     d98:	42ab      	cmp	r3, r5
     d9a:	d8a9      	bhi.n	cf0 <std_msgs::Float32MultiArray::deserialize(unsigned char*)+0x28>
     d9c:	f10e 0204 	add.w	r2, lr, #4
     da0:	1d16      	adds	r6, r2, #4
     da2:	f10e 0501 	add.w	r5, lr, #1
     da6:	f10e 0002 	add.w	r0, lr, #2
     daa:	f10e 0103 	add.w	r1, lr, #3
     dae:	f817 300e 	ldrb.w	r3, [r7, lr]
     db2:	f894 e024 	ldrb.w	lr, [r4, #36]	; 0x24
     db6:	6223      	str	r3, [r4, #32]
     db8:	5d7d      	ldrb	r5, [r7, r5]
     dba:	ea43 2305 	orr.w	r3, r3, r5, lsl #8
     dbe:	6223      	str	r3, [r4, #32]
     dc0:	5c38      	ldrb	r0, [r7, r0]
     dc2:	ea43 4300 	orr.w	r3, r3, r0, lsl #16
     dc6:	6223      	str	r3, [r4, #32]
     dc8:	5c79      	ldrb	r1, [r7, r1]
     dca:	ea43 6301 	orr.w	r3, r3, r1, lsl #24
     dce:	6223      	str	r3, [r4, #32]
     dd0:	5cbd      	ldrb	r5, [r7, r2]
     dd2:	45ae      	cmp	lr, r5
     dd4:	d336      	bcc.n	e44 <std_msgs::Float32MultiArray::deserialize(unsigned char*)+0x17c>
     dd6:	f884 5024 	strb.w	r5, [r4, #36]	; 0x24
     dda:	b1f5      	cbz	r5, e1a <std_msgs::Float32MultiArray::deserialize(unsigned char*)+0x152>
     ddc:	19bb      	adds	r3, r7, r6
     dde:	f104 0528 	add.w	r5, r4, #40	; 0x28
     de2:	f1c7 0704 	rsb	r7, r7, #4
     de6:	2000      	movs	r0, #0
     de8:	789a      	ldrb	r2, [r3, #2]
     dea:	785e      	ldrb	r6, [r3, #1]
     dec:	7819      	ldrb	r1, [r3, #0]
     dee:	0412      	lsls	r2, r2, #16
     df0:	ea42 2206 	orr.w	r2, r2, r6, lsl #8
     df4:	78de      	ldrb	r6, [r3, #3]
     df6:	430a      	orrs	r2, r1
     df8:	ea42 6206 	orr.w	r2, r2, r6, lsl #24
     dfc:	62a2      	str	r2, [r4, #40]	; 0x28
     dfe:	682e      	ldr	r6, [r5, #0]
     e00:	6ae2      	ldr	r2, [r4, #44]	; 0x2c
     e02:	1c41      	adds	r1, r0, #1
     e04:	f842 6020 	str.w	r6, [r2, r0, lsl #2]
     e08:	f894 2024 	ldrb.w	r2, [r4, #36]	; 0x24
     e0c:	b2c8      	uxtb	r0, r1
     e0e:	4282      	cmp	r2, r0
     e10:	eb07 0603 	add.w	r6, r7, r3
     e14:	f103 0304 	add.w	r3, r3, #4
     e18:	d8e6      	bhi.n	de8 <std_msgs::Float32MultiArray::deserialize(unsigned char*)+0x120>
     e1a:	4630      	mov	r0, r6
     e1c:	b002      	add	sp, #8
     e1e:	e8bd 87f0 	ldmia.w	sp!, {r4, r5, r6, r7, r8, r9, r10, pc}
     e22:	69c0      	ldr	r0, [r0, #28]
     e24:	0129      	lsls	r1, r5, #4
     e26:	f001 fed1 	bl	2bcc <__wrap_realloc>
     e2a:	7225      	strb	r5, [r4, #8]
     e2c:	61e0      	str	r0, [r4, #28]
     e2e:	2d00      	cmp	r5, #0
     e30:	f47f af58 	bne.w	ce4 <std_msgs::Float32MultiArray::deserialize(unsigned char*)+0x1c>
     e34:	2208      	movs	r2, #8
     e36:	2107      	movs	r1, #7
     e38:	2006      	movs	r0, #6
     e3a:	2505      	movs	r5, #5
     e3c:	f04f 0e04 	mov.w	lr, #4
     e40:	260c      	movs	r6, #12
     e42:	e7b4      	b.n	dae <std_msgs::Float32MultiArray::deserialize(unsigned char*)+0xe6>
     e44:	6ae0      	ldr	r0, [r4, #44]	; 0x2c
     e46:	00a9      	lsls	r1, r5, #2
     e48:	f001 fec0 	bl	2bcc <__wrap_realloc>
     e4c:	62e0      	str	r0, [r4, #44]	; 0x2c
     e4e:	e7c2      	b.n	dd6 <std_msgs::Float32MultiArray::deserialize(unsigned char*)+0x10e>

00000e50 <ros::NodeHandle_<MbedHardware, 25, 25, 512, 512>::publish(int, ros::Msg const*)>:
     e50:	e92d 47f0 	stmdb	sp!, {r4, r5, r6, r7, r8, r9, r10, lr}
     e54:	2963      	cmp	r1, #99	; 0x63
     e56:	b084      	sub	sp, #16
     e58:	460f      	mov	r7, r1
     e5a:	4604      	mov	r4, r0
     e5c:	dd03      	ble.n	e66 <ros::NodeHandle_<MbedHardware, 25, 25, 512, 512>::publish(int, ros::Msg const*)+0x16>
     e5e:	f890 55fc 	ldrb.w	r5, [r0, #1532]	; 0x5fc
     e62:	2d00      	cmp	r5, #0
     e64:	d04a      	beq.n	efc <ros::NodeHandle_<MbedHardware, 25, 25, 512, 512>::publish(int, ros::Msg const*)+0xac>
     e66:	6813      	ldr	r3, [r2, #0]
     e68:	4610      	mov	r0, r2
     e6a:	681b      	ldr	r3, [r3, #0]
     e6c:	f204 3127 	addw	r1, r4, #807	; 0x327
     e70:	4798      	blx	r3
     e72:	b285      	uxth	r5, r0
     e74:	b2c2      	uxtb	r2, r0
     e76:	ea4f 2c15 	mov.w	r12, r5, lsr #8
     e7a:	eb0c 0e02 	add.w	lr, r12, r2
     e7e:	ea6f 0e0e 	mvn.w	lr, lr
     e82:	b2f9      	uxtb	r1, r7
     e84:	f204 3625 	addw	r6, r4, #805	; 0x325
     e88:	f205 3026 	addw	r0, r5, #806	; 0x326
     e8c:	f04f 09ff 	mov.w	r9, #255	; 0xff
     e90:	f04f 08fe 	mov.w	r8, #254	; 0xfe
     e94:	f347 2707 	sbfx	r7, r7, #8, #8
     e98:	f884 2322 	strb.w	r2, [r4, #802]	; 0x322
     e9c:	4633      	mov	r3, r6
     e9e:	f884 e324 	strb.w	lr, [r4, #804]	; 0x324
     ea2:	f884 c323 	strb.w	r12, [r4, #803]	; 0x323
     ea6:	4420      	add	r0, r4
     ea8:	f884 9320 	strb.w	r9, [r4, #800]	; 0x320
     eac:	f884 8321 	strb.w	r8, [r4, #801]	; 0x321
     eb0:	f884 1325 	strb.w	r1, [r4, #805]	; 0x325
     eb4:	f884 7326 	strb.w	r7, [r4, #806]	; 0x326
     eb8:	2200      	movs	r2, #0
     eba:	e001      	b.n	ec0 <ros::NodeHandle_<MbedHardware, 25, 25, 512, 512>::publish(int, ros::Msg const*)+0x70>
     ebc:	f813 1f01 	ldrb.w	r1, [r3, #1]!
     ec0:	4283      	cmp	r3, r0
     ec2:	440a      	add	r2, r1
     ec4:	d1fa      	bne.n	ebc <ros::NodeHandle_<MbedHardware, 25, 25, 512, 512>::publish(int, ros::Msg const*)+0x6c>
     ec6:	43d2      	mvns	r2, r2
     ec8:	1deb      	adds	r3, r5, #7
     eca:	3508      	adds	r5, #8
     ecc:	b29b      	uxth	r3, r3
     ece:	b2ad      	uxth	r5, r5
     ed0:	4423      	add	r3, r4
     ed2:	f5b5 7f00 	cmp.w	r5, #512	; 0x200
     ed6:	f883 2320 	strb.w	r2, [r3, #800]	; 0x320
     eda:	d813      	bhi.n	f04 <ros::NodeHandle_<MbedHardware, 25, 25, 512, 512>::publish(int, ros::Msg const*)+0xb4>
     edc:	f504 7648 	add.w	r6, r4, #800	; 0x320
     ee0:	b165      	cbz	r5, efc <ros::NodeHandle_<MbedHardware, 25, 25, 512, 512>::publish(int, ros::Msg const*)+0xac>
     ee2:	1e6b      	subs	r3, r5, #1
     ee4:	f104 0744 	add.w	r7, r4, #68	; 0x44
     ee8:	441e      	add	r6, r3
     eea:	f204 341f 	addw	r4, r4, #799	; 0x31f
     eee:	f814 1f01 	ldrb.w	r1, [r4, #1]!
     ef2:	4638      	mov	r0, r7
     ef4:	f003 fd36 	bl	4964 <mbed::Stream::putc(int)>
     ef8:	42b4      	cmp	r4, r6
     efa:	d1f8      	bne.n	eee <ros::NodeHandle_<MbedHardware, 25, 25, 512, 512>::publish(int, ros::Msg const*)+0x9e>
     efc:	4628      	mov	r0, r5
     efe:	b004      	add	sp, #16
     f00:	e8bd 87f0 	ldmia.w	sp!, {r4, r5, r6, r7, r8, r9, r10, pc}
     f04:	4931      	ldr	r1, [pc, #196]	; (fcc <ros::NodeHandle_<MbedHardware, 25, 25, 512, 512>::publish(int, ros::Msg const*)+0x17c>)
     f06:	4d32      	ldr	r5, [pc, #200]	; (fd0 <ros::NodeHandle_<MbedHardware, 25, 25, 512, 512>::publish(int, ros::Msg const*)+0x180>)
     f08:	2203      	movs	r2, #3
     f0a:	6823      	ldr	r3, [r4, #0]
     f0c:	9101      	str	r1, [sp, #4]
     f0e:	9503      	str	r5, [sp, #12]
     f10:	f88d 2008 	strb.w	r2, [sp, #8]
     f14:	681b      	ldr	r3, [r3, #0]
     f16:	492f      	ldr	r1, [pc, #188]	; (fd4 <ros::NodeHandle_<MbedHardware, 25, 25, 512, 512>::publish(int, ros::Msg const*)+0x184>)
     f18:	428b      	cmp	r3, r1
     f1a:	d150      	bne.n	fbe <ros::NodeHandle_<MbedHardware, 25, 25, 512, 512>::publish(int, ros::Msg const*)+0x16e>
     f1c:	ab04      	add	r3, sp, #16
     f1e:	2138      	movs	r1, #56	; 0x38
     f20:	f843 1d10 	str.w	r1, [r3, #-16]!
     f24:	6818      	ldr	r0, [r3, #0]
     f26:	f884 2327 	strb.w	r2, [r4, #807]	; 0x327
     f2a:	f8c4 0328 	str.w	r0, [r4, #808]	; 0x328
     f2e:	f105 0c30 	add.w	r12, r5, #48	; 0x30
     f32:	f504 774b 	add.w	r7, r4, #812	; 0x32c
     f36:	46ae      	mov	lr, r5
     f38:	e8be 000f 	ldmia.w	lr!, {r0, r1, r2, r3}
     f3c:	45e6      	cmp	lr, r12
     f3e:	6038      	str	r0, [r7, #0]
     f40:	6079      	str	r1, [r7, #4]
     f42:	60ba      	str	r2, [r7, #8]
     f44:	60fb      	str	r3, [r7, #12]
     f46:	f105 0510 	add.w	r5, r5, #16
     f4a:	f107 0710 	add.w	r7, r7, #16
     f4e:	d1f2      	bne.n	f36 <ros::NodeHandle_<MbedHardware, 25, 25, 512, 512>::publish(int, ros::Msg const*)+0xe6>
     f50:	cd03      	ldmia	r5!, {r0, r1}
     f52:	f04f 0e00 	mov.w	lr, #0
     f56:	f04f 0c07 	mov.w	r12, #7
     f5a:	f04f 0aff 	mov.w	r10, #255	; 0xff
     f5e:	f04f 09fe 	mov.w	r9, #254	; 0xfe
     f62:	f04f 083d 	mov.w	r8, #61	; 0x3d
     f66:	25c2      	movs	r5, #194	; 0xc2
     f68:	6079      	str	r1, [r7, #4]
     f6a:	6038      	str	r0, [r7, #0]
     f6c:	4673      	mov	r3, lr
     f6e:	4662      	mov	r2, r12
     f70:	f204 3163 	addw	r1, r4, #867	; 0x363
     f74:	f884 e323 	strb.w	lr, [r4, #803]	; 0x323
     f78:	f884 e326 	strb.w	lr, [r4, #806]	; 0x326
     f7c:	f884 c325 	strb.w	r12, [r4, #805]	; 0x325
     f80:	f884 a320 	strb.w	r10, [r4, #800]	; 0x320
     f84:	f884 9321 	strb.w	r9, [r4, #801]	; 0x321
     f88:	f884 8322 	strb.w	r8, [r4, #802]	; 0x322
     f8c:	f884 5324 	strb.w	r5, [r4, #804]	; 0x324
     f90:	e001      	b.n	f96 <ros::NodeHandle_<MbedHardware, 25, 25, 512, 512>::publish(int, ros::Msg const*)+0x146>
     f92:	f816 2f01 	ldrb.w	r2, [r6, #1]!
     f96:	428e      	cmp	r6, r1
     f98:	4413      	add	r3, r2
     f9a:	d1fa      	bne.n	f92 <ros::NodeHandle_<MbedHardware, 25, 25, 512, 512>::publish(int, ros::Msg const*)+0x142>
     f9c:	43db      	mvns	r3, r3
     f9e:	f104 0644 	add.w	r6, r4, #68	; 0x44
     fa2:	f884 3364 	strb.w	r3, [r4, #868]	; 0x364
     fa6:	f204 351f 	addw	r5, r4, #799	; 0x31f
     faa:	f504 7459 	add.w	r4, r4, #868	; 0x364
     fae:	f815 1f01 	ldrb.w	r1, [r5, #1]!
     fb2:	4630      	mov	r0, r6
     fb4:	f003 fcd6 	bl	4964 <mbed::Stream::putc(int)>
     fb8:	42a5      	cmp	r5, r4
     fba:	d1f8      	bne.n	fae <ros::NodeHandle_<MbedHardware, 25, 25, 512, 512>::publish(int, ros::Msg const*)+0x15e>
     fbc:	e003      	b.n	fc6 <ros::NodeHandle_<MbedHardware, 25, 25, 512, 512>::publish(int, ros::Msg const*)+0x176>
     fbe:	4620      	mov	r0, r4
     fc0:	2107      	movs	r1, #7
     fc2:	aa01      	add	r2, sp, #4
     fc4:	4798      	blx	r3
     fc6:	f04f 35ff 	mov.w	r5, #4294967295
     fca:	e797      	b.n	efc <ros::NodeHandle_<MbedHardware, 25, 25, 512, 512>::publish(int, ros::Msg const*)+0xac>
     fcc:	000074c8 	.word	0x000074c8
     fd0:	000076fc 	.word	0x000076fc
     fd4:	00000e51 	.word	0x00000e51

00000fd8 <Motor::Motor(PinName, PinName, PinName, bool)>:
     fd8:	e92d 41f0 	stmdb	sp!, {r4, r5, r6, r7, r8, lr}
     fdc:	4604      	mov	r4, r0
     fde:	4617      	mov	r7, r2
     fe0:	461e      	mov	r6, r3
     fe2:	2500      	movs	r5, #0
     fe4:	f89d 8018 	ldrb.w	r8, [sp, #24]
     fe8:	f002 fd9c 	bl	3b24 <pwmout_init>
     fec:	4639      	mov	r1, r7
     fee:	f104 0008 	add.w	r0, r4, #8
     ff2:	60a5      	str	r5, [r4, #8]
     ff4:	60e5      	str	r5, [r4, #12]
     ff6:	6125      	str	r5, [r4, #16]
     ff8:	6165      	str	r5, [r4, #20]
     ffa:	61a5      	str	r5, [r4, #24]
     ffc:	61e5      	str	r5, [r4, #28]
     ffe:	f002 f9d9 	bl	33b4 <gpio_init_out>
    1002:	f104 077c 	add.w	r7, r4, #124	; 0x7c
    1006:	4631      	mov	r1, r6
    1008:	f884 8020 	strb.w	r8, [r4, #32]
    100c:	f104 0024 	add.w	r0, r4, #36	; 0x24
    1010:	f003 fb74 	bl	46fc <mbed::InterruptIn::InterruptIn(PinName)>
    1014:	4638      	mov	r0, r7
    1016:	f003 fd3f 	bl	4a98 <mbed::TimerEvent::TimerEvent()>
    101a:	4b1b      	ldr	r3, [pc, #108]	; (1088 <Motor::Motor(PinName, PinName, PinName, bool)+0xb0>)
    101c:	f04f 0800 	mov.w	r8, #0
    1020:	67e3      	str	r3, [r4, #124]	; 0x7c
    1022:	4620      	mov	r0, r4
    1024:	4641      	mov	r1, r8
    1026:	f8c4 5094 	str.w	r5, [r4, #148]	; 0x94
    102a:	f8c4 50a8 	str.w	r5, [r4, #168]	; 0xa8
    102e:	f002 fd2b 	bl	3a88 <pwmout_write>
    1032:	69a3      	ldr	r3, [r4, #24]
    1034:	68e2      	ldr	r2, [r4, #12]
    1036:	4620      	mov	r0, r4
    1038:	601a      	str	r2, [r3, #0]
    103a:	2128      	movs	r1, #40	; 0x28
    103c:	f002 fd50 	bl	3ae0 <pwmout_period_us>
    1040:	4e12      	ldr	r6, [pc, #72]	; (108c <Motor::Motor(PinName, PinName, PinName, bool)+0xb4>)
    1042:	4b13      	ldr	r3, [pc, #76]	; (1090 <Motor::Motor(PinName, PinName, PinName, bool)+0xb8>)
    1044:	4a13      	ldr	r2, [pc, #76]	; (1094 <Motor::Motor(PinName, PinName, PinName, bool)+0xbc>)
    1046:	2101      	movs	r1, #1
    1048:	f8c4 20b4 	str.w	r2, [r4, #180]	; 0xb4
    104c:	6523      	str	r3, [r4, #80]	; 0x50
    104e:	460a      	mov	r2, r1
    1050:	f104 0040 	add.w	r0, r4, #64	; 0x40
    1054:	f8c4 80b0 	str.w	r8, [r4, #176]	; 0xb0
    1058:	f8c4 50ac 	str.w	r5, [r4, #172]	; 0xac
    105c:	64e4      	str	r4, [r4, #76]	; 0x4c
    105e:	6565      	str	r5, [r4, #84]	; 0x54
    1060:	6626      	str	r6, [r4, #96]	; 0x60
    1062:	f002 fc61 	bl	3928 <gpio_irq_set>
    1066:	4b0c      	ldr	r3, [pc, #48]	; (1098 <Motor::Motor(PinName, PinName, PinName, bool)+0xc0>)
    1068:	4638      	mov	r0, r7
    106a:	f8c4 4094 	str.w	r4, [r4, #148]	; 0x94
    106e:	f8c4 509c 	str.w	r5, [r4, #156]	; 0x9c
    1072:	f8c4 60a8 	str.w	r6, [r4, #168]	; 0xa8
    1076:	f8c4 3098 	str.w	r3, [r4, #152]	; 0x98
    107a:	4908      	ldr	r1, [pc, #32]	; (109c <Motor::Motor(PinName, PinName, PinName, bool)+0xc4>)
    107c:	f003 fcc2 	bl	4a04 <mbed::Ticker::setup(unsigned long)>
    1080:	4620      	mov	r0, r4
    1082:	e8bd 81f0 	ldmia.w	sp!, {r4, r5, r6, r7, r8, pc}
    1086:	bf00      	nop
    1088:	00007ba8 	.word	0x00007ba8
    108c:	00000265 	.word	0x00000265
    1090:	00000209 	.word	0x00000209
    1094:	3dcccccd 	.word	0x3dcccccd
    1098:	00000225 	.word	0x00000225
    109c:	000186a0 	.word	0x000186a0

000010a0 <main>:
    10a0:	e92d 4880 	stmdb	sp!, {r7, r11, lr}
    10a4:	f8df a380 	ldr.w	r10, [pc, #896]	; 1428 <main+0x388>
    10a8:	b089      	sub	sp, #36	; 0x24
    10aa:	f10a 0004 	add.w	r0, r10, #4
    10ae:	f8da 1100 	ldr.w	r1, [r10, #256]	; 0x100
    10b2:	f003 fbd9 	bl	4868 <mbed::SerialBase::baud(int)>
    10b6:	2200      	movs	r2, #0
    10b8:	4613      	mov	r3, r2
    10ba:	f8ca 25e8 	str.w	r2, [r10, #1512]	; 0x5e8
    10be:	f8ca 25ec 	str.w	r2, [r10, #1516]	; 0x5ec
    10c2:	f8ca 25f4 	str.w	r2, [r10, #1524]	; 0x5f4
    10c6:	f8ca 25f0 	str.w	r2, [r10, #1520]	; 0x5f0
    10ca:	f50a 62b0 	add.w	r2, r10, #1408	; 0x580
    10ce:	f852 1f04 	ldr.w	r1, [r2, #4]!
    10d2:	b119      	cbz	r1, 10dc <main+0x3c>
    10d4:	3301      	adds	r3, #1
    10d6:	2b19      	cmp	r3, #25
    10d8:	d1f9      	bne.n	10ce <main+0x2e>
    10da:	e006      	b.n	10ea <main+0x4a>
    10dc:	4acf      	ldr	r2, [pc, #828]	; (141c <main+0x37c>)
    10de:	eb0a 0183 	add.w	r1, r10, r3, lsl #2
    10e2:	3364      	adds	r3, #100	; 0x64
    10e4:	f8c1 2584 	str.w	r2, [r1, #1412]	; 0x584
    10e8:	6053      	str	r3, [r2, #4]
    10ea:	4bcd      	ldr	r3, [pc, #820]	; (1420 <main+0x380>)
    10ec:	9301      	str	r3, [sp, #4]
    10ee:	f5a3 7b48 	sub.w	r11, r3, #800	; 0x320
    10f2:	e00e      	b.n	1112 <main+0x72>
    10f4:	f89a 35fc 	ldrb.w	r3, [r10, #1532]	; 0x5fc
    10f8:	b143      	cbz	r3, 110c <main+0x6c>
    10fa:	f640 12c4 	movw	r2, #2500	; 0x9c4
    10fe:	f8db 3600 	ldr.w	r3, [r11, #1536]	; 0x600
    1102:	ebc3 0309 	rsb	r3, r3, r9
    1106:	4293      	cmp	r3, r2
    1108:	f200 81f3 	bhi.w	14f2 <main+0x452>
    110c:	2001      	movs	r0, #1
    110e:	f002 fa85 	bl	361c <wait_ms>
    1112:	48c4      	ldr	r0, [pc, #784]	; (1424 <main+0x384>)
    1114:	f003 fcaa 	bl	4a6c <mbed::Timer::read_ms()>
    1118:	f642 22f8 	movw	r2, #11000	; 0x2af8
    111c:	f8da 3604 	ldr.w	r3, [r10, #1540]	; 0x604
    1120:	4681      	mov	r9, r0
    1122:	1ac3      	subs	r3, r0, r3
    1124:	4293      	cmp	r3, r2
    1126:	bf84      	itt	hi
    1128:	2300      	movhi	r3, #0
    112a:	f88b 35fc 	strbhi.w	r3, [r11, #1532]	; 0x5fc
    112e:	f8da 35e8 	ldr.w	r3, [r10, #1512]	; 0x5e8
    1132:	b133      	cbz	r3, 1142 <main+0xa2>
    1134:	f8db 3608 	ldr.w	r3, [r11, #1544]	; 0x608
    1138:	4298      	cmp	r0, r3
    113a:	bf84      	itt	hi
    113c:	2300      	movhi	r3, #0
    113e:	f8cb 35e8 	strhi.w	r3, [r11, #1512]	; 0x5e8
    1142:	f8df 82f0 	ldr.w	r8, [pc, #752]	; 1434 <main+0x394>
    1146:	4cb8      	ldr	r4, [pc, #736]	; (1428 <main+0x388>)
    1148:	1d20      	adds	r0, r4, #4
    114a:	f001 fee9 	bl	2f20 <AjK::MODSERIAL::rxBufferEmpty()>
    114e:	4606      	mov	r6, r0
    1150:	2800      	cmp	r0, #0
    1152:	d1cf      	bne.n	10f4 <main+0x54>
    1154:	1d20      	adds	r0, r4, #4
    1156:	2101      	movs	r1, #1
    1158:	f001 fd62 	bl	2c20 <AjK::MODSERIAL::__getc(bool)>
    115c:	2800      	cmp	r0, #0
    115e:	dbc9      	blt.n	10f4 <main+0x54>
    1160:	f8db 35f8 	ldr.w	r3, [r11, #1528]	; 0x5f8
    1164:	f8db 55e8 	ldr.w	r5, [r11, #1512]	; 0x5e8
    1168:	4403      	add	r3, r0
    116a:	2d07      	cmp	r5, #7
    116c:	f8cb 35f8 	str.w	r3, [r11, #1528]	; 0x5f8
    1170:	f000 8103 	beq.w	137a <main+0x2da>
    1174:	b955      	cbnz	r5, 118c <main+0xec>
    1176:	28ff      	cmp	r0, #255	; 0xff
    1178:	f040 8113 	bne.w	13a2 <main+0x302>
    117c:	2201      	movs	r2, #1
    117e:	f109 0314 	add.w	r3, r9, #20
    1182:	f8cb 25e8 	str.w	r2, [r11, #1512]	; 0x5e8
    1186:	f8cb 3608 	str.w	r3, [r11, #1544]	; 0x608
    118a:	e7dc      	b.n	1146 <main+0xa6>
    118c:	2d01      	cmp	r5, #1
    118e:	f000 8114 	beq.w	13ba <main+0x31a>
    1192:	2d02      	cmp	r5, #2
    1194:	f000 816e 	beq.w	1474 <main+0x3d4>
    1198:	2d03      	cmp	r5, #3
    119a:	f000 8175 	beq.w	1488 <main+0x3e8>
    119e:	2d04      	cmp	r5, #4
    11a0:	f000 817c 	beq.w	149c <main+0x3fc>
    11a4:	2d05      	cmp	r5, #5
    11a6:	f000 8188 	beq.w	14ba <main+0x41a>
    11aa:	2d06      	cmp	r5, #6
    11ac:	f000 818d 	beq.w	14ca <main+0x42a>
    11b0:	2d08      	cmp	r5, #8
    11b2:	d1c8      	bne.n	1146 <main+0xa6>
    11b4:	4a9d      	ldr	r2, [pc, #628]	; (142c <main+0x38c>)
    11b6:	2100      	movs	r1, #0
    11b8:	401a      	ands	r2, r3
    11ba:	428a      	cmp	r2, r1
    11bc:	f8ca 15e8 	str.w	r1, [r10, #1512]	; 0x5e8
    11c0:	f2c0 81e1 	blt.w	1586 <main+0x4e6>
    11c4:	2aff      	cmp	r2, #255	; 0xff
    11c6:	d1be      	bne.n	1146 <main+0xa6>
    11c8:	f8da 35f0 	ldr.w	r3, [r10, #1520]	; 0x5f0
    11cc:	4d96      	ldr	r5, [pc, #600]	; (1428 <main+0x388>)
    11ce:	2b00      	cmp	r3, #0
    11d0:	f000 82fa 	beq.w	17c8 <main+0x728>
    11d4:	2b0a      	cmp	r3, #10
    11d6:	f000 8294 	beq.w	1702 <main+0x662>
    11da:	2b06      	cmp	r3, #6
    11dc:	f000 81dc 	beq.w	1598 <main+0x4f8>
    11e0:	2b0b      	cmp	r3, #11
    11e2:	f000 81d5 	beq.w	1590 <main+0x4f0>
    11e6:	eb0b 0383 	add.w	r3, r11, r3, lsl #2
    11ea:	f8d3 43f4 	ldr.w	r4, [r3, #1012]	; 0x3f4
    11ee:	2c00      	cmp	r4, #0
    11f0:	d0a9      	beq.n	1146 <main+0xa6>
    11f2:	6823      	ldr	r3, [r4, #0]
    11f4:	4a8e      	ldr	r2, [pc, #568]	; (1430 <main+0x390>)
    11f6:	681b      	ldr	r3, [r3, #0]
    11f8:	4293      	cmp	r3, r2
    11fa:	f040 8496 	bne.w	1b2a <main+0xa8a>
    11fe:	f89b 5120 	ldrb.w	r5, [r11, #288]	; 0x120
    1202:	7d23      	ldrb	r3, [r4, #20]
    1204:	f104 020c 	add.w	r2, r4, #12
    1208:	42ab      	cmp	r3, r5
    120a:	9202      	str	r2, [sp, #8]
    120c:	d204      	bcs.n	1218 <main+0x178>
    120e:	6aa0      	ldr	r0, [r4, #40]	; 0x28
    1210:	0129      	lsls	r1, r5, #4
    1212:	f001 fcdb 	bl	2bcc <__wrap_realloc>
    1216:	62a0      	str	r0, [r4, #40]	; 0x28
    1218:	7525      	strb	r5, [r4, #20]
    121a:	2d00      	cmp	r5, #0
    121c:	f000 84ee 	beq.w	1bfc <main+0xb5c>
    1220:	2304      	movs	r3, #4
    1222:	469e      	mov	lr, r3
    1224:	2600      	movs	r6, #0
    1226:	f104 0518 	add.w	r5, r4, #24
    122a:	f8cd 900c 	str.w	r9, [sp, #12]
    122e:	f50e 7790 	add.w	r7, lr, #288	; 0x120
    1232:	4457      	add	r7, r10
    1234:	6838      	ldr	r0, [r7, #0]
    1236:	f107 0c03 	add.w	r12, r7, #3
    123a:	9007      	str	r0, [sp, #28]
    123c:	9807      	ldr	r0, [sp, #28]
    123e:	f100 0904 	add.w	r9, r0, #4
    1242:	f1b9 0f04 	cmp.w	r9, #4
    1246:	d908      	bls.n	125a <main+0x1ba>
    1248:	4663      	mov	r3, r12
    124a:	1cc1      	adds	r1, r0, #3
    124c:	4439      	add	r1, r7
    124e:	f813 2f01 	ldrb.w	r2, [r3, #1]!
    1252:	428b      	cmp	r3, r1
    1254:	f803 2c01 	strb.w	r2, [r3, #-1]
    1258:	d1f9      	bne.n	124e <main+0x1ae>
    125a:	f04f 0300 	mov.w	r3, #0
    125e:	183a      	adds	r2, r7, r0
    1260:	70d3      	strb	r3, [r2, #3]
    1262:	f8c4 c01c 	str.w	r12, [r4, #28]
    1266:	f817 3009 	ldrb.w	r3, [r7, r9]
    126a:	300c      	adds	r0, #12
    126c:	6223      	str	r3, [r4, #32]
    126e:	f892 c005 	ldrb.w	r12, [r2, #5]
    1272:	4486      	add	lr, r0
    1274:	ea43 230c 	orr.w	r3, r3, r12, lsl #8
    1278:	6223      	str	r3, [r4, #32]
    127a:	f892 c006 	ldrb.w	r12, [r2, #6]
    127e:	6aa7      	ldr	r7, [r4, #40]	; 0x28
    1280:	ea43 430c 	orr.w	r3, r3, r12, lsl #16
    1284:	6223      	str	r3, [r4, #32]
    1286:	f892 c007 	ldrb.w	r12, [r2, #7]
    128a:	0131      	lsls	r1, r6, #4
    128c:	ea43 630c 	orr.w	r3, r3, r12, lsl #24
    1290:	6223      	str	r3, [r4, #32]
    1292:	7a13      	ldrb	r3, [r2, #8]
    1294:	3601      	adds	r6, #1
    1296:	6263      	str	r3, [r4, #36]	; 0x24
    1298:	f892 c009 	ldrb.w	r12, [r2, #9]
    129c:	b2f6      	uxtb	r6, r6
    129e:	ea43 200c 	orr.w	r0, r3, r12, lsl #8
    12a2:	6260      	str	r0, [r4, #36]	; 0x24
    12a4:	f892 c00a 	ldrb.w	r12, [r2, #10]
    12a8:	187b      	adds	r3, r7, r1
    12aa:	ea40 400c 	orr.w	r0, r0, r12, lsl #16
    12ae:	6260      	str	r0, [r4, #36]	; 0x24
    12b0:	7ad2      	ldrb	r2, [r2, #11]
    12b2:	ea40 6002 	orr.w	r0, r0, r2, lsl #24
    12b6:	6260      	str	r0, [r4, #36]	; 0x24
    12b8:	f8d5 9000 	ldr.w	r9, [r5]
    12bc:	f8d5 c004 	ldr.w	r12, [r5, #4]
    12c0:	68a8      	ldr	r0, [r5, #8]
    12c2:	68ea      	ldr	r2, [r5, #12]
    12c4:	f847 9001 	str.w	r9, [r7, r1]
    12c8:	f8c3 c004 	str.w	r12, [r3, #4]
    12cc:	6098      	str	r0, [r3, #8]
    12ce:	60da      	str	r2, [r3, #12]
    12d0:	7d23      	ldrb	r3, [r4, #20]
    12d2:	42b3      	cmp	r3, r6
    12d4:	d8ab      	bhi.n	122e <main+0x18e>
    12d6:	4673      	mov	r3, lr
    12d8:	f8dd 900c 	ldr.w	r9, [sp, #12]
    12dc:	1d1a      	adds	r2, r3, #4
    12de:	1d15      	adds	r5, r2, #4
    12e0:	1c5e      	adds	r6, r3, #1
    12e2:	1c98      	adds	r0, r3, #2
    12e4:	1cd9      	adds	r1, r3, #3
    12e6:	4453      	add	r3, r10
    12e8:	f893 3120 	ldrb.w	r3, [r3, #288]	; 0x120
    12ec:	4456      	add	r6, r10
    12ee:	62e3      	str	r3, [r4, #44]	; 0x2c
    12f0:	f896 6120 	ldrb.w	r6, [r6, #288]	; 0x120
    12f4:	4450      	add	r0, r10
    12f6:	ea43 2306 	orr.w	r3, r3, r6, lsl #8
    12fa:	62e3      	str	r3, [r4, #44]	; 0x2c
    12fc:	f890 0120 	ldrb.w	r0, [r0, #288]	; 0x120
    1300:	4451      	add	r1, r10
    1302:	ea43 4300 	orr.w	r3, r3, r0, lsl #16
    1306:	62e3      	str	r3, [r4, #44]	; 0x2c
    1308:	f891 1120 	ldrb.w	r1, [r1, #288]	; 0x120
    130c:	4452      	add	r2, r10
    130e:	ea43 6301 	orr.w	r3, r3, r1, lsl #24
    1312:	62e3      	str	r3, [r4, #44]	; 0x2c
    1314:	f892 6120 	ldrb.w	r6, [r2, #288]	; 0x120
    1318:	f894 3030 	ldrb.w	r3, [r4, #48]	; 0x30
    131c:	42b3      	cmp	r3, r6
    131e:	d204      	bcs.n	132a <main+0x28a>
    1320:	6ba0      	ldr	r0, [r4, #56]	; 0x38
    1322:	00b1      	lsls	r1, r6, #2
    1324:	f001 fc52 	bl	2bcc <__wrap_realloc>
    1328:	63a0      	str	r0, [r4, #56]	; 0x38
    132a:	f884 6030 	strb.w	r6, [r4, #48]	; 0x30
    132e:	b306      	cbz	r6, 1372 <main+0x2d2>
    1330:	eb0a 0105 	add.w	r1, r10, r5
    1334:	460e      	mov	r6, r1
    1336:	f104 0534 	add.w	r5, r4, #52	; 0x34
    133a:	2000      	movs	r0, #0
    133c:	f891 3122 	ldrb.w	r3, [r1, #290]	; 0x122
    1340:	f891 7121 	ldrb.w	r7, [r1, #289]	; 0x121
    1344:	f891 2120 	ldrb.w	r2, [r1, #288]	; 0x120
    1348:	041b      	lsls	r3, r3, #16
    134a:	ea43 2307 	orr.w	r3, r3, r7, lsl #8
    134e:	f891 7123 	ldrb.w	r7, [r1, #291]	; 0x123
    1352:	4313      	orrs	r3, r2
    1354:	ea43 6307 	orr.w	r3, r3, r7, lsl #24
    1358:	6363      	str	r3, [r4, #52]	; 0x34
    135a:	682f      	ldr	r7, [r5, #0]
    135c:	6ba3      	ldr	r3, [r4, #56]	; 0x38
    135e:	1b8a      	subs	r2, r1, r6
    1360:	509f      	str	r7, [r3, r2]
    1362:	3001      	adds	r0, #1
    1364:	f894 3030 	ldrb.w	r3, [r4, #48]	; 0x30
    1368:	b2c0      	uxtb	r0, r0
    136a:	4283      	cmp	r3, r0
    136c:	f101 0104 	add.w	r1, r1, #4
    1370:	d8e4      	bhi.n	133c <main+0x29c>
    1372:	6be3      	ldr	r3, [r4, #60]	; 0x3c
    1374:	9802      	ldr	r0, [sp, #8]
    1376:	4798      	blx	r3
    1378:	e6e5      	b.n	1146 <main+0xa6>
    137a:	f8db 25f4 	ldr.w	r2, [r11, #1524]	; 0x5f4
    137e:	f8db 35ec 	ldr.w	r3, [r11, #1516]	; 0x5ec
    1382:	1c51      	adds	r1, r2, #1
    1384:	3b01      	subs	r3, #1
    1386:	445a      	add	r2, r11
    1388:	f8cb 15f4 	str.w	r1, [r11, #1524]	; 0x5f4
    138c:	f882 0120 	strb.w	r0, [r2, #288]	; 0x120
    1390:	f8cb 35ec 	str.w	r3, [r11, #1516]	; 0x5ec
    1394:	2b00      	cmp	r3, #0
    1396:	f47f aed6 	bne.w	1146 <main+0xa6>
    139a:	2308      	movs	r3, #8
    139c:	f8ca 35e8 	str.w	r3, [r10, #1512]	; 0x5e8
    13a0:	e6d1      	b.n	1146 <main+0xa6>
    13a2:	f504 7082 	add.w	r0, r4, #260	; 0x104
    13a6:	f003 fb61 	bl	4a6c <mbed::Timer::read_ms()>
    13aa:	ebc9 0000 	rsb	r0, r9, r0
    13ae:	2805      	cmp	r0, #5
    13b0:	f67f aec9 	bls.w	1146 <main+0xa6>
    13b4:	f884 55fc 	strb.w	r5, [r4, #1532]	; 0x5fc
    13b8:	e6a8      	b.n	110c <main+0x6c>
    13ba:	28fe      	cmp	r0, #254	; 0xfe
    13bc:	d079      	beq.n	14b2 <main+0x412>
    13be:	f89b 15fc 	ldrb.w	r1, [r11, #1532]	; 0x5fc
    13c2:	f8cb 65e8 	str.w	r6, [r11, #1512]	; 0x5e8
    13c6:	2900      	cmp	r1, #0
    13c8:	f47f aebd 	bne.w	1146 <main+0xa6>
    13cc:	200a      	movs	r0, #10
    13ce:	460b      	mov	r3, r1
    13d0:	f88b 1327 	strb.w	r1, [r11, #807]	; 0x327
    13d4:	f88b 1328 	strb.w	r1, [r11, #808]	; 0x328
    13d8:	f88b 1329 	strb.w	r1, [r11, #809]	; 0x329
    13dc:	f88b 132a 	strb.w	r1, [r11, #810]	; 0x32a
    13e0:	f88b 132b 	strb.w	r1, [r11, #811]	; 0x32b
    13e4:	f88b 132c 	strb.w	r1, [r11, #812]	; 0x32c
    13e8:	f88b 132d 	strb.w	r1, [r11, #813]	; 0x32d
    13ec:	f88b 132e 	strb.w	r1, [r11, #814]	; 0x32e
    13f0:	f88b 1323 	strb.w	r1, [r11, #803]	; 0x323
    13f4:	f88b 1326 	strb.w	r1, [r11, #806]	; 0x326
    13f8:	21fe      	movs	r1, #254	; 0xfe
    13fa:	4602      	mov	r2, r0
    13fc:	25ff      	movs	r5, #255	; 0xff
    13fe:	f88b 0325 	strb.w	r0, [r11, #805]	; 0x325
    1402:	f88b 1321 	strb.w	r1, [r11, #801]	; 0x321
    1406:	2008      	movs	r0, #8
    1408:	21f7      	movs	r1, #247	; 0xf7
    140a:	f204 3425 	addw	r4, r4, #805	; 0x325
    140e:	f88b 5320 	strb.w	r5, [r11, #800]	; 0x320
    1412:	f88b 0322 	strb.w	r0, [r11, #802]	; 0x322
    1416:	f88b 1324 	strb.w	r1, [r11, #804]	; 0x324
    141a:	e00f      	b.n	143c <main+0x39c>
    141c:	100007bc 	.word	0x100007bc
    1420:	100004a4 	.word	0x100004a4
    1424:	10000288 	.word	0x10000288
    1428:	10000184 	.word	0x10000184
    142c:	800000ff 	.word	0x800000ff
    1430:	00000b39 	.word	0x00000b39
    1434:	100004b2 	.word	0x100004b2
    1438:	f814 2f01 	ldrb.w	r2, [r4, #1]!
    143c:	4544      	cmp	r4, r8
    143e:	4413      	add	r3, r2
    1440:	d1fa      	bne.n	1438 <main+0x398>
    1442:	43db      	mvns	r3, r3
    1444:	9a01      	ldr	r2, [sp, #4]
    1446:	f88a 332f 	strb.w	r3, [r10, #815]	; 0x32f
    144a:	4614      	mov	r4, r2
    144c:	f102 060f 	add.w	r6, r2, #15
    1450:	21ff      	movs	r1, #255	; 0xff
    1452:	e001      	b.n	1458 <main+0x3b8>
    1454:	f814 1f01 	ldrb.w	r1, [r4, #1]!
    1458:	4dd2      	ldr	r5, [pc, #840]	; (17a4 <main+0x704>)
    145a:	f105 0044 	add.w	r0, r5, #68	; 0x44
    145e:	f003 fa81 	bl	4964 <mbed::Stream::putc(int)>
    1462:	42b4      	cmp	r4, r6
    1464:	d1f6      	bne.n	1454 <main+0x3b4>
    1466:	f505 7082 	add.w	r0, r5, #260	; 0x104
    146a:	f003 faff 	bl	4a6c <mbed::Timer::read_ms()>
    146e:	f8c5 0114 	str.w	r0, [r5, #276]	; 0x114
    1472:	e668      	b.n	1146 <main+0xa6>
    1474:	2303      	movs	r3, #3
    1476:	f8cb 05ec 	str.w	r0, [r11, #1516]	; 0x5ec
    147a:	f8cb 65f4 	str.w	r6, [r11, #1524]	; 0x5f4
    147e:	f8cb 05f8 	str.w	r0, [r11, #1528]	; 0x5f8
    1482:	f8cb 35e8 	str.w	r3, [r11, #1512]	; 0x5e8
    1486:	e65e      	b.n	1146 <main+0xa6>
    1488:	f8db 35ec 	ldr.w	r3, [r11, #1516]	; 0x5ec
    148c:	2204      	movs	r2, #4
    148e:	eb03 2000 	add.w	r0, r3, r0, lsl #8
    1492:	f8cb 05ec 	str.w	r0, [r11, #1516]	; 0x5ec
    1496:	f8cb 25e8 	str.w	r2, [r11, #1512]	; 0x5e8
    149a:	e654      	b.n	1146 <main+0xa6>
    149c:	4ac2      	ldr	r2, [pc, #776]	; (17a8 <main+0x708>)
    149e:	401a      	ands	r2, r3
    14a0:	2a00      	cmp	r2, #0
    14a2:	db21      	blt.n	14e8 <main+0x448>
    14a4:	2aff      	cmp	r2, #255	; 0xff
    14a6:	bf0c      	ite	eq
    14a8:	2305      	moveq	r3, #5
    14aa:	2300      	movne	r3, #0
    14ac:	f8ca 35e8 	str.w	r3, [r10, #1512]	; 0x5e8
    14b0:	e649      	b.n	1146 <main+0xa6>
    14b2:	2302      	movs	r3, #2
    14b4:	f8cb 35e8 	str.w	r3, [r11, #1512]	; 0x5e8
    14b8:	e645      	b.n	1146 <main+0xa6>
    14ba:	2306      	movs	r3, #6
    14bc:	f8cb 05f0 	str.w	r0, [r11, #1520]	; 0x5f0
    14c0:	f8cb 05f8 	str.w	r0, [r11, #1528]	; 0x5f8
    14c4:	f8cb 35e8 	str.w	r3, [r11, #1512]	; 0x5e8
    14c8:	e63d      	b.n	1146 <main+0xa6>
    14ca:	f8da 35f0 	ldr.w	r3, [r10, #1520]	; 0x5f0
    14ce:	f8da 25ec 	ldr.w	r2, [r10, #1516]	; 0x5ec
    14d2:	eb03 2300 	add.w	r3, r3, r0, lsl #8
    14d6:	2107      	movs	r1, #7
    14d8:	f8ca 35f0 	str.w	r3, [r10, #1520]	; 0x5f0
    14dc:	f8ca 15e8 	str.w	r1, [r10, #1512]	; 0x5e8
    14e0:	2a00      	cmp	r2, #0
    14e2:	f43f af5a 	beq.w	139a <main+0x2fa>
    14e6:	e62e      	b.n	1146 <main+0xa6>
    14e8:	3a01      	subs	r2, #1
    14ea:	f062 02ff 	orn	r2, r2, #255	; 0xff
    14ee:	3201      	adds	r2, #1
    14f0:	e7d8      	b.n	14a4 <main+0x404>
    14f2:	240a      	movs	r4, #10
    14f4:	25ff      	movs	r5, #255	; 0xff
    14f6:	4bad      	ldr	r3, [pc, #692]	; (17ac <main+0x70c>)
    14f8:	2000      	movs	r0, #0
    14fa:	4621      	mov	r1, r4
    14fc:	26fe      	movs	r6, #254	; 0xfe
    14fe:	f88b 4325 	strb.w	r4, [r11, #805]	; 0x325
    1502:	f88b 5320 	strb.w	r5, [r11, #800]	; 0x320
    1506:	24f7      	movs	r4, #247	; 0xf7
    1508:	2508      	movs	r5, #8
    150a:	4602      	mov	r2, r0
    150c:	f88b 0327 	strb.w	r0, [r11, #807]	; 0x327
    1510:	f88b 0328 	strb.w	r0, [r11, #808]	; 0x328
    1514:	f88b 0329 	strb.w	r0, [r11, #809]	; 0x329
    1518:	f88b 032a 	strb.w	r0, [r11, #810]	; 0x32a
    151c:	f88b 032b 	strb.w	r0, [r11, #811]	; 0x32b
    1520:	f88b 032c 	strb.w	r0, [r11, #812]	; 0x32c
    1524:	f88b 032d 	strb.w	r0, [r11, #813]	; 0x32d
    1528:	f88b 032e 	strb.w	r0, [r11, #814]	; 0x32e
    152c:	f88b 0323 	strb.w	r0, [r11, #803]	; 0x323
    1530:	f88b 0326 	strb.w	r0, [r11, #806]	; 0x326
    1534:	f88b 6321 	strb.w	r6, [r11, #801]	; 0x321
    1538:	f103 0009 	add.w	r0, r3, #9
    153c:	f88b 5322 	strb.w	r5, [r11, #802]	; 0x322
    1540:	f88b 4324 	strb.w	r4, [r11, #804]	; 0x324
    1544:	e001      	b.n	154a <main+0x4aa>
    1546:	f813 1f01 	ldrb.w	r1, [r3, #1]!
    154a:	4283      	cmp	r3, r0
    154c:	440a      	add	r2, r1
    154e:	d1fa      	bne.n	1546 <main+0x4a6>
    1550:	43d2      	mvns	r2, r2
    1552:	9b01      	ldr	r3, [sp, #4]
    1554:	f88a 232f 	strb.w	r2, [r10, #815]	; 0x32f
    1558:	461c      	mov	r4, r3
    155a:	f103 060f 	add.w	r6, r3, #15
    155e:	21ff      	movs	r1, #255	; 0xff
    1560:	e001      	b.n	1566 <main+0x4c6>
    1562:	f814 1f01 	ldrb.w	r1, [r4, #1]!
    1566:	4d8f      	ldr	r5, [pc, #572]	; (17a4 <main+0x704>)
    1568:	f105 0044 	add.w	r0, r5, #68	; 0x44
    156c:	f003 f9fa 	bl	4964 <mbed::Stream::putc(int)>
    1570:	42b4      	cmp	r4, r6
    1572:	d1f6      	bne.n	1562 <main+0x4c2>
    1574:	f505 7082 	add.w	r0, r5, #260	; 0x104
    1578:	f003 fa78 	bl	4a6c <mbed::Timer::read_ms()>
    157c:	f8c5 9600 	str.w	r9, [r5, #1536]	; 0x600
    1580:	f8c5 0114 	str.w	r0, [r5, #276]	; 0x114
    1584:	e5c2      	b.n	110c <main+0x6c>
    1586:	3a01      	subs	r2, #1
    1588:	f062 02ff 	orn	r2, r2, #255	; 0xff
    158c:	3201      	adds	r2, #1
    158e:	e619      	b.n	11c4 <main+0x124>
    1590:	2300      	movs	r3, #0
    1592:	f88b 35fc 	strb.w	r3, [r11, #1532]	; 0x5fc
    1596:	e5d6      	b.n	1146 <main+0xa6>
    1598:	f89b 4120 	ldrb.w	r4, [r11, #288]	; 0x120
    159c:	f89b 3614 	ldrb.w	r3, [r11, #1556]	; 0x614
    15a0:	42a3      	cmp	r3, r4
    15a2:	d206      	bcs.n	15b2 <main+0x512>
    15a4:	f8db 061c 	ldr.w	r0, [r11, #1564]	; 0x61c
    15a8:	00a1      	lsls	r1, r4, #2
    15aa:	f001 fb0f 	bl	2bcc <__wrap_realloc>
    15ae:	f8cb 061c 	str.w	r0, [r11, #1564]	; 0x61c
    15b2:	f88a 4614 	strb.w	r4, [r10, #1556]	; 0x614
    15b6:	2c00      	cmp	r4, #0
    15b8:	f000 8328 	beq.w	1c0c <main+0xb6c>
    15bc:	f8df a1e4 	ldr.w	r10, [pc, #484]	; 17a4 <main+0x704>
    15c0:	2600      	movs	r6, #0
    15c2:	4654      	mov	r4, r10
    15c4:	2504      	movs	r5, #4
    15c6:	f894 3126 	ldrb.w	r3, [r4, #294]	; 0x126
    15ca:	f894 1125 	ldrb.w	r1, [r4, #293]	; 0x125
    15ce:	f894 2124 	ldrb.w	r2, [r4, #292]	; 0x124
    15d2:	041b      	lsls	r3, r3, #16
    15d4:	ea43 2301 	orr.w	r3, r3, r1, lsl #8
    15d8:	f894 1127 	ldrb.w	r1, [r4, #295]	; 0x127
    15dc:	4313      	orrs	r3, r2
    15de:	ea43 6301 	orr.w	r3, r3, r1, lsl #24
    15e2:	f8ca 3618 	str.w	r3, [r10, #1560]	; 0x618
    15e6:	4b72      	ldr	r3, [pc, #456]	; (17b0 <main+0x710>)
    15e8:	f8da 261c 	ldr.w	r2, [r10, #1564]	; 0x61c
    15ec:	6818      	ldr	r0, [r3, #0]
    15ee:	ebcb 0304 	rsb	r3, r11, r4
    15f2:	50d0      	str	r0, [r2, r3]
    15f4:	3601      	adds	r6, #1
    15f6:	f89a 3614 	ldrb.w	r3, [r10, #1556]	; 0x614
    15fa:	b2f6      	uxtb	r6, r6
    15fc:	42b3      	cmp	r3, r6
    15fe:	f105 0504 	add.w	r5, r5, #4
    1602:	f104 0404 	add.w	r4, r4, #4
    1606:	d8de      	bhi.n	15c6 <main+0x526>
    1608:	1d2e      	adds	r6, r5, #4
    160a:	4634      	mov	r4, r6
    160c:	4455      	add	r5, r10
    160e:	f895 5120 	ldrb.w	r5, [r5, #288]	; 0x120
    1612:	f89a 3620 	ldrb.w	r3, [r10, #1568]	; 0x620
    1616:	42ab      	cmp	r3, r5
    1618:	d206      	bcs.n	1628 <main+0x588>
    161a:	f8db 0628 	ldr.w	r0, [r11, #1576]	; 0x628
    161e:	00a9      	lsls	r1, r5, #2
    1620:	f001 fad4 	bl	2bcc <__wrap_realloc>
    1624:	f8cb 0628 	str.w	r0, [r11, #1576]	; 0x628
    1628:	f88a 5620 	strb.w	r5, [r10, #1568]	; 0x620
    162c:	b325      	cbz	r5, 1678 <main+0x5d8>
    162e:	eb0b 0504 	add.w	r5, r11, r4
    1632:	462f      	mov	r7, r5
    1634:	2600      	movs	r6, #0
    1636:	f895 3122 	ldrb.w	r3, [r5, #290]	; 0x122
    163a:	f895 1121 	ldrb.w	r1, [r5, #289]	; 0x121
    163e:	f895 2120 	ldrb.w	r2, [r5, #288]	; 0x120
    1642:	041b      	lsls	r3, r3, #16
    1644:	ea43 2301 	orr.w	r3, r3, r1, lsl #8
    1648:	f895 1123 	ldrb.w	r1, [r5, #291]	; 0x123
    164c:	4313      	orrs	r3, r2
    164e:	ea43 6301 	orr.w	r3, r3, r1, lsl #24
    1652:	f8ca 3624 	str.w	r3, [r10, #1572]	; 0x624
    1656:	4b57      	ldr	r3, [pc, #348]	; (17b4 <main+0x714>)
    1658:	1bea      	subs	r2, r5, r7
    165a:	6818      	ldr	r0, [r3, #0]
    165c:	f8da 3628 	ldr.w	r3, [r10, #1576]	; 0x628
    1660:	3601      	adds	r6, #1
    1662:	5098      	str	r0, [r3, r2]
    1664:	f89a 3620 	ldrb.w	r3, [r10, #1568]	; 0x620
    1668:	b2f6      	uxtb	r6, r6
    166a:	42b3      	cmp	r3, r6
    166c:	f104 0404 	add.w	r4, r4, #4
    1670:	f105 0504 	add.w	r5, r5, #4
    1674:	d8df      	bhi.n	1636 <main+0x596>
    1676:	4626      	mov	r6, r4
    1678:	4456      	add	r6, r10
    167a:	f896 5120 	ldrb.w	r5, [r6, #288]	; 0x120
    167e:	f89a 362c 	ldrb.w	r3, [r10, #1580]	; 0x62c
    1682:	42ab      	cmp	r3, r5
    1684:	d206      	bcs.n	1694 <main+0x5f4>
    1686:	f8db 0634 	ldr.w	r0, [r11, #1588]	; 0x634
    168a:	00a9      	lsls	r1, r5, #2
    168c:	f001 fa9e 	bl	2bcc <__wrap_realloc>
    1690:	f8cb 0634 	str.w	r0, [r11, #1588]	; 0x634
    1694:	3404      	adds	r4, #4
    1696:	f88a 562c 	strb.w	r5, [r10, #1580]	; 0x62c
    169a:	b375      	cbz	r5, 16fa <main+0x65a>
    169c:	2700      	movs	r7, #0
    169e:	46be      	mov	lr, r7
    16a0:	f504 7390 	add.w	r3, r4, #288	; 0x120
    16a4:	f85a 0003 	ldr.w	r0, [r10, r3]
    16a8:	1d26      	adds	r6, r4, #4
    16aa:	9007      	str	r0, [sp, #28]
    16ac:	9d07      	ldr	r5, [sp, #28]
    16ae:	4435      	add	r5, r6
    16b0:	42b5      	cmp	r5, r6
    16b2:	d90c      	bls.n	16ce <main+0x62e>
    16b4:	4633      	mov	r3, r6
    16b6:	f504 7291 	add.w	r2, r4, #290	; 0x122
    16ba:	445a      	add	r2, r11
    16bc:	eb0a 0103 	add.w	r1, r10, r3
    16c0:	f891 1120 	ldrb.w	r1, [r1, #288]	; 0x120
    16c4:	3301      	adds	r3, #1
    16c6:	429d      	cmp	r5, r3
    16c8:	f802 1f01 	strb.w	r1, [r2, #1]!
    16cc:	d8f6      	bhi.n	16bc <main+0x61c>
    16ce:	f206 131f 	addw	r3, r6, #287	; 0x11f
    16d2:	4453      	add	r3, r10
    16d4:	f8ca 3630 	str.w	r3, [r10, #1584]	; 0x630
    16d8:	4b37      	ldr	r3, [pc, #220]	; (17b8 <main+0x718>)
    16da:	eb0a 0205 	add.w	r2, r10, r5
    16de:	6818      	ldr	r0, [r3, #0]
    16e0:	f8da 3634 	ldr.w	r3, [r10, #1588]	; 0x634
    16e4:	f882 e11f 	strb.w	lr, [r2, #287]	; 0x11f
    16e8:	f843 0027 	str.w	r0, [r3, r7, lsl #2]
    16ec:	f89a 362c 	ldrb.w	r3, [r10, #1580]	; 0x62c
    16f0:	3701      	adds	r7, #1
    16f2:	b2ff      	uxtb	r7, r7
    16f4:	42bb      	cmp	r3, r7
    16f6:	462c      	mov	r4, r5
    16f8:	d8d2      	bhi.n	16a0 <main+0x600>
    16fa:	2301      	movs	r3, #1
    16fc:	f88a 360c 	strb.w	r3, [r10, #1548]	; 0x60c
    1700:	e521      	b.n	1146 <main+0xa6>
    1702:	f505 7082 	add.w	r0, r5, #260	; 0x104
    1706:	f003 f9b1 	bl	4a6c <mbed::Timer::read_ms()>
    170a:	f89b 1122 	ldrb.w	r1, [r11, #290]	; 0x122
    170e:	f89b 3126 	ldrb.w	r3, [r11, #294]	; 0x126
    1712:	f89b e121 	ldrb.w	lr, [r11, #289]	; 0x121
    1716:	f89b 6125 	ldrb.w	r6, [r11, #293]	; 0x125
    171a:	0409      	lsls	r1, r1, #16
    171c:	f89b 7120 	ldrb.w	r7, [r11, #288]	; 0x120
    1720:	041a      	lsls	r2, r3, #16
    1722:	ea41 230e 	orr.w	r3, r1, lr, lsl #8
    1726:	f89b 1124 	ldrb.w	r1, [r11, #292]	; 0x124
    172a:	f89b e127 	ldrb.w	lr, [r11, #295]	; 0x127
    172e:	f8db 4114 	ldr.w	r4, [r11, #276]	; 0x114
    1732:	ea42 2206 	orr.w	r2, r2, r6, lsl #8
    1736:	f89b 6123 	ldrb.w	r6, [r11, #291]	; 0x123
    173a:	430a      	orrs	r2, r1
    173c:	433b      	orrs	r3, r7
    173e:	4f1f      	ldr	r7, [pc, #124]	; (17bc <main+0x71c>)
    1740:	ea42 620e 	orr.w	r2, r2, lr, lsl #24
    1744:	1b04      	subs	r4, r0, r4
    1746:	ea43 6306 	orr.w	r3, r3, r6, lsl #24
    174a:	f505 7082 	add.w	r0, r5, #260	; 0x104
    174e:	4417      	add	r7, r2
    1750:	1e5e      	subs	r6, r3, #1
    1752:	f003 f98b 	bl	4a6c <mbed::Timer::read_ms()>
    1756:	4b1a      	ldr	r3, [pc, #104]	; (17c0 <main+0x720>)
    1758:	4919      	ldr	r1, [pc, #100]	; (17c0 <main+0x720>)
    175a:	fba3 2304 	umull	r2, r3, r3, r4
    175e:	fba1 e100 	umull	lr, r1, r1, r0
    1762:	f44f 727a 	mov.w	r2, #1000	; 0x3e8
    1766:	099b      	lsrs	r3, r3, #6
    1768:	fb02 4413 	mls	r4, r2, r3, r4
    176c:	0989      	lsrs	r1, r1, #6
    176e:	fb02 0211 	mls	r2, r2, r1, r0
    1772:	4814      	ldr	r0, [pc, #80]	; (17c4 <main+0x724>)
    1774:	4433      	add	r3, r6
    1776:	fb00 7704 	mla	r7, r0, r4, r7
    177a:	fb00 7212 	mls	r2, r0, r2, r7
    177e:	1a5b      	subs	r3, r3, r1
    1780:	f505 708c 	add.w	r0, r5, #280	; 0x118
    1784:	f505 718e 	add.w	r1, r5, #284	; 0x11c
    1788:	f8cb 211c 	str.w	r2, [r11, #284]	; 0x11c
    178c:	f8cb 3118 	str.w	r3, [r11, #280]	; 0x118
    1790:	f001 fa30 	bl	2bf4 <ros::normalizeSecNSec(unsigned long&, unsigned long&)>
    1794:	f505 7082 	add.w	r0, r5, #260	; 0x104
    1798:	f003 f968 	bl	4a6c <mbed::Timer::read_ms()>
    179c:	f8cb 0604 	str.w	r0, [r11, #1540]	; 0x604
    17a0:	e4d1      	b.n	1146 <main+0xa6>
    17a2:	bf00      	nop
    17a4:	10000184 	.word	0x10000184
    17a8:	800000ff 	.word	0x800000ff
    17ac:	100004a9 	.word	0x100004a9
    17b0:	1000079c 	.word	0x1000079c
    17b4:	100007a8 	.word	0x100007a8
    17b8:	100007b4 	.word	0x100007b4
    17bc:	3b9aca00 	.word	0x3b9aca00
    17c0:	10624dd3 	.word	0x10624dd3
    17c4:	000f4240 	.word	0x000f4240
    17c8:	f885 3327 	strb.w	r3, [r5, #807]	; 0x327
    17cc:	f885 3328 	strb.w	r3, [r5, #808]	; 0x328
    17d0:	f885 3329 	strb.w	r3, [r5, #809]	; 0x329
    17d4:	f885 332a 	strb.w	r3, [r5, #810]	; 0x32a
    17d8:	f885 332b 	strb.w	r3, [r5, #811]	; 0x32b
    17dc:	f885 332c 	strb.w	r3, [r5, #812]	; 0x32c
    17e0:	f885 332d 	strb.w	r3, [r5, #813]	; 0x32d
    17e4:	f885 332e 	strb.w	r3, [r5, #814]	; 0x32e
    17e8:	f885 3323 	strb.w	r3, [r5, #803]	; 0x323
    17ec:	f885 3326 	strb.w	r3, [r5, #806]	; 0x326
    17f0:	4619      	mov	r1, r3
    17f2:	23fe      	movs	r3, #254	; 0xfe
    17f4:	240a      	movs	r4, #10
    17f6:	f885 2320 	strb.w	r2, [r5, #800]	; 0x320
    17fa:	f885 3321 	strb.w	r3, [r5, #801]	; 0x321
    17fe:	2208      	movs	r2, #8
    1800:	23f7      	movs	r3, #247	; 0xf7
    1802:	f885 3324 	strb.w	r3, [r5, #804]	; 0x324
    1806:	f885 4325 	strb.w	r4, [r5, #805]	; 0x325
    180a:	f885 2322 	strb.w	r2, [r5, #802]	; 0x322
    180e:	f205 332e 	addw	r3, r5, #814	; 0x32e
    1812:	4620      	mov	r0, r4
    1814:	f205 3525 	addw	r5, r5, #805	; 0x325
    1818:	e001      	b.n	181e <main+0x77e>
    181a:	f815 0f01 	ldrb.w	r0, [r5, #1]!
    181e:	429d      	cmp	r5, r3
    1820:	4401      	add	r1, r0
    1822:	d1fa      	bne.n	181a <main+0x77a>
    1824:	43c9      	mvns	r1, r1
    1826:	4bc4      	ldr	r3, [pc, #784]	; (1b38 <main+0xa98>)
    1828:	f88a 132f 	strb.w	r1, [r10, #815]	; 0x32f
    182c:	9301      	str	r3, [sp, #4]
    182e:	461d      	mov	r5, r3
    1830:	21ff      	movs	r1, #255	; 0xff
    1832:	e001      	b.n	1838 <main+0x798>
    1834:	f815 1f01 	ldrb.w	r1, [r5, #1]!
    1838:	4cc0      	ldr	r4, [pc, #768]	; (1b3c <main+0xa9c>)
    183a:	f104 0044 	add.w	r0, r4, #68	; 0x44
    183e:	f003 f891 	bl	4964 <mbed::Stream::putc(int)>
    1842:	f204 332f 	addw	r3, r4, #815	; 0x32f
    1846:	429d      	cmp	r5, r3
    1848:	d1f4      	bne.n	1834 <main+0x794>
    184a:	f504 7082 	add.w	r0, r4, #260	; 0x104
    184e:	f003 f90d 	bl	4a6c <mbed::Timer::read_ms()>
    1852:	f504 63b0 	add.w	r3, r4, #1408	; 0x580
    1856:	f8c4 0114 	str.w	r0, [r4, #276]	; 0x114
    185a:	f204 581c 	addw	r8, r4, #1308	; 0x51c
    185e:	9302      	str	r3, [sp, #8]
    1860:	f858 3f04 	ldr.w	r3, [r8, #4]!
    1864:	2b00      	cmp	r3, #0
    1866:	f000 809f 	beq.w	19a8 <main+0x908>
    186a:	6858      	ldr	r0, [r3, #4]
    186c:	689a      	ldr	r2, [r3, #8]
    186e:	6801      	ldr	r1, [r0, #0]
    1870:	9203      	str	r2, [sp, #12]
    1872:	6889      	ldr	r1, [r1, #8]
    1874:	681f      	ldr	r7, [r3, #0]
    1876:	4788      	blx	r1
    1878:	f8d8 3000 	ldr.w	r3, [r8]
    187c:	4604      	mov	r4, r0
    187e:	6858      	ldr	r0, [r3, #4]
    1880:	6803      	ldr	r3, [r0, #0]
    1882:	68db      	ldr	r3, [r3, #12]
    1884:	4798      	blx	r3
    1886:	f8d8 3000 	ldr.w	r3, [r8]
    188a:	4606      	mov	r6, r0
    188c:	691d      	ldr	r5, [r3, #16]
    188e:	9a03      	ldr	r2, [sp, #12]
    1890:	2d63      	cmp	r5, #99	; 0x63
    1892:	dd04      	ble.n	189e <main+0x7fe>
    1894:	f89a 35fc 	ldrb.w	r3, [r10, #1532]	; 0x5fc
    1898:	2b00      	cmp	r3, #0
    189a:	f000 8085 	beq.w	19a8 <main+0x908>
    189e:	f3c2 2307 	ubfx	r3, r2, #8, #8
    18a2:	4638      	mov	r0, r7
    18a4:	f88a 2327 	strb.w	r2, [r10, #807]	; 0x327
    18a8:	f88a 3328 	strb.w	r3, [r10, #808]	; 0x328
    18ac:	f005 f803 	bl	68b6 <strlen>
    18b0:	4603      	mov	r3, r0
    18b2:	9005      	str	r0, [sp, #20]
    18b4:	9805      	ldr	r0, [sp, #20]
    18b6:	4aa2      	ldr	r2, [pc, #648]	; (1b40 <main+0xaa0>)
    18b8:	4639      	mov	r1, r7
    18ba:	6010      	str	r0, [r2, #0]
    18bc:	461a      	mov	r2, r3
    18be:	48a1      	ldr	r0, [pc, #644]	; (1b44 <main+0xaa4>)
    18c0:	9303      	str	r3, [sp, #12]
    18c2:	f004 f945 	bl	5b50 <memcpy>
    18c6:	4620      	mov	r0, r4
    18c8:	f004 fff5 	bl	68b6 <strlen>
    18cc:	9b03      	ldr	r3, [sp, #12]
    18ce:	9006      	str	r0, [sp, #24]
    18d0:	4621      	mov	r1, r4
    18d2:	4607      	mov	r7, r0
    18d4:	4c9c      	ldr	r4, [pc, #624]	; (1b48 <main+0xaa8>)
    18d6:	9806      	ldr	r0, [sp, #24]
    18d8:	1d9a      	adds	r2, r3, #6
    18da:	50a0      	str	r0, [r4, r2]
    18dc:	4620      	mov	r0, r4
    18de:	330a      	adds	r3, #10
    18e0:	463a      	mov	r2, r7
    18e2:	4418      	add	r0, r3
    18e4:	9303      	str	r3, [sp, #12]
    18e6:	f004 f933 	bl	5b50 <memcpy>
    18ea:	4630      	mov	r0, r6
    18ec:	f004 ffe3 	bl	68b6 <strlen>
    18f0:	4604      	mov	r4, r0
    18f2:	9b03      	ldr	r3, [sp, #12]
    18f4:	9007      	str	r0, [sp, #28]
    18f6:	9807      	ldr	r0, [sp, #28]
    18f8:	4a93      	ldr	r2, [pc, #588]	; (1b48 <main+0xaa8>)
    18fa:	441f      	add	r7, r3
    18fc:	51d0      	str	r0, [r2, r7]
    18fe:	4892      	ldr	r0, [pc, #584]	; (1b48 <main+0xaa8>)
    1900:	1d3b      	adds	r3, r7, #4
    1902:	4631      	mov	r1, r6
    1904:	4622      	mov	r2, r4
    1906:	4418      	add	r0, r3
    1908:	9303      	str	r3, [sp, #12]
    190a:	f004 f921 	bl	5b50 <memcpy>
    190e:	9b03      	ldr	r3, [sp, #12]
    1910:	2000      	movs	r0, #0
    1912:	4423      	add	r3, r4
    1914:	1d1e      	adds	r6, r3, #4
    1916:	b2b4      	uxth	r4, r6
    1918:	0a21      	lsrs	r1, r4, #8
    191a:	b2f6      	uxtb	r6, r6
    191c:	198f      	adds	r7, r1, r6
    191e:	43ff      	mvns	r7, r7
    1920:	4453      	add	r3, r10
    1922:	f04f 0e02 	mov.w	lr, #2
    1926:	f883 e328 	strb.w	lr, [r3, #808]	; 0x328
    192a:	f883 0327 	strb.w	r0, [r3, #807]	; 0x327
    192e:	f883 0329 	strb.w	r0, [r3, #809]	; 0x329
    1932:	f883 032a 	strb.w	r0, [r3, #810]	; 0x32a
    1936:	4602      	mov	r2, r0
    1938:	f04f 0eff 	mov.w	lr, #255	; 0xff
    193c:	f204 3026 	addw	r0, r4, #806	; 0x326
    1940:	f88a 7324 	strb.w	r7, [r10, #804]	; 0x324
    1944:	f88a 1323 	strb.w	r1, [r10, #803]	; 0x323
    1948:	27fe      	movs	r7, #254	; 0xfe
    194a:	b2e9      	uxtb	r1, r5
    194c:	f345 2507 	sbfx	r5, r5, #8, #8
    1950:	f88a 6322 	strb.w	r6, [r10, #802]	; 0x322
    1954:	4b7d      	ldr	r3, [pc, #500]	; (1b4c <main+0xaac>)
    1956:	4450      	add	r0, r10
    1958:	f88a e320 	strb.w	lr, [r10, #800]	; 0x320
    195c:	f88a 7321 	strb.w	r7, [r10, #801]	; 0x321
    1960:	f88a 1325 	strb.w	r1, [r10, #805]	; 0x325
    1964:	f88a 5326 	strb.w	r5, [r10, #806]	; 0x326
    1968:	e001      	b.n	196e <main+0x8ce>
    196a:	f813 1f01 	ldrb.w	r1, [r3, #1]!
    196e:	4283      	cmp	r3, r0
    1970:	440a      	add	r2, r1
    1972:	d1fa      	bne.n	196a <main+0x8ca>
    1974:	43d2      	mvns	r2, r2
    1976:	1de1      	adds	r1, r4, #7
    1978:	f104 0308 	add.w	r3, r4, #8
    197c:	b289      	uxth	r1, r1
    197e:	b29b      	uxth	r3, r3
    1980:	4451      	add	r1, r10
    1982:	f5b3 7f00 	cmp.w	r3, #512	; 0x200
    1986:	f881 2320 	strb.w	r2, [r1, #800]	; 0x320
    198a:	f200 8143 	bhi.w	1c14 <main+0xb74>
    198e:	b15b      	cbz	r3, 19a8 <main+0x908>
    1990:	f203 331f 	addw	r3, r3, #799	; 0x31f
    1994:	4c6e      	ldr	r4, [pc, #440]	; (1b50 <main+0xab0>)
    1996:	eb0b 0503 	add.w	r5, r11, r3
    199a:	f814 1f01 	ldrb.w	r1, [r4, #1]!
    199e:	486d      	ldr	r0, [pc, #436]	; (1b54 <main+0xab4>)
    19a0:	f002 ffe0 	bl	4964 <mbed::Stream::putc(int)>
    19a4:	42ac      	cmp	r4, r5
    19a6:	d1f8      	bne.n	199a <main+0x8fa>
    19a8:	9b02      	ldr	r3, [sp, #8]
    19aa:	4598      	cmp	r8, r3
    19ac:	f47f af58 	bne.w	1860 <main+0x7c0>
    19b0:	4b69      	ldr	r3, [pc, #420]	; (1b58 <main+0xab8>)
    19b2:	f1a3 0864 	sub.w	r8, r3, #100	; 0x64
    19b6:	f858 0f04 	ldr.w	r0, [r8, #4]!
    19ba:	2800      	cmp	r0, #0
    19bc:	f000 8099 	beq.w	1af2 <main+0xa52>
    19c0:	e890 0088 	ldmia.w	r0, {r3, r7}
    19c4:	4965      	ldr	r1, [pc, #404]	; (1b5c <main+0xabc>)
    19c6:	689a      	ldr	r2, [r3, #8]
    19c8:	6886      	ldr	r6, [r0, #8]
    19ca:	428a      	cmp	r2, r1
    19cc:	f040 80a7 	bne.w	1b1e <main+0xa7e>
    19d0:	4d63      	ldr	r5, [pc, #396]	; (1b60 <main+0xac0>)
    19d2:	68da      	ldr	r2, [r3, #12]
    19d4:	4963      	ldr	r1, [pc, #396]	; (1b64 <main+0xac4>)
    19d6:	428a      	cmp	r2, r1
    19d8:	f040 809b 	bne.w	1b12 <main+0xa72>
    19dc:	4c62      	ldr	r4, [pc, #392]	; (1b68 <main+0xac8>)
    19de:	685b      	ldr	r3, [r3, #4]
    19e0:	4a62      	ldr	r2, [pc, #392]	; (1b6c <main+0xacc>)
    19e2:	4293      	cmp	r3, r2
    19e4:	f040 8092 	bne.w	1b0c <main+0xa6c>
    19e8:	6c03      	ldr	r3, [r0, #64]	; 0x40
    19ea:	2b63      	cmp	r3, #99	; 0x63
    19ec:	dd03      	ble.n	19f6 <main+0x956>
    19ee:	f89a 25fc 	ldrb.w	r2, [r10, #1532]	; 0x5fc
    19f2:	2a00      	cmp	r2, #0
    19f4:	d07d      	beq.n	1af2 <main+0xa52>
    19f6:	f3c7 2207 	ubfx	r2, r7, #8, #8
    19fa:	4630      	mov	r0, r6
    19fc:	9302      	str	r3, [sp, #8]
    19fe:	f88a 7327 	strb.w	r7, [r10, #807]	; 0x327
    1a02:	f88a 2328 	strb.w	r2, [r10, #808]	; 0x328
    1a06:	f004 ff56 	bl	68b6 <strlen>
    1a0a:	4607      	mov	r7, r0
    1a0c:	9005      	str	r0, [sp, #20]
    1a0e:	4b4c      	ldr	r3, [pc, #304]	; (1b40 <main+0xaa0>)
    1a10:	9805      	ldr	r0, [sp, #20]
    1a12:	4631      	mov	r1, r6
    1a14:	6018      	str	r0, [r3, #0]
    1a16:	463a      	mov	r2, r7
    1a18:	1d18      	adds	r0, r3, #4
    1a1a:	f004 f899 	bl	5b50 <memcpy>
    1a1e:	4628      	mov	r0, r5
    1a20:	f004 ff49 	bl	68b6 <strlen>
    1a24:	4606      	mov	r6, r0
    1a26:	9006      	str	r0, [sp, #24]
    1a28:	4b47      	ldr	r3, [pc, #284]	; (1b48 <main+0xaa8>)
    1a2a:	9806      	ldr	r0, [sp, #24]
    1a2c:	1dba      	adds	r2, r7, #6
    1a2e:	370a      	adds	r7, #10
    1a30:	5098      	str	r0, [r3, r2]
    1a32:	4629      	mov	r1, r5
    1a34:	4632      	mov	r2, r6
    1a36:	19d8      	adds	r0, r3, r7
    1a38:	f004 f88a 	bl	5b50 <memcpy>
    1a3c:	4620      	mov	r0, r4
    1a3e:	f004 ff3a 	bl	68b6 <strlen>
    1a42:	4605      	mov	r5, r0
    1a44:	9007      	str	r0, [sp, #28]
    1a46:	4b40      	ldr	r3, [pc, #256]	; (1b48 <main+0xaa8>)
    1a48:	443e      	add	r6, r7
    1a4a:	9807      	ldr	r0, [sp, #28]
    1a4c:	1d37      	adds	r7, r6, #4
    1a4e:	5198      	str	r0, [r3, r6]
    1a50:	4621      	mov	r1, r4
    1a52:	462a      	mov	r2, r5
    1a54:	19d8      	adds	r0, r3, r7
    1a56:	f004 f87b 	bl	5b50 <memcpy>
    1a5a:	1979      	adds	r1, r7, r5
    1a5c:	1d0d      	adds	r5, r1, #4
    1a5e:	b2ac      	uxth	r4, r5
    1a60:	ea4f 2e14 	mov.w	lr, r4, lsr #8
    1a64:	b2ed      	uxtb	r5, r5
    1a66:	eb0e 0605 	add.w	r6, lr, r5
    1a6a:	43f6      	mvns	r6, r6
    1a6c:	9b02      	ldr	r3, [sp, #8]
    1a6e:	2000      	movs	r0, #0
    1a70:	4451      	add	r1, r10
    1a72:	2702      	movs	r7, #2
    1a74:	f881 7328 	strb.w	r7, [r1, #808]	; 0x328
    1a78:	f881 0327 	strb.w	r0, [r1, #807]	; 0x327
    1a7c:	f881 0329 	strb.w	r0, [r1, #809]	; 0x329
    1a80:	f881 032a 	strb.w	r0, [r1, #810]	; 0x32a
    1a84:	4602      	mov	r2, r0
    1a86:	b2d9      	uxtb	r1, r3
    1a88:	f204 3026 	addw	r0, r4, #806	; 0x326
    1a8c:	27ff      	movs	r7, #255	; 0xff
    1a8e:	f88a 6324 	strb.w	r6, [r10, #804]	; 0x324
    1a92:	f88a e323 	strb.w	lr, [r10, #803]	; 0x323
    1a96:	26fe      	movs	r6, #254	; 0xfe
    1a98:	f343 2e07 	sbfx	lr, r3, #8, #8
    1a9c:	f88a 5322 	strb.w	r5, [r10, #802]	; 0x322
    1aa0:	4b2a      	ldr	r3, [pc, #168]	; (1b4c <main+0xaac>)
    1aa2:	4450      	add	r0, r10
    1aa4:	f88a 7320 	strb.w	r7, [r10, #800]	; 0x320
    1aa8:	f88a 6321 	strb.w	r6, [r10, #801]	; 0x321
    1aac:	f88a 1325 	strb.w	r1, [r10, #805]	; 0x325
    1ab0:	f88a e326 	strb.w	lr, [r10, #806]	; 0x326
    1ab4:	e001      	b.n	1aba <main+0xa1a>
    1ab6:	f813 1f01 	ldrb.w	r1, [r3, #1]!
    1aba:	4283      	cmp	r3, r0
    1abc:	440a      	add	r2, r1
    1abe:	d1fa      	bne.n	1ab6 <main+0xa16>
    1ac0:	43d2      	mvns	r2, r2
    1ac2:	1de1      	adds	r1, r4, #7
    1ac4:	f104 0308 	add.w	r3, r4, #8
    1ac8:	b289      	uxth	r1, r1
    1aca:	b29b      	uxth	r3, r3
    1acc:	4451      	add	r1, r10
    1ace:	f5b3 7f00 	cmp.w	r3, #512	; 0x200
    1ad2:	f881 2320 	strb.w	r2, [r1, #800]	; 0x320
    1ad6:	d84b      	bhi.n	1b70 <main+0xad0>
    1ad8:	b15b      	cbz	r3, 1af2 <main+0xa52>
    1ada:	f203 331f 	addw	r3, r3, #799	; 0x31f
    1ade:	4c1c      	ldr	r4, [pc, #112]	; (1b50 <main+0xab0>)
    1ae0:	eb0b 0503 	add.w	r5, r11, r3
    1ae4:	f814 1f01 	ldrb.w	r1, [r4, #1]!
    1ae8:	481a      	ldr	r0, [pc, #104]	; (1b54 <main+0xab4>)
    1aea:	f002 ff3b 	bl	4964 <mbed::Stream::putc(int)>
    1aee:	42ac      	cmp	r4, r5
    1af0:	d1f8      	bne.n	1ae4 <main+0xa44>
    1af2:	4b19      	ldr	r3, [pc, #100]	; (1b58 <main+0xab8>)
    1af4:	4598      	cmp	r8, r3
    1af6:	f47f af5e 	bne.w	19b6 <main+0x916>
    1afa:	2301      	movs	r3, #1
    1afc:	f8ca 9600 	str.w	r9, [r10, #1536]	; 0x600
    1b00:	f8ca 9604 	str.w	r9, [r10, #1540]	; 0x604
    1b04:	f88a 35fc 	strb.w	r3, [r10, #1532]	; 0x5fc
    1b08:	f7ff bb00 	b.w	110c <main+0x6c>
    1b0c:	4798      	blx	r3
    1b0e:	4603      	mov	r3, r0
    1b10:	e76b      	b.n	19ea <main+0x94a>
    1b12:	4790      	blx	r2
    1b14:	4604      	mov	r4, r0
    1b16:	f8d8 0000 	ldr.w	r0, [r8]
    1b1a:	6803      	ldr	r3, [r0, #0]
    1b1c:	e75f      	b.n	19de <main+0x93e>
    1b1e:	4790      	blx	r2
    1b20:	4605      	mov	r5, r0
    1b22:	f8d8 0000 	ldr.w	r0, [r8]
    1b26:	6803      	ldr	r3, [r0, #0]
    1b28:	e753      	b.n	19d2 <main+0x932>
    1b2a:	4620      	mov	r0, r4
    1b2c:	f505 7190 	add.w	r1, r5, #288	; 0x120
    1b30:	4798      	blx	r3
    1b32:	f7ff bb08 	b.w	1146 <main+0xa6>
    1b36:	bf00      	nop
    1b38:	100004a4 	.word	0x100004a4
    1b3c:	10000184 	.word	0x10000184
    1b40:	100004ad 	.word	0x100004ad
    1b44:	100004b1 	.word	0x100004b1
    1b48:	100004ab 	.word	0x100004ab
    1b4c:	100004a9 	.word	0x100004a9
    1b50:	100004a3 	.word	0x100004a3
    1b54:	100001c8 	.word	0x100001c8
    1b58:	10000768 	.word	0x10000768
    1b5c:	00000285 	.word	0x00000285
    1b60:	000076bc 	.word	0x000076bc
    1b64:	0000028d 	.word	0x0000028d
    1b68:	000076d8 	.word	0x000076d8
    1b6c:	00000281 	.word	0x00000281
    1b70:	4d4b      	ldr	r5, [pc, #300]	; (1ca0 <main+0xc00>)
    1b72:	4c4c      	ldr	r4, [pc, #304]	; (1ca4 <main+0xc04>)
    1b74:	cd0f      	ldmia	r5!, {r0, r1, r2, r3}
    1b76:	c40f      	stmia	r4!, {r0, r1, r2, r3}
    1b78:	cd0f      	ldmia	r5!, {r0, r1, r2, r3}
    1b7a:	c40f      	stmia	r4!, {r0, r1, r2, r3}
    1b7c:	cd0f      	ldmia	r5!, {r0, r1, r2, r3}
    1b7e:	c40f      	stmia	r4!, {r0, r1, r2, r3}
    1b80:	e895 0003 	ldmia.w	r5, {r0, r1}
    1b84:	2303      	movs	r3, #3
    1b86:	f88b 3327 	strb.w	r3, [r11, #807]	; 0x327
    1b8a:	2338      	movs	r3, #56	; 0x38
    1b8c:	f8cb 3328 	str.w	r3, [r11, #808]	; 0x328
    1b90:	23ff      	movs	r3, #255	; 0xff
    1b92:	e884 0003 	stmia.w	r4, {r0, r1}
    1b96:	f88b 3320 	strb.w	r3, [r11, #800]	; 0x320
    1b9a:	23fe      	movs	r3, #254	; 0xfe
    1b9c:	f88b 3321 	strb.w	r3, [r11, #801]	; 0x321
    1ba0:	233d      	movs	r3, #61	; 0x3d
    1ba2:	2700      	movs	r7, #0
    1ba4:	f04f 0e07 	mov.w	lr, #7
    1ba8:	f88b 3322 	strb.w	r3, [r11, #802]	; 0x322
    1bac:	23c2      	movs	r3, #194	; 0xc2
    1bae:	f88b 7323 	strb.w	r7, [r11, #803]	; 0x323
    1bb2:	eb04 020e 	add.w	r2, r4, lr
    1bb6:	463e      	mov	r6, r7
    1bb8:	46f4      	mov	r12, lr
    1bba:	3c37      	subs	r4, #55	; 0x37
    1bbc:	f88b 7326 	strb.w	r7, [r11, #806]	; 0x326
    1bc0:	f88b e325 	strb.w	lr, [r11, #805]	; 0x325
    1bc4:	f88b 3324 	strb.w	r3, [r11, #804]	; 0x324
    1bc8:	e001      	b.n	1bce <main+0xb2e>
    1bca:	f814 cf01 	ldrb.w	r12, [r4, #1]!
    1bce:	4294      	cmp	r4, r2
    1bd0:	4466      	add	r6, r12
    1bd2:	d1fa      	bne.n	1bca <main+0xb2a>
    1bd4:	43f3      	mvns	r3, r6
    1bd6:	4d34      	ldr	r5, [pc, #208]	; (1ca8 <main+0xc08>)
    1bd8:	f88a 3364 	strb.w	r3, [r10, #868]	; 0x364
    1bdc:	f1a5 0444 	sub.w	r4, r5, #68	; 0x44
    1be0:	21ff      	movs	r1, #255	; 0xff
    1be2:	e001      	b.n	1be8 <main+0xb48>
    1be4:	f814 1f01 	ldrb.w	r1, [r4, #1]!
    1be8:	4830      	ldr	r0, [pc, #192]	; (1cac <main+0xc0c>)
    1bea:	f002 febb 	bl	4964 <mbed::Stream::putc(int)>
    1bee:	42ac      	cmp	r4, r5
    1bf0:	d1f8      	bne.n	1be4 <main+0xb44>
    1bf2:	4b2f      	ldr	r3, [pc, #188]	; (1cb0 <main+0xc10>)
    1bf4:	4598      	cmp	r8, r3
    1bf6:	f47f aede 	bne.w	19b6 <main+0x916>
    1bfa:	e77e      	b.n	1afa <main+0xa5a>
    1bfc:	2208      	movs	r2, #8
    1bfe:	2107      	movs	r1, #7
    1c00:	2006      	movs	r0, #6
    1c02:	2605      	movs	r6, #5
    1c04:	2304      	movs	r3, #4
    1c06:	250c      	movs	r5, #12
    1c08:	f7ff bb6d 	b.w	12e6 <main+0x246>
    1c0c:	2608      	movs	r6, #8
    1c0e:	4634      	mov	r4, r6
    1c10:	2504      	movs	r5, #4
    1c12:	e4fb      	b.n	160c <main+0x56c>
    1c14:	4d22      	ldr	r5, [pc, #136]	; (1ca0 <main+0xc00>)
    1c16:	4c23      	ldr	r4, [pc, #140]	; (1ca4 <main+0xc04>)
    1c18:	cd0f      	ldmia	r5!, {r0, r1, r2, r3}
    1c1a:	c40f      	stmia	r4!, {r0, r1, r2, r3}
    1c1c:	cd0f      	ldmia	r5!, {r0, r1, r2, r3}
    1c1e:	c40f      	stmia	r4!, {r0, r1, r2, r3}
    1c20:	cd0f      	ldmia	r5!, {r0, r1, r2, r3}
    1c22:	c40f      	stmia	r4!, {r0, r1, r2, r3}
    1c24:	e895 0003 	ldmia.w	r5, {r0, r1}
    1c28:	2303      	movs	r3, #3
    1c2a:	f88b 3327 	strb.w	r3, [r11, #807]	; 0x327
    1c2e:	2338      	movs	r3, #56	; 0x38
    1c30:	f8cb 3328 	str.w	r3, [r11, #808]	; 0x328
    1c34:	23ff      	movs	r3, #255	; 0xff
    1c36:	e884 0003 	stmia.w	r4, {r0, r1}
    1c3a:	f88b 3320 	strb.w	r3, [r11, #800]	; 0x320
    1c3e:	23fe      	movs	r3, #254	; 0xfe
    1c40:	f88b 3321 	strb.w	r3, [r11, #801]	; 0x321
    1c44:	233d      	movs	r3, #61	; 0x3d
    1c46:	2700      	movs	r7, #0
    1c48:	f04f 0e07 	mov.w	lr, #7
    1c4c:	f88b 3322 	strb.w	r3, [r11, #802]	; 0x322
    1c50:	23c2      	movs	r3, #194	; 0xc2
    1c52:	f88b 7323 	strb.w	r7, [r11, #803]	; 0x323
    1c56:	eb04 020e 	add.w	r2, r4, lr
    1c5a:	463e      	mov	r6, r7
    1c5c:	46f4      	mov	r12, lr
    1c5e:	3c37      	subs	r4, #55	; 0x37
    1c60:	f88b 7326 	strb.w	r7, [r11, #806]	; 0x326
    1c64:	f88b e325 	strb.w	lr, [r11, #805]	; 0x325
    1c68:	f88b 3324 	strb.w	r3, [r11, #804]	; 0x324
    1c6c:	e001      	b.n	1c72 <main+0xbd2>
    1c6e:	f814 cf01 	ldrb.w	r12, [r4, #1]!
    1c72:	4294      	cmp	r4, r2
    1c74:	4466      	add	r6, r12
    1c76:	d1fa      	bne.n	1c6e <main+0xbce>
    1c78:	43f3      	mvns	r3, r6
    1c7a:	4d0b      	ldr	r5, [pc, #44]	; (1ca8 <main+0xc08>)
    1c7c:	f88a 3364 	strb.w	r3, [r10, #868]	; 0x364
    1c80:	f1a5 0444 	sub.w	r4, r5, #68	; 0x44
    1c84:	21ff      	movs	r1, #255	; 0xff
    1c86:	e001      	b.n	1c8c <main+0xbec>
    1c88:	f814 1f01 	ldrb.w	r1, [r4, #1]!
    1c8c:	4807      	ldr	r0, [pc, #28]	; (1cac <main+0xc0c>)
    1c8e:	f002 fe69 	bl	4964 <mbed::Stream::putc(int)>
    1c92:	42ac      	cmp	r4, r5
    1c94:	d1f8      	bne.n	1c88 <main+0xbe8>
    1c96:	9b02      	ldr	r3, [sp, #8]
    1c98:	4598      	cmp	r8, r3
    1c9a:	f47f ade1 	bne.w	1860 <main+0x7c0>
    1c9e:	e687      	b.n	19b0 <main+0x910>
    1ca0:	000076fc 	.word	0x000076fc
    1ca4:	100004b0 	.word	0x100004b0
    1ca8:	100004e8 	.word	0x100004e8
    1cac:	100001c8 	.word	0x100001c8
    1cb0:	10000768 	.word	0x10000768

00001cb4 <ros::NodeHandle_<MbedHardware, 25, 25, 512, 512>::negotiateTopics()>:
    1cb4:	e92d 4ff0 	stmdb	sp!, {r4, r5, r6, r7, r8, r9, r10, r11, lr}
    1cb8:	4680      	mov	r8, r0
    1cba:	4bc5      	ldr	r3, [pc, #788]	; (1fd0 <ros::NodeHandle_<MbedHardware, 25, 25, 512, 512>::negotiateTopics()+0x31c>)
    1cbc:	49c5      	ldr	r1, [pc, #788]	; (1fd4 <ros::NodeHandle_<MbedHardware, 25, 25, 512, 512>::negotiateTopics()+0x320>)
    1cbe:	b091      	sub	sp, #68	; 0x44
    1cc0:	2200      	movs	r2, #0
    1cc2:	f500 67b0 	add.w	r7, r0, #1408	; 0x580
    1cc6:	f200 5b1c 	addw	r11, r0, #1308	; 0x51c
    1cca:	910a      	str	r1, [sp, #40]	; 0x28
    1ccc:	930c      	str	r3, [sp, #48]	; 0x30
    1cce:	930d      	str	r3, [sp, #52]	; 0x34
    1cd0:	930e      	str	r3, [sp, #56]	; 0x38
    1cd2:	f8ad 202c 	strh.w	r2, [sp, #44]	; 0x2c
    1cd6:	920f      	str	r2, [sp, #60]	; 0x3c
    1cd8:	9701      	str	r7, [sp, #4]
    1cda:	f85b 3f04 	ldr.w	r3, [r11, #4]!
    1cde:	2b00      	cmp	r3, #0
    1ce0:	f000 80bf 	beq.w	1e62 <ros::NodeHandle_<MbedHardware, 25, 25, 512, 512>::negotiateTopics()+0x1ae>
    1ce4:	6858      	ldr	r0, [r3, #4]
    1ce6:	681c      	ldr	r4, [r3, #0]
    1ce8:	6801      	ldr	r1, [r0, #0]
    1cea:	689a      	ldr	r2, [r3, #8]
    1cec:	940c      	str	r4, [sp, #48]	; 0x30
    1cee:	688b      	ldr	r3, [r1, #8]
    1cf0:	f8ad 202c 	strh.w	r2, [sp, #44]	; 0x2c
    1cf4:	4798      	blx	r3
    1cf6:	f8db 3000 	ldr.w	r3, [r11]
    1cfa:	900d      	str	r0, [sp, #52]	; 0x34
    1cfc:	6858      	ldr	r0, [r3, #4]
    1cfe:	6803      	ldr	r3, [r0, #0]
    1d00:	68db      	ldr	r3, [r3, #12]
    1d02:	4798      	blx	r3
    1d04:	f8d8 3000 	ldr.w	r3, [r8]
    1d08:	f8db 1000 	ldr.w	r1, [r11]
    1d0c:	f44f 7200 	mov.w	r2, #512	; 0x200
    1d10:	900e      	str	r0, [sp, #56]	; 0x38
    1d12:	681b      	ldr	r3, [r3, #0]
    1d14:	690d      	ldr	r5, [r1, #16]
    1d16:	920f      	str	r2, [sp, #60]	; 0x3c
    1d18:	4aaf      	ldr	r2, [pc, #700]	; (1fd8 <ros::NodeHandle_<MbedHardware, 25, 25, 512, 512>::negotiateTopics()+0x324>)
    1d1a:	4682      	mov	r10, r0
    1d1c:	4293      	cmp	r3, r2
    1d1e:	f040 8194 	bne.w	204a <ros::NodeHandle_<MbedHardware, 25, 25, 512, 512>::negotiateTopics()+0x396>
    1d22:	2d63      	cmp	r5, #99	; 0x63
    1d24:	dd04      	ble.n	1d30 <ros::NodeHandle_<MbedHardware, 25, 25, 512, 512>::negotiateTopics()+0x7c>
    1d26:	f898 35fc 	ldrb.w	r3, [r8, #1532]	; 0x5fc
    1d2a:	2b00      	cmp	r3, #0
    1d2c:	f000 8099 	beq.w	1e62 <ros::NodeHandle_<MbedHardware, 25, 25, 512, 512>::negotiateTopics()+0x1ae>
    1d30:	f8bd 302c 	ldrh.w	r3, [sp, #44]	; 0x2c
    1d34:	9c0c      	ldr	r4, [sp, #48]	; 0x30
    1d36:	0a1a      	lsrs	r2, r3, #8
    1d38:	f888 3327 	strb.w	r3, [r8, #807]	; 0x327
    1d3c:	f888 2328 	strb.w	r2, [r8, #808]	; 0x328
    1d40:	4620      	mov	r0, r4
    1d42:	f004 fdb8 	bl	68b6 <strlen>
    1d46:	4606      	mov	r6, r0
    1d48:	ab10      	add	r3, sp, #64	; 0x40
    1d4a:	f843 0d2c 	str.w	r0, [r3, #-44]!
    1d4e:	6818      	ldr	r0, [r3, #0]
    1d50:	4621      	mov	r1, r4
    1d52:	4632      	mov	r2, r6
    1d54:	f8c8 0329 	str.w	r0, [r8, #809]	; 0x329
    1d58:	f208 302d 	addw	r0, r8, #813	; 0x32d
    1d5c:	f003 fef8 	bl	5b50 <memcpy>
    1d60:	ab10      	add	r3, sp, #64	; 0x40
    1d62:	9f0d      	ldr	r7, [sp, #52]	; 0x34
    1d64:	461c      	mov	r4, r3
    1d66:	4638      	mov	r0, r7
    1d68:	f004 fda5 	bl	68b6 <strlen>
    1d6c:	4623      	mov	r3, r4
    1d6e:	4681      	mov	r9, r0
    1d70:	9006      	str	r0, [sp, #24]
    1d72:	f853 0d28 	ldr.w	r0, [r3, #-40]!
    1d76:	f208 3427 	addw	r4, r8, #807	; 0x327
    1d7a:	9303      	str	r3, [sp, #12]
    1d7c:	1db3      	adds	r3, r6, #6
    1d7e:	360a      	adds	r6, #10
    1d80:	50e0      	str	r0, [r4, r3]
    1d82:	4639      	mov	r1, r7
    1d84:	464a      	mov	r2, r9
    1d86:	19a0      	adds	r0, r4, r6
    1d88:	f003 fee2 	bl	5b50 <memcpy>
    1d8c:	4650      	mov	r0, r10
    1d8e:	f004 fd92 	bl	68b6 <strlen>
    1d92:	4603      	mov	r3, r0
    1d94:	9007      	str	r0, [sp, #28]
    1d96:	af10      	add	r7, sp, #64	; 0x40
    1d98:	44b1      	add	r9, r6
    1d9a:	f857 0d24 	ldr.w	r0, [r7, #-36]!
    1d9e:	f109 0604 	add.w	r6, r9, #4
    1da2:	f844 0009 	str.w	r0, [r4, r9]
    1da6:	4651      	mov	r1, r10
    1da8:	461a      	mov	r2, r3
    1daa:	19a0      	adds	r0, r4, r6
    1dac:	9302      	str	r3, [sp, #8]
    1dae:	f003 fecf 	bl	5b50 <memcpy>
    1db2:	9b02      	ldr	r3, [sp, #8]
    1db4:	f04f 0e00 	mov.w	lr, #0
    1db8:	18f0      	adds	r0, r6, r3
    1dba:	1d06      	adds	r6, r0, #4
    1dbc:	b2b1      	uxth	r1, r6
    1dbe:	ea4f 2a11 	mov.w	r10, r1, lsr #8
    1dc2:	b2f6      	uxtb	r6, r6
    1dc4:	eb0a 0c06 	add.w	r12, r10, r6
    1dc8:	ea6f 0c0c 	mvn.w	r12, r12
    1dcc:	f804 e000 	strb.w	lr, [r4, r0]
    1dd0:	eb04 0900 	add.w	r9, r4, r0
    1dd4:	2002      	movs	r0, #2
    1dd6:	f889 e002 	strb.w	lr, [r9, #2]
    1dda:	f889 e003 	strb.w	lr, [r9, #3]
    1dde:	f889 0001 	strb.w	r0, [r9, #1]
    1de2:	f208 3325 	addw	r3, r8, #805	; 0x325
    1de6:	4672      	mov	r2, lr
    1de8:	f201 3026 	addw	r0, r1, #806	; 0x326
    1dec:	24ff      	movs	r4, #255	; 0xff
    1dee:	f888 c324 	strb.w	r12, [r8, #804]	; 0x324
    1df2:	f04f 0efe 	mov.w	lr, #254	; 0xfe
    1df6:	fa5f fc85 	uxtb.w	r12, r5
    1dfa:	f345 2507 	sbfx	r5, r5, #8, #8
    1dfe:	9302      	str	r3, [sp, #8]
    1e00:	f888 a323 	strb.w	r10, [r8, #803]	; 0x323
    1e04:	f888 6322 	strb.w	r6, [r8, #802]	; 0x322
    1e08:	4440      	add	r0, r8
    1e0a:	f888 4320 	strb.w	r4, [r8, #800]	; 0x320
    1e0e:	f888 e321 	strb.w	lr, [r8, #801]	; 0x321
    1e12:	f888 c325 	strb.w	r12, [r8, #805]	; 0x325
    1e16:	f888 5326 	strb.w	r5, [r8, #806]	; 0x326
    1e1a:	e001      	b.n	1e20 <ros::NodeHandle_<MbedHardware, 25, 25, 512, 512>::negotiateTopics()+0x16c>
    1e1c:	f813 cf01 	ldrb.w	r12, [r3, #1]!
    1e20:	4283      	cmp	r3, r0
    1e22:	4462      	add	r2, r12
    1e24:	d1fa      	bne.n	1e1c <ros::NodeHandle_<MbedHardware, 25, 25, 512, 512>::negotiateTopics()+0x168>
    1e26:	43d2      	mvns	r2, r2
    1e28:	1dc8      	adds	r0, r1, #7
    1e2a:	f101 0308 	add.w	r3, r1, #8
    1e2e:	b280      	uxth	r0, r0
    1e30:	b29b      	uxth	r3, r3
    1e32:	eb08 0100 	add.w	r1, r8, r0
    1e36:	f5b3 7f00 	cmp.w	r3, #512	; 0x200
    1e3a:	f881 2320 	strb.w	r2, [r1, #800]	; 0x320
    1e3e:	f200 8123 	bhi.w	2088 <ros::NodeHandle_<MbedHardware, 25, 25, 512, 512>::negotiateTopics()+0x3d4>
    1e42:	f508 7548 	add.w	r5, r8, #800	; 0x320
    1e46:	b163      	cbz	r3, 1e62 <ros::NodeHandle_<MbedHardware, 25, 25, 512, 512>::negotiateTopics()+0x1ae>
    1e48:	3b01      	subs	r3, #1
    1e4a:	441d      	add	r5, r3
    1e4c:	f108 0644 	add.w	r6, r8, #68	; 0x44
    1e50:	f208 341f 	addw	r4, r8, #799	; 0x31f
    1e54:	f814 1f01 	ldrb.w	r1, [r4, #1]!
    1e58:	4630      	mov	r0, r6
    1e5a:	f002 fd83 	bl	4964 <mbed::Stream::putc(int)>
    1e5e:	42ac      	cmp	r4, r5
    1e60:	d1f8      	bne.n	1e54 <ros::NodeHandle_<MbedHardware, 25, 25, 512, 512>::negotiateTopics()+0x1a0>
    1e62:	9b01      	ldr	r3, [sp, #4]
    1e64:	459b      	cmp	r11, r3
    1e66:	f47f af38 	bne.w	1cda <ros::NodeHandle_<MbedHardware, 25, 25, 512, 512>::negotiateTopics()+0x26>
    1e6a:	461f      	mov	r7, r3
    1e6c:	f208 53e4 	addw	r3, r8, #1508	; 0x5e4
    1e70:	9302      	str	r3, [sp, #8]
    1e72:	f857 0f04 	ldr.w	r0, [r7, #4]!
    1e76:	2800      	cmp	r0, #0
    1e78:	f000 80dd 	beq.w	2036 <ros::NodeHandle_<MbedHardware, 25, 25, 512, 512>::negotiateTopics()+0x382>
    1e7c:	6882      	ldr	r2, [r0, #8]
    1e7e:	6803      	ldr	r3, [r0, #0]
    1e80:	6841      	ldr	r1, [r0, #4]
    1e82:	920c      	str	r2, [sp, #48]	; 0x30
    1e84:	689a      	ldr	r2, [r3, #8]
    1e86:	f8ad 102c 	strh.w	r1, [sp, #44]	; 0x2c
    1e8a:	4954      	ldr	r1, [pc, #336]	; (1fdc <ros::NodeHandle_<MbedHardware, 25, 25, 512, 512>::negotiateTopics()+0x328>)
    1e8c:	428a      	cmp	r2, r1
    1e8e:	f040 80f6 	bne.w	207e <ros::NodeHandle_<MbedHardware, 25, 25, 512, 512>::negotiateTopics()+0x3ca>
    1e92:	4a53      	ldr	r2, [pc, #332]	; (1fe0 <ros::NodeHandle_<MbedHardware, 25, 25, 512, 512>::negotiateTopics()+0x32c>)
    1e94:	920d      	str	r2, [sp, #52]	; 0x34
    1e96:	68da      	ldr	r2, [r3, #12]
    1e98:	4952      	ldr	r1, [pc, #328]	; (1fe4 <ros::NodeHandle_<MbedHardware, 25, 25, 512, 512>::negotiateTopics()+0x330>)
    1e9a:	428a      	cmp	r2, r1
    1e9c:	f040 80ea 	bne.w	2074 <ros::NodeHandle_<MbedHardware, 25, 25, 512, 512>::negotiateTopics()+0x3c0>
    1ea0:	4a51      	ldr	r2, [pc, #324]	; (1fe8 <ros::NodeHandle_<MbedHardware, 25, 25, 512, 512>::negotiateTopics()+0x334>)
    1ea2:	920e      	str	r2, [sp, #56]	; 0x38
    1ea4:	685b      	ldr	r3, [r3, #4]
    1ea6:	4a51      	ldr	r2, [pc, #324]	; (1fec <ros::NodeHandle_<MbedHardware, 25, 25, 512, 512>::negotiateTopics()+0x338>)
    1ea8:	f8d8 4000 	ldr.w	r4, [r8]
    1eac:	f44f 7100 	mov.w	r1, #512	; 0x200
    1eb0:	4293      	cmp	r3, r2
    1eb2:	6824      	ldr	r4, [r4, #0]
    1eb4:	910f      	str	r1, [sp, #60]	; 0x3c
    1eb6:	f040 80da 	bne.w	206e <ros::NodeHandle_<MbedHardware, 25, 25, 512, 512>::negotiateTopics()+0x3ba>
    1eba:	6c05      	ldr	r5, [r0, #64]	; 0x40
    1ebc:	f8df 9118 	ldr.w	r9, [pc, #280]	; 1fd8 <ros::NodeHandle_<MbedHardware, 25, 25, 512, 512>::negotiateTopics()+0x324>
    1ec0:	454c      	cmp	r4, r9
    1ec2:	f040 80cb 	bne.w	205c <ros::NodeHandle_<MbedHardware, 25, 25, 512, 512>::negotiateTopics()+0x3a8>
    1ec6:	2d63      	cmp	r5, #99	; 0x63
    1ec8:	dd04      	ble.n	1ed4 <ros::NodeHandle_<MbedHardware, 25, 25, 512, 512>::negotiateTopics()+0x220>
    1eca:	f898 35fc 	ldrb.w	r3, [r8, #1532]	; 0x5fc
    1ece:	2b00      	cmp	r3, #0
    1ed0:	f000 80b1 	beq.w	2036 <ros::NodeHandle_<MbedHardware, 25, 25, 512, 512>::negotiateTopics()+0x382>
    1ed4:	f8bd 302c 	ldrh.w	r3, [sp, #44]	; 0x2c
    1ed8:	9e0c      	ldr	r6, [sp, #48]	; 0x30
    1eda:	0a1a      	lsrs	r2, r3, #8
    1edc:	f888 3327 	strb.w	r3, [r8, #807]	; 0x327
    1ee0:	f888 2328 	strb.w	r2, [r8, #808]	; 0x328
    1ee4:	4630      	mov	r0, r6
    1ee6:	f004 fce6 	bl	68b6 <strlen>
    1eea:	4604      	mov	r4, r0
    1eec:	ab10      	add	r3, sp, #64	; 0x40
    1eee:	f843 0d2c 	str.w	r0, [r3, #-44]!
    1ef2:	6818      	ldr	r0, [r3, #0]
    1ef4:	4631      	mov	r1, r6
    1ef6:	4622      	mov	r2, r4
    1ef8:	f8c8 0329 	str.w	r0, [r8, #809]	; 0x329
    1efc:	f208 302d 	addw	r0, r8, #813	; 0x32d
    1f00:	f003 fe26 	bl	5b50 <memcpy>
    1f04:	9e0d      	ldr	r6, [sp, #52]	; 0x34
    1f06:	ab10      	add	r3, sp, #64	; 0x40
    1f08:	4630      	mov	r0, r6
    1f0a:	9301      	str	r3, [sp, #4]
    1f0c:	f004 fcd3 	bl	68b6 <strlen>
    1f10:	4683      	mov	r11, r0
    1f12:	9b01      	ldr	r3, [sp, #4]
    1f14:	9006      	str	r0, [sp, #24]
    1f16:	f853 0d28 	ldr.w	r0, [r3, #-40]!
    1f1a:	f104 0a0a 	add.w	r10, r4, #10
    1f1e:	9301      	str	r3, [sp, #4]
    1f20:	1da3      	adds	r3, r4, #6
    1f22:	f208 3427 	addw	r4, r8, #807	; 0x327
    1f26:	50e0      	str	r0, [r4, r3]
    1f28:	465a      	mov	r2, r11
    1f2a:	4631      	mov	r1, r6
    1f2c:	eb04 000a 	add.w	r0, r4, r10
    1f30:	f003 fe0e 	bl	5b50 <memcpy>
    1f34:	990e      	ldr	r1, [sp, #56]	; 0x38
    1f36:	ae10      	add	r6, sp, #64	; 0x40
    1f38:	4608      	mov	r0, r1
    1f3a:	9103      	str	r1, [sp, #12]
    1f3c:	f004 fcbb 	bl	68b6 <strlen>
    1f40:	4603      	mov	r3, r0
    1f42:	9007      	str	r0, [sp, #28]
    1f44:	44d3      	add	r11, r10
    1f46:	f856 0d24 	ldr.w	r0, [r6, #-36]!
    1f4a:	f10b 0a04 	add.w	r10, r11, #4
    1f4e:	f844 000b 	str.w	r0, [r4, r11]
    1f52:	9903      	ldr	r1, [sp, #12]
    1f54:	461a      	mov	r2, r3
    1f56:	eb04 000a 	add.w	r0, r4, r10
    1f5a:	9303      	str	r3, [sp, #12]
    1f5c:	f003 fdf8 	bl	5b50 <memcpy>
    1f60:	9b03      	ldr	r3, [sp, #12]
    1f62:	980f      	ldr	r0, [sp, #60]	; 0x3c
    1f64:	eb0a 0103 	add.w	r1, r10, r3
    1f68:	f101 0e04 	add.w	lr, r1, #4
    1f6c:	fa1f f28e 	uxth.w	r2, lr
    1f70:	ea4f 2b12 	mov.w	r11, r2, lsr #8
    1f74:	fa5f fe8e 	uxtb.w	lr, lr
    1f78:	eb0b 0c0e 	add.w	r12, r11, lr
    1f7c:	ea6f 0c0c 	mvn.w	r12, r12
    1f80:	5460      	strb	r0, [r4, r1]
    1f82:	eb04 0a01 	add.w	r10, r4, r1
    1f86:	0a01      	lsrs	r1, r0, #8
    1f88:	f88a 1001 	strb.w	r1, [r10, #1]
    1f8c:	0c01      	lsrs	r1, r0, #16
    1f8e:	0e00      	lsrs	r0, r0, #24
    1f90:	f88a 1002 	strb.w	r1, [r10, #2]
    1f94:	f88a 0003 	strb.w	r0, [r10, #3]
    1f98:	f208 3325 	addw	r3, r8, #805	; 0x325
    1f9c:	20fe      	movs	r0, #254	; 0xfe
    1f9e:	f202 3126 	addw	r1, r2, #806	; 0x326
    1fa2:	24ff      	movs	r4, #255	; 0xff
    1fa4:	f888 c324 	strb.w	r12, [r8, #804]	; 0x324
    1fa8:	fa5f fc85 	uxtb.w	r12, r5
    1fac:	f345 2507 	sbfx	r5, r5, #8, #8
    1fb0:	f888 0321 	strb.w	r0, [r8, #801]	; 0x321
    1fb4:	9303      	str	r3, [sp, #12]
    1fb6:	f888 b323 	strb.w	r11, [r8, #803]	; 0x323
    1fba:	f888 e322 	strb.w	lr, [r8, #802]	; 0x322
    1fbe:	4441      	add	r1, r8
    1fc0:	f888 4320 	strb.w	r4, [r8, #800]	; 0x320
    1fc4:	f888 c325 	strb.w	r12, [r8, #805]	; 0x325
    1fc8:	f888 5326 	strb.w	r5, [r8, #806]	; 0x326
    1fcc:	2000      	movs	r0, #0
    1fce:	e011      	b.n	1ff4 <ros::NodeHandle_<MbedHardware, 25, 25, 512, 512>::negotiateTopics()+0x340>
    1fd0:	00007734 	.word	0x00007734
    1fd4:	000074b0 	.word	0x000074b0
    1fd8:	00000e51 	.word	0x00000e51
    1fdc:	00000285 	.word	0x00000285
    1fe0:	000076bc 	.word	0x000076bc
    1fe4:	0000028d 	.word	0x0000028d
    1fe8:	000076d8 	.word	0x000076d8
    1fec:	00000281 	.word	0x00000281
    1ff0:	f813 cf01 	ldrb.w	r12, [r3, #1]!
    1ff4:	428b      	cmp	r3, r1
    1ff6:	4460      	add	r0, r12
    1ff8:	d1fa      	bne.n	1ff0 <ros::NodeHandle_<MbedHardware, 25, 25, 512, 512>::negotiateTopics()+0x33c>
    1ffa:	43c0      	mvns	r0, r0
    1ffc:	1dd1      	adds	r1, r2, #7
    1ffe:	f102 0308 	add.w	r3, r2, #8
    2002:	b289      	uxth	r1, r1
    2004:	b29b      	uxth	r3, r3
    2006:	eb08 0201 	add.w	r2, r8, r1
    200a:	f5b3 7f00 	cmp.w	r3, #512	; 0x200
    200e:	f882 0320 	strb.w	r0, [r2, #800]	; 0x320
    2012:	f200 8097 	bhi.w	2144 <ros::NodeHandle_<MbedHardware, 25, 25, 512, 512>::negotiateTopics()+0x490>
    2016:	f508 7548 	add.w	r5, r8, #800	; 0x320
    201a:	b163      	cbz	r3, 2036 <ros::NodeHandle_<MbedHardware, 25, 25, 512, 512>::negotiateTopics()+0x382>
    201c:	3b01      	subs	r3, #1
    201e:	441d      	add	r5, r3
    2020:	f108 0644 	add.w	r6, r8, #68	; 0x44
    2024:	f208 341f 	addw	r4, r8, #799	; 0x31f
    2028:	f814 1f01 	ldrb.w	r1, [r4, #1]!
    202c:	4630      	mov	r0, r6
    202e:	f002 fc99 	bl	4964 <mbed::Stream::putc(int)>
    2032:	42ac      	cmp	r4, r5
    2034:	d1f8      	bne.n	2028 <ros::NodeHandle_<MbedHardware, 25, 25, 512, 512>::negotiateTopics()+0x374>
    2036:	9b02      	ldr	r3, [sp, #8]
    2038:	429f      	cmp	r7, r3
    203a:	f47f af1a 	bne.w	1e72 <ros::NodeHandle_<MbedHardware, 25, 25, 512, 512>::negotiateTopics()+0x1be>
    203e:	2301      	movs	r3, #1
    2040:	f888 35fc 	strb.w	r3, [r8, #1532]	; 0x5fc
    2044:	b011      	add	sp, #68	; 0x44
    2046:	e8bd 8ff0 	ldmia.w	sp!, {r4, r5, r6, r7, r8, r9, r10, r11, pc}
    204a:	4629      	mov	r1, r5
    204c:	4640      	mov	r0, r8
    204e:	aa0a      	add	r2, sp, #40	; 0x28
    2050:	4798      	blx	r3
    2052:	9b01      	ldr	r3, [sp, #4]
    2054:	459b      	cmp	r11, r3
    2056:	f47f ae40 	bne.w	1cda <ros::NodeHandle_<MbedHardware, 25, 25, 512, 512>::negotiateTopics()+0x26>
    205a:	e706      	b.n	1e6a <ros::NodeHandle_<MbedHardware, 25, 25, 512, 512>::negotiateTopics()+0x1b6>
    205c:	4629      	mov	r1, r5
    205e:	4640      	mov	r0, r8
    2060:	aa0a      	add	r2, sp, #40	; 0x28
    2062:	47a0      	blx	r4
    2064:	9b02      	ldr	r3, [sp, #8]
    2066:	429f      	cmp	r7, r3
    2068:	f47f af03 	bne.w	1e72 <ros::NodeHandle_<MbedHardware, 25, 25, 512, 512>::negotiateTopics()+0x1be>
    206c:	e7e7      	b.n	203e <ros::NodeHandle_<MbedHardware, 25, 25, 512, 512>::negotiateTopics()+0x38a>
    206e:	4798      	blx	r3
    2070:	4605      	mov	r5, r0
    2072:	e723      	b.n	1ebc <ros::NodeHandle_<MbedHardware, 25, 25, 512, 512>::negotiateTopics()+0x208>
    2074:	4790      	blx	r2
    2076:	4602      	mov	r2, r0
    2078:	6838      	ldr	r0, [r7, #0]
    207a:	6803      	ldr	r3, [r0, #0]
    207c:	e711      	b.n	1ea2 <ros::NodeHandle_<MbedHardware, 25, 25, 512, 512>::negotiateTopics()+0x1ee>
    207e:	4790      	blx	r2
    2080:	4602      	mov	r2, r0
    2082:	6838      	ldr	r0, [r7, #0]
    2084:	6803      	ldr	r3, [r0, #0]
    2086:	e705      	b.n	1e94 <ros::NodeHandle_<MbedHardware, 25, 25, 512, 512>::negotiateTopics()+0x1e0>
    2088:	4962      	ldr	r1, [pc, #392]	; (2214 <ros::NodeHandle_<MbedHardware, 25, 25, 512, 512>::negotiateTopics()+0x560>)
    208a:	4863      	ldr	r0, [pc, #396]	; (2218 <ros::NodeHandle_<MbedHardware, 25, 25, 512, 512>::negotiateTopics()+0x564>)
    208c:	2203      	movs	r2, #3
    208e:	f8d8 3000 	ldr.w	r3, [r8]
    2092:	9107      	str	r1, [sp, #28]
    2094:	9009      	str	r0, [sp, #36]	; 0x24
    2096:	f88d 2020 	strb.w	r2, [sp, #32]
    209a:	681b      	ldr	r3, [r3, #0]
    209c:	495f      	ldr	r1, [pc, #380]	; (221c <ros::NodeHandle_<MbedHardware, 25, 25, 512, 512>::negotiateTopics()+0x568>)
    209e:	428b      	cmp	r3, r1
    20a0:	f040 80ad 	bne.w	21fe <ros::NodeHandle_<MbedHardware, 25, 25, 512, 512>::negotiateTopics()+0x54a>
    20a4:	2338      	movs	r3, #56	; 0x38
    20a6:	9306      	str	r3, [sp, #24]
    20a8:	9b03      	ldr	r3, [sp, #12]
    20aa:	4c5b      	ldr	r4, [pc, #364]	; (2218 <ros::NodeHandle_<MbedHardware, 25, 25, 512, 512>::negotiateTopics()+0x564>)
    20ac:	6818      	ldr	r0, [r3, #0]
    20ae:	f888 2327 	strb.w	r2, [r8, #807]	; 0x327
    20b2:	f8c8 0328 	str.w	r0, [r8, #808]	; 0x328
    20b6:	f508 754b 	add.w	r5, r8, #812	; 0x32c
    20ba:	4626      	mov	r6, r4
    20bc:	ce0f      	ldmia	r6!, {r0, r1, r2, r3}
    20be:	60eb      	str	r3, [r5, #12]
    20c0:	4b57      	ldr	r3, [pc, #348]	; (2220 <ros::NodeHandle_<MbedHardware, 25, 25, 512, 512>::negotiateTopics()+0x56c>)
    20c2:	6028      	str	r0, [r5, #0]
    20c4:	429e      	cmp	r6, r3
    20c6:	6069      	str	r1, [r5, #4]
    20c8:	60aa      	str	r2, [r5, #8]
    20ca:	f104 0410 	add.w	r4, r4, #16
    20ce:	f105 0510 	add.w	r5, r5, #16
    20d2:	d1f2      	bne.n	20ba <ros::NodeHandle_<MbedHardware, 25, 25, 512, 512>::negotiateTopics()+0x406>
    20d4:	cc03      	ldmia	r4!, {r0, r1}
    20d6:	2600      	movs	r6, #0
    20d8:	2707      	movs	r7, #7
    20da:	9b02      	ldr	r3, [sp, #8]
    20dc:	f04f 0eff 	mov.w	lr, #255	; 0xff
    20e0:	6028      	str	r0, [r5, #0]
    20e2:	6069      	str	r1, [r5, #4]
    20e4:	203d      	movs	r0, #61	; 0x3d
    20e6:	21c2      	movs	r1, #194	; 0xc2
    20e8:	25fe      	movs	r5, #254	; 0xfe
    20ea:	f888 1324 	strb.w	r1, [r8, #804]	; 0x324
    20ee:	4632      	mov	r2, r6
    20f0:	463c      	mov	r4, r7
    20f2:	f888 6323 	strb.w	r6, [r8, #803]	; 0x323
    20f6:	f888 6326 	strb.w	r6, [r8, #806]	; 0x326
    20fa:	f888 7325 	strb.w	r7, [r8, #805]	; 0x325
    20fe:	f888 e320 	strb.w	lr, [r8, #800]	; 0x320
    2102:	f888 5321 	strb.w	r5, [r8, #801]	; 0x321
    2106:	f888 0322 	strb.w	r0, [r8, #802]	; 0x322
    210a:	f208 3163 	addw	r1, r8, #867	; 0x363
    210e:	e001      	b.n	2114 <ros::NodeHandle_<MbedHardware, 25, 25, 512, 512>::negotiateTopics()+0x460>
    2110:	f813 4f01 	ldrb.w	r4, [r3, #1]!
    2114:	428b      	cmp	r3, r1
    2116:	4422      	add	r2, r4
    2118:	d1fa      	bne.n	2110 <ros::NodeHandle_<MbedHardware, 25, 25, 512, 512>::negotiateTopics()+0x45c>
    211a:	43d2      	mvns	r2, r2
    211c:	f108 0644 	add.w	r6, r8, #68	; 0x44
    2120:	f888 2364 	strb.w	r2, [r8, #868]	; 0x364
    2124:	f208 341f 	addw	r4, r8, #799	; 0x31f
    2128:	f508 7559 	add.w	r5, r8, #868	; 0x364
    212c:	f814 1f01 	ldrb.w	r1, [r4, #1]!
    2130:	4630      	mov	r0, r6
    2132:	f002 fc17 	bl	4964 <mbed::Stream::putc(int)>
    2136:	42ac      	cmp	r4, r5
    2138:	d1f8      	bne.n	212c <ros::NodeHandle_<MbedHardware, 25, 25, 512, 512>::negotiateTopics()+0x478>
    213a:	9b01      	ldr	r3, [sp, #4]
    213c:	459b      	cmp	r11, r3
    213e:	f47f adcc 	bne.w	1cda <ros::NodeHandle_<MbedHardware, 25, 25, 512, 512>::negotiateTopics()+0x26>
    2142:	e692      	b.n	1e6a <ros::NodeHandle_<MbedHardware, 25, 25, 512, 512>::negotiateTopics()+0x1b6>
    2144:	4933      	ldr	r1, [pc, #204]	; (2214 <ros::NodeHandle_<MbedHardware, 25, 25, 512, 512>::negotiateTopics()+0x560>)
    2146:	4834      	ldr	r0, [pc, #208]	; (2218 <ros::NodeHandle_<MbedHardware, 25, 25, 512, 512>::negotiateTopics()+0x564>)
    2148:	2203      	movs	r2, #3
    214a:	f8d8 3000 	ldr.w	r3, [r8]
    214e:	9009      	str	r0, [sp, #36]	; 0x24
    2150:	9107      	str	r1, [sp, #28]
    2152:	f88d 2020 	strb.w	r2, [sp, #32]
    2156:	681b      	ldr	r3, [r3, #0]
    2158:	454b      	cmp	r3, r9
    215a:	d155      	bne.n	2208 <ros::NodeHandle_<MbedHardware, 25, 25, 512, 512>::negotiateTopics()+0x554>
    215c:	2338      	movs	r3, #56	; 0x38
    215e:	9306      	str	r3, [sp, #24]
    2160:	9b01      	ldr	r3, [sp, #4]
    2162:	4c2d      	ldr	r4, [pc, #180]	; (2218 <ros::NodeHandle_<MbedHardware, 25, 25, 512, 512>::negotiateTopics()+0x564>)
    2164:	6818      	ldr	r0, [r3, #0]
    2166:	f888 2327 	strb.w	r2, [r8, #807]	; 0x327
    216a:	f8c8 0328 	str.w	r0, [r8, #808]	; 0x328
    216e:	f508 754b 	add.w	r5, r8, #812	; 0x32c
    2172:	4626      	mov	r6, r4
    2174:	ce0f      	ldmia	r6!, {r0, r1, r2, r3}
    2176:	60eb      	str	r3, [r5, #12]
    2178:	4b29      	ldr	r3, [pc, #164]	; (2220 <ros::NodeHandle_<MbedHardware, 25, 25, 512, 512>::negotiateTopics()+0x56c>)
    217a:	6028      	str	r0, [r5, #0]
    217c:	429e      	cmp	r6, r3
    217e:	6069      	str	r1, [r5, #4]
    2180:	60aa      	str	r2, [r5, #8]
    2182:	f104 0410 	add.w	r4, r4, #16
    2186:	f105 0510 	add.w	r5, r5, #16
    218a:	d1f2      	bne.n	2172 <ros::NodeHandle_<MbedHardware, 25, 25, 512, 512>::negotiateTopics()+0x4be>
    218c:	cc03      	ldmia	r4!, {r0, r1}
    218e:	2600      	movs	r6, #0
    2190:	f04f 0e07 	mov.w	lr, #7
    2194:	9b03      	ldr	r3, [sp, #12]
    2196:	f04f 0cff 	mov.w	r12, #255	; 0xff
    219a:	6028      	str	r0, [r5, #0]
    219c:	6069      	str	r1, [r5, #4]
    219e:	203d      	movs	r0, #61	; 0x3d
    21a0:	21c2      	movs	r1, #194	; 0xc2
    21a2:	25fe      	movs	r5, #254	; 0xfe
    21a4:	f888 1324 	strb.w	r1, [r8, #804]	; 0x324
    21a8:	4632      	mov	r2, r6
    21aa:	4674      	mov	r4, lr
    21ac:	f888 6323 	strb.w	r6, [r8, #803]	; 0x323
    21b0:	f888 6326 	strb.w	r6, [r8, #806]	; 0x326
    21b4:	f888 e325 	strb.w	lr, [r8, #805]	; 0x325
    21b8:	f888 c320 	strb.w	r12, [r8, #800]	; 0x320
    21bc:	f888 5321 	strb.w	r5, [r8, #801]	; 0x321
    21c0:	f888 0322 	strb.w	r0, [r8, #802]	; 0x322
    21c4:	f208 3163 	addw	r1, r8, #867	; 0x363
    21c8:	e001      	b.n	21ce <ros::NodeHandle_<MbedHardware, 25, 25, 512, 512>::negotiateTopics()+0x51a>
    21ca:	f813 4f01 	ldrb.w	r4, [r3, #1]!
    21ce:	428b      	cmp	r3, r1
    21d0:	4422      	add	r2, r4
    21d2:	d1fa      	bne.n	21ca <ros::NodeHandle_<MbedHardware, 25, 25, 512, 512>::negotiateTopics()+0x516>
    21d4:	43d2      	mvns	r2, r2
    21d6:	f108 0644 	add.w	r6, r8, #68	; 0x44
    21da:	f888 2364 	strb.w	r2, [r8, #868]	; 0x364
    21de:	f208 341f 	addw	r4, r8, #799	; 0x31f
    21e2:	f508 7559 	add.w	r5, r8, #868	; 0x364
    21e6:	f814 1f01 	ldrb.w	r1, [r4, #1]!
    21ea:	4630      	mov	r0, r6
    21ec:	f002 fbba 	bl	4964 <mbed::Stream::putc(int)>
    21f0:	42ac      	cmp	r4, r5
    21f2:	d1f8      	bne.n	21e6 <ros::NodeHandle_<MbedHardware, 25, 25, 512, 512>::negotiateTopics()+0x532>
    21f4:	9b02      	ldr	r3, [sp, #8]
    21f6:	429f      	cmp	r7, r3
    21f8:	f47f ae3b 	bne.w	1e72 <ros::NodeHandle_<MbedHardware, 25, 25, 512, 512>::negotiateTopics()+0x1be>
    21fc:	e71f      	b.n	203e <ros::NodeHandle_<MbedHardware, 25, 25, 512, 512>::negotiateTopics()+0x38a>
    21fe:	463a      	mov	r2, r7
    2200:	4640      	mov	r0, r8
    2202:	2107      	movs	r1, #7
    2204:	4798      	blx	r3
    2206:	e62c      	b.n	1e62 <ros::NodeHandle_<MbedHardware, 25, 25, 512, 512>::negotiateTopics()+0x1ae>
    2208:	4632      	mov	r2, r6
    220a:	4640      	mov	r0, r8
    220c:	2107      	movs	r1, #7
    220e:	4798      	blx	r3
    2210:	e711      	b.n	2036 <ros::NodeHandle_<MbedHardware, 25, 25, 512, 512>::negotiateTopics()+0x382>
    2212:	bf00      	nop
    2214:	000074c8 	.word	0x000074c8
    2218:	000076fc 	.word	0x000076fc
    221c:	00000e51 	.word	0x00000e51
    2220:	0000772c 	.word	0x0000772c

00002224 <ros::NodeHandle_<MbedHardware, 25, 25, 512, 512>::spinOnce()>:
    2224:	e92d 4ff0 	stmdb	sp!, {r4, r5, r6, r7, r8, r9, r10, r11, lr}
    2228:	4604      	mov	r4, r0
    222a:	f500 7a82 	add.w	r10, r0, #260	; 0x104
    222e:	b08b      	sub	sp, #44	; 0x2c
    2230:	4650      	mov	r0, r10
    2232:	f002 fc1b 	bl	4a6c <mbed::Timer::read_ms()>
    2236:	f642 22f8 	movw	r2, #11000	; 0x2af8
    223a:	f8d4 3604 	ldr.w	r3, [r4, #1540]	; 0x604
    223e:	4683      	mov	r11, r0
    2240:	1ac3      	subs	r3, r0, r3
    2242:	4293      	cmp	r3, r2
    2244:	bf84      	itt	hi
    2246:	2300      	movhi	r3, #0
    2248:	f884 35fc 	strbhi.w	r3, [r4, #1532]	; 0x5fc
    224c:	f8d4 35e8 	ldr.w	r3, [r4, #1512]	; 0x5e8
    2250:	b133      	cbz	r3, 2260 <ros::NodeHandle_<MbedHardware, 25, 25, 512, 512>::spinOnce()+0x3c>
    2252:	f8d4 3608 	ldr.w	r3, [r4, #1544]	; 0x608
    2256:	4283      	cmp	r3, r0
    2258:	bf3c      	itt	cc
    225a:	2300      	movcc	r3, #0
    225c:	f8c4 35e8 	strcc.w	r3, [r4, #1512]	; 0x5e8
    2260:	f104 0904 	add.w	r9, r4, #4
    2264:	4648      	mov	r0, r9
    2266:	f000 fe5b 	bl	2f20 <AjK::MODSERIAL::rxBufferEmpty()>
    226a:	4606      	mov	r6, r0
    226c:	b178      	cbz	r0, 228e <ros::NodeHandle_<MbedHardware, 25, 25, 512, 512>::spinOnce()+0x6a>
    226e:	f894 05fc 	ldrb.w	r0, [r4, #1532]	; 0x5fc
    2272:	b148      	cbz	r0, 2288 <ros::NodeHandle_<MbedHardware, 25, 25, 512, 512>::spinOnce()+0x64>
    2274:	f640 12c4 	movw	r2, #2500	; 0x9c4
    2278:	f8d4 3600 	ldr.w	r3, [r4, #1536]	; 0x600
    227c:	ebc3 030b 	rsb	r3, r3, r11
    2280:	4293      	cmp	r3, r2
    2282:	f200 81d5 	bhi.w	2630 <ros::NodeHandle_<MbedHardware, 25, 25, 512, 512>::spinOnce()+0x40c>
    2286:	2000      	movs	r0, #0
    2288:	b00b      	add	sp, #44	; 0x2c
    228a:	e8bd 8ff0 	ldmia.w	sp!, {r4, r5, r6, r7, r8, r9, r10, r11, pc}
    228e:	4648      	mov	r0, r9
    2290:	2101      	movs	r1, #1
    2292:	f000 fcc5 	bl	2c20 <AjK::MODSERIAL::__getc(bool)>
    2296:	2800      	cmp	r0, #0
    2298:	dbe9      	blt.n	226e <ros::NodeHandle_<MbedHardware, 25, 25, 512, 512>::spinOnce()+0x4a>
    229a:	f8d4 35f8 	ldr.w	r3, [r4, #1528]	; 0x5f8
    229e:	f8d4 55e8 	ldr.w	r5, [r4, #1512]	; 0x5e8
    22a2:	4403      	add	r3, r0
    22a4:	2d07      	cmp	r5, #7
    22a6:	f8c4 35f8 	str.w	r3, [r4, #1528]	; 0x5f8
    22aa:	f000 8104 	beq.w	24b6 <ros::NodeHandle_<MbedHardware, 25, 25, 512, 512>::spinOnce()+0x292>
    22ae:	b955      	cbnz	r5, 22c6 <ros::NodeHandle_<MbedHardware, 25, 25, 512, 512>::spinOnce()+0xa2>
    22b0:	28ff      	cmp	r0, #255	; 0xff
    22b2:	f040 8114 	bne.w	24de <ros::NodeHandle_<MbedHardware, 25, 25, 512, 512>::spinOnce()+0x2ba>
    22b6:	2201      	movs	r2, #1
    22b8:	f10b 0314 	add.w	r3, r11, #20
    22bc:	f8c4 25e8 	str.w	r2, [r4, #1512]	; 0x5e8
    22c0:	f8c4 3608 	str.w	r3, [r4, #1544]	; 0x608
    22c4:	e7ce      	b.n	2264 <ros::NodeHandle_<MbedHardware, 25, 25, 512, 512>::spinOnce()+0x40>
    22c6:	2d01      	cmp	r5, #1
    22c8:	f000 8118 	beq.w	24fc <ros::NodeHandle_<MbedHardware, 25, 25, 512, 512>::spinOnce()+0x2d8>
    22cc:	2d02      	cmp	r5, #2
    22ce:	f000 816d 	beq.w	25ac <ros::NodeHandle_<MbedHardware, 25, 25, 512, 512>::spinOnce()+0x388>
    22d2:	2d03      	cmp	r5, #3
    22d4:	f000 8174 	beq.w	25c0 <ros::NodeHandle_<MbedHardware, 25, 25, 512, 512>::spinOnce()+0x39c>
    22d8:	2d04      	cmp	r5, #4
    22da:	f000 817b 	beq.w	25d4 <ros::NodeHandle_<MbedHardware, 25, 25, 512, 512>::spinOnce()+0x3b0>
    22de:	2d05      	cmp	r5, #5
    22e0:	f000 8187 	beq.w	25f2 <ros::NodeHandle_<MbedHardware, 25, 25, 512, 512>::spinOnce()+0x3ce>
    22e4:	2d06      	cmp	r5, #6
    22e6:	f000 818c 	beq.w	2602 <ros::NodeHandle_<MbedHardware, 25, 25, 512, 512>::spinOnce()+0x3de>
    22ea:	2d08      	cmp	r5, #8
    22ec:	d1ba      	bne.n	2264 <ros::NodeHandle_<MbedHardware, 25, 25, 512, 512>::spinOnce()+0x40>
    22ee:	4acc      	ldr	r2, [pc, #816]	; (2620 <ros::NodeHandle_<MbedHardware, 25, 25, 512, 512>::spinOnce()+0x3fc>)
    22f0:	2100      	movs	r1, #0
    22f2:	401a      	ands	r2, r3
    22f4:	428a      	cmp	r2, r1
    22f6:	f8c4 15e8 	str.w	r1, [r4, #1512]	; 0x5e8
    22fa:	f2c0 81fd 	blt.w	26f8 <ros::NodeHandle_<MbedHardware, 25, 25, 512, 512>::spinOnce()+0x4d4>
    22fe:	2aff      	cmp	r2, #255	; 0xff
    2300:	d1b0      	bne.n	2264 <ros::NodeHandle_<MbedHardware, 25, 25, 512, 512>::spinOnce()+0x40>
    2302:	f8d4 35f0 	ldr.w	r3, [r4, #1520]	; 0x5f0
    2306:	2b00      	cmp	r3, #0
    2308:	f000 8319 	beq.w	293e <ros::NodeHandle_<MbedHardware, 25, 25, 512, 512>::spinOnce()+0x71a>
    230c:	2b0a      	cmp	r3, #10
    230e:	f000 82ad 	beq.w	286c <ros::NodeHandle_<MbedHardware, 25, 25, 512, 512>::spinOnce()+0x648>
    2312:	2b06      	cmp	r3, #6
    2314:	f000 81fe 	beq.w	2714 <ros::NodeHandle_<MbedHardware, 25, 25, 512, 512>::spinOnce()+0x4f0>
    2318:	2b0b      	cmp	r3, #11
    231a:	f000 81f7 	beq.w	270c <ros::NodeHandle_<MbedHardware, 25, 25, 512, 512>::spinOnce()+0x4e8>
    231e:	eb04 0383 	add.w	r3, r4, r3, lsl #2
    2322:	f8d3 53f4 	ldr.w	r5, [r3, #1012]	; 0x3f4
    2326:	2d00      	cmp	r5, #0
    2328:	d09c      	beq.n	2264 <ros::NodeHandle_<MbedHardware, 25, 25, 512, 512>::spinOnce()+0x40>
    232a:	682b      	ldr	r3, [r5, #0]
    232c:	f504 7290 	add.w	r2, r4, #288	; 0x120
    2330:	9201      	str	r2, [sp, #4]
    2332:	681b      	ldr	r3, [r3, #0]
    2334:	4abb      	ldr	r2, [pc, #748]	; (2624 <ros::NodeHandle_<MbedHardware, 25, 25, 512, 512>::spinOnce()+0x400>)
    2336:	4293      	cmp	r3, r2
    2338:	f040 82f4 	bne.w	2924 <ros::NodeHandle_<MbedHardware, 25, 25, 512, 512>::spinOnce()+0x700>
    233c:	f894 6120 	ldrb.w	r6, [r4, #288]	; 0x120
    2340:	7d2b      	ldrb	r3, [r5, #20]
    2342:	f105 020c 	add.w	r2, r5, #12
    2346:	42b3      	cmp	r3, r6
    2348:	9202      	str	r2, [sp, #8]
    234a:	f0c0 82e5 	bcc.w	2918 <ros::NodeHandle_<MbedHardware, 25, 25, 512, 512>::spinOnce()+0x6f4>
    234e:	752e      	strb	r6, [r5, #20]
    2350:	2e00      	cmp	r6, #0
    2352:	f000 82eb 	beq.w	292c <ros::NodeHandle_<MbedHardware, 25, 25, 512, 512>::spinOnce()+0x708>
    2356:	2304      	movs	r3, #4
    2358:	aa07      	add	r2, sp, #28
    235a:	f8cd 9010 	str.w	r9, [sp, #16]
    235e:	469c      	mov	r12, r3
    2360:	4691      	mov	r9, r2
    2362:	9405      	str	r4, [sp, #20]
    2364:	9c01      	ldr	r4, [sp, #4]
    2366:	2700      	movs	r7, #0
    2368:	f105 0618 	add.w	r6, r5, #24
    236c:	f8cd a00c 	str.w	r10, [sp, #12]
    2370:	eb04 0e0c 	add.w	lr, r4, r12
    2374:	f8de 0000 	ldr.w	r0, [lr]
    2378:	f10e 0803 	add.w	r8, lr, #3
    237c:	f8c9 0000 	str.w	r0, [r9]
    2380:	9807      	ldr	r0, [sp, #28]
    2382:	f100 0a04 	add.w	r10, r0, #4
    2386:	f1ba 0f04 	cmp.w	r10, #4
    238a:	d908      	bls.n	239e <ros::NodeHandle_<MbedHardware, 25, 25, 512, 512>::spinOnce()+0x17a>
    238c:	4643      	mov	r3, r8
    238e:	1cc1      	adds	r1, r0, #3
    2390:	4471      	add	r1, lr
    2392:	f813 2f01 	ldrb.w	r2, [r3, #1]!
    2396:	428b      	cmp	r3, r1
    2398:	f803 2c01 	strb.w	r2, [r3, #-1]
    239c:	d1f9      	bne.n	2392 <ros::NodeHandle_<MbedHardware, 25, 25, 512, 512>::spinOnce()+0x16e>
    239e:	f04f 0300 	mov.w	r3, #0
    23a2:	eb0e 0200 	add.w	r2, lr, r0
    23a6:	70d3      	strb	r3, [r2, #3]
    23a8:	f8c5 801c 	str.w	r8, [r5, #28]
    23ac:	f81e 300a 	ldrb.w	r3, [lr, r10]
    23b0:	300c      	adds	r0, #12
    23b2:	622b      	str	r3, [r5, #32]
    23b4:	f892 8005 	ldrb.w	r8, [r2, #5]
    23b8:	4484      	add	r12, r0
    23ba:	ea43 2308 	orr.w	r3, r3, r8, lsl #8
    23be:	622b      	str	r3, [r5, #32]
    23c0:	f892 8006 	ldrb.w	r8, [r2, #6]
    23c4:	f8d5 e028 	ldr.w	lr, [r5, #40]	; 0x28
    23c8:	ea43 4308 	orr.w	r3, r3, r8, lsl #16
    23cc:	622b      	str	r3, [r5, #32]
    23ce:	f892 8007 	ldrb.w	r8, [r2, #7]
    23d2:	0139      	lsls	r1, r7, #4
    23d4:	ea43 6308 	orr.w	r3, r3, r8, lsl #24
    23d8:	622b      	str	r3, [r5, #32]
    23da:	7a13      	ldrb	r3, [r2, #8]
    23dc:	3701      	adds	r7, #1
    23de:	626b      	str	r3, [r5, #36]	; 0x24
    23e0:	f892 8009 	ldrb.w	r8, [r2, #9]
    23e4:	b2ff      	uxtb	r7, r7
    23e6:	ea43 2008 	orr.w	r0, r3, r8, lsl #8
    23ea:	6268      	str	r0, [r5, #36]	; 0x24
    23ec:	f892 800a 	ldrb.w	r8, [r2, #10]
    23f0:	eb0e 0301 	add.w	r3, lr, r1
    23f4:	ea40 4008 	orr.w	r0, r0, r8, lsl #16
    23f8:	6268      	str	r0, [r5, #36]	; 0x24
    23fa:	7ad2      	ldrb	r2, [r2, #11]
    23fc:	ea40 6002 	orr.w	r0, r0, r2, lsl #24
    2400:	6268      	str	r0, [r5, #36]	; 0x24
    2402:	f8d6 a000 	ldr.w	r10, [r6]
    2406:	f8d6 8004 	ldr.w	r8, [r6, #4]
    240a:	68b0      	ldr	r0, [r6, #8]
    240c:	68f2      	ldr	r2, [r6, #12]
    240e:	f84e a001 	str.w	r10, [lr, r1]
    2412:	f8c3 8004 	str.w	r8, [r3, #4]
    2416:	6098      	str	r0, [r3, #8]
    2418:	60da      	str	r2, [r3, #12]
    241a:	7d2b      	ldrb	r3, [r5, #20]
    241c:	42bb      	cmp	r3, r7
    241e:	d8a7      	bhi.n	2370 <ros::NodeHandle_<MbedHardware, 25, 25, 512, 512>::spinOnce()+0x14c>
    2420:	4663      	mov	r3, r12
    2422:	f8dd a00c 	ldr.w	r10, [sp, #12]
    2426:	1d1a      	adds	r2, r3, #4
    2428:	f8dd 9010 	ldr.w	r9, [sp, #16]
    242c:	9c05      	ldr	r4, [sp, #20]
    242e:	f10c 0e01 	add.w	lr, r12, #1
    2432:	1d16      	adds	r6, r2, #4
    2434:	1c98      	adds	r0, r3, #2
    2436:	f10c 0c03 	add.w	r12, r12, #3
    243a:	9901      	ldr	r1, [sp, #4]
    243c:	f895 7030 	ldrb.w	r7, [r5, #48]	; 0x30
    2440:	5ccb      	ldrb	r3, [r1, r3]
    2442:	62eb      	str	r3, [r5, #44]	; 0x2c
    2444:	f811 e00e 	ldrb.w	lr, [r1, lr]
    2448:	ea43 230e 	orr.w	r3, r3, lr, lsl #8
    244c:	62eb      	str	r3, [r5, #44]	; 0x2c
    244e:	5c08      	ldrb	r0, [r1, r0]
    2450:	ea43 4300 	orr.w	r3, r3, r0, lsl #16
    2454:	4608      	mov	r0, r1
    2456:	62eb      	str	r3, [r5, #44]	; 0x2c
    2458:	f811 100c 	ldrb.w	r1, [r1, r12]
    245c:	ea43 6301 	orr.w	r3, r3, r1, lsl #24
    2460:	62eb      	str	r3, [r5, #44]	; 0x2c
    2462:	f810 8002 	ldrb.w	r8, [r0, r2]
    2466:	4547      	cmp	r7, r8
    2468:	f0c0 824f 	bcc.w	290a <ros::NodeHandle_<MbedHardware, 25, 25, 512, 512>::spinOnce()+0x6e6>
    246c:	f885 8030 	strb.w	r8, [r5, #48]	; 0x30
    2470:	f1b8 0f00 	cmp.w	r8, #0
    2474:	d01b      	beq.n	24ae <ros::NodeHandle_<MbedHardware, 25, 25, 512, 512>::spinOnce()+0x28a>
    2476:	9b01      	ldr	r3, [sp, #4]
    2478:	2000      	movs	r0, #0
    247a:	4433      	add	r3, r6
    247c:	4619      	mov	r1, r3
    247e:	f105 0634 	add.w	r6, r5, #52	; 0x34
    2482:	788b      	ldrb	r3, [r1, #2]
    2484:	784f      	ldrb	r7, [r1, #1]
    2486:	780a      	ldrb	r2, [r1, #0]
    2488:	041b      	lsls	r3, r3, #16
    248a:	ea43 2307 	orr.w	r3, r3, r7, lsl #8
    248e:	78cf      	ldrb	r7, [r1, #3]
    2490:	4313      	orrs	r3, r2
    2492:	ea43 6307 	orr.w	r3, r3, r7, lsl #24
    2496:	636b      	str	r3, [r5, #52]	; 0x34
    2498:	6832      	ldr	r2, [r6, #0]
    249a:	6bab      	ldr	r3, [r5, #56]	; 0x38
    249c:	3104      	adds	r1, #4
    249e:	f843 2020 	str.w	r2, [r3, r0, lsl #2]
    24a2:	f895 3030 	ldrb.w	r3, [r5, #48]	; 0x30
    24a6:	3001      	adds	r0, #1
    24a8:	b2c0      	uxtb	r0, r0
    24aa:	4283      	cmp	r3, r0
    24ac:	d8e9      	bhi.n	2482 <ros::NodeHandle_<MbedHardware, 25, 25, 512, 512>::spinOnce()+0x25e>
    24ae:	6beb      	ldr	r3, [r5, #60]	; 0x3c
    24b0:	9802      	ldr	r0, [sp, #8]
    24b2:	4798      	blx	r3
    24b4:	e6d6      	b.n	2264 <ros::NodeHandle_<MbedHardware, 25, 25, 512, 512>::spinOnce()+0x40>
    24b6:	f8d4 25f4 	ldr.w	r2, [r4, #1524]	; 0x5f4
    24ba:	f8d4 35ec 	ldr.w	r3, [r4, #1516]	; 0x5ec
    24be:	1c51      	adds	r1, r2, #1
    24c0:	3b01      	subs	r3, #1
    24c2:	4422      	add	r2, r4
    24c4:	f8c4 15f4 	str.w	r1, [r4, #1524]	; 0x5f4
    24c8:	f882 0120 	strb.w	r0, [r2, #288]	; 0x120
    24cc:	f8c4 35ec 	str.w	r3, [r4, #1516]	; 0x5ec
    24d0:	2b00      	cmp	r3, #0
    24d2:	f47f aec7 	bne.w	2264 <ros::NodeHandle_<MbedHardware, 25, 25, 512, 512>::spinOnce()+0x40>
    24d6:	2308      	movs	r3, #8
    24d8:	f8c4 35e8 	str.w	r3, [r4, #1512]	; 0x5e8
    24dc:	e6c2      	b.n	2264 <ros::NodeHandle_<MbedHardware, 25, 25, 512, 512>::spinOnce()+0x40>
    24de:	4650      	mov	r0, r10
    24e0:	f002 fac4 	bl	4a6c <mbed::Timer::read_ms()>
    24e4:	ebcb 0000 	rsb	r0, r11, r0
    24e8:	2805      	cmp	r0, #5
    24ea:	f67f aebb 	bls.w	2264 <ros::NodeHandle_<MbedHardware, 25, 25, 512, 512>::spinOnce()+0x40>
    24ee:	f06f 0001 	mvn.w	r0, #1
    24f2:	f884 55fc 	strb.w	r5, [r4, #1532]	; 0x5fc
    24f6:	b00b      	add	sp, #44	; 0x2c
    24f8:	e8bd 8ff0 	ldmia.w	sp!, {r4, r5, r6, r7, r8, r9, r10, r11, pc}
    24fc:	28fe      	cmp	r0, #254	; 0xfe
    24fe:	d074      	beq.n	25ea <ros::NodeHandle_<MbedHardware, 25, 25, 512, 512>::spinOnce()+0x3c6>
    2500:	f894 35fc 	ldrb.w	r3, [r4, #1532]	; 0x5fc
    2504:	f8c4 65e8 	str.w	r6, [r4, #1512]	; 0x5e8
    2508:	2b00      	cmp	r3, #0
    250a:	f47f aeab 	bne.w	2264 <ros::NodeHandle_<MbedHardware, 25, 25, 512, 512>::spinOnce()+0x40>
    250e:	4946      	ldr	r1, [pc, #280]	; (2628 <ros::NodeHandle_<MbedHardware, 25, 25, 512, 512>::spinOnce()+0x404>)
    2510:	6822      	ldr	r2, [r4, #0]
    2512:	9107      	str	r1, [sp, #28]
    2514:	6815      	ldr	r5, [r2, #0]
    2516:	4a45      	ldr	r2, [pc, #276]	; (262c <ros::NodeHandle_<MbedHardware, 25, 25, 512, 512>::spinOnce()+0x408>)
    2518:	9308      	str	r3, [sp, #32]
    251a:	4295      	cmp	r5, r2
    251c:	9309      	str	r3, [sp, #36]	; 0x24
    251e:	f040 80e1 	bne.w	26e4 <ros::NodeHandle_<MbedHardware, 25, 25, 512, 512>::spinOnce()+0x4c0>
    2522:	200a      	movs	r0, #10
    2524:	461a      	mov	r2, r3
    2526:	27ff      	movs	r7, #255	; 0xff
    2528:	26fe      	movs	r6, #254	; 0xfe
    252a:	2508      	movs	r5, #8
    252c:	f884 3327 	strb.w	r3, [r4, #807]	; 0x327
    2530:	f884 3328 	strb.w	r3, [r4, #808]	; 0x328
    2534:	f884 3329 	strb.w	r3, [r4, #809]	; 0x329
    2538:	f884 332a 	strb.w	r3, [r4, #810]	; 0x32a
    253c:	f884 332b 	strb.w	r3, [r4, #811]	; 0x32b
    2540:	f884 332c 	strb.w	r3, [r4, #812]	; 0x32c
    2544:	f884 332d 	strb.w	r3, [r4, #813]	; 0x32d
    2548:	f884 332e 	strb.w	r3, [r4, #814]	; 0x32e
    254c:	f884 3323 	strb.w	r3, [r4, #803]	; 0x323
    2550:	f884 3326 	strb.w	r3, [r4, #806]	; 0x326
    2554:	23f7      	movs	r3, #247	; 0xf7
    2556:	4601      	mov	r1, r0
    2558:	f884 0325 	strb.w	r0, [r4, #805]	; 0x325
    255c:	f884 3324 	strb.w	r3, [r4, #804]	; 0x324
    2560:	f884 7320 	strb.w	r7, [r4, #800]	; 0x320
    2564:	f884 6321 	strb.w	r6, [r4, #801]	; 0x321
    2568:	f884 5322 	strb.w	r5, [r4, #802]	; 0x322
    256c:	f204 3325 	addw	r3, r4, #805	; 0x325
    2570:	f204 302e 	addw	r0, r4, #814	; 0x32e
    2574:	e001      	b.n	257a <ros::NodeHandle_<MbedHardware, 25, 25, 512, 512>::spinOnce()+0x356>
    2576:	f813 1f01 	ldrb.w	r1, [r3, #1]!
    257a:	4283      	cmp	r3, r0
    257c:	440a      	add	r2, r1
    257e:	d1fa      	bne.n	2576 <ros::NodeHandle_<MbedHardware, 25, 25, 512, 512>::spinOnce()+0x352>
    2580:	43d2      	mvns	r2, r2
    2582:	f104 0744 	add.w	r7, r4, #68	; 0x44
    2586:	f884 232f 	strb.w	r2, [r4, #815]	; 0x32f
    258a:	f204 351f 	addw	r5, r4, #799	; 0x31f
    258e:	f204 362f 	addw	r6, r4, #815	; 0x32f
    2592:	f815 1f01 	ldrb.w	r1, [r5, #1]!
    2596:	4638      	mov	r0, r7
    2598:	f002 f9e4 	bl	4964 <mbed::Stream::putc(int)>
    259c:	42b5      	cmp	r5, r6
    259e:	d1f8      	bne.n	2592 <ros::NodeHandle_<MbedHardware, 25, 25, 512, 512>::spinOnce()+0x36e>
    25a0:	4650      	mov	r0, r10
    25a2:	f002 fa63 	bl	4a6c <mbed::Timer::read_ms()>
    25a6:	f8c4 0114 	str.w	r0, [r4, #276]	; 0x114
    25aa:	e65b      	b.n	2264 <ros::NodeHandle_<MbedHardware, 25, 25, 512, 512>::spinOnce()+0x40>
    25ac:	2303      	movs	r3, #3
    25ae:	f8c4 05ec 	str.w	r0, [r4, #1516]	; 0x5ec
    25b2:	f8c4 65f4 	str.w	r6, [r4, #1524]	; 0x5f4
    25b6:	f8c4 05f8 	str.w	r0, [r4, #1528]	; 0x5f8
    25ba:	f8c4 35e8 	str.w	r3, [r4, #1512]	; 0x5e8
    25be:	e651      	b.n	2264 <ros::NodeHandle_<MbedHardware, 25, 25, 512, 512>::spinOnce()+0x40>
    25c0:	f8d4 35ec 	ldr.w	r3, [r4, #1516]	; 0x5ec
    25c4:	2204      	movs	r2, #4
    25c6:	eb03 2000 	add.w	r0, r3, r0, lsl #8
    25ca:	f8c4 05ec 	str.w	r0, [r4, #1516]	; 0x5ec
    25ce:	f8c4 25e8 	str.w	r2, [r4, #1512]	; 0x5e8
    25d2:	e647      	b.n	2264 <ros::NodeHandle_<MbedHardware, 25, 25, 512, 512>::spinOnce()+0x40>
    25d4:	4a12      	ldr	r2, [pc, #72]	; (2620 <ros::NodeHandle_<MbedHardware, 25, 25, 512, 512>::spinOnce()+0x3fc>)
    25d6:	401a      	ands	r2, r3
    25d8:	2a00      	cmp	r2, #0
    25da:	db7e      	blt.n	26da <ros::NodeHandle_<MbedHardware, 25, 25, 512, 512>::spinOnce()+0x4b6>
    25dc:	2aff      	cmp	r2, #255	; 0xff
    25de:	bf0c      	ite	eq
    25e0:	2305      	moveq	r3, #5
    25e2:	2300      	movne	r3, #0
    25e4:	f8c4 35e8 	str.w	r3, [r4, #1512]	; 0x5e8
    25e8:	e63c      	b.n	2264 <ros::NodeHandle_<MbedHardware, 25, 25, 512, 512>::spinOnce()+0x40>
    25ea:	2302      	movs	r3, #2
    25ec:	f8c4 35e8 	str.w	r3, [r4, #1512]	; 0x5e8
    25f0:	e638      	b.n	2264 <ros::NodeHandle_<MbedHardware, 25, 25, 512, 512>::spinOnce()+0x40>
    25f2:	2306      	movs	r3, #6
    25f4:	f8c4 05f0 	str.w	r0, [r4, #1520]	; 0x5f0
    25f8:	f8c4 05f8 	str.w	r0, [r4, #1528]	; 0x5f8
    25fc:	f8c4 35e8 	str.w	r3, [r4, #1512]	; 0x5e8
    2600:	e630      	b.n	2264 <ros::NodeHandle_<MbedHardware, 25, 25, 512, 512>::spinOnce()+0x40>
    2602:	f8d4 35f0 	ldr.w	r3, [r4, #1520]	; 0x5f0
    2606:	f8d4 25ec 	ldr.w	r2, [r4, #1516]	; 0x5ec
    260a:	eb03 2300 	add.w	r3, r3, r0, lsl #8
    260e:	2107      	movs	r1, #7
    2610:	f8c4 35f0 	str.w	r3, [r4, #1520]	; 0x5f0
    2614:	f8c4 15e8 	str.w	r1, [r4, #1512]	; 0x5e8
    2618:	2a00      	cmp	r2, #0
    261a:	f43f af5c 	beq.w	24d6 <ros::NodeHandle_<MbedHardware, 25, 25, 512, 512>::spinOnce()+0x2b2>
    261e:	e621      	b.n	2264 <ros::NodeHandle_<MbedHardware, 25, 25, 512, 512>::spinOnce()+0x40>
    2620:	800000ff 	.word	0x800000ff
    2624:	00000b39 	.word	0x00000b39
    2628:	00007498 	.word	0x00007498
    262c:	00000e51 	.word	0x00000e51
    2630:	4ad1      	ldr	r2, [pc, #836]	; (2978 <ros::NodeHandle_<MbedHardware, 25, 25, 512, 512>::spinOnce()+0x754>)
    2632:	6823      	ldr	r3, [r4, #0]
    2634:	9207      	str	r2, [sp, #28]
    2636:	681d      	ldr	r5, [r3, #0]
    2638:	4ad0      	ldr	r2, [pc, #832]	; (297c <ros::NodeHandle_<MbedHardware, 25, 25, 512, 512>::spinOnce()+0x758>)
    263a:	2300      	movs	r3, #0
    263c:	4295      	cmp	r5, r2
    263e:	9308      	str	r3, [sp, #32]
    2640:	9309      	str	r3, [sp, #36]	; 0x24
    2642:	d15e      	bne.n	2702 <ros::NodeHandle_<MbedHardware, 25, 25, 512, 512>::spinOnce()+0x4de>
    2644:	200a      	movs	r0, #10
    2646:	f04f 0eff 	mov.w	lr, #255	; 0xff
    264a:	27fe      	movs	r7, #254	; 0xfe
    264c:	2608      	movs	r6, #8
    264e:	25f7      	movs	r5, #247	; 0xf7
    2650:	461a      	mov	r2, r3
    2652:	4601      	mov	r1, r0
    2654:	f884 3327 	strb.w	r3, [r4, #807]	; 0x327
    2658:	f884 3328 	strb.w	r3, [r4, #808]	; 0x328
    265c:	f884 3329 	strb.w	r3, [r4, #809]	; 0x329
    2660:	f884 332a 	strb.w	r3, [r4, #810]	; 0x32a
    2664:	f884 332b 	strb.w	r3, [r4, #811]	; 0x32b
    2668:	f884 332c 	strb.w	r3, [r4, #812]	; 0x32c
    266c:	f884 332d 	strb.w	r3, [r4, #813]	; 0x32d
    2670:	f884 332e 	strb.w	r3, [r4, #814]	; 0x32e
    2674:	f884 3323 	strb.w	r3, [r4, #803]	; 0x323
    2678:	f884 3326 	strb.w	r3, [r4, #806]	; 0x326
    267c:	f884 0325 	strb.w	r0, [r4, #805]	; 0x325
    2680:	f884 e320 	strb.w	lr, [r4, #800]	; 0x320
    2684:	f884 7321 	strb.w	r7, [r4, #801]	; 0x321
    2688:	f884 6322 	strb.w	r6, [r4, #802]	; 0x322
    268c:	f884 5324 	strb.w	r5, [r4, #804]	; 0x324
    2690:	f204 3325 	addw	r3, r4, #805	; 0x325
    2694:	f204 302e 	addw	r0, r4, #814	; 0x32e
    2698:	e001      	b.n	269e <ros::NodeHandle_<MbedHardware, 25, 25, 512, 512>::spinOnce()+0x47a>
    269a:	f813 1f01 	ldrb.w	r1, [r3, #1]!
    269e:	4283      	cmp	r3, r0
    26a0:	440a      	add	r2, r1
    26a2:	d1fa      	bne.n	269a <ros::NodeHandle_<MbedHardware, 25, 25, 512, 512>::spinOnce()+0x476>
    26a4:	43d2      	mvns	r2, r2
    26a6:	f104 0744 	add.w	r7, r4, #68	; 0x44
    26aa:	f884 232f 	strb.w	r2, [r4, #815]	; 0x32f
    26ae:	f204 351f 	addw	r5, r4, #799	; 0x31f
    26b2:	f204 362f 	addw	r6, r4, #815	; 0x32f
    26b6:	f815 1f01 	ldrb.w	r1, [r5, #1]!
    26ba:	4638      	mov	r0, r7
    26bc:	f002 f952 	bl	4964 <mbed::Stream::putc(int)>
    26c0:	42b5      	cmp	r5, r6
    26c2:	d1f8      	bne.n	26b6 <ros::NodeHandle_<MbedHardware, 25, 25, 512, 512>::spinOnce()+0x492>
    26c4:	4650      	mov	r0, r10
    26c6:	f002 f9d1 	bl	4a6c <mbed::Timer::read_ms()>
    26ca:	f8c4 0114 	str.w	r0, [r4, #276]	; 0x114
    26ce:	2000      	movs	r0, #0
    26d0:	f8c4 b600 	str.w	r11, [r4, #1536]	; 0x600
    26d4:	b00b      	add	sp, #44	; 0x2c
    26d6:	e8bd 8ff0 	ldmia.w	sp!, {r4, r5, r6, r7, r8, r9, r10, r11, pc}
    26da:	3a01      	subs	r2, #1
    26dc:	f062 02ff 	orn	r2, r2, #255	; 0xff
    26e0:	3201      	adds	r2, #1
    26e2:	e77b      	b.n	25dc <ros::NodeHandle_<MbedHardware, 25, 25, 512, 512>::spinOnce()+0x3b8>
    26e4:	210a      	movs	r1, #10
    26e6:	aa07      	add	r2, sp, #28
    26e8:	4620      	mov	r0, r4
    26ea:	47a8      	blx	r5
    26ec:	4650      	mov	r0, r10
    26ee:	f002 f9bd 	bl	4a6c <mbed::Timer::read_ms()>
    26f2:	f8c4 0114 	str.w	r0, [r4, #276]	; 0x114
    26f6:	e5b5      	b.n	2264 <ros::NodeHandle_<MbedHardware, 25, 25, 512, 512>::spinOnce()+0x40>
    26f8:	3a01      	subs	r2, #1
    26fa:	f062 02ff 	orn	r2, r2, #255	; 0xff
    26fe:	3201      	adds	r2, #1
    2700:	e5fd      	b.n	22fe <ros::NodeHandle_<MbedHardware, 25, 25, 512, 512>::spinOnce()+0xda>
    2702:	4620      	mov	r0, r4
    2704:	210a      	movs	r1, #10
    2706:	aa07      	add	r2, sp, #28
    2708:	47a8      	blx	r5
    270a:	e7db      	b.n	26c4 <ros::NodeHandle_<MbedHardware, 25, 25, 512, 512>::spinOnce()+0x4a0>
    270c:	2300      	movs	r3, #0
    270e:	f884 35fc 	strb.w	r3, [r4, #1532]	; 0x5fc
    2712:	e5a7      	b.n	2264 <ros::NodeHandle_<MbedHardware, 25, 25, 512, 512>::spinOnce()+0x40>
    2714:	f894 5120 	ldrb.w	r5, [r4, #288]	; 0x120
    2718:	f894 3614 	ldrb.w	r3, [r4, #1556]	; 0x614
    271c:	f504 7690 	add.w	r6, r4, #288	; 0x120
    2720:	42ab      	cmp	r3, r5
    2722:	d206      	bcs.n	2732 <ros::NodeHandle_<MbedHardware, 25, 25, 512, 512>::spinOnce()+0x50e>
    2724:	f8d4 061c 	ldr.w	r0, [r4, #1564]	; 0x61c
    2728:	00a9      	lsls	r1, r5, #2
    272a:	f000 fa4f 	bl	2bcc <__wrap_realloc>
    272e:	f8c4 061c 	str.w	r0, [r4, #1564]	; 0x61c
    2732:	f884 5614 	strb.w	r5, [r4, #1556]	; 0x614
    2736:	2d00      	cmp	r5, #0
    2738:	f000 811a 	beq.w	2970 <ros::NodeHandle_<MbedHardware, 25, 25, 512, 512>::spinOnce()+0x74c>
    273c:	4630      	mov	r0, r6
    273e:	f504 67c3 	add.w	r7, r4, #1560	; 0x618
    2742:	2100      	movs	r1, #0
    2744:	2504      	movs	r5, #4
    2746:	7983      	ldrb	r3, [r0, #6]
    2748:	f890 e005 	ldrb.w	lr, [r0, #5]
    274c:	7902      	ldrb	r2, [r0, #4]
    274e:	041b      	lsls	r3, r3, #16
    2750:	ea43 230e 	orr.w	r3, r3, lr, lsl #8
    2754:	f890 e007 	ldrb.w	lr, [r0, #7]
    2758:	4313      	orrs	r3, r2
    275a:	ea43 630e 	orr.w	r3, r3, lr, lsl #24
    275e:	f8c4 3618 	str.w	r3, [r4, #1560]	; 0x618
    2762:	683a      	ldr	r2, [r7, #0]
    2764:	f8d4 361c 	ldr.w	r3, [r4, #1564]	; 0x61c
    2768:	3504      	adds	r5, #4
    276a:	f843 2021 	str.w	r2, [r3, r1, lsl #2]
    276e:	f894 3614 	ldrb.w	r3, [r4, #1556]	; 0x614
    2772:	3101      	adds	r1, #1
    2774:	b2c9      	uxtb	r1, r1
    2776:	428b      	cmp	r3, r1
    2778:	f100 0004 	add.w	r0, r0, #4
    277c:	d8e3      	bhi.n	2746 <ros::NodeHandle_<MbedHardware, 25, 25, 512, 512>::spinOnce()+0x522>
    277e:	1d2f      	adds	r7, r5, #4
    2780:	46b8      	mov	r8, r7
    2782:	5d75      	ldrb	r5, [r6, r5]
    2784:	f894 3620 	ldrb.w	r3, [r4, #1568]	; 0x620
    2788:	42ab      	cmp	r3, r5
    278a:	d206      	bcs.n	279a <ros::NodeHandle_<MbedHardware, 25, 25, 512, 512>::spinOnce()+0x576>
    278c:	f8d4 0628 	ldr.w	r0, [r4, #1576]	; 0x628
    2790:	00a9      	lsls	r1, r5, #2
    2792:	f000 fa1b 	bl	2bcc <__wrap_realloc>
    2796:	f8c4 0628 	str.w	r0, [r4, #1576]	; 0x628
    279a:	f884 5620 	strb.w	r5, [r4, #1568]	; 0x620
    279e:	b32d      	cbz	r5, 27ec <ros::NodeHandle_<MbedHardware, 25, 25, 512, 512>::spinOnce()+0x5c8>
    27a0:	eb06 0108 	add.w	r1, r6, r8
    27a4:	f204 6724 	addw	r7, r4, #1572	; 0x624
    27a8:	2000      	movs	r0, #0
    27aa:	f1c6 0504 	rsb	r5, r6, #4
    27ae:	788b      	ldrb	r3, [r1, #2]
    27b0:	f891 e001 	ldrb.w	lr, [r1, #1]
    27b4:	780a      	ldrb	r2, [r1, #0]
    27b6:	041b      	lsls	r3, r3, #16
    27b8:	ea43 230e 	orr.w	r3, r3, lr, lsl #8
    27bc:	f891 e003 	ldrb.w	lr, [r1, #3]
    27c0:	4313      	orrs	r3, r2
    27c2:	ea43 630e 	orr.w	r3, r3, lr, lsl #24
    27c6:	f8c4 3624 	str.w	r3, [r4, #1572]	; 0x624
    27ca:	f8d7 e000 	ldr.w	lr, [r7]
    27ce:	f8d4 3628 	ldr.w	r3, [r4, #1576]	; 0x628
    27d2:	1c42      	adds	r2, r0, #1
    27d4:	f843 e020 	str.w	lr, [r3, r0, lsl #2]
    27d8:	f894 3620 	ldrb.w	r3, [r4, #1568]	; 0x620
    27dc:	b2d0      	uxtb	r0, r2
    27de:	4283      	cmp	r3, r0
    27e0:	eb05 0801 	add.w	r8, r5, r1
    27e4:	f101 0104 	add.w	r1, r1, #4
    27e8:	d8e1      	bhi.n	27ae <ros::NodeHandle_<MbedHardware, 25, 25, 512, 512>::spinOnce()+0x58a>
    27ea:	4647      	mov	r7, r8
    27ec:	5df5      	ldrb	r5, [r6, r7]
    27ee:	f894 362c 	ldrb.w	r3, [r4, #1580]	; 0x62c
    27f2:	42ab      	cmp	r3, r5
    27f4:	d206      	bcs.n	2804 <ros::NodeHandle_<MbedHardware, 25, 25, 512, 512>::spinOnce()+0x5e0>
    27f6:	f8d4 0634 	ldr.w	r0, [r4, #1588]	; 0x634
    27fa:	00a9      	lsls	r1, r5, #2
    27fc:	f000 f9e6 	bl	2bcc <__wrap_realloc>
    2800:	f8c4 0634 	str.w	r0, [r4, #1588]	; 0x634
    2804:	f108 0304 	add.w	r3, r8, #4
    2808:	f884 562c 	strb.w	r5, [r4, #1580]	; 0x62c
    280c:	b355      	cbz	r5, 2864 <ros::NodeHandle_<MbedHardware, 25, 25, 512, 512>::spinOnce()+0x640>
    280e:	2500      	movs	r5, #0
    2810:	aa07      	add	r2, sp, #28
    2812:	46ae      	mov	lr, r5
    2814:	4694      	mov	r12, r2
    2816:	f504 67c6 	add.w	r7, r4, #1584	; 0x630
    281a:	58f0      	ldr	r0, [r6, r3]
    281c:	1d19      	adds	r1, r3, #4
    281e:	f8cc 0000 	str.w	r0, [r12]
    2822:	9a07      	ldr	r2, [sp, #28]
    2824:	440a      	add	r2, r1
    2826:	428a      	cmp	r2, r1
    2828:	d909      	bls.n	283e <ros::NodeHandle_<MbedHardware, 25, 25, 512, 512>::spinOnce()+0x61a>
    282a:	4608      	mov	r0, r1
    282c:	3303      	adds	r3, #3
    282e:	4433      	add	r3, r6
    2830:	f813 8f01 	ldrb.w	r8, [r3, #1]!
    2834:	3001      	adds	r0, #1
    2836:	4282      	cmp	r2, r0
    2838:	f803 8c01 	strb.w	r8, [r3, #-1]
    283c:	d8f8      	bhi.n	2830 <ros::NodeHandle_<MbedHardware, 25, 25, 512, 512>::spinOnce()+0x60c>
    283e:	1e4b      	subs	r3, r1, #1
    2840:	4433      	add	r3, r6
    2842:	18b1      	adds	r1, r6, r2
    2844:	f801 ec01 	strb.w	lr, [r1, #-1]
    2848:	f8c4 3630 	str.w	r3, [r4, #1584]	; 0x630
    284c:	6838      	ldr	r0, [r7, #0]
    284e:	f8d4 1634 	ldr.w	r1, [r4, #1588]	; 0x634
    2852:	4613      	mov	r3, r2
    2854:	f841 0025 	str.w	r0, [r1, r5, lsl #2]
    2858:	f894 262c 	ldrb.w	r2, [r4, #1580]	; 0x62c
    285c:	3501      	adds	r5, #1
    285e:	b2ed      	uxtb	r5, r5
    2860:	42aa      	cmp	r2, r5
    2862:	d8da      	bhi.n	281a <ros::NodeHandle_<MbedHardware, 25, 25, 512, 512>::spinOnce()+0x5f6>
    2864:	2301      	movs	r3, #1
    2866:	f884 360c 	strb.w	r3, [r4, #1548]	; 0x60c
    286a:	e4fb      	b.n	2264 <ros::NodeHandle_<MbedHardware, 25, 25, 512, 512>::spinOnce()+0x40>
    286c:	4650      	mov	r0, r10
    286e:	f002 f8fd 	bl	4a6c <mbed::Timer::read_ms()>
    2872:	f894 6122 	ldrb.w	r6, [r4, #290]	; 0x122
    2876:	f894 3126 	ldrb.w	r3, [r4, #294]	; 0x126
    287a:	f894 7121 	ldrb.w	r7, [r4, #289]	; 0x121
    287e:	f894 e125 	ldrb.w	lr, [r4, #293]	; 0x125
    2882:	0436      	lsls	r6, r6, #16
    2884:	f894 1120 	ldrb.w	r1, [r4, #288]	; 0x120
    2888:	ea46 2707 	orr.w	r7, r6, r7, lsl #8
    288c:	041a      	lsls	r2, r3, #16
    288e:	f894 6123 	ldrb.w	r6, [r4, #291]	; 0x123
    2892:	f894 3124 	ldrb.w	r3, [r4, #292]	; 0x124
    2896:	f8d4 5114 	ldr.w	r5, [r4, #276]	; 0x114
    289a:	ea42 220e 	orr.w	r2, r2, lr, lsl #8
    289e:	4339      	orrs	r1, r7
    28a0:	f894 7127 	ldrb.w	r7, [r4, #295]	; 0x127
    28a4:	431a      	orrs	r2, r3
    28a6:	1b45      	subs	r5, r0, r5
    28a8:	ea41 6306 	orr.w	r3, r1, r6, lsl #24
    28ac:	4650      	mov	r0, r10
    28ae:	ea42 6707 	orr.w	r7, r2, r7, lsl #24
    28b2:	1e5e      	subs	r6, r3, #1
    28b4:	f002 f8da 	bl	4a6c <mbed::Timer::read_ms()>
    28b8:	4b31      	ldr	r3, [pc, #196]	; (2980 <ros::NodeHandle_<MbedHardware, 25, 25, 512, 512>::spinOnce()+0x75c>)
    28ba:	4931      	ldr	r1, [pc, #196]	; (2980 <ros::NodeHandle_<MbedHardware, 25, 25, 512, 512>::spinOnce()+0x75c>)
    28bc:	fba3 2305 	umull	r2, r3, r3, r5
    28c0:	f8df 80c4 	ldr.w	r8, [pc, #196]	; 2988 <ros::NodeHandle_<MbedHardware, 25, 25, 512, 512>::spinOnce()+0x764>
    28c4:	f44f 727a 	mov.w	r2, #1000	; 0x3e8
    28c8:	44b8      	add	r8, r7
    28ca:	099b      	lsrs	r3, r3, #6
    28cc:	fba1 1700 	umull	r1, r7, r1, r0
    28d0:	fb02 5513 	mls	r5, r2, r3, r5
    28d4:	492b      	ldr	r1, [pc, #172]	; (2984 <ros::NodeHandle_<MbedHardware, 25, 25, 512, 512>::spinOnce()+0x760>)
    28d6:	09bf      	lsrs	r7, r7, #6
    28d8:	fb01 8105 	mla	r1, r1, r5, r8
    28dc:	fb02 0217 	mls	r2, r2, r7, r0
    28e0:	4828      	ldr	r0, [pc, #160]	; (2984 <ros::NodeHandle_<MbedHardware, 25, 25, 512, 512>::spinOnce()+0x760>)
    28e2:	4433      	add	r3, r6
    28e4:	fb00 1212 	mls	r2, r0, r2, r1
    28e8:	1bdb      	subs	r3, r3, r7
    28ea:	f8c4 211c 	str.w	r2, [r4, #284]	; 0x11c
    28ee:	f8c4 3118 	str.w	r3, [r4, #280]	; 0x118
    28f2:	f504 708c 	add.w	r0, r4, #280	; 0x118
    28f6:	f504 718e 	add.w	r1, r4, #284	; 0x11c
    28fa:	f000 f97b 	bl	2bf4 <ros::normalizeSecNSec(unsigned long&, unsigned long&)>
    28fe:	4650      	mov	r0, r10
    2900:	f002 f8b4 	bl	4a6c <mbed::Timer::read_ms()>
    2904:	f8c4 0604 	str.w	r0, [r4, #1540]	; 0x604
    2908:	e4ac      	b.n	2264 <ros::NodeHandle_<MbedHardware, 25, 25, 512, 512>::spinOnce()+0x40>
    290a:	6ba8      	ldr	r0, [r5, #56]	; 0x38
    290c:	ea4f 0188 	mov.w	r1, r8, lsl #2
    2910:	f000 f95c 	bl	2bcc <__wrap_realloc>
    2914:	63a8      	str	r0, [r5, #56]	; 0x38
    2916:	e5a9      	b.n	246c <ros::NodeHandle_<MbedHardware, 25, 25, 512, 512>::spinOnce()+0x248>
    2918:	6aa8      	ldr	r0, [r5, #40]	; 0x28
    291a:	0131      	lsls	r1, r6, #4
    291c:	f000 f956 	bl	2bcc <__wrap_realloc>
    2920:	62a8      	str	r0, [r5, #40]	; 0x28
    2922:	e514      	b.n	234e <ros::NodeHandle_<MbedHardware, 25, 25, 512, 512>::spinOnce()+0x12a>
    2924:	4628      	mov	r0, r5
    2926:	9901      	ldr	r1, [sp, #4]
    2928:	4798      	blx	r3
    292a:	e49b      	b.n	2264 <ros::NodeHandle_<MbedHardware, 25, 25, 512, 512>::spinOnce()+0x40>
    292c:	2208      	movs	r2, #8
    292e:	f04f 0c07 	mov.w	r12, #7
    2932:	2006      	movs	r0, #6
    2934:	f04f 0e05 	mov.w	lr, #5
    2938:	2304      	movs	r3, #4
    293a:	260c      	movs	r6, #12
    293c:	e57d      	b.n	243a <ros::NodeHandle_<MbedHardware, 25, 25, 512, 512>::spinOnce()+0x216>
    293e:	490e      	ldr	r1, [pc, #56]	; (2978 <ros::NodeHandle_<MbedHardware, 25, 25, 512, 512>::spinOnce()+0x754>)
    2940:	6822      	ldr	r2, [r4, #0]
    2942:	9107      	str	r1, [sp, #28]
    2944:	9308      	str	r3, [sp, #32]
    2946:	210a      	movs	r1, #10
    2948:	9309      	str	r3, [sp, #36]	; 0x24
    294a:	4620      	mov	r0, r4
    294c:	6813      	ldr	r3, [r2, #0]
    294e:	aa07      	add	r2, sp, #28
    2950:	4798      	blx	r3
    2952:	4650      	mov	r0, r10
    2954:	f002 f88a 	bl	4a6c <mbed::Timer::read_ms()>
    2958:	f8c4 0114 	str.w	r0, [r4, #276]	; 0x114
    295c:	4620      	mov	r0, r4
    295e:	f7ff f9a9 	bl	1cb4 <ros::NodeHandle_<MbedHardware, 25, 25, 512, 512>::negotiateTopics()>
    2962:	f8c4 b600 	str.w	r11, [r4, #1536]	; 0x600
    2966:	f8c4 b604 	str.w	r11, [r4, #1540]	; 0x604
    296a:	f04f 30ff 	mov.w	r0, #4294967295
    296e:	e48b      	b.n	2288 <ros::NodeHandle_<MbedHardware, 25, 25, 512, 512>::spinOnce()+0x64>
    2970:	2708      	movs	r7, #8
    2972:	46b8      	mov	r8, r7
    2974:	2504      	movs	r5, #4
    2976:	e704      	b.n	2782 <ros::NodeHandle_<MbedHardware, 25, 25, 512, 512>::spinOnce()+0x55e>
    2978:	00007498 	.word	0x00007498
    297c:	00000e51 	.word	0x00000e51
    2980:	10624dd3 	.word	0x10624dd3
    2984:	000f4240 	.word	0x000f4240
    2988:	3b9aca00 	.word	0x3b9aca00

0000298c <_GLOBAL__sub_I_motors>:
    298c:	b5f0      	push	{r4, r5, r6, r7, lr}
    298e:	2401      	movs	r4, #1
    2990:	b083      	sub	sp, #12
    2992:	2500      	movs	r5, #0
    2994:	9400      	str	r4, [sp, #0]
    2996:	4947      	ldr	r1, [pc, #284]	; (2ab4 <_GLOBAL__sub_I_motors+0x128>)
    2998:	4a47      	ldr	r2, [pc, #284]	; (2ab8 <_GLOBAL__sub_I_motors+0x12c>)
    299a:	4b48      	ldr	r3, [pc, #288]	; (2abc <_GLOBAL__sub_I_motors+0x130>)
    299c:	4848      	ldr	r0, [pc, #288]	; (2ac0 <_GLOBAL__sub_I_motors+0x134>)
    299e:	f7fe fb1b 	bl	fd8 <Motor::Motor(PinName, PinName, PinName, bool)>
    29a2:	4948      	ldr	r1, [pc, #288]	; (2ac4 <_GLOBAL__sub_I_motors+0x138>)
    29a4:	4a48      	ldr	r2, [pc, #288]	; (2ac8 <_GLOBAL__sub_I_motors+0x13c>)
    29a6:	4b49      	ldr	r3, [pc, #292]	; (2acc <_GLOBAL__sub_I_motors+0x140>)
    29a8:	9500      	str	r5, [sp, #0]
    29aa:	4849      	ldr	r0, [pc, #292]	; (2ad0 <_GLOBAL__sub_I_motors+0x144>)
    29ac:	f7fe fb14 	bl	fd8 <Motor::Motor(PinName, PinName, PinName, bool)>
    29b0:	9400      	str	r4, [sp, #0]
    29b2:	4948      	ldr	r1, [pc, #288]	; (2ad4 <_GLOBAL__sub_I_motors+0x148>)
    29b4:	4a48      	ldr	r2, [pc, #288]	; (2ad8 <_GLOBAL__sub_I_motors+0x14c>)
    29b6:	4b49      	ldr	r3, [pc, #292]	; (2adc <_GLOBAL__sub_I_motors+0x150>)
    29b8:	4849      	ldr	r0, [pc, #292]	; (2ae0 <_GLOBAL__sub_I_motors+0x154>)
    29ba:	4c4a      	ldr	r4, [pc, #296]	; (2ae4 <_GLOBAL__sub_I_motors+0x158>)
    29bc:	f7fe fb0c 	bl	fd8 <Motor::Motor(PinName, PinName, PinName, bool)>
    29c0:	4b49      	ldr	r3, [pc, #292]	; (2ae8 <_GLOBAL__sub_I_motors+0x15c>)
    29c2:	494a      	ldr	r1, [pc, #296]	; (2aec <_GLOBAL__sub_I_motors+0x160>)
    29c4:	4a4a      	ldr	r2, [pc, #296]	; (2af0 <_GLOBAL__sub_I_motors+0x164>)
    29c6:	9500      	str	r5, [sp, #0]
    29c8:	484a      	ldr	r0, [pc, #296]	; (2af4 <_GLOBAL__sub_I_motors+0x168>)
    29ca:	f7fe fb05 	bl	fd8 <Motor::Motor(PinName, PinName, PinName, bool)>
    29ce:	494a      	ldr	r1, [pc, #296]	; (2af8 <_GLOBAL__sub_I_motors+0x16c>)
    29d0:	4a4a      	ldr	r2, [pc, #296]	; (2afc <_GLOBAL__sub_I_motors+0x170>)
    29d2:	4628      	mov	r0, r5
    29d4:	f002 fa1e 	bl	4e14 <__aeabi_atexit>
    29d8:	4620      	mov	r0, r4
    29da:	4a49      	ldr	r2, [pc, #292]	; (2b00 <_GLOBAL__sub_I_motors+0x174>)
    29dc:	4949      	ldr	r1, [pc, #292]	; (2b04 <_GLOBAL__sub_I_motors+0x178>)
    29de:	462b      	mov	r3, r5
    29e0:	f840 2b04 	str.w	r2, [r0], #4
    29e4:	4a48      	ldr	r2, [pc, #288]	; (2b08 <_GLOBAL__sub_I_motors+0x17c>)
    29e6:	f000 fa71 	bl	2ecc <AjK::MODSERIAL::MODSERIAL(PinName, PinName, char const*)>
    29ea:	f504 7082 	add.w	r0, r4, #260	; 0x104
    29ee:	f002 f821 	bl	4a34 <mbed::Timer::Timer()>
    29f2:	f44f 4361 	mov.w	r3, #57600	; 0xe100
    29f6:	f8c4 3100 	str.w	r3, [r4, #256]	; 0x100
    29fa:	f504 7082 	add.w	r0, r4, #260	; 0x104
    29fe:	f002 f829 	bl	4a54 <mbed::Timer::start()>
    2a02:	4629      	mov	r1, r5
    2a04:	4b41      	ldr	r3, [pc, #260]	; (2b0c <_GLOBAL__sub_I_motors+0x180>)
    2a06:	f884 55fc 	strb.w	r5, [r4, #1532]	; 0x5fc
    2a0a:	f8c4 3610 	str.w	r3, [r4, #1552]	; 0x610
    2a0e:	f884 5614 	strb.w	r5, [r4, #1556]	; 0x614
    2a12:	f8c4 561c 	str.w	r5, [r4, #1564]	; 0x61c
    2a16:	f884 5620 	strb.w	r5, [r4, #1568]	; 0x620
    2a1a:	f8c4 5628 	str.w	r5, [r4, #1576]	; 0x628
    2a1e:	f884 562c 	strb.w	r5, [r4, #1580]	; 0x62c
    2a22:	f8c4 5634 	str.w	r5, [r4, #1588]	; 0x634
    2a26:	f204 531c 	addw	r3, r4, #1308	; 0x51c
    2a2a:	f504 62b0 	add.w	r2, r4, #1408	; 0x580
    2a2e:	f843 1f04 	str.w	r1, [r3, #4]!
    2a32:	4293      	cmp	r3, r2
    2a34:	d1fb      	bne.n	2a2e <_GLOBAL__sub_I_motors+0xa2>
    2a36:	4b36      	ldr	r3, [pc, #216]	; (2b10 <_GLOBAL__sub_I_motors+0x184>)
    2a38:	2100      	movs	r1, #0
    2a3a:	f103 0264 	add.w	r2, r3, #100	; 0x64
    2a3e:	f843 1f04 	str.w	r1, [r3, #4]!
    2a42:	4293      	cmp	r3, r2
    2a44:	d1fb      	bne.n	2a3e <_GLOBAL__sub_I_motors+0xb2>
    2a46:	4b33      	ldr	r3, [pc, #204]	; (2b14 <_GLOBAL__sub_I_motors+0x188>)
    2a48:	2100      	movs	r1, #0
    2a4a:	f503 7200 	add.w	r2, r3, #512	; 0x200
    2a4e:	f803 1f01 	strb.w	r1, [r3, #1]!
    2a52:	4293      	cmp	r3, r2
    2a54:	d1fb      	bne.n	2a4e <_GLOBAL__sub_I_motors+0xc2>
    2a56:	4b30      	ldr	r3, [pc, #192]	; (2b18 <_GLOBAL__sub_I_motors+0x18c>)
    2a58:	2100      	movs	r1, #0
    2a5a:	f503 7200 	add.w	r2, r3, #512	; 0x200
    2a5e:	f803 1f01 	strb.w	r1, [r3, #1]!
    2a62:	4293      	cmp	r3, r2
    2a64:	f04f 0400 	mov.w	r4, #0
    2a68:	d1f9      	bne.n	2a5e <_GLOBAL__sub_I_motors+0xd2>
    2a6a:	492c      	ldr	r1, [pc, #176]	; (2b1c <_GLOBAL__sub_I_motors+0x190>)
    2a6c:	4a23      	ldr	r2, [pc, #140]	; (2afc <_GLOBAL__sub_I_motors+0x170>)
    2a6e:	481d      	ldr	r0, [pc, #116]	; (2ae4 <_GLOBAL__sub_I_motors+0x158>)
    2a70:	f002 f9d0 	bl	4e14 <__aeabi_atexit>
    2a74:	4f2a      	ldr	r7, [pc, #168]	; (2b20 <_GLOBAL__sub_I_motors+0x194>)
    2a76:	4b2b      	ldr	r3, [pc, #172]	; (2b24 <_GLOBAL__sub_I_motors+0x198>)
    2a78:	f8df c0bc 	ldr.w	r12, [pc, #188]	; 2b38 <_GLOBAL__sub_I_motors+0x1ac>
    2a7c:	f8df e0bc 	ldr.w	lr, [pc, #188]	; 2b3c <_GLOBAL__sub_I_motors+0x1b0>
    2a80:	4e29      	ldr	r6, [pc, #164]	; (2b28 <_GLOBAL__sub_I_motors+0x19c>)
    2a82:	4d2a      	ldr	r5, [pc, #168]	; (2b2c <_GLOBAL__sub_I_motors+0x1a0>)
    2a84:	482a      	ldr	r0, [pc, #168]	; (2b30 <_GLOBAL__sub_I_motors+0x1a4>)
    2a86:	4a2b      	ldr	r2, [pc, #172]	; (2b34 <_GLOBAL__sub_I_motors+0x1a8>)
    2a88:	2101      	movs	r1, #1
    2a8a:	751c      	strb	r4, [r3, #20]
    2a8c:	621c      	str	r4, [r3, #32]
    2a8e:	625c      	str	r4, [r3, #36]	; 0x24
    2a90:	629c      	str	r4, [r3, #40]	; 0x28
    2a92:	62dc      	str	r4, [r3, #44]	; 0x2c
    2a94:	f883 4030 	strb.w	r4, [r3, #48]	; 0x30
    2a98:	639c      	str	r4, [r3, #56]	; 0x38
    2a9a:	f8c3 c000 	str.w	r12, [r3]
    2a9e:	f8c3 e00c 	str.w	lr, [r3, #12]
    2aa2:	611f      	str	r7, [r3, #16]
    2aa4:	619e      	str	r6, [r3, #24]
    2aa6:	61dd      	str	r5, [r3, #28]
    2aa8:	63d8      	str	r0, [r3, #60]	; 0x3c
    2aaa:	6419      	str	r1, [r3, #64]	; 0x40
    2aac:	609a      	str	r2, [r3, #8]
    2aae:	b003      	add	sp, #12
    2ab0:	bdf0      	pop	{r4, r5, r6, r7, pc}
    2ab2:	bf00      	nop
    2ab4:	2009c040 	.word	0x2009c040
    2ab8:	2009c00b 	.word	0x2009c00b
    2abc:	2009c006 	.word	0x2009c006
    2ac0:	10000800 	.word	0x10000800
    2ac4:	2009c041 	.word	0x2009c041
    2ac8:	2009c00a 	.word	0x2009c00a
    2acc:	2009c007 	.word	0x2009c007
    2ad0:	100008b8 	.word	0x100008b8
    2ad4:	2009c042 	.word	0x2009c042
    2ad8:	2009c005 	.word	0x2009c005
    2adc:	2009c008 	.word	0x2009c008
    2ae0:	10000970 	.word	0x10000970
    2ae4:	10000184 	.word	0x10000184
    2ae8:	2009c009 	.word	0x2009c009
    2aec:	2009c043 	.word	0x2009c043
    2af0:	2009c004 	.word	0x2009c004
    2af4:	10000a28 	.word	0x10000a28
    2af8:	00002b59 	.word	0x00002b59
    2afc:	100000c8 	.word	0x100000c8
    2b00:	00007540 	.word	0x00007540
    2b04:	2009c002 	.word	0x2009c002
    2b08:	2009c003 	.word	0x2009c003
    2b0c:	000074e0 	.word	0x000074e0
    2b10:	10000704 	.word	0x10000704
    2b14:	100002a3 	.word	0x100002a3
    2b18:	100004a3 	.word	0x100004a3
    2b1c:	00002b41 	.word	0x00002b41
    2b20:	00007510 	.word	0x00007510
    2b24:	100007bc 	.word	0x100007bc
    2b28:	000074f8 	.word	0x000074f8
    2b2c:	00007734 	.word	0x00007734
    2b30:	0000029d 	.word	0x0000029d
    2b34:	00007738 	.word	0x00007738
    2b38:	00007558 	.word	0x00007558
    2b3c:	00007528 	.word	0x00007528

00002b40 <ros::NodeHandle_<MbedHardware, 25, 25, 512, 512>::~NodeHandle_()>:
    2b40:	b510      	push	{r4, lr}
    2b42:	4604      	mov	r4, r0
    2b44:	4b03      	ldr	r3, [pc, #12]	; (2b54 <ros::NodeHandle_<MbedHardware, 25, 25, 512, 512>::~NodeHandle_()+0x14>)
    2b46:	f840 3b04 	str.w	r3, [r0], #4
    2b4a:	f000 f961 	bl	2e10 <AjK::MODSERIAL::~MODSERIAL()>
    2b4e:	4620      	mov	r0, r4
    2b50:	bd10      	pop	{r4, pc}
    2b52:	bf00      	nop
    2b54:	00007540 	.word	0x00007540

00002b58 <__tcf_0>:
    2b58:	b5f8      	push	{r3, r4, r5, r6, r7, lr}
    2b5a:	4c0a      	ldr	r4, [pc, #40]	; (2b84 <__tcf_0+0x2c>)
    2b5c:	4f0a      	ldr	r7, [pc, #40]	; (2b88 <__tcf_0+0x30>)
    2b5e:	f5a4 7638 	sub.w	r6, r4, #736	; 0x2e0
    2b62:	3cb8      	subs	r4, #184	; 0xb8
    2b64:	f104 057c 	add.w	r5, r4, #124	; 0x7c
    2b68:	4628      	mov	r0, r5
    2b6a:	67e7      	str	r7, [r4, #124]	; 0x7c
    2b6c:	f001 ff42 	bl	49f4 <mbed::Ticker::detach()>
    2b70:	4628      	mov	r0, r5
    2b72:	f001 ffa5 	bl	4ac0 <mbed::TimerEvent::~TimerEvent()>
    2b76:	f104 0024 	add.w	r0, r4, #36	; 0x24
    2b7a:	f001 fd89 	bl	4690 <mbed::InterruptIn::~InterruptIn()>
    2b7e:	42b4      	cmp	r4, r6
    2b80:	d1ef      	bne.n	2b62 <__tcf_0+0xa>
    2b82:	bdf8      	pop	{r3, r4, r5, r6, r7, pc}
    2b84:	10000ae0 	.word	0x10000ae0
    2b88:	00007ba8 	.word	0x00007ba8

00002b8c <_start>:
    2b8c:	4a07      	ldr	r2, [pc, #28]	; (2bac <_start+0x20>)
    2b8e:	4808      	ldr	r0, [pc, #32]	; (2bb0 <_start+0x24>)
    2b90:	b508      	push	{r3, lr}
    2b92:	2100      	movs	r1, #0
    2b94:	1a12      	subs	r2, r2, r0
    2b96:	f003 f801 	bl	5b9c <memset>
    2b9a:	f3af 8000 	nop.w
    2b9e:	f002 ff47 	bl	5a30 <__libc_init_array>
    2ba2:	f002 f8db 	bl	4d5c <__wrap_main>
    2ba6:	f002 fc45 	bl	5434 <exit>
    2baa:	bf00      	nop
    2bac:	10000db4 	.word	0x10000db4
    2bb0:	10000168 	.word	0x10000168

00002bb4 <__wrap__isatty>:
    2bb4:	2802      	cmp	r0, #2
    2bb6:	dc01      	bgt.n	2bbc <__wrap__isatty+0x8>
    2bb8:	2001      	movs	r0, #1
    2bba:	4770      	bx	lr
    2bbc:	f002 b896 	b.w	4cec <_isatty>

00002bc0 <__wrap_malloc>:
    2bc0:	f3ef 8305 	mrs	r3, IPSR
    2bc4:	b103      	cbz	r3, 2bc8 <__wrap_malloc+0x8>
    2bc6:	be00      	bkpt	0x0000
    2bc8:	f002 bfa4 	b.w	5b14 <malloc>

00002bcc <__wrap_realloc>:
    2bcc:	f3ef 8305 	mrs	r3, IPSR
    2bd0:	b103      	cbz	r3, 2bd4 <__wrap_realloc+0x8>
    2bd2:	be00      	bkpt	0x0000
    2bd4:	f003 bcf6 	b.w	65c4 <realloc>

00002bd8 <__wrap_free>:
    2bd8:	f3ef 8305 	mrs	r3, IPSR
    2bdc:	b103      	cbz	r3, 2be0 <__wrap_free+0x8>
    2bde:	be00      	bkpt	0x0000
    2be0:	f002 bfa0 	b.w	5b24 <free>

00002be4 <abort>:
    2be4:	b508      	push	{r3, lr}
    2be6:	2001      	movs	r0, #1
    2be8:	f002 fc24 	bl	5434 <exit>

00002bec <__cxa_pure_virtual>:
    2bec:	b508      	push	{r3, lr}
    2bee:	f7ff fff9 	bl	2be4 <abort>
    2bf2:	bf00      	nop

00002bf4 <ros::normalizeSecNSec(unsigned long&, unsigned long&)>:
    2bf4:	b410      	push	{r4}
    2bf6:	680c      	ldr	r4, [r1, #0]
    2bf8:	4a07      	ldr	r2, [pc, #28]	; (2c18 <ros::normalizeSecNSec(unsigned long&, unsigned long&)+0x24>)
    2bfa:	0a63      	lsrs	r3, r4, #9
    2bfc:	fba2 2303 	umull	r2, r3, r2, r3
    2c00:	4a06      	ldr	r2, [pc, #24]	; (2c1c <ros::normalizeSecNSec(unsigned long&, unsigned long&)+0x28>)
    2c02:	09db      	lsrs	r3, r3, #7
    2c04:	fb02 4213 	mls	r2, r2, r3, r4
    2c08:	6804      	ldr	r4, [r0, #0]
    2c0a:	4423      	add	r3, r4
    2c0c:	6003      	str	r3, [r0, #0]
    2c0e:	f85d 4b04 	ldr.w	r4, [sp], #4
    2c12:	600a      	str	r2, [r1, #0]
    2c14:	4770      	bx	lr
    2c16:	bf00      	nop
    2c18:	00044b83 	.word	0x00044b83
    2c1c:	3b9aca00 	.word	0x3b9aca00

00002c20 <AjK::MODSERIAL::__getc(bool)>:
    2c20:	6fc3      	ldr	r3, [r0, #124]	; 0x7c
    2c22:	b570      	push	{r4, r5, r6, lr}
    2c24:	2b00      	cmp	r3, #0
    2c26:	d02d      	beq.n	2c84 <AjK::MODSERIAL::__getc(bool)+0x64>
    2c28:	6e42      	ldr	r2, [r0, #100]	; 0x64
    2c2a:	2a00      	cmp	r2, #0
    2c2c:	d02a      	beq.n	2c84 <AjK::MODSERIAL::__getc(bool)+0x64>
    2c2e:	2900      	cmp	r1, #0
    2c30:	d02f      	beq.n	2c92 <AjK::MODSERIAL::__getc(bool)+0x72>
    2c32:	f8d0 3084 	ldr.w	r3, [r0, #132]	; 0x84
    2c36:	2b00      	cmp	r3, #0
    2c38:	d0fb      	beq.n	2c32 <AjK::MODSERIAL::__getc(bool)+0x12>
    2c3a:	6f43      	ldr	r3, [r0, #116]	; 0x74
    2c3c:	4604      	mov	r4, r0
    2c3e:	5cd5      	ldrb	r5, [r2, r3]
    2c40:	6f43      	ldr	r3, [r0, #116]	; 0x74
    2c42:	b2ed      	uxtb	r5, r5
    2c44:	3301      	adds	r3, #1
    2c46:	6743      	str	r3, [r0, #116]	; 0x74
    2c48:	6f42      	ldr	r2, [r0, #116]	; 0x74
    2c4a:	6fc3      	ldr	r3, [r0, #124]	; 0x7c
    2c4c:	429a      	cmp	r2, r3
    2c4e:	bfa4      	itt	ge
    2c50:	2300      	movge	r3, #0
    2c52:	6743      	strge	r3, [r0, #116]	; 0x74
    2c54:	f8d0 2084 	ldr.w	r2, [r0, #132]	; 0x84
    2c58:	6fc3      	ldr	r3, [r0, #124]	; 0x7c
    2c5a:	429a      	cmp	r2, r3
    2c5c:	d009      	beq.n	2c72 <AjK::MODSERIAL::__getc(bool)+0x52>
    2c5e:	6dc3      	ldr	r3, [r0, #92]	; 0x5c
    2c60:	685e      	ldr	r6, [r3, #4]
    2c62:	685a      	ldr	r2, [r3, #4]
    2c64:	f022 0201 	bic.w	r2, r2, #1
    2c68:	605a      	str	r2, [r3, #4]
    2c6a:	f000 f819 	bl	2ca0 <AjK::MODSERIAL::isr_rx()>
    2c6e:	6de3      	ldr	r3, [r4, #92]	; 0x5c
    2c70:	605e      	str	r6, [r3, #4]
    2c72:	b672      	cpsid	i
    2c74:	f8d4 3084 	ldr.w	r3, [r4, #132]	; 0x84
    2c78:	3b01      	subs	r3, #1
    2c7a:	f8c4 3084 	str.w	r3, [r4, #132]	; 0x84
    2c7e:	b662      	cpsie	i
    2c80:	4628      	mov	r0, r5
    2c82:	bd70      	pop	{r4, r5, r6, pc}
    2c84:	6dc2      	ldr	r2, [r0, #92]	; 0x5c
    2c86:	7d13      	ldrb	r3, [r2, #20]
    2c88:	07db      	lsls	r3, r3, #31
    2c8a:	d5fc      	bpl.n	2c86 <AjK::MODSERIAL::__getc(bool)+0x66>
    2c8c:	7810      	ldrb	r0, [r2, #0]
    2c8e:	b2c0      	uxtb	r0, r0
    2c90:	bd70      	pop	{r4, r5, r6, pc}
    2c92:	f8d0 3084 	ldr.w	r3, [r0, #132]	; 0x84
    2c96:	2b00      	cmp	r3, #0
    2c98:	d1cf      	bne.n	2c3a <AjK::MODSERIAL::__getc(bool)+0x1a>
    2c9a:	f04f 30ff 	mov.w	r0, #4294967295
    2c9e:	bd70      	pop	{r4, r5, r6, pc}

00002ca0 <AjK::MODSERIAL::isr_rx()>:
    2ca0:	6dc3      	ldr	r3, [r0, #92]	; 0x5c
    2ca2:	b570      	push	{r4, r5, r6, lr}
    2ca4:	2b00      	cmp	r3, #0
    2ca6:	d052      	beq.n	2d4e <AjK::MODSERIAL::isr_rx()+0xae>
    2ca8:	6fc2      	ldr	r2, [r0, #124]	; 0x7c
    2caa:	2a00      	cmp	r2, #0
    2cac:	d04f      	beq.n	2d4e <AjK::MODSERIAL::isr_rx()+0xae>
    2cae:	6e42      	ldr	r2, [r0, #100]	; 0x64
    2cb0:	2a00      	cmp	r2, #0
    2cb2:	d04c      	beq.n	2d4e <AjK::MODSERIAL::isr_rx()+0xae>
    2cb4:	4604      	mov	r4, r0
    2cb6:	f100 0558 	add.w	r5, r0, #88	; 0x58
    2cba:	2600      	movs	r6, #0
    2cbc:	e008      	b.n	2cd0 <AjK::MODSERIAL::isr_rx()+0x30>
    2cbe:	4628      	mov	r0, r5
    2cc0:	4798      	blx	r3
    2cc2:	f894 2094 	ldrb.w	r2, [r4, #148]	; 0x94
    2cc6:	f894 3061 	ldrb.w	r3, [r4, #97]	; 0x61
    2cca:	429a      	cmp	r2, r3
    2ccc:	d039      	beq.n	2d42 <AjK::MODSERIAL::isr_rx()+0xa2>
    2cce:	6de3      	ldr	r3, [r4, #92]	; 0x5c
    2cd0:	7d1a      	ldrb	r2, [r3, #20]
    2cd2:	07d2      	lsls	r2, r2, #31
    2cd4:	d562      	bpl.n	2d9c <AjK::MODSERIAL::isr_rx()+0xfc>
    2cd6:	781b      	ldrb	r3, [r3, #0]
    2cd8:	b2db      	uxtb	r3, r3
    2cda:	f884 3061 	strb.w	r3, [r4, #97]	; 0x61
    2cde:	f8d4 2084 	ldr.w	r2, [r4, #132]	; 0x84
    2ce2:	6fe3      	ldr	r3, [r4, #124]	; 0x7c
    2ce4:	429a      	cmp	r2, r3
    2ce6:	d04d      	beq.n	2d84 <AjK::MODSERIAL::isr_rx()+0xe4>
    2ce8:	6e62      	ldr	r2, [r4, #100]	; 0x64
    2cea:	b18a      	cbz	r2, 2d10 <AjK::MODSERIAL::isr_rx()+0x70>
    2cec:	6ee1      	ldr	r1, [r4, #108]	; 0x6c
    2cee:	f894 3061 	ldrb.w	r3, [r4, #97]	; 0x61
    2cf2:	b2db      	uxtb	r3, r3
    2cf4:	5453      	strb	r3, [r2, r1]
    2cf6:	f8d4 3084 	ldr.w	r3, [r4, #132]	; 0x84
    2cfa:	3301      	adds	r3, #1
    2cfc:	f8c4 3084 	str.w	r3, [r4, #132]	; 0x84
    2d00:	6ee3      	ldr	r3, [r4, #108]	; 0x6c
    2d02:	3301      	adds	r3, #1
    2d04:	66e3      	str	r3, [r4, #108]	; 0x6c
    2d06:	6ee2      	ldr	r2, [r4, #108]	; 0x6c
    2d08:	6fe3      	ldr	r3, [r4, #124]	; 0x7c
    2d0a:	429a      	cmp	r2, r3
    2d0c:	bfa8      	it	ge
    2d0e:	66e6      	strge	r6, [r4, #108]	; 0x6c
    2d10:	f8d4 3098 	ldr.w	r3, [r4, #152]	; 0x98
    2d14:	2b00      	cmp	r3, #0
    2d16:	d1d2      	bne.n	2cbe <AjK::MODSERIAL::isr_rx()+0x1e>
    2d18:	f8d4 309c 	ldr.w	r3, [r4, #156]	; 0x9c
    2d1c:	2b00      	cmp	r3, #0
    2d1e:	d0d0      	beq.n	2cc2 <AjK::MODSERIAL::isr_rx()+0x22>
    2d20:	f8d4 20a0 	ldr.w	r2, [r4, #160]	; 0xa0
    2d24:	f8d4 00a4 	ldr.w	r0, [r4, #164]	; 0xa4
    2d28:	b32a      	cbz	r2, 2d76 <AjK::MODSERIAL::isr_rx()+0xd6>
    2d2a:	07c1      	lsls	r1, r0, #31
    2d2c:	d425      	bmi.n	2d7a <AjK::MODSERIAL::isr_rx()+0xda>
    2d2e:	eb03 0060 	add.w	r0, r3, r0, asr #1
    2d32:	4629      	mov	r1, r5
    2d34:	4790      	blx	r2
    2d36:	f894 2094 	ldrb.w	r2, [r4, #148]	; 0x94
    2d3a:	f894 3061 	ldrb.w	r3, [r4, #97]	; 0x61
    2d3e:	429a      	cmp	r2, r3
    2d40:	d1c5      	bne.n	2cce <AjK::MODSERIAL::isr_rx()+0x2e>
    2d42:	f8d4 30e8 	ldr.w	r3, [r4, #232]	; 0xe8
    2d46:	b353      	cbz	r3, 2d9e <AjK::MODSERIAL::isr_rx()+0xfe>
    2d48:	4628      	mov	r0, r5
    2d4a:	4798      	blx	r3
    2d4c:	e7bf      	b.n	2cce <AjK::MODSERIAL::isr_rx()+0x2e>
    2d4e:	f8d0 3098 	ldr.w	r3, [r0, #152]	; 0x98
    2d52:	f100 0158 	add.w	r1, r0, #88	; 0x58
    2d56:	2b00      	cmp	r3, #0
    2d58:	d031      	beq.n	2dbe <AjK::MODSERIAL::isr_rx()+0x11e>
    2d5a:	e8bd 4070 	ldmia.w	sp!, {r4, r5, r6, lr}
    2d5e:	4608      	mov	r0, r1
    2d60:	4718      	bx	r3
    2d62:	f8d4 30bc 	ldr.w	r3, [r4, #188]	; 0xbc
    2d66:	2b00      	cmp	r3, #0
    2d68:	d0ab      	beq.n	2cc2 <AjK::MODSERIAL::isr_rx()+0x22>
    2d6a:	f8d4 20c0 	ldr.w	r2, [r4, #192]	; 0xc0
    2d6e:	f8d4 00c4 	ldr.w	r0, [r4, #196]	; 0xc4
    2d72:	2a00      	cmp	r2, #0
    2d74:	d1d9      	bne.n	2d2a <AjK::MODSERIAL::isr_rx()+0x8a>
    2d76:	07c1      	lsls	r1, r0, #31
    2d78:	d5a3      	bpl.n	2cc2 <AjK::MODSERIAL::isr_rx()+0x22>
    2d7a:	1040      	asrs	r0, r0, #1
    2d7c:	5819      	ldr	r1, [r3, r0]
    2d7e:	4418      	add	r0, r3
    2d80:	588a      	ldr	r2, [r1, r2]
    2d82:	e7d6      	b.n	2d32 <AjK::MODSERIAL::isr_rx()+0x92>
    2d84:	f894 3061 	ldrb.w	r3, [r4, #97]	; 0x61
    2d88:	f8d4 20b8 	ldr.w	r2, [r4, #184]	; 0xb8
    2d8c:	b2db      	uxtb	r3, r3
    2d8e:	f8c4 308c 	str.w	r3, [r4, #140]	; 0x8c
    2d92:	2a00      	cmp	r2, #0
    2d94:	d0e5      	beq.n	2d62 <AjK::MODSERIAL::isr_rx()+0xc2>
    2d96:	4628      	mov	r0, r5
    2d98:	4790      	blx	r2
    2d9a:	e792      	b.n	2cc2 <AjK::MODSERIAL::isr_rx()+0x22>
    2d9c:	bd70      	pop	{r4, r5, r6, pc}
    2d9e:	f8d4 00ec 	ldr.w	r0, [r4, #236]	; 0xec
    2da2:	2800      	cmp	r0, #0
    2da4:	d093      	beq.n	2cce <AjK::MODSERIAL::isr_rx()+0x2e>
    2da6:	f8d4 20f0 	ldr.w	r2, [r4, #240]	; 0xf0
    2daa:	f8d4 30f4 	ldr.w	r3, [r4, #244]	; 0xf4
    2dae:	b1aa      	cbz	r2, 2ddc <AjK::MODSERIAL::isr_rx()+0x13c>
    2db0:	07d9      	lsls	r1, r3, #31
    2db2:	d416      	bmi.n	2de2 <AjK::MODSERIAL::isr_rx()+0x142>
    2db4:	eb00 0063 	add.w	r0, r0, r3, asr #1
    2db8:	4629      	mov	r1, r5
    2dba:	4790      	blx	r2
    2dbc:	e787      	b.n	2cce <AjK::MODSERIAL::isr_rx()+0x2e>
    2dbe:	f8d0 309c 	ldr.w	r3, [r0, #156]	; 0x9c
    2dc2:	b19b      	cbz	r3, 2dec <AjK::MODSERIAL::isr_rx()+0x14c>
    2dc4:	f8d0 20a0 	ldr.w	r2, [r0, #160]	; 0xa0
    2dc8:	f8d0 00a4 	ldr.w	r0, [r0, #164]	; 0xa4
    2dcc:	b1a2      	cbz	r2, 2df8 <AjK::MODSERIAL::isr_rx()+0x158>
    2dce:	07c4      	lsls	r4, r0, #31
    2dd0:	d40d      	bmi.n	2dee <AjK::MODSERIAL::isr_rx()+0x14e>
    2dd2:	eb03 0060 	add.w	r0, r3, r0, asr #1
    2dd6:	e8bd 4070 	ldmia.w	sp!, {r4, r5, r6, lr}
    2dda:	4710      	bx	r2
    2ddc:	07d9      	lsls	r1, r3, #31
    2dde:	f57f af76 	bpl.w	2cce <AjK::MODSERIAL::isr_rx()+0x2e>
    2de2:	105b      	asrs	r3, r3, #1
    2de4:	58c1      	ldr	r1, [r0, r3]
    2de6:	4418      	add	r0, r3
    2de8:	588a      	ldr	r2, [r1, r2]
    2dea:	e7e5      	b.n	2db8 <AjK::MODSERIAL::isr_rx()+0x118>
    2dec:	bd70      	pop	{r4, r5, r6, pc}
    2dee:	1040      	asrs	r0, r0, #1
    2df0:	581c      	ldr	r4, [r3, r0]
    2df2:	4418      	add	r0, r3
    2df4:	58a2      	ldr	r2, [r4, r2]
    2df6:	e7ee      	b.n	2dd6 <AjK::MODSERIAL::isr_rx()+0x136>
    2df8:	07c5      	lsls	r5, r0, #31
    2dfa:	d4f8      	bmi.n	2dee <AjK::MODSERIAL::isr_rx()+0x14e>
    2dfc:	bd70      	pop	{r4, r5, r6, pc}
    2dfe:	bf00      	nop

00002e00 <mbed::SerialBase::~SerialBase()>:
    2e00:	4770      	bx	lr
    2e02:	bf00      	nop

00002e04 <mbed::SerialBase::~SerialBase()>:
    2e04:	b510      	push	{r4, lr}
    2e06:	4604      	mov	r4, r0
    2e08:	f002 f809 	bl	4e1e <operator delete(void*)>
    2e0c:	4620      	mov	r0, r4
    2e0e:	bd10      	pop	{r4, pc}

00002e10 <AjK::MODSERIAL::~MODSERIAL()>:
    2e10:	b5f8      	push	{r3, r4, r5, r6, r7, lr}
    2e12:	4604      	mov	r4, r0
    2e14:	f890 20f8 	ldrb.w	r2, [r0, #248]	; 0xf8
    2e18:	4d14      	ldr	r5, [pc, #80]	; (2e6c <AjK::MODSERIAL::~MODSERIAL()+0x5c>)
    2e1a:	b253      	sxtb	r3, r2
    2e1c:	6e40      	ldr	r0, [r0, #100]	; 0x64
    2e1e:	095b      	lsrs	r3, r3, #5
    2e20:	f002 021f 	and.w	r2, r2, #31
    2e24:	2101      	movs	r1, #1
    2e26:	4e12      	ldr	r6, [pc, #72]	; (2e70 <AjK::MODSERIAL::~MODSERIAL()+0x60>)
    2e28:	f105 0e18 	add.w	lr, r5, #24
    2e2c:	f105 074c 	add.w	r7, r5, #76	; 0x4c
    2e30:	3320      	adds	r3, #32
    2e32:	fa01 f202 	lsl.w	r2, r1, r2
    2e36:	6025      	str	r5, [r4, #0]
    2e38:	f8c4 e040 	str.w	lr, [r4, #64]	; 0x40
    2e3c:	6467      	str	r7, [r4, #68]	; 0x44
    2e3e:	f846 2023 	str.w	r2, [r6, r3, lsl #2]
    2e42:	b108      	cbz	r0, 2e48 <AjK::MODSERIAL::~MODSERIAL()+0x38>
    2e44:	f7ff fec8 	bl	2bd8 <__wrap_free>
    2e48:	6ea0      	ldr	r0, [r4, #104]	; 0x68
    2e4a:	b108      	cbz	r0, 2e50 <AjK::MODSERIAL::~MODSERIAL()+0x40>
    2e4c:	f7ff fec4 	bl	2bd8 <__wrap_free>
    2e50:	4b08      	ldr	r3, [pc, #32]	; (2e74 <AjK::MODSERIAL::~MODSERIAL()+0x64>)
    2e52:	f104 0040 	add.w	r0, r4, #64	; 0x40
    2e56:	f103 0118 	add.w	r1, r3, #24
    2e5a:	f103 024c 	add.w	r2, r3, #76	; 0x4c
    2e5e:	6023      	str	r3, [r4, #0]
    2e60:	6421      	str	r1, [r4, #64]	; 0x40
    2e62:	6462      	str	r2, [r4, #68]	; 0x44
    2e64:	f001 fd6c 	bl	4940 <mbed::Stream::~Stream()>
    2e68:	4620      	mov	r0, r4
    2e6a:	bdf8      	pop	{r3, r4, r5, r6, r7, pc}
    2e6c:	00007770 	.word	0x00007770
    2e70:	e000e100 	.word	0xe000e100
    2e74:	00007ae8 	.word	0x00007ae8

00002e78 <non-virtual thunk to AjK::MODSERIAL::~MODSERIAL()>:
    2e78:	f1a0 0044 	sub.w	r0, r0, #68	; 0x44
    2e7c:	f7ff bfc8 	b.w	2e10 <AjK::MODSERIAL::~MODSERIAL()>

00002e80 <non-virtual thunk to AjK::MODSERIAL::~MODSERIAL()>:
    2e80:	f1a0 0040 	sub.w	r0, r0, #64	; 0x40
    2e84:	f7ff bfc4 	b.w	2e10 <AjK::MODSERIAL::~MODSERIAL()>

00002e88 <AjK::MODSERIAL::~MODSERIAL()>:
    2e88:	b510      	push	{r4, lr}
    2e8a:	4604      	mov	r4, r0
    2e8c:	f7ff ffc0 	bl	2e10 <AjK::MODSERIAL::~MODSERIAL()>
    2e90:	4620      	mov	r0, r4
    2e92:	f001 ffc4 	bl	4e1e <operator delete(void*)>
    2e96:	4620      	mov	r0, r4
    2e98:	bd10      	pop	{r4, pc}
    2e9a:	bf00      	nop

00002e9c <non-virtual thunk to AjK::MODSERIAL::~MODSERIAL()>:
    2e9c:	f1a0 0044 	sub.w	r0, r0, #68	; 0x44
    2ea0:	f7ff bff2 	b.w	2e88 <AjK::MODSERIAL::~MODSERIAL()>

00002ea4 <non-virtual thunk to AjK::MODSERIAL::~MODSERIAL()>:
    2ea4:	f1a0 0040 	sub.w	r0, r0, #64	; 0x40
    2ea8:	f7ff bfee 	b.w	2e88 <AjK::MODSERIAL::~MODSERIAL()>

00002eac <AjK::MODSERIAL::_putc(int)>:
    2eac:	2201      	movs	r2, #1
    2eae:	f000 b85d 	b.w	2f6c <AjK::MODSERIAL::__putc(int, bool)>
    2eb2:	bf00      	nop

00002eb4 <non-virtual thunk to AjK::MODSERIAL::_putc(int)>:
    2eb4:	f1a0 0040 	sub.w	r0, r0, #64	; 0x40
    2eb8:	e7f8      	b.n	2eac <AjK::MODSERIAL::_putc(int)>
    2eba:	bf00      	nop

00002ebc <AjK::MODSERIAL::_getc()>:
    2ebc:	2101      	movs	r1, #1
    2ebe:	f7ff beaf 	b.w	2c20 <AjK::MODSERIAL::__getc(bool)>
    2ec2:	bf00      	nop

00002ec4 <non-virtual thunk to AjK::MODSERIAL::_getc()>:
    2ec4:	f1a0 0040 	sub.w	r0, r0, #64	; 0x40
    2ec8:	e7f8      	b.n	2ebc <AjK::MODSERIAL::_getc()>
    2eca:	bf00      	nop

00002ecc <AjK::MODSERIAL::MODSERIAL(PinName, PinName, char const*)>:
    2ecc:	b538      	push	{r3, r4, r5, lr}
    2ece:	4604      	mov	r4, r0
    2ed0:	4615      	mov	r5, r2
    2ed2:	f001 fc79 	bl	47c8 <mbed::Serial::Serial(PinName, PinName, char const*)>
    2ed6:	4b11      	ldr	r3, [pc, #68]	; (2f1c <AjK::MODSERIAL::MODSERIAL(PinName, PinName, char const*)+0x50>)
    2ed8:	2100      	movs	r1, #0
    2eda:	f103 0018 	add.w	r0, r3, #24
    2ede:	460a      	mov	r2, r1
    2ee0:	65a1      	str	r1, [r4, #88]	; 0x58
    2ee2:	f103 014c 	add.w	r1, r3, #76	; 0x4c
    2ee6:	6023      	str	r3, [r4, #0]
    2ee8:	6461      	str	r1, [r4, #68]	; 0x44
    2eea:	6420      	str	r0, [r4, #64]	; 0x40
    2eec:	f104 03a8 	add.w	r3, r4, #168	; 0xa8
    2ef0:	f504 7184 	add.w	r1, r4, #264	; 0x108
    2ef4:	f843 2c10 	str.w	r2, [r3, #-16]
    2ef8:	f843 2c0c 	str.w	r2, [r3, #-12]
    2efc:	f843 2c08 	str.w	r2, [r3, #-8]
    2f00:	f843 2c04 	str.w	r2, [r3, #-4]
    2f04:	3310      	adds	r3, #16
    2f06:	428b      	cmp	r3, r1
    2f08:	d1f4      	bne.n	2ef4 <AjK::MODSERIAL::MODSERIAL(PinName, PinName, char const*)+0x28>
    2f0a:	f44f 7180 	mov.w	r1, #256	; 0x100
    2f0e:	4620      	mov	r0, r4
    2f10:	462b      	mov	r3, r5
    2f12:	460a      	mov	r2, r1
    2f14:	f000 f8a2 	bl	305c <AjK::MODSERIAL::init(int, int, PinName)>
    2f18:	4620      	mov	r0, r4
    2f1a:	bd38      	pop	{r3, r4, r5, pc}
    2f1c:	00007770 	.word	0x00007770

00002f20 <AjK::MODSERIAL::rxBufferEmpty()>:
    2f20:	f8d0 0084 	ldr.w	r0, [r0, #132]	; 0x84
    2f24:	fab0 f080 	clz	r0, r0
    2f28:	0940      	lsrs	r0, r0, #5
    2f2a:	4770      	bx	lr

00002f2c <AjK::MODSERIAL_callback::call(AjK::MODSERIAL_IRQ_INFO*)>:
    2f2c:	6803      	ldr	r3, [r0, #0]
    2f2e:	b410      	push	{r4}
    2f30:	b11b      	cbz	r3, 2f3a <AjK::MODSERIAL_callback::call(AjK::MODSERIAL_IRQ_INFO*)+0xe>
    2f32:	4608      	mov	r0, r1
    2f34:	f85d 4b04 	ldr.w	r4, [sp], #4
    2f38:	4718      	bx	r3
    2f3a:	6843      	ldr	r3, [r0, #4]
    2f3c:	b193      	cbz	r3, 2f64 <AjK::MODSERIAL_callback::call(AjK::MODSERIAL_IRQ_INFO*)+0x38>
    2f3e:	6882      	ldr	r2, [r0, #8]
    2f40:	68c0      	ldr	r0, [r0, #12]
    2f42:	b132      	cbz	r2, 2f52 <AjK::MODSERIAL_callback::call(AjK::MODSERIAL_IRQ_INFO*)+0x26>
    2f44:	07c4      	lsls	r4, r0, #31
    2f46:	d406      	bmi.n	2f56 <AjK::MODSERIAL_callback::call(AjK::MODSERIAL_IRQ_INFO*)+0x2a>
    2f48:	eb03 0060 	add.w	r0, r3, r0, asr #1
    2f4c:	f85d 4b04 	ldr.w	r4, [sp], #4
    2f50:	4710      	bx	r2
    2f52:	07c4      	lsls	r4, r0, #31
    2f54:	d506      	bpl.n	2f64 <AjK::MODSERIAL_callback::call(AjK::MODSERIAL_IRQ_INFO*)+0x38>
    2f56:	1040      	asrs	r0, r0, #1
    2f58:	581c      	ldr	r4, [r3, r0]
    2f5a:	4418      	add	r0, r3
    2f5c:	58a2      	ldr	r2, [r4, r2]
    2f5e:	f85d 4b04 	ldr.w	r4, [sp], #4
    2f62:	4710      	bx	r2
    2f64:	f85d 4b04 	ldr.w	r4, [sp], #4
    2f68:	4770      	bx	lr
    2f6a:	bf00      	nop

00002f6c <AjK::MODSERIAL::__putc(int, bool)>:
    2f6c:	6e83      	ldr	r3, [r0, #104]	; 0x68
    2f6e:	b570      	push	{r4, r5, r6, lr}
    2f70:	4604      	mov	r4, r0
    2f72:	460d      	mov	r5, r1
    2f74:	b113      	cbz	r3, 2f7c <AjK::MODSERIAL::__putc(int, bool)+0x10>
    2f76:	f8d0 3080 	ldr.w	r3, [r0, #128]	; 0x80
    2f7a:	b93b      	cbnz	r3, 2f8c <AjK::MODSERIAL::__putc(int, bool)+0x20>
    2f7c:	6de2      	ldr	r2, [r4, #92]	; 0x5c
    2f7e:	7d13      	ldrb	r3, [r2, #20]
    2f80:	0698      	lsls	r0, r3, #26
    2f82:	d5fc      	bpl.n	2f7e <AjK::MODSERIAL::__putc(int, bool)+0x12>
    2f84:	b2ed      	uxtb	r5, r5
    2f86:	7015      	strb	r5, [r2, #0]
    2f88:	2000      	movs	r0, #0
    2f8a:	bd70      	pop	{r4, r5, r6, pc}
    2f8c:	6dc3      	ldr	r3, [r0, #92]	; 0x5c
    2f8e:	7d19      	ldrb	r1, [r3, #20]
    2f90:	0689      	lsls	r1, r1, #26
    2f92:	d505      	bpl.n	2fa0 <AjK::MODSERIAL::__putc(int, bool)+0x34>
    2f94:	f8d0 0088 	ldr.w	r0, [r0, #136]	; 0x88
    2f98:	b910      	cbnz	r0, 2fa0 <AjK::MODSERIAL::__putc(int, bool)+0x34>
    2f9a:	b2ed      	uxtb	r5, r5
    2f9c:	701d      	strb	r5, [r3, #0]
    2f9e:	bd70      	pop	{r4, r5, r6, pc}
    2fa0:	b1c2      	cbz	r2, 2fd4 <AjK::MODSERIAL::__putc(int, bool)+0x68>
    2fa2:	685e      	ldr	r6, [r3, #4]
    2fa4:	685a      	ldr	r2, [r3, #4]
    2fa6:	f022 0202 	bic.w	r2, r2, #2
    2faa:	605a      	str	r2, [r3, #4]
    2fac:	f8d4 2088 	ldr.w	r2, [r4, #136]	; 0x88
    2fb0:	f8d4 3080 	ldr.w	r3, [r4, #128]	; 0x80
    2fb4:	429a      	cmp	r2, r3
    2fb6:	d109      	bne.n	2fcc <AjK::MODSERIAL::__putc(int, bool)+0x60>
    2fb8:	4620      	mov	r0, r4
    2fba:	2100      	movs	r1, #0
    2fbc:	f000 f8d2 	bl	3164 <AjK::MODSERIAL::isr_tx(bool)>
    2fc0:	f8d4 2088 	ldr.w	r2, [r4, #136]	; 0x88
    2fc4:	f8d4 3080 	ldr.w	r3, [r4, #128]	; 0x80
    2fc8:	429a      	cmp	r2, r3
    2fca:	d0f5      	beq.n	2fb8 <AjK::MODSERIAL::__putc(int, bool)+0x4c>
    2fcc:	6de3      	ldr	r3, [r4, #92]	; 0x5c
    2fce:	605e      	str	r6, [r3, #4]
    2fd0:	6de3      	ldr	r3, [r4, #92]	; 0x5c
    2fd2:	e005      	b.n	2fe0 <AjK::MODSERIAL::__putc(int, bool)+0x74>
    2fd4:	f8d4 1088 	ldr.w	r1, [r4, #136]	; 0x88
    2fd8:	f8d4 2080 	ldr.w	r2, [r4, #128]	; 0x80
    2fdc:	4291      	cmp	r1, r2
    2fde:	d020      	beq.n	3022 <AjK::MODSERIAL::__putc(int, bool)+0xb6>
    2fe0:	685a      	ldr	r2, [r3, #4]
    2fe2:	b2ed      	uxtb	r5, r5
    2fe4:	f022 0202 	bic.w	r2, r2, #2
    2fe8:	605a      	str	r2, [r3, #4]
    2fea:	6f23      	ldr	r3, [r4, #112]	; 0x70
    2fec:	6ea2      	ldr	r2, [r4, #104]	; 0x68
    2fee:	54d5      	strb	r5, [r2, r3]
    2ff0:	b672      	cpsid	i
    2ff2:	f8d4 3088 	ldr.w	r3, [r4, #136]	; 0x88
    2ff6:	3301      	adds	r3, #1
    2ff8:	f8c4 3088 	str.w	r3, [r4, #136]	; 0x88
    2ffc:	b662      	cpsie	i
    2ffe:	6f23      	ldr	r3, [r4, #112]	; 0x70
    3000:	2000      	movs	r0, #0
    3002:	3301      	adds	r3, #1
    3004:	6723      	str	r3, [r4, #112]	; 0x70
    3006:	6f22      	ldr	r2, [r4, #112]	; 0x70
    3008:	f8d4 3080 	ldr.w	r3, [r4, #128]	; 0x80
    300c:	429a      	cmp	r2, r3
    300e:	bfa8      	it	ge
    3010:	2300      	movge	r3, #0
    3012:	6de2      	ldr	r2, [r4, #92]	; 0x5c
    3014:	bfa8      	it	ge
    3016:	6723      	strge	r3, [r4, #112]	; 0x70
    3018:	6853      	ldr	r3, [r2, #4]
    301a:	f043 0302 	orr.w	r3, r3, #2
    301e:	6053      	str	r3, [r2, #4]
    3020:	bd70      	pop	{r4, r5, r6, pc}
    3022:	f104 00c8 	add.w	r0, r4, #200	; 0xc8
    3026:	f8c4 5090 	str.w	r5, [r4, #144]	; 0x90
    302a:	f104 0158 	add.w	r1, r4, #88	; 0x58
    302e:	f7ff ff7d 	bl	2f2c <AjK::MODSERIAL_callback::call(AjK::MODSERIAL_IRQ_INFO*)>
    3032:	f04f 30ff 	mov.w	r0, #4294967295
    3036:	bd70      	pop	{r4, r5, r6, pc}

00003038 <void mbed::FunctionPointerArg1<void, void>::membercaller<AjK::MODSERIAL>(void*, unsigned int*)>:
    3038:	684b      	ldr	r3, [r1, #4]
    303a:	07da      	lsls	r2, r3, #31
    303c:	d505      	bpl.n	304a <void mbed::FunctionPointerArg1<void, void>::membercaller<AjK::MODSERIAL>(void*, unsigned int*)+0x12>
    303e:	105b      	asrs	r3, r3, #1
    3040:	680a      	ldr	r2, [r1, #0]
    3042:	58c1      	ldr	r1, [r0, r3]
    3044:	4418      	add	r0, r3
    3046:	588a      	ldr	r2, [r1, r2]
    3048:	4710      	bx	r2
    304a:	680a      	ldr	r2, [r1, #0]
    304c:	eb00 0063 	add.w	r0, r0, r3, asr #1
    3050:	4710      	bx	r2
    3052:	bf00      	nop

00003054 <AjK::MODSERIAL::isr_tx()>:
    3054:	2101      	movs	r1, #1
    3056:	f000 b885 	b.w	3164 <AjK::MODSERIAL::isr_tx(bool)>
    305a:	bf00      	nop

0000305c <AjK::MODSERIAL::init(int, int, PinName)>:
    305c:	b5f8      	push	{r3, r4, r5, r6, r7, lr}
    305e:	4604      	mov	r4, r0
    3060:	f890 50f8 	ldrb.w	r5, [r0, #248]	; 0xf8
    3064:	2601      	movs	r6, #1
    3066:	b26b      	sxtb	r3, r5
    3068:	095b      	lsrs	r3, r3, #5
    306a:	f005 051f 	and.w	r5, r5, #31
    306e:	4f38      	ldr	r7, [pc, #224]	; (3150 <AjK::MODSERIAL::init(int, int, PinName)+0xf4>)
    3070:	3320      	adds	r3, #32
    3072:	fa06 f505 	lsl.w	r5, r6, r5
    3076:	f847 5023 	str.w	r5, [r7, r3, lsl #2]
    307a:	4616      	mov	r6, r2
    307c:	460d      	mov	r5, r1
    307e:	f000 f90b 	bl	3298 <AjK::MODSERIAL::setBase()>
    3082:	6de3      	ldr	r3, [r4, #92]	; 0x5c
    3084:	65a4      	str	r4, [r4, #88]	; 0x58
    3086:	2b00      	cmp	r3, #0
    3088:	d05e      	beq.n	3148 <AjK::MODSERIAL::init(int, int, PinName)+0xec>
    308a:	2e00      	cmp	r6, #0
    308c:	67e6      	str	r6, [r4, #124]	; 0x7c
    308e:	dd47      	ble.n	3120 <AjK::MODSERIAL::init(int, int, PinName)+0xc4>
    3090:	6fe0      	ldr	r0, [r4, #124]	; 0x7c
    3092:	f7ff fd95 	bl	2bc0 <__wrap_malloc>
    3096:	2100      	movs	r1, #0
    3098:	66e1      	str	r1, [r4, #108]	; 0x6c
    309a:	6660      	str	r0, [r4, #100]	; 0x64
    309c:	6761      	str	r1, [r4, #116]	; 0x74
    309e:	f8c4 1084 	str.w	r1, [r4, #132]	; 0x84
    30a2:	f8c4 108c 	str.w	r1, [r4, #140]	; 0x8c
    30a6:	2c00      	cmp	r4, #0
    30a8:	d042      	beq.n	3130 <AjK::MODSERIAL::init(int, int, PinName)+0xd4>
    30aa:	4a2a      	ldr	r2, [pc, #168]	; (3154 <AjK::MODSERIAL::init(int, int, PinName)+0xf8>)
    30ac:	4b2a      	ldr	r3, [pc, #168]	; (3158 <AjK::MODSERIAL::init(int, int, PinName)+0xfc>)
    30ae:	1d26      	adds	r6, r4, #4
    30b0:	6122      	str	r2, [r4, #16]
    30b2:	60e4      	str	r4, [r4, #12]
    30b4:	6161      	str	r1, [r4, #20]
    30b6:	6223      	str	r3, [r4, #32]
    30b8:	4630      	mov	r0, r6
    30ba:	2201      	movs	r2, #1
    30bc:	f000 ffac 	bl	4018 <serial_irq_set>
    30c0:	2d00      	cmp	r5, #0
    30c2:	f8c4 5080 	str.w	r5, [r4, #128]	; 0x80
    30c6:	dd3d      	ble.n	3144 <AjK::MODSERIAL::init(int, int, PinName)+0xe8>
    30c8:	f8d4 0080 	ldr.w	r0, [r4, #128]	; 0x80
    30cc:	f7ff fd78 	bl	2bc0 <__wrap_malloc>
    30d0:	4a22      	ldr	r2, [pc, #136]	; (315c <AjK::MODSERIAL::init(int, int, PinName)+0x100>)
    30d2:	2300      	movs	r3, #0
    30d4:	6723      	str	r3, [r4, #112]	; 0x70
    30d6:	66a0      	str	r0, [r4, #104]	; 0x68
    30d8:	67a3      	str	r3, [r4, #120]	; 0x78
    30da:	f8c4 3088 	str.w	r3, [r4, #136]	; 0x88
    30de:	f8c4 3090 	str.w	r3, [r4, #144]	; 0x90
    30e2:	b1fa      	cbz	r2, 3124 <AjK::MODSERIAL::init(int, int, PinName)+0xc8>
    30e4:	b1f4      	cbz	r4, 3124 <AjK::MODSERIAL::init(int, int, PinName)+0xc8>
    30e6:	4d1c      	ldr	r5, [pc, #112]	; (3158 <AjK::MODSERIAL::init(int, int, PinName)+0xfc>)
    30e8:	2101      	movs	r1, #1
    30ea:	62a2      	str	r2, [r4, #40]	; 0x28
    30ec:	6264      	str	r4, [r4, #36]	; 0x24
    30ee:	62e3      	str	r3, [r4, #44]	; 0x2c
    30f0:	4630      	mov	r0, r6
    30f2:	63a5      	str	r5, [r4, #56]	; 0x38
    30f4:	460a      	mov	r2, r1
    30f6:	f000 ff8f 	bl	4018 <serial_irq_set>
    30fa:	4620      	mov	r0, r4
    30fc:	f000 f8f8 	bl	32f0 <AjK::MODSERIAL::initDevice()>
    3100:	f894 30f8 	ldrb.w	r3, [r4, #248]	; 0xf8
    3104:	2101      	movs	r1, #1
    3106:	b25a      	sxtb	r2, r3
    3108:	f003 031f 	and.w	r3, r3, #31
    310c:	fa01 f303 	lsl.w	r3, r1, r3
    3110:	480f      	ldr	r0, [pc, #60]	; (3150 <AjK::MODSERIAL::init(int, int, PinName)+0xf4>)
    3112:	2100      	movs	r1, #0
    3114:	0952      	lsrs	r2, r2, #5
    3116:	f884 1094 	strb.w	r1, [r4, #148]	; 0x94
    311a:	f840 3022 	str.w	r3, [r0, r2, lsl #2]
    311e:	bdf8      	pop	{r3, r4, r5, r6, r7, pc}
    3120:	2000      	movs	r0, #0
    3122:	e7b8      	b.n	3096 <AjK::MODSERIAL::init(int, int, PinName)+0x3a>
    3124:	4630      	mov	r0, r6
    3126:	2101      	movs	r1, #1
    3128:	2200      	movs	r2, #0
    312a:	f000 ff75 	bl	4018 <serial_irq_set>
    312e:	e7e4      	b.n	30fa <AjK::MODSERIAL::init(int, int, PinName)+0x9e>
    3130:	2604      	movs	r6, #4
    3132:	4630      	mov	r0, r6
    3134:	4621      	mov	r1, r4
    3136:	4622      	mov	r2, r4
    3138:	f000 ff6e 	bl	4018 <serial_irq_set>
    313c:	2d00      	cmp	r5, #0
    313e:	f8c4 5080 	str.w	r5, [r4, #128]	; 0x80
    3142:	dcc1      	bgt.n	30c8 <AjK::MODSERIAL::init(int, int, PinName)+0x6c>
    3144:	2000      	movs	r0, #0
    3146:	e7c3      	b.n	30d0 <AjK::MODSERIAL::init(int, int, PinName)+0x74>
    3148:	4805      	ldr	r0, [pc, #20]	; (3160 <AjK::MODSERIAL::init(int, int, PinName)+0x104>)
    314a:	f000 f90f 	bl	336c <error>
    314e:	e7d4      	b.n	30fa <AjK::MODSERIAL::init(int, int, PinName)+0x9e>
    3150:	e000e100 	.word	0xe000e100
    3154:	00002ca1 	.word	0x00002ca1
    3158:	00003039 	.word	0x00003039
    315c:	00003055 	.word	0x00003055
    3160:	000077c4 	.word	0x000077c4

00003164 <AjK::MODSERIAL::isr_tx(bool)>:
    3164:	6dc3      	ldr	r3, [r0, #92]	; 0x5c
    3166:	e92d 41f0 	stmdb	sp!, {r4, r5, r6, r7, r8, lr}
    316a:	2b00      	cmp	r3, #0
    316c:	d037      	beq.n	31de <AjK::MODSERIAL::isr_tx(bool)+0x7a>
    316e:	f8d0 3080 	ldr.w	r3, [r0, #128]	; 0x80
    3172:	2b00      	cmp	r3, #0
    3174:	d033      	beq.n	31de <AjK::MODSERIAL::isr_tx(bool)+0x7a>
    3176:	6e83      	ldr	r3, [r0, #104]	; 0x68
    3178:	2b00      	cmp	r3, #0
    317a:	d030      	beq.n	31de <AjK::MODSERIAL::isr_tx(bool)+0x7a>
    317c:	460d      	mov	r5, r1
    317e:	4604      	mov	r4, r0
    3180:	2700      	movs	r7, #0
    3182:	f100 0658 	add.w	r6, r0, #88	; 0x58
    3186:	f8d4 3088 	ldr.w	r3, [r4, #136]	; 0x88
    318a:	b31b      	cbz	r3, 31d4 <AjK::MODSERIAL::isr_tx(bool)+0x70>
    318c:	6de3      	ldr	r3, [r4, #92]	; 0x5c
    318e:	7d1a      	ldrb	r2, [r3, #20]
    3190:	0692      	lsls	r2, r2, #26
    3192:	d51f      	bpl.n	31d4 <AjK::MODSERIAL::isr_tx(bool)+0x70>
    3194:	6fa2      	ldr	r2, [r4, #120]	; 0x78
    3196:	6ea1      	ldr	r1, [r4, #104]	; 0x68
    3198:	5c8a      	ldrb	r2, [r1, r2]
    319a:	b2d2      	uxtb	r2, r2
    319c:	f884 2060 	strb.w	r2, [r4, #96]	; 0x60
    31a0:	701a      	strb	r2, [r3, #0]
    31a2:	f8d4 3088 	ldr.w	r3, [r4, #136]	; 0x88
    31a6:	3b01      	subs	r3, #1
    31a8:	f8c4 3088 	str.w	r3, [r4, #136]	; 0x88
    31ac:	6fa3      	ldr	r3, [r4, #120]	; 0x78
    31ae:	3301      	adds	r3, #1
    31b0:	67a3      	str	r3, [r4, #120]	; 0x78
    31b2:	6fa2      	ldr	r2, [r4, #120]	; 0x78
    31b4:	f8d4 3080 	ldr.w	r3, [r4, #128]	; 0x80
    31b8:	429a      	cmp	r2, r3
    31ba:	db00      	blt.n	31be <AjK::MODSERIAL::isr_tx(bool)+0x5a>
    31bc:	67a7      	str	r7, [r4, #120]	; 0x78
    31be:	2d00      	cmp	r5, #0
    31c0:	d0e1      	beq.n	3186 <AjK::MODSERIAL::isr_tx(bool)+0x22>
    31c2:	f8d4 30a8 	ldr.w	r3, [r4, #168]	; 0xa8
    31c6:	b37b      	cbz	r3, 3228 <AjK::MODSERIAL::isr_tx(bool)+0xc4>
    31c8:	4630      	mov	r0, r6
    31ca:	4798      	blx	r3
    31cc:	f8d4 3088 	ldr.w	r3, [r4, #136]	; 0x88
    31d0:	2b00      	cmp	r3, #0
    31d2:	d1db      	bne.n	318c <AjK::MODSERIAL::isr_tx(bool)+0x28>
    31d4:	f8d4 3088 	ldr.w	r3, [r4, #136]	; 0x88
    31d8:	b153      	cbz	r3, 31f0 <AjK::MODSERIAL::isr_tx(bool)+0x8c>
    31da:	e8bd 81f0 	ldmia.w	sp!, {r4, r5, r6, r7, r8, pc}
    31de:	f8d0 30a8 	ldr.w	r3, [r0, #168]	; 0xa8
    31e2:	f100 0158 	add.w	r1, r0, #88	; 0x58
    31e6:	b37b      	cbz	r3, 3248 <AjK::MODSERIAL::isr_tx(bool)+0xe4>
    31e8:	e8bd 41f0 	ldmia.w	sp!, {r4, r5, r6, r7, r8, lr}
    31ec:	4608      	mov	r0, r1
    31ee:	4718      	bx	r3
    31f0:	6de2      	ldr	r2, [r4, #92]	; 0x5c
    31f2:	f104 0158 	add.w	r1, r4, #88	; 0x58
    31f6:	6853      	ldr	r3, [r2, #4]
    31f8:	f023 0302 	bic.w	r3, r3, #2
    31fc:	6053      	str	r3, [r2, #4]
    31fe:	f8d4 30d8 	ldr.w	r3, [r4, #216]	; 0xd8
    3202:	2b00      	cmp	r3, #0
    3204:	d1f0      	bne.n	31e8 <AjK::MODSERIAL::isr_tx(bool)+0x84>
    3206:	f8d4 00dc 	ldr.w	r0, [r4, #220]	; 0xdc
    320a:	2800      	cmp	r0, #0
    320c:	d0e5      	beq.n	31da <AjK::MODSERIAL::isr_tx(bool)+0x76>
    320e:	f8d4 20e0 	ldr.w	r2, [r4, #224]	; 0xe0
    3212:	f8d4 30e4 	ldr.w	r3, [r4, #228]	; 0xe4
    3216:	2a00      	cmp	r2, #0
    3218:	d035      	beq.n	3286 <AjK::MODSERIAL::isr_tx(bool)+0x122>
    321a:	07dc      	lsls	r4, r3, #31
    321c:	d429      	bmi.n	3272 <AjK::MODSERIAL::isr_tx(bool)+0x10e>
    321e:	eb00 0063 	add.w	r0, r0, r3, asr #1
    3222:	e8bd 41f0 	ldmia.w	sp!, {r4, r5, r6, r7, r8, lr}
    3226:	4710      	bx	r2
    3228:	f8d4 00ac 	ldr.w	r0, [r4, #172]	; 0xac
    322c:	2800      	cmp	r0, #0
    322e:	d0aa      	beq.n	3186 <AjK::MODSERIAL::isr_tx(bool)+0x22>
    3230:	f8d4 20b0 	ldr.w	r2, [r4, #176]	; 0xb0
    3234:	f8d4 30b4 	ldr.w	r3, [r4, #180]	; 0xb4
    3238:	b1a2      	cbz	r2, 3264 <AjK::MODSERIAL::isr_tx(bool)+0x100>
    323a:	07d9      	lsls	r1, r3, #31
    323c:	d414      	bmi.n	3268 <AjK::MODSERIAL::isr_tx(bool)+0x104>
    323e:	eb00 0063 	add.w	r0, r0, r3, asr #1
    3242:	4631      	mov	r1, r6
    3244:	4790      	blx	r2
    3246:	e79e      	b.n	3186 <AjK::MODSERIAL::isr_tx(bool)+0x22>
    3248:	f8d0 30ac 	ldr.w	r3, [r0, #172]	; 0xac
    324c:	2b00      	cmp	r3, #0
    324e:	d0c4      	beq.n	31da <AjK::MODSERIAL::isr_tx(bool)+0x76>
    3250:	f8d0 20b0 	ldr.w	r2, [r0, #176]	; 0xb0
    3254:	f8d0 00b4 	ldr.w	r0, [r0, #180]	; 0xb4
    3258:	b1ca      	cbz	r2, 328e <AjK::MODSERIAL::isr_tx(bool)+0x12a>
    325a:	07c4      	lsls	r4, r0, #31
    325c:	d40e      	bmi.n	327c <AjK::MODSERIAL::isr_tx(bool)+0x118>
    325e:	eb03 0060 	add.w	r0, r3, r0, asr #1
    3262:	e7de      	b.n	3222 <AjK::MODSERIAL::isr_tx(bool)+0xbe>
    3264:	07d9      	lsls	r1, r3, #31
    3266:	d58e      	bpl.n	3186 <AjK::MODSERIAL::isr_tx(bool)+0x22>
    3268:	105b      	asrs	r3, r3, #1
    326a:	58c1      	ldr	r1, [r0, r3]
    326c:	4418      	add	r0, r3
    326e:	588a      	ldr	r2, [r1, r2]
    3270:	e7e7      	b.n	3242 <AjK::MODSERIAL::isr_tx(bool)+0xde>
    3272:	105b      	asrs	r3, r3, #1
    3274:	58c4      	ldr	r4, [r0, r3]
    3276:	4418      	add	r0, r3
    3278:	58a2      	ldr	r2, [r4, r2]
    327a:	e7d2      	b.n	3222 <AjK::MODSERIAL::isr_tx(bool)+0xbe>
    327c:	1040      	asrs	r0, r0, #1
    327e:	581c      	ldr	r4, [r3, r0]
    3280:	4418      	add	r0, r3
    3282:	58a2      	ldr	r2, [r4, r2]
    3284:	e7cd      	b.n	3222 <AjK::MODSERIAL::isr_tx(bool)+0xbe>
    3286:	07dd      	lsls	r5, r3, #31
    3288:	d4f3      	bmi.n	3272 <AjK::MODSERIAL::isr_tx(bool)+0x10e>
    328a:	e8bd 81f0 	ldmia.w	sp!, {r4, r5, r6, r7, r8, pc}
    328e:	07c5      	lsls	r5, r0, #31
    3290:	d4f4      	bmi.n	327c <AjK::MODSERIAL::isr_tx(bool)+0x118>
    3292:	e8bd 81f0 	ldmia.w	sp!, {r4, r5, r6, r7, r8, pc}
    3296:	bf00      	nop

00003298 <AjK::MODSERIAL::setBase()>:
    3298:	6883      	ldr	r3, [r0, #8]
    329a:	2b03      	cmp	r3, #3
    329c:	d81b      	bhi.n	32d6 <AjK::MODSERIAL::setBase()+0x3e>
    329e:	e8df f003 	tbb	[pc, r3]
    32a2:	0e14      	.short	0x0e14
    32a4:	0208      	.short	0x0208
    32a6:	4a0e      	ldr	r2, [pc, #56]	; (32e0 <AjK::MODSERIAL::setBase()+0x48>)
    32a8:	2308      	movs	r3, #8
    32aa:	65c2      	str	r2, [r0, #92]	; 0x5c
    32ac:	f880 30f8 	strb.w	r3, [r0, #248]	; 0xf8
    32b0:	4770      	bx	lr
    32b2:	4a0c      	ldr	r2, [pc, #48]	; (32e4 <AjK::MODSERIAL::setBase()+0x4c>)
    32b4:	2307      	movs	r3, #7
    32b6:	65c2      	str	r2, [r0, #92]	; 0x5c
    32b8:	f880 30f8 	strb.w	r3, [r0, #248]	; 0xf8
    32bc:	4770      	bx	lr
    32be:	4a0a      	ldr	r2, [pc, #40]	; (32e8 <AjK::MODSERIAL::setBase()+0x50>)
    32c0:	2306      	movs	r3, #6
    32c2:	65c2      	str	r2, [r0, #92]	; 0x5c
    32c4:	f880 30f8 	strb.w	r3, [r0, #248]	; 0xf8
    32c8:	4770      	bx	lr
    32ca:	4a08      	ldr	r2, [pc, #32]	; (32ec <AjK::MODSERIAL::setBase()+0x54>)
    32cc:	2305      	movs	r3, #5
    32ce:	65c2      	str	r2, [r0, #92]	; 0x5c
    32d0:	f880 30f8 	strb.w	r3, [r0, #248]	; 0xf8
    32d4:	4770      	bx	lr
    32d6:	2300      	movs	r3, #0
    32d8:	65c3      	str	r3, [r0, #92]	; 0x5c
    32da:	f880 30f8 	strb.w	r3, [r0, #248]	; 0xf8
    32de:	4770      	bx	lr
    32e0:	4009c000 	.word	0x4009c000
    32e4:	40098000 	.word	0x40098000
    32e8:	40010000 	.word	0x40010000
    32ec:	4000c000 	.word	0x4000c000

000032f0 <AjK::MODSERIAL::initDevice()>:
    32f0:	6dc3      	ldr	r3, [r0, #92]	; 0x5c
    32f2:	2207      	movs	r2, #7
    32f4:	721a      	strb	r2, [r3, #8]
    32f6:	4770      	bx	lr

000032f8 <mbed_die>:
    32f8:	b500      	push	{lr}
    32fa:	b099      	sub	sp, #100	; 0x64
    32fc:	b672      	cpsid	i
    32fe:	4917      	ldr	r1, [pc, #92]	; (335c <mbed_die+0x64>)
    3300:	4668      	mov	r0, sp
    3302:	f000 f857 	bl	33b4 <gpio_init_out>
    3306:	a806      	add	r0, sp, #24
    3308:	4915      	ldr	r1, [pc, #84]	; (3360 <mbed_die+0x68>)
    330a:	f000 f853 	bl	33b4 <gpio_init_out>
    330e:	a80c      	add	r0, sp, #48	; 0x30
    3310:	4914      	ldr	r1, [pc, #80]	; (3364 <mbed_die+0x6c>)
    3312:	f000 f84f 	bl	33b4 <gpio_init_out>
    3316:	a812      	add	r0, sp, #72	; 0x48
    3318:	4913      	ldr	r1, [pc, #76]	; (3368 <mbed_die+0x70>)
    331a:	f000 f84b 	bl	33b4 <gpio_init_out>
    331e:	9a03      	ldr	r2, [sp, #12]
    3320:	9901      	ldr	r1, [sp, #4]
    3322:	9b0a      	ldr	r3, [sp, #40]	; 0x28
    3324:	6011      	str	r1, [r2, #0]
    3326:	9907      	ldr	r1, [sp, #28]
    3328:	9a10      	ldr	r2, [sp, #64]	; 0x40
    332a:	6019      	str	r1, [r3, #0]
    332c:	990d      	ldr	r1, [sp, #52]	; 0x34
    332e:	9b15      	ldr	r3, [sp, #84]	; 0x54
    3330:	6011      	str	r1, [r2, #0]
    3332:	9a13      	ldr	r2, [sp, #76]	; 0x4c
    3334:	2096      	movs	r0, #150	; 0x96
    3336:	601a      	str	r2, [r3, #0]
    3338:	f000 f970 	bl	361c <wait_ms>
    333c:	9a04      	ldr	r2, [sp, #16]
    333e:	9901      	ldr	r1, [sp, #4]
    3340:	9b09      	ldr	r3, [sp, #36]	; 0x24
    3342:	6011      	str	r1, [r2, #0]
    3344:	9907      	ldr	r1, [sp, #28]
    3346:	9a0f      	ldr	r2, [sp, #60]	; 0x3c
    3348:	6019      	str	r1, [r3, #0]
    334a:	990d      	ldr	r1, [sp, #52]	; 0x34
    334c:	9b16      	ldr	r3, [sp, #88]	; 0x58
    334e:	6011      	str	r1, [r2, #0]
    3350:	9a13      	ldr	r2, [sp, #76]	; 0x4c
    3352:	2096      	movs	r0, #150	; 0x96
    3354:	601a      	str	r2, [r3, #0]
    3356:	f000 f961 	bl	361c <wait_ms>
    335a:	e7e0      	b.n	331e <mbed_die+0x26>
    335c:	2009c032 	.word	0x2009c032
    3360:	2009c034 	.word	0x2009c034
    3364:	2009c035 	.word	0x2009c035
    3368:	2009c037 	.word	0x2009c037

0000336c <error>:
    336c:	b40f      	push	{r0, r1, r2, r3}
    336e:	b500      	push	{lr}
    3370:	4a06      	ldr	r2, [pc, #24]	; (338c <error+0x20>)
    3372:	b083      	sub	sp, #12
    3374:	ab04      	add	r3, sp, #16
    3376:	f853 1b04 	ldr.w	r1, [r3], #4
    337a:	6810      	ldr	r0, [r2, #0]
    337c:	461a      	mov	r2, r3
    337e:	68c0      	ldr	r0, [r0, #12]
    3380:	9301      	str	r3, [sp, #4]
    3382:	f002 fddd 	bl	5f40 <vfiprintf>
    3386:	2001      	movs	r0, #1
    3388:	f002 f854 	bl	5434 <exit>
    338c:	10000154 	.word	0x10000154

00003390 <gpio_init_in>:
    3390:	b538      	push	{r3, r4, r5, lr}
    3392:	460d      	mov	r5, r1
    3394:	4604      	mov	r4, r0
    3396:	f000 f9c1 	bl	371c <gpio_init>
    339a:	3501      	adds	r5, #1
    339c:	d009      	beq.n	33b2 <gpio_init_in+0x22>
    339e:	4620      	mov	r0, r4
    33a0:	2100      	movs	r1, #0
    33a2:	f000 f9dd 	bl	3760 <gpio_dir>
    33a6:	4620      	mov	r0, r4
    33a8:	e8bd 4038 	ldmia.w	sp!, {r3, r4, r5, lr}
    33ac:	2103      	movs	r1, #3
    33ae:	f000 b9d3 	b.w	3758 <gpio_mode>
    33b2:	bd38      	pop	{r3, r4, r5, pc}

000033b4 <gpio_init_out>:
    33b4:	b538      	push	{r3, r4, r5, lr}
    33b6:	460d      	mov	r5, r1
    33b8:	4604      	mov	r4, r0
    33ba:	f000 f9af 	bl	371c <gpio_init>
    33be:	3501      	adds	r5, #1
    33c0:	d00c      	beq.n	33dc <gpio_init_out+0x28>
    33c2:	6923      	ldr	r3, [r4, #16]
    33c4:	6862      	ldr	r2, [r4, #4]
    33c6:	4620      	mov	r0, r4
    33c8:	601a      	str	r2, [r3, #0]
    33ca:	2101      	movs	r1, #1
    33cc:	f000 f9c8 	bl	3760 <gpio_dir>
    33d0:	4620      	mov	r0, r4
    33d2:	e8bd 4038 	ldmia.w	sp!, {r3, r4, r5, lr}
    33d6:	2102      	movs	r1, #2
    33d8:	f000 b9be 	b.w	3758 <gpio_mode>
    33dc:	bd38      	pop	{r3, r4, r5, pc}
    33de:	bf00      	nop

000033e0 <gpio_init_out_ex>:
    33e0:	b570      	push	{r4, r5, r6, lr}
    33e2:	460d      	mov	r5, r1
    33e4:	4616      	mov	r6, r2
    33e6:	4604      	mov	r4, r0
    33e8:	f000 f998 	bl	371c <gpio_init>
    33ec:	3501      	adds	r5, #1
    33ee:	d011      	beq.n	3414 <gpio_init_out_ex+0x34>
    33f0:	b966      	cbnz	r6, 340c <gpio_init_out_ex+0x2c>
    33f2:	6923      	ldr	r3, [r4, #16]
    33f4:	6862      	ldr	r2, [r4, #4]
    33f6:	601a      	str	r2, [r3, #0]
    33f8:	4620      	mov	r0, r4
    33fa:	2101      	movs	r1, #1
    33fc:	f000 f9b0 	bl	3760 <gpio_dir>
    3400:	4620      	mov	r0, r4
    3402:	e8bd 4070 	ldmia.w	sp!, {r4, r5, r6, lr}
    3406:	2102      	movs	r1, #2
    3408:	f000 b9a6 	b.w	3758 <gpio_mode>
    340c:	68e3      	ldr	r3, [r4, #12]
    340e:	6862      	ldr	r2, [r4, #4]
    3410:	601a      	str	r2, [r3, #0]
    3412:	e7f1      	b.n	33f8 <gpio_init_out_ex+0x18>
    3414:	bd70      	pop	{r4, r5, r6, pc}
    3416:	bf00      	nop

00003418 <mbed_interface_connected>:
    3418:	f000 b866 	b.w	34e8 <semihost_connected>

0000341c <pinmap_pinout>:
    341c:	1c43      	adds	r3, r0, #1
    341e:	b510      	push	{r4, lr}
    3420:	4604      	mov	r4, r0
    3422:	d018      	beq.n	3456 <pinmap_pinout+0x3a>
    3424:	680b      	ldr	r3, [r1, #0]
    3426:	1c58      	adds	r0, r3, #1
    3428:	d104      	bne.n	3434 <pinmap_pinout+0x18>
    342a:	e00f      	b.n	344c <pinmap_pinout+0x30>
    342c:	f851 3f0c 	ldr.w	r3, [r1, #12]!
    3430:	1c5a      	adds	r2, r3, #1
    3432:	d00b      	beq.n	344c <pinmap_pinout+0x30>
    3434:	429c      	cmp	r4, r3
    3436:	d1f9      	bne.n	342c <pinmap_pinout+0x10>
    3438:	4620      	mov	r0, r4
    343a:	6889      	ldr	r1, [r1, #8]
    343c:	f000 fada 	bl	39f4 <pin_function>
    3440:	4620      	mov	r0, r4
    3442:	e8bd 4010 	ldmia.w	sp!, {r4, lr}
    3446:	2102      	movs	r1, #2
    3448:	f000 baf0 	b.w	3a2c <pin_mode>
    344c:	4802      	ldr	r0, [pc, #8]	; (3458 <pinmap_pinout+0x3c>)
    344e:	e8bd 4010 	ldmia.w	sp!, {r4, lr}
    3452:	f7ff bf8b 	b.w	336c <error>
    3456:	bd10      	pop	{r4, pc}
    3458:	000077f4 	.word	0x000077f4

0000345c <pinmap_merge>:
    345c:	4288      	cmp	r0, r1
    345e:	d00a      	beq.n	3476 <pinmap_merge+0x1a>
    3460:	1c42      	adds	r2, r0, #1
    3462:	d009      	beq.n	3478 <pinmap_merge+0x1c>
    3464:	3101      	adds	r1, #1
    3466:	d006      	beq.n	3476 <pinmap_merge+0x1a>
    3468:	b508      	push	{r3, lr}
    346a:	4804      	ldr	r0, [pc, #16]	; (347c <pinmap_merge+0x20>)
    346c:	f7ff ff7e 	bl	336c <error>
    3470:	f04f 30ff 	mov.w	r0, #4294967295
    3474:	bd08      	pop	{r3, pc}
    3476:	4770      	bx	lr
    3478:	4608      	mov	r0, r1
    347a:	4770      	bx	lr
    347c:	00007808 	.word	0x00007808

00003480 <pinmap_find_peripheral>:
    3480:	680b      	ldr	r3, [r1, #0]
    3482:	1c5a      	adds	r2, r3, #1
    3484:	d104      	bne.n	3490 <pinmap_find_peripheral+0x10>
    3486:	e007      	b.n	3498 <pinmap_find_peripheral+0x18>
    3488:	f851 3f0c 	ldr.w	r3, [r1, #12]!
    348c:	1c5a      	adds	r2, r3, #1
    348e:	d003      	beq.n	3498 <pinmap_find_peripheral+0x18>
    3490:	4283      	cmp	r3, r0
    3492:	d1f9      	bne.n	3488 <pinmap_find_peripheral+0x8>
    3494:	6848      	ldr	r0, [r1, #4]
    3496:	4770      	bx	lr
    3498:	4618      	mov	r0, r3
    349a:	4770      	bx	lr

0000349c <pinmap_peripheral>:
    349c:	1c42      	adds	r2, r0, #1
    349e:	d00e      	beq.n	34be <pinmap_peripheral+0x22>
    34a0:	b508      	push	{r3, lr}
    34a2:	680b      	ldr	r3, [r1, #0]
    34a4:	1c5a      	adds	r2, r3, #1
    34a6:	d104      	bne.n	34b2 <pinmap_peripheral+0x16>
    34a8:	e00a      	b.n	34c0 <pinmap_peripheral+0x24>
    34aa:	f851 3f0c 	ldr.w	r3, [r1, #12]!
    34ae:	1c5a      	adds	r2, r3, #1
    34b0:	d006      	beq.n	34c0 <pinmap_peripheral+0x24>
    34b2:	4298      	cmp	r0, r3
    34b4:	d1f9      	bne.n	34aa <pinmap_peripheral+0xe>
    34b6:	6848      	ldr	r0, [r1, #4]
    34b8:	1c41      	adds	r1, r0, #1
    34ba:	d001      	beq.n	34c0 <pinmap_peripheral+0x24>
    34bc:	bd08      	pop	{r3, pc}
    34be:	4770      	bx	lr
    34c0:	4802      	ldr	r0, [pc, #8]	; (34cc <pinmap_peripheral+0x30>)
    34c2:	f7ff ff53 	bl	336c <error>
    34c6:	f04f 30ff 	mov.w	r0, #4294967295
    34ca:	e7f7      	b.n	34bc <pinmap_peripheral+0x20>
    34cc:	0000781c 	.word	0x0000781c

000034d0 <semihost_exit>:
    34d0:	b530      	push	{r4, r5, lr}
    34d2:	b085      	sub	sp, #20
    34d4:	2418      	movs	r4, #24
    34d6:	466d      	mov	r5, sp
    34d8:	4620      	mov	r0, r4
    34da:	4629      	mov	r1, r5
    34dc:	beab      	bkpt	0x00ab
    34de:	4604      	mov	r4, r0
    34e0:	4620      	mov	r0, r4
    34e2:	b005      	add	sp, #20
    34e4:	bd30      	pop	{r4, r5, pc}
    34e6:	bf00      	nop

000034e8 <semihost_connected>:
    34e8:	4b02      	ldr	r3, [pc, #8]	; (34f4 <semihost_connected+0xc>)
    34ea:	6818      	ldr	r0, [r3, #0]
    34ec:	f000 0001 	and.w	r0, r0, #1
    34f0:	4770      	bx	lr
    34f2:	bf00      	nop
    34f4:	e000edf0 	.word	0xe000edf0

000034f8 <ticker_set_handler>:
    34f8:	b538      	push	{r3, r4, r5, lr}
    34fa:	4604      	mov	r4, r0
    34fc:	460d      	mov	r5, r1
    34fe:	6803      	ldr	r3, [r0, #0]
    3500:	681b      	ldr	r3, [r3, #0]
    3502:	4798      	blx	r3
    3504:	6863      	ldr	r3, [r4, #4]
    3506:	601d      	str	r5, [r3, #0]
    3508:	bd38      	pop	{r3, r4, r5, pc}
    350a:	bf00      	nop

0000350c <ticker_irq_handler>:
    350c:	6803      	ldr	r3, [r0, #0]
    350e:	b570      	push	{r4, r5, r6, lr}
    3510:	68db      	ldr	r3, [r3, #12]
    3512:	4605      	mov	r5, r0
    3514:	4798      	blx	r3
    3516:	686b      	ldr	r3, [r5, #4]
    3518:	685b      	ldr	r3, [r3, #4]
    351a:	b183      	cbz	r3, 353e <ticker_irq_handler+0x32>
    351c:	682a      	ldr	r2, [r5, #0]
    351e:	681c      	ldr	r4, [r3, #0]
    3520:	6853      	ldr	r3, [r2, #4]
    3522:	4798      	blx	r3
    3524:	1a20      	subs	r0, r4, r0
    3526:	2800      	cmp	r0, #0
    3528:	686a      	ldr	r2, [r5, #4]
    352a:	dc0d      	bgt.n	3548 <ticker_irq_handler+0x3c>
    352c:	6850      	ldr	r0, [r2, #4]
    352e:	6811      	ldr	r1, [r2, #0]
    3530:	6883      	ldr	r3, [r0, #8]
    3532:	6053      	str	r3, [r2, #4]
    3534:	2900      	cmp	r1, #0
    3536:	d0f0      	beq.n	351a <ticker_irq_handler+0xe>
    3538:	6840      	ldr	r0, [r0, #4]
    353a:	4788      	blx	r1
    353c:	e7eb      	b.n	3516 <ticker_irq_handler+0xa>
    353e:	682b      	ldr	r3, [r5, #0]
    3540:	e8bd 4070 	ldmia.w	sp!, {r4, r5, r6, lr}
    3544:	689b      	ldr	r3, [r3, #8]
    3546:	4718      	bx	r3
    3548:	682b      	ldr	r3, [r5, #0]
    354a:	6852      	ldr	r2, [r2, #4]
    354c:	691b      	ldr	r3, [r3, #16]
    354e:	6810      	ldr	r0, [r2, #0]
    3550:	e8bd 4070 	ldmia.w	sp!, {r4, r5, r6, lr}
    3554:	4718      	bx	r3
    3556:	bf00      	nop

00003558 <ticker_insert_event>:
    3558:	b530      	push	{r4, r5, lr}
    355a:	b083      	sub	sp, #12
    355c:	b672      	cpsid	i
    355e:	6844      	ldr	r4, [r0, #4]
    3560:	600a      	str	r2, [r1, #0]
    3562:	6865      	ldr	r5, [r4, #4]
    3564:	604b      	str	r3, [r1, #4]
    3566:	b18d      	cbz	r5, 358c <ticker_insert_event+0x34>
    3568:	682b      	ldr	r3, [r5, #0]
    356a:	1ad3      	subs	r3, r2, r3
    356c:	2b00      	cmp	r3, #0
    356e:	da05      	bge.n	357c <ticker_insert_event+0x24>
    3570:	e00c      	b.n	358c <ticker_insert_event+0x34>
    3572:	681c      	ldr	r4, [r3, #0]
    3574:	1b14      	subs	r4, r2, r4
    3576:	2c00      	cmp	r4, #0
    3578:	db03      	blt.n	3582 <ticker_insert_event+0x2a>
    357a:	461d      	mov	r5, r3
    357c:	68ab      	ldr	r3, [r5, #8]
    357e:	2b00      	cmp	r3, #0
    3580:	d1f7      	bne.n	3572 <ticker_insert_event+0x1a>
    3582:	60a9      	str	r1, [r5, #8]
    3584:	608b      	str	r3, [r1, #8]
    3586:	b662      	cpsie	i
    3588:	b003      	add	sp, #12
    358a:	bd30      	pop	{r4, r5, pc}
    358c:	6803      	ldr	r3, [r0, #0]
    358e:	6061      	str	r1, [r4, #4]
    3590:	691b      	ldr	r3, [r3, #16]
    3592:	4610      	mov	r0, r2
    3594:	9101      	str	r1, [sp, #4]
    3596:	4798      	blx	r3
    3598:	462b      	mov	r3, r5
    359a:	9901      	ldr	r1, [sp, #4]
    359c:	e7f2      	b.n	3584 <ticker_insert_event+0x2c>
    359e:	bf00      	nop

000035a0 <ticker_remove_event>:
    35a0:	b508      	push	{r3, lr}
    35a2:	b672      	cpsid	i
    35a4:	6843      	ldr	r3, [r0, #4]
    35a6:	685a      	ldr	r2, [r3, #4]
    35a8:	428a      	cmp	r2, r1
    35aa:	d011      	beq.n	35d0 <ticker_remove_event+0x30>
    35ac:	b14a      	cbz	r2, 35c2 <ticker_remove_event+0x22>
    35ae:	6893      	ldr	r3, [r2, #8]
    35b0:	428b      	cmp	r3, r1
    35b2:	d008      	beq.n	35c6 <ticker_remove_event+0x26>
    35b4:	b12b      	cbz	r3, 35c2 <ticker_remove_event+0x22>
    35b6:	689a      	ldr	r2, [r3, #8]
    35b8:	428a      	cmp	r2, r1
    35ba:	d005      	beq.n	35c8 <ticker_remove_event+0x28>
    35bc:	4613      	mov	r3, r2
    35be:	2b00      	cmp	r3, #0
    35c0:	d1f9      	bne.n	35b6 <ticker_remove_event+0x16>
    35c2:	b662      	cpsie	i
    35c4:	bd08      	pop	{r3, pc}
    35c6:	4613      	mov	r3, r2
    35c8:	688a      	ldr	r2, [r1, #8]
    35ca:	609a      	str	r2, [r3, #8]
    35cc:	b662      	cpsie	i
    35ce:	bd08      	pop	{r3, pc}
    35d0:	6892      	ldr	r2, [r2, #8]
    35d2:	605a      	str	r2, [r3, #4]
    35d4:	6803      	ldr	r3, [r0, #0]
    35d6:	b122      	cbz	r2, 35e2 <ticker_remove_event+0x42>
    35d8:	6810      	ldr	r0, [r2, #0]
    35da:	691b      	ldr	r3, [r3, #16]
    35dc:	4798      	blx	r3
    35de:	b662      	cpsie	i
    35e0:	bd08      	pop	{r3, pc}
    35e2:	689b      	ldr	r3, [r3, #8]
    35e4:	4798      	blx	r3
    35e6:	e7ec      	b.n	35c2 <ticker_remove_event+0x22>

000035e8 <ticker_read>:
    35e8:	6803      	ldr	r3, [r0, #0]
    35ea:	685b      	ldr	r3, [r3, #4]
    35ec:	4718      	bx	r3
    35ee:	bf00      	nop

000035f0 <get_us_ticker_data>:
    35f0:	4800      	ldr	r0, [pc, #0]	; (35f4 <get_us_ticker_data+0x4>)
    35f2:	4770      	bx	lr
    35f4:	00007870 	.word	0x00007870

000035f8 <us_ticker_irq_handler>:
    35f8:	4801      	ldr	r0, [pc, #4]	; (3600 <us_ticker_irq_handler+0x8>)
    35fa:	f7ff bf87 	b.w	350c <ticker_irq_handler>
    35fe:	bf00      	nop
    3600:	00007870 	.word	0x00007870

00003604 <wait_us>:
    3604:	b538      	push	{r3, r4, r5, lr}
    3606:	4605      	mov	r5, r0
    3608:	f000 ff1a 	bl	4440 <us_ticker_read>
    360c:	4604      	mov	r4, r0
    360e:	f000 ff17 	bl	4440 <us_ticker_read>
    3612:	1b00      	subs	r0, r0, r4
    3614:	42a8      	cmp	r0, r5
    3616:	d3fa      	bcc.n	360e <wait_us+0xa>
    3618:	bd38      	pop	{r3, r4, r5, pc}
    361a:	bf00      	nop

0000361c <wait_ms>:
    361c:	f44f 737a 	mov.w	r3, #1000	; 0x3e8
    3620:	fb03 f000 	mul.w	r0, r3, r0
    3624:	f7ff bfee 	b.w	3604 <wait_us>

00003628 <NVIC_SetVector>:
    3628:	4b0c      	ldr	r3, [pc, #48]	; (365c <NVIC_SetVector+0x34>)
    362a:	b430      	push	{r4, r5}
    362c:	689d      	ldr	r5, [r3, #8]
    362e:	689a      	ldr	r2, [r3, #8]
    3630:	462b      	mov	r3, r5
    3632:	f1b2 5f80 	cmp.w	r2, #268435456	; 0x10000000
    3636:	d20c      	bcs.n	3652 <NVIC_SetVector+0x2a>
    3638:	4a09      	ldr	r2, [pc, #36]	; (3660 <NVIC_SetVector+0x38>)
    363a:	35c4      	adds	r5, #196	; 0xc4
    363c:	f853 4b04 	ldr.w	r4, [r3], #4
    3640:	42ab      	cmp	r3, r5
    3642:	f842 4f04 	str.w	r4, [r2, #4]!
    3646:	d1f9      	bne.n	363c <NVIC_SetVector+0x14>
    3648:	f04f 5280 	mov.w	r2, #268435456	; 0x10000000
    364c:	4613      	mov	r3, r2
    364e:	4c03      	ldr	r4, [pc, #12]	; (365c <NVIC_SetVector+0x34>)
    3650:	60a2      	str	r2, [r4, #8]
    3652:	3010      	adds	r0, #16
    3654:	f843 1020 	str.w	r1, [r3, r0, lsl #2]
    3658:	bc30      	pop	{r4, r5}
    365a:	4770      	bx	lr
    365c:	e000ed00 	.word	0xe000ed00
    3660:	0ffffffc 	.word	0x0ffffffc

00003664 <SystemInit>:
    3664:	4a2b      	ldr	r2, [pc, #172]	; (3714 <SystemInit+0xb0>)
    3666:	2320      	movs	r3, #32
    3668:	b4f0      	push	{r4, r5, r6, r7}
    366a:	f8c2 31a0 	str.w	r3, [r2, #416]	; 0x1a0
    366e:	f8d2 31a0 	ldr.w	r3, [r2, #416]	; 0x1a0
    3672:	0698      	lsls	r0, r3, #26
    3674:	d445      	bmi.n	3702 <SystemInit+0x9e>
    3676:	4b27      	ldr	r3, [pc, #156]	; (3714 <SystemInit+0xb0>)
    3678:	2500      	movs	r5, #0
    367a:	4619      	mov	r1, r3
    367c:	2401      	movs	r4, #1
    367e:	20aa      	movs	r0, #170	; 0xaa
    3680:	2255      	movs	r2, #85	; 0x55
    3682:	2702      	movs	r7, #2
    3684:	260b      	movs	r6, #11
    3686:	f8c3 7104 	str.w	r7, [r3, #260]	; 0x104
    368a:	f8c3 51a8 	str.w	r5, [r3, #424]	; 0x1a8
    368e:	f8c3 51ac 	str.w	r5, [r3, #428]	; 0x1ac
    3692:	f8c3 410c 	str.w	r4, [r3, #268]	; 0x10c
    3696:	f8c3 6084 	str.w	r6, [r3, #132]	; 0x84
    369a:	f8c3 008c 	str.w	r0, [r3, #140]	; 0x8c
    369e:	f8c3 208c 	str.w	r2, [r3, #140]	; 0x8c
    36a2:	f8c3 4080 	str.w	r4, [r3, #128]	; 0x80
    36a6:	f8c3 008c 	str.w	r0, [r3, #140]	; 0x8c
    36aa:	f8c3 208c 	str.w	r2, [r3, #140]	; 0x8c
    36ae:	f8d1 3088 	ldr.w	r3, [r1, #136]	; 0x88
    36b2:	4a18      	ldr	r2, [pc, #96]	; (3714 <SystemInit+0xb0>)
    36b4:	015b      	lsls	r3, r3, #5
    36b6:	d5fa      	bpl.n	36ae <SystemInit+0x4a>
    36b8:	4611      	mov	r1, r2
    36ba:	2403      	movs	r4, #3
    36bc:	20aa      	movs	r0, #170	; 0xaa
    36be:	2355      	movs	r3, #85	; 0x55
    36c0:	f8c2 4080 	str.w	r4, [r2, #128]	; 0x80
    36c4:	f8c2 008c 	str.w	r0, [r2, #140]	; 0x8c
    36c8:	f8c2 308c 	str.w	r3, [r2, #140]	; 0x8c
    36cc:	f8d1 3088 	ldr.w	r3, [r1, #136]	; 0x88
    36d0:	4a10      	ldr	r2, [pc, #64]	; (3714 <SystemInit+0xb0>)
    36d2:	f013 7f40 	tst.w	r3, #50331648	; 0x3000000
    36d6:	d0f9      	beq.n	36cc <SystemInit+0x68>
    36d8:	490f      	ldr	r1, [pc, #60]	; (3718 <SystemInit+0xb4>)
    36da:	2300      	movs	r3, #0
    36dc:	2005      	movs	r0, #5
    36de:	f8c2 0108 	str.w	r0, [r2, #264]	; 0x108
    36e2:	f8c2 10c4 	str.w	r1, [r2, #196]	; 0xc4
    36e6:	f8c2 31c8 	str.w	r3, [r2, #456]	; 0x1c8
    36ea:	6813      	ldr	r3, [r2, #0]
    36ec:	bcf0      	pop	{r4, r5, r6, r7}
    36ee:	f423 4370 	bic.w	r3, r3, #61440	; 0xf000
    36f2:	f023 033a 	bic.w	r3, r3, #58	; 0x3a
    36f6:	f443 5340 	orr.w	r3, r3, #12288	; 0x3000
    36fa:	f043 033a 	orr.w	r3, r3, #58	; 0x3a
    36fe:	6013      	str	r3, [r2, #0]
    3700:	4770      	bx	lr
    3702:	f8d2 31a0 	ldr.w	r3, [r2, #416]	; 0x1a0
    3706:	0659      	lsls	r1, r3, #25
    3708:	d4b5      	bmi.n	3676 <SystemInit+0x12>
    370a:	f8d2 31a0 	ldr.w	r3, [r2, #416]	; 0x1a0
    370e:	0659      	lsls	r1, r3, #25
    3710:	d5f7      	bpl.n	3702 <SystemInit+0x9e>
    3712:	e7b0      	b.n	3676 <SystemInit+0x12>
    3714:	400fc000 	.word	0x400fc000
    3718:	042887de 	.word	0x042887de

0000371c <gpio_init>:
    371c:	1c4a      	adds	r2, r1, #1
    371e:	6001      	str	r1, [r0, #0]
    3720:	d018      	beq.n	3754 <gpio_init+0x38>
    3722:	b538      	push	{r3, r4, r5, lr}
    3724:	460c      	mov	r4, r1
    3726:	4605      	mov	r5, r0
    3728:	4608      	mov	r0, r1
    372a:	2100      	movs	r1, #0
    372c:	f000 f962 	bl	39f4 <pin_function>
    3730:	f024 011f 	bic.w	r1, r4, #31
    3734:	f004 021f 	and.w	r2, r4, #31
    3738:	2301      	movs	r3, #1
    373a:	4093      	lsls	r3, r2
    373c:	f101 0418 	add.w	r4, r1, #24
    3740:	f101 001c 	add.w	r0, r1, #28
    3744:	f101 0214 	add.w	r2, r1, #20
    3748:	60a9      	str	r1, [r5, #8]
    374a:	606b      	str	r3, [r5, #4]
    374c:	60ec      	str	r4, [r5, #12]
    374e:	6128      	str	r0, [r5, #16]
    3750:	616a      	str	r2, [r5, #20]
    3752:	bd38      	pop	{r3, r4, r5, pc}
    3754:	4770      	bx	lr
    3756:	bf00      	nop

00003758 <gpio_mode>:
    3758:	6800      	ldr	r0, [r0, #0]
    375a:	f000 b967 	b.w	3a2c <pin_mode>
    375e:	bf00      	nop

00003760 <gpio_dir>:
    3760:	b141      	cbz	r1, 3774 <gpio_dir+0x14>
    3762:	2901      	cmp	r1, #1
    3764:	d105      	bne.n	3772 <gpio_dir+0x12>
    3766:	6882      	ldr	r2, [r0, #8]
    3768:	6843      	ldr	r3, [r0, #4]
    376a:	6811      	ldr	r1, [r2, #0]
    376c:	430b      	orrs	r3, r1
    376e:	6013      	str	r3, [r2, #0]
    3770:	4770      	bx	lr
    3772:	4770      	bx	lr
    3774:	6882      	ldr	r2, [r0, #8]
    3776:	6841      	ldr	r1, [r0, #4]
    3778:	6813      	ldr	r3, [r2, #0]
    377a:	ea23 0301 	bic.w	r3, r3, r1
    377e:	6013      	str	r3, [r2, #0]
    3780:	4770      	bx	lr
    3782:	bf00      	nop

00003784 <handle_interrupt_in>:
    3784:	e92d 4ff0 	stmdb	sp!, {r4, r5, r6, r7, r8, r9, r10, r11, lr}
    3788:	4b43      	ldr	r3, [pc, #268]	; (3898 <handle_interrupt_in+0x114>)
    378a:	b083      	sub	sp, #12
    378c:	f8d3 8004 	ldr.w	r8, [r3, #4]
    3790:	689f      	ldr	r7, [r3, #8]
    3792:	6a5e      	ldr	r6, [r3, #36]	; 0x24
    3794:	6a9d      	ldr	r5, [r3, #40]	; 0x28
    3796:	f1b8 0f00 	cmp.w	r8, #0
    379a:	d022      	beq.n	37e2 <handle_interrupt_in+0x5e>
    379c:	469a      	mov	r10, r3
    379e:	f8df 9100 	ldr.w	r9, [pc, #256]	; 38a0 <handle_interrupt_in+0x11c>
    37a2:	4a3e      	ldr	r2, [pc, #248]	; (389c <handle_interrupt_in+0x118>)
    37a4:	f04f 0b01 	mov.w	r11, #1
    37a8:	e006      	b.n	37b8 <handle_interrupt_in+0x34>
    37aa:	fa0b f304 	lsl.w	r3, r11, r4
    37ae:	ebb8 0803 	subs.w	r8, r8, r3
    37b2:	f8ca 300c 	str.w	r3, [r10, #12]
    37b6:	d014      	beq.n	37e2 <handle_interrupt_in+0x5e>
    37b8:	fab8 f488 	clz	r4, r8
    37bc:	f1c4 041f 	rsb	r4, r4, #31
    37c0:	b2e4      	uxtb	r4, r4
    37c2:	f859 0024 	ldr.w	r0, [r9, r4, lsl #2]
    37c6:	2800      	cmp	r0, #0
    37c8:	d0ef      	beq.n	37aa <handle_interrupt_in+0x26>
    37ca:	6813      	ldr	r3, [r2, #0]
    37cc:	2101      	movs	r1, #1
    37ce:	9201      	str	r2, [sp, #4]
    37d0:	4798      	blx	r3
    37d2:	fa0b f304 	lsl.w	r3, r11, r4
    37d6:	ebb8 0803 	subs.w	r8, r8, r3
    37da:	9a01      	ldr	r2, [sp, #4]
    37dc:	f8ca 300c 	str.w	r3, [r10, #12]
    37e0:	d1ea      	bne.n	37b8 <handle_interrupt_in+0x34>
    37e2:	b1d7      	cbz	r7, 381a <handle_interrupt_in+0x96>
    37e4:	f8df 90b8 	ldr.w	r9, [pc, #184]	; 38a0 <handle_interrupt_in+0x11c>
    37e8:	f8df a0b0 	ldr.w	r10, [pc, #176]	; 389c <handle_interrupt_in+0x118>
    37ec:	f8df 80a8 	ldr.w	r8, [pc, #168]	; 3898 <handle_interrupt_in+0x114>
    37f0:	e005      	b.n	37fe <handle_interrupt_in+0x7a>
    37f2:	2301      	movs	r3, #1
    37f4:	40a3      	lsls	r3, r4
    37f6:	1aff      	subs	r7, r7, r3
    37f8:	f8c8 300c 	str.w	r3, [r8, #12]
    37fc:	d00d      	beq.n	381a <handle_interrupt_in+0x96>
    37fe:	fab7 f487 	clz	r4, r7
    3802:	f1c4 041f 	rsb	r4, r4, #31
    3806:	b2e4      	uxtb	r4, r4
    3808:	f859 0024 	ldr.w	r0, [r9, r4, lsl #2]
    380c:	2800      	cmp	r0, #0
    380e:	d0f0      	beq.n	37f2 <handle_interrupt_in+0x6e>
    3810:	f8da 3000 	ldr.w	r3, [r10]
    3814:	2102      	movs	r1, #2
    3816:	4798      	blx	r3
    3818:	e7eb      	b.n	37f2 <handle_interrupt_in+0x6e>
    381a:	b1e6      	cbz	r6, 3856 <handle_interrupt_in+0xd2>
    381c:	f8df 8080 	ldr.w	r8, [pc, #128]	; 38a0 <handle_interrupt_in+0x11c>
    3820:	f8df 9078 	ldr.w	r9, [pc, #120]	; 389c <handle_interrupt_in+0x118>
    3824:	4f1c      	ldr	r7, [pc, #112]	; (3898 <handle_interrupt_in+0x114>)
    3826:	e004      	b.n	3832 <handle_interrupt_in+0xae>
    3828:	2301      	movs	r3, #1
    382a:	40a3      	lsls	r3, r4
    382c:	1af6      	subs	r6, r6, r3
    382e:	62fb      	str	r3, [r7, #44]	; 0x2c
    3830:	d011      	beq.n	3856 <handle_interrupt_in+0xd2>
    3832:	fab6 f486 	clz	r4, r6
    3836:	f1c4 041f 	rsb	r4, r4, #31
    383a:	b2e4      	uxtb	r4, r4
    383c:	2c0f      	cmp	r4, #15
    383e:	f104 0320 	add.w	r3, r4, #32
    3842:	d8f1      	bhi.n	3828 <handle_interrupt_in+0xa4>
    3844:	f858 0023 	ldr.w	r0, [r8, r3, lsl #2]
    3848:	2800      	cmp	r0, #0
    384a:	d0ed      	beq.n	3828 <handle_interrupt_in+0xa4>
    384c:	f8d9 3000 	ldr.w	r3, [r9]
    3850:	2101      	movs	r1, #1
    3852:	4798      	blx	r3
    3854:	e7e8      	b.n	3828 <handle_interrupt_in+0xa4>
    3856:	b1dd      	cbz	r5, 3890 <handle_interrupt_in+0x10c>
    3858:	4f11      	ldr	r7, [pc, #68]	; (38a0 <handle_interrupt_in+0x11c>)
    385a:	f8df 8040 	ldr.w	r8, [pc, #64]	; 389c <handle_interrupt_in+0x118>
    385e:	4e0e      	ldr	r6, [pc, #56]	; (3898 <handle_interrupt_in+0x114>)
    3860:	e004      	b.n	386c <handle_interrupt_in+0xe8>
    3862:	2301      	movs	r3, #1
    3864:	40a3      	lsls	r3, r4
    3866:	1aed      	subs	r5, r5, r3
    3868:	62f3      	str	r3, [r6, #44]	; 0x2c
    386a:	d011      	beq.n	3890 <handle_interrupt_in+0x10c>
    386c:	fab5 f485 	clz	r4, r5
    3870:	f1c4 041f 	rsb	r4, r4, #31
    3874:	b2e4      	uxtb	r4, r4
    3876:	2c0f      	cmp	r4, #15
    3878:	f104 0320 	add.w	r3, r4, #32
    387c:	d8f1      	bhi.n	3862 <handle_interrupt_in+0xde>
    387e:	f857 0023 	ldr.w	r0, [r7, r3, lsl #2]
    3882:	2800      	cmp	r0, #0
    3884:	d0ed      	beq.n	3862 <handle_interrupt_in+0xde>
    3886:	f8d8 3000 	ldr.w	r3, [r8]
    388a:	2102      	movs	r1, #2
    388c:	4798      	blx	r3
    388e:	e7e8      	b.n	3862 <handle_interrupt_in+0xde>
    3890:	b003      	add	sp, #12
    3892:	e8bd 8ff0 	ldmia.w	sp!, {r4, r5, r6, r7, r8, r9, r10, r11, pc}
    3896:	bf00      	nop
    3898:	40028080 	.word	0x40028080
    389c:	10000ae8 	.word	0x10000ae8
    38a0:	10000aec 	.word	0x10000aec

000038a4 <gpio_irq_init>:
    38a4:	f1b1 3fff 	cmp.w	r1, #4294967295
    38a8:	d028      	beq.n	38fc <gpio_irq_init+0x58>
    38aa:	b5f8      	push	{r3, r4, r5, r6, r7, lr}
    38ac:	4604      	mov	r4, r0
    38ae:	461e      	mov	r6, r3
    38b0:	4b13      	ldr	r3, [pc, #76]	; (3900 <gpio_irq_init+0x5c>)
    38b2:	f021 051f 	bic.w	r5, r1, #31
    38b6:	f001 001f 	and.w	r0, r1, #31
    38ba:	4f12      	ldr	r7, [pc, #72]	; (3904 <gpio_irq_init+0x60>)
    38bc:	f021 015f 	bic.w	r1, r1, #95	; 0x5f
    38c0:	4299      	cmp	r1, r3
    38c2:	603a      	str	r2, [r7, #0]
    38c4:	6025      	str	r5, [r4, #0]
    38c6:	6060      	str	r0, [r4, #4]
    38c8:	d004      	beq.n	38d4 <gpio_irq_init+0x30>
    38ca:	480f      	ldr	r0, [pc, #60]	; (3908 <gpio_irq_init+0x64>)
    38cc:	f7ff fd4e 	bl	336c <error>
    38d0:	6825      	ldr	r5, [r4, #0]
    38d2:	6860      	ldr	r0, [r4, #4]
    38d4:	4b0a      	ldr	r3, [pc, #40]	; (3900 <gpio_irq_init+0x5c>)
    38d6:	490d      	ldr	r1, [pc, #52]	; (390c <gpio_irq_init+0x68>)
    38d8:	429d      	cmp	r5, r3
    38da:	bf0c      	ite	eq
    38dc:	4602      	moveq	r2, r0
    38de:	f100 0220 	addne.w	r2, r0, #32
    38e2:	4b0b      	ldr	r3, [pc, #44]	; (3910 <gpio_irq_init+0x6c>)
    38e4:	60a2      	str	r2, [r4, #8]
    38e6:	2015      	movs	r0, #21
    38e8:	f843 6022 	str.w	r6, [r3, r2, lsl #2]
    38ec:	f7ff fe9c 	bl	3628 <NVIC_SetVector>
    38f0:	4b08      	ldr	r3, [pc, #32]	; (3914 <gpio_irq_init+0x70>)
    38f2:	f44f 1200 	mov.w	r2, #2097152	; 0x200000
    38f6:	601a      	str	r2, [r3, #0]
    38f8:	2000      	movs	r0, #0
    38fa:	bdf8      	pop	{r3, r4, r5, r6, r7, pc}
    38fc:	4608      	mov	r0, r1
    38fe:	4770      	bx	lr
    3900:	2009c000 	.word	0x2009c000
    3904:	10000ae8 	.word	0x10000ae8
    3908:	00007878 	.word	0x00007878
    390c:	00003785 	.word	0x00003785
    3910:	10000aec 	.word	0x10000aec
    3914:	e000e100 	.word	0xe000e100

00003918 <gpio_irq_free>:
    3918:	6882      	ldr	r2, [r0, #8]
    391a:	4b02      	ldr	r3, [pc, #8]	; (3924 <gpio_irq_free+0xc>)
    391c:	2100      	movs	r1, #0
    391e:	f843 1022 	str.w	r1, [r3, r2, lsl #2]
    3922:	4770      	bx	lr
    3924:	10000aec 	.word	0x10000aec

00003928 <gpio_irq_set>:
    3928:	b430      	push	{r4, r5}
    392a:	6803      	ldr	r3, [r0, #0]
    392c:	4c2e      	ldr	r4, [pc, #184]	; (39e8 <gpio_irq_set+0xc0>)
    392e:	42a3      	cmp	r3, r4
    3930:	d01d      	beq.n	396e <gpio_irq_set+0x46>
    3932:	4d2e      	ldr	r5, [pc, #184]	; (39ec <gpio_irq_set+0xc4>)
    3934:	42ab      	cmp	r3, r5
    3936:	d112      	bne.n	395e <gpio_irq_set+0x36>
    3938:	6845      	ldr	r5, [r0, #4]
    393a:	2301      	movs	r3, #1
    393c:	4c2c      	ldr	r4, [pc, #176]	; (39f0 <gpio_irq_set+0xc8>)
    393e:	40ab      	lsls	r3, r5
    3940:	2901      	cmp	r1, #1
    3942:	62e3      	str	r3, [r4, #44]	; 0x2c
    3944:	d02b      	beq.n	399e <gpio_irq_set+0x76>
    3946:	492a      	ldr	r1, [pc, #168]	; (39f0 <gpio_irq_set+0xc8>)
    3948:	6840      	ldr	r0, [r0, #4]
    394a:	2301      	movs	r3, #1
    394c:	2a00      	cmp	r2, #0
    394e:	d133      	bne.n	39b8 <gpio_irq_set+0x90>
    3950:	bc30      	pop	{r4, r5}
    3952:	6b4a      	ldr	r2, [r1, #52]	; 0x34
    3954:	4083      	lsls	r3, r0
    3956:	ea22 0303 	bic.w	r3, r2, r3
    395a:	634b      	str	r3, [r1, #52]	; 0x34
    395c:	4770      	bx	lr
    395e:	2901      	cmp	r1, #1
    3960:	d016      	beq.n	3990 <gpio_irq_set+0x68>
    3962:	42a3      	cmp	r3, r4
    3964:	d00a      	beq.n	397c <gpio_irq_set+0x54>
    3966:	42ab      	cmp	r3, r5
    3968:	d0ed      	beq.n	3946 <gpio_irq_set+0x1e>
    396a:	bc30      	pop	{r4, r5}
    396c:	4770      	bx	lr
    396e:	6845      	ldr	r5, [r0, #4]
    3970:	2301      	movs	r3, #1
    3972:	4c1f      	ldr	r4, [pc, #124]	; (39f0 <gpio_irq_set+0xc8>)
    3974:	40ab      	lsls	r3, r5
    3976:	2901      	cmp	r1, #1
    3978:	60e3      	str	r3, [r4, #12]
    397a:	d025      	beq.n	39c8 <gpio_irq_set+0xa0>
    397c:	491c      	ldr	r1, [pc, #112]	; (39f0 <gpio_irq_set+0xc8>)
    397e:	6840      	ldr	r0, [r0, #4]
    3980:	2301      	movs	r3, #1
    3982:	b192      	cbz	r2, 39aa <gpio_irq_set+0x82>
    3984:	bc30      	pop	{r4, r5}
    3986:	694a      	ldr	r2, [r1, #20]
    3988:	4083      	lsls	r3, r0
    398a:	4313      	orrs	r3, r2
    398c:	614b      	str	r3, [r1, #20]
    398e:	4770      	bx	lr
    3990:	42a3      	cmp	r3, r4
    3992:	d016      	beq.n	39c2 <gpio_irq_set+0x9a>
    3994:	42ab      	cmp	r3, r5
    3996:	d1e8      	bne.n	396a <gpio_irq_set+0x42>
    3998:	6843      	ldr	r3, [r0, #4]
    399a:	fa01 f303 	lsl.w	r3, r1, r3
    399e:	4914      	ldr	r1, [pc, #80]	; (39f0 <gpio_irq_set+0xc8>)
    39a0:	b1ea      	cbz	r2, 39de <gpio_irq_set+0xb6>
    39a2:	6b0a      	ldr	r2, [r1, #48]	; 0x30
    39a4:	4313      	orrs	r3, r2
    39a6:	630b      	str	r3, [r1, #48]	; 0x30
    39a8:	e7df      	b.n	396a <gpio_irq_set+0x42>
    39aa:	694a      	ldr	r2, [r1, #20]
    39ac:	4083      	lsls	r3, r0
    39ae:	ea22 0303 	bic.w	r3, r2, r3
    39b2:	614b      	str	r3, [r1, #20]
    39b4:	bc30      	pop	{r4, r5}
    39b6:	4770      	bx	lr
    39b8:	6b4a      	ldr	r2, [r1, #52]	; 0x34
    39ba:	4083      	lsls	r3, r0
    39bc:	4313      	orrs	r3, r2
    39be:	634b      	str	r3, [r1, #52]	; 0x34
    39c0:	e7d3      	b.n	396a <gpio_irq_set+0x42>
    39c2:	6843      	ldr	r3, [r0, #4]
    39c4:	fa01 f303 	lsl.w	r3, r1, r3
    39c8:	4909      	ldr	r1, [pc, #36]	; (39f0 <gpio_irq_set+0xc8>)
    39ca:	b11a      	cbz	r2, 39d4 <gpio_irq_set+0xac>
    39cc:	690a      	ldr	r2, [r1, #16]
    39ce:	4313      	orrs	r3, r2
    39d0:	610b      	str	r3, [r1, #16]
    39d2:	e7ca      	b.n	396a <gpio_irq_set+0x42>
    39d4:	690a      	ldr	r2, [r1, #16]
    39d6:	ea22 0303 	bic.w	r3, r2, r3
    39da:	610b      	str	r3, [r1, #16]
    39dc:	e7c5      	b.n	396a <gpio_irq_set+0x42>
    39de:	6b0a      	ldr	r2, [r1, #48]	; 0x30
    39e0:	ea22 0303 	bic.w	r3, r2, r3
    39e4:	630b      	str	r3, [r1, #48]	; 0x30
    39e6:	e7c0      	b.n	396a <gpio_irq_set+0x42>
    39e8:	2009c000 	.word	0x2009c000
    39ec:	2009c040 	.word	0x2009c040
    39f0:	40028080 	.word	0x40028080

000039f4 <pin_function>:
    39f4:	f100 4060 	add.w	r0, r0, #3758096384	; 0xe0000000
    39f8:	f5a0 201c 	sub.w	r0, r0, #638976	; 0x9c000
    39fc:	0903      	lsrs	r3, r0, #4
    39fe:	009b      	lsls	r3, r3, #2
    3a00:	f103 4380 	add.w	r3, r3, #1073741824	; 0x40000000
    3a04:	f503 3330 	add.w	r3, r3, #180224	; 0x2c000
    3a08:	f000 000f 	and.w	r0, r0, #15
    3a0c:	b410      	push	{r4}
    3a0e:	0040      	lsls	r0, r0, #1
    3a10:	681c      	ldr	r4, [r3, #0]
    3a12:	2203      	movs	r2, #3
    3a14:	4082      	lsls	r2, r0
    3a16:	ea24 0202 	bic.w	r2, r4, r2
    3a1a:	601a      	str	r2, [r3, #0]
    3a1c:	681a      	ldr	r2, [r3, #0]
    3a1e:	4081      	lsls	r1, r0
    3a20:	430a      	orrs	r2, r1
    3a22:	601a      	str	r2, [r3, #0]
    3a24:	f85d 4b04 	ldr.w	r4, [sp], #4
    3a28:	4770      	bx	lr
    3a2a:	bf00      	nop

00003a2c <pin_mode>:
