
LPC1768/YOZAKURA_THETA_ARM.elf:     file format elf32-littlearm
architecture: arm, flags 0x00000112:
EXEC_P, HAS_SYMS, D_PAGED
start address 0x00007b81


Disassembly of section .text:

00000000 <__isr_vector>:
       0:	10008000 	.word	0x10008000
       4:	00007b81 	.word	0x00007b81
       8:	00007bb1 	.word	0x00007bb1
       c:	00007bb3 	.word	0x00007bb3
      10:	00007bb5 	.word	0x00007bb5
      14:	00007bb7 	.word	0x00007bb7
      18:	00007bb9 	.word	0x00007bb9
	...
      2c:	00007bbb 	.word	0x00007bbb
      30:	00007bbd 	.word	0x00007bbd
      34:	00000000 	.word	0x00000000
      38:	00007bbf 	.word	0x00007bbf
      3c:	00007bc1 	.word	0x00007bc1
      40:	00007bc3 	.word	0x00007bc3
      44:	00007bc3 	.word	0x00007bc3
      48:	00007bc3 	.word	0x00007bc3
      4c:	00007bc3 	.word	0x00007bc3
      50:	00007bc3 	.word	0x00007bc3
      54:	00007bc3 	.word	0x00007bc3
      58:	00007bc3 	.word	0x00007bc3
      5c:	00007bc3 	.word	0x00007bc3
      60:	00007bc3 	.word	0x00007bc3
      64:	00007bc3 	.word	0x00007bc3
      68:	00007bc3 	.word	0x00007bc3
      6c:	00007bc3 	.word	0x00007bc3
      70:	00007bc3 	.word	0x00007bc3
      74:	00007bc3 	.word	0x00007bc3
      78:	00007bc3 	.word	0x00007bc3
      7c:	00007bc3 	.word	0x00007bc3
      80:	00007bc3 	.word	0x00007bc3
      84:	00007bc3 	.word	0x00007bc3
      88:	00007bc3 	.word	0x00007bc3
      8c:	00007bc3 	.word	0x00007bc3
      90:	00007bc3 	.word	0x00007bc3
      94:	00007bc3 	.word	0x00007bc3
      98:	00007bc3 	.word	0x00007bc3
      9c:	00007bc3 	.word	0x00007bc3
      a0:	00007bc3 	.word	0x00007bc3
      a4:	00007bc3 	.word	0x00007bc3
      a8:	00007bc3 	.word	0x00007bc3
      ac:	00007bc3 	.word	0x00007bc3
      b0:	00007bc3 	.word	0x00007bc3
      b4:	00007bc3 	.word	0x00007bc3
      b8:	00007bc3 	.word	0x00007bc3
      bc:	00007bc3 	.word	0x00007bc3
      c0:	00007bc3 	.word	0x00007bc3
      c4:	00007bc3 	.word	0x00007bc3
      c8:	00007bc3 	.word	0x00007bc3

000000cc <deregister_tm_clones>:
      cc:	4b04      	ldr	r3, [pc, #16]	; (e0 <deregister_tm_clones+0x14>)
      ce:	4805      	ldr	r0, [pc, #20]	; (e4 <deregister_tm_clones+0x18>)
      d0:	1a1b      	subs	r3, r3, r0
      d2:	2b06      	cmp	r3, #6
      d4:	d902      	bls.n	dc <deregister_tm_clones+0x10>
      d6:	4b04      	ldr	r3, [pc, #16]	; (e8 <deregister_tm_clones+0x1c>)
      d8:	b103      	cbz	r3, dc <deregister_tm_clones+0x10>
      da:	4718      	bx	r3
      dc:	4770      	bx	lr
      de:	bf00      	nop
      e0:	100001af 	.word	0x100001af
      e4:	100001ac 	.word	0x100001ac
      e8:	00000000 	.word	0x00000000

000000ec <register_tm_clones>:
      ec:	4905      	ldr	r1, [pc, #20]	; (104 <register_tm_clones+0x18>)
      ee:	4806      	ldr	r0, [pc, #24]	; (108 <register_tm_clones+0x1c>)
      f0:	1a09      	subs	r1, r1, r0
      f2:	1089      	asrs	r1, r1, #2
      f4:	eb01 71d1 	add.w	r1, r1, r1, lsr #31
      f8:	1049      	asrs	r1, r1, #1
      fa:	d002      	beq.n	102 <register_tm_clones+0x16>
      fc:	4b03      	ldr	r3, [pc, #12]	; (10c <register_tm_clones+0x20>)
      fe:	b103      	cbz	r3, 102 <register_tm_clones+0x16>
     100:	4718      	bx	r3
     102:	4770      	bx	lr
     104:	100001ac 	.word	0x100001ac
     108:	100001ac 	.word	0x100001ac
     10c:	00000000 	.word	0x00000000

00000110 <__do_global_dtors_aux>:
     110:	b510      	push	{r4, lr}
     112:	4c06      	ldr	r4, [pc, #24]	; (12c <__do_global_dtors_aux+0x1c>)
     114:	7823      	ldrb	r3, [r4, #0]
     116:	b943      	cbnz	r3, 12a <__do_global_dtors_aux+0x1a>
     118:	f7ff ffd8 	bl	cc <deregister_tm_clones>
     11c:	4b04      	ldr	r3, [pc, #16]	; (130 <__do_global_dtors_aux+0x20>)
     11e:	b113      	cbz	r3, 126 <__do_global_dtors_aux+0x16>
     120:	4804      	ldr	r0, [pc, #16]	; (134 <__do_global_dtors_aux+0x24>)
     122:	f3af 8000 	nop.w
     126:	2301      	movs	r3, #1
     128:	7023      	strb	r3, [r4, #0]
     12a:	bd10      	pop	{r4, pc}
     12c:	100001ac 	.word	0x100001ac
     130:	00000000 	.word	0x00000000
     134:	0000b6d4 	.word	0x0000b6d4

00000138 <frame_dummy>:
     138:	b508      	push	{r3, lr}
     13a:	4b08      	ldr	r3, [pc, #32]	; (15c <frame_dummy+0x24>)
     13c:	b11b      	cbz	r3, 146 <frame_dummy+0xe>
     13e:	4908      	ldr	r1, [pc, #32]	; (160 <frame_dummy+0x28>)
     140:	4808      	ldr	r0, [pc, #32]	; (164 <frame_dummy+0x2c>)
     142:	f3af 8000 	nop.w
     146:	4808      	ldr	r0, [pc, #32]	; (168 <frame_dummy+0x30>)
     148:	6803      	ldr	r3, [r0, #0]
     14a:	b913      	cbnz	r3, 152 <frame_dummy+0x1a>
     14c:	e8bd 4008 	ldmia.w	sp!, {r3, lr}
     150:	e7cc      	b.n	ec <register_tm_clones>
     152:	4b06      	ldr	r3, [pc, #24]	; (16c <frame_dummy+0x34>)
     154:	2b00      	cmp	r3, #0
     156:	d0f9      	beq.n	14c <frame_dummy+0x14>
     158:	4798      	blx	r3
     15a:	e7f7      	b.n	14c <frame_dummy+0x14>
     15c:	00000000 	.word	0x00000000
     160:	100001b0 	.word	0x100001b0
     164:	0000b6d4 	.word	0x0000b6d4
     168:	100001ac 	.word	0x100001ac
     16c:	00000000 	.word	0x00000000

00000170 <mbed::SerialBase::~SerialBase()>:
     170:	4770      	bx	lr
     172:	bf00      	nop

00000174 <std_msgs::Time::serialize(unsigned char*) const>:
     174:	4603      	mov	r3, r0
     176:	6842      	ldr	r2, [r0, #4]
     178:	2008      	movs	r0, #8
     17a:	700a      	strb	r2, [r1, #0]
     17c:	685a      	ldr	r2, [r3, #4]
     17e:	40c2      	lsrs	r2, r0
     180:	704a      	strb	r2, [r1, #1]
     182:	88da      	ldrh	r2, [r3, #6]
     184:	708a      	strb	r2, [r1, #2]
     186:	79da      	ldrb	r2, [r3, #7]
     188:	70ca      	strb	r2, [r1, #3]
     18a:	689a      	ldr	r2, [r3, #8]
     18c:	710a      	strb	r2, [r1, #4]
     18e:	689a      	ldr	r2, [r3, #8]
     190:	40c2      	lsrs	r2, r0
     192:	714a      	strb	r2, [r1, #5]
     194:	895a      	ldrh	r2, [r3, #10]
     196:	718a      	strb	r2, [r1, #6]
     198:	7adb      	ldrb	r3, [r3, #11]
     19a:	71cb      	strb	r3, [r1, #7]
     19c:	4770      	bx	lr
     19e:	bf00      	nop

000001a0 <std_msgs::Time::deserialize(unsigned char*)>:
     1a0:	4602      	mov	r2, r0
     1a2:	b410      	push	{r4}
     1a4:	780b      	ldrb	r3, [r1, #0]
     1a6:	2008      	movs	r0, #8
     1a8:	6053      	str	r3, [r2, #4]
     1aa:	784c      	ldrb	r4, [r1, #1]
     1ac:	ea43 2304 	orr.w	r3, r3, r4, lsl #8
     1b0:	6053      	str	r3, [r2, #4]
     1b2:	788c      	ldrb	r4, [r1, #2]
     1b4:	ea43 4304 	orr.w	r3, r3, r4, lsl #16
     1b8:	6053      	str	r3, [r2, #4]
     1ba:	78cc      	ldrb	r4, [r1, #3]
     1bc:	ea43 6304 	orr.w	r3, r3, r4, lsl #24
     1c0:	6053      	str	r3, [r2, #4]
     1c2:	790b      	ldrb	r3, [r1, #4]
     1c4:	6093      	str	r3, [r2, #8]
     1c6:	794c      	ldrb	r4, [r1, #5]
     1c8:	ea43 2304 	orr.w	r3, r3, r4, lsl #8
     1cc:	6093      	str	r3, [r2, #8]
     1ce:	798c      	ldrb	r4, [r1, #6]
     1d0:	ea43 4304 	orr.w	r3, r3, r4, lsl #16
     1d4:	6093      	str	r3, [r2, #8]
     1d6:	79c9      	ldrb	r1, [r1, #7]
     1d8:	bc10      	pop	{r4}
     1da:	ea43 6301 	orr.w	r3, r3, r1, lsl #24
     1de:	6093      	str	r3, [r2, #8]
     1e0:	4770      	bx	lr
     1e2:	bf00      	nop

000001e4 <std_msgs::Time::getType()>:
     1e4:	4800      	ldr	r0, [pc, #0]	; (1e8 <std_msgs::Time::getType()+0x4>)
     1e6:	4770      	bx	lr
     1e8:	0000ae38 	.word	0x0000ae38

000001ec <std_msgs::Time::getMD5()>:
     1ec:	4800      	ldr	r0, [pc, #0]	; (1f0 <std_msgs::Time::getMD5()+0x4>)
     1ee:	4770      	bx	lr
     1f0:	0000ae48 	.word	0x0000ae48

000001f4 <rosserial_msgs::TopicInfo::getType()>:
     1f4:	4800      	ldr	r0, [pc, #0]	; (1f8 <rosserial_msgs::TopicInfo::getType()+0x4>)
     1f6:	4770      	bx	lr
     1f8:	0000ae6c 	.word	0x0000ae6c

000001fc <rosserial_msgs::TopicInfo::getMD5()>:
     1fc:	4800      	ldr	r0, [pc, #0]	; (200 <rosserial_msgs::TopicInfo::getMD5()+0x4>)
     1fe:	4770      	bx	lr
     200:	0000ae88 	.word	0x0000ae88

00000204 <rosserial_msgs::Log::getType()>:
     204:	4800      	ldr	r0, [pc, #0]	; (208 <rosserial_msgs::Log::getType()+0x4>)
     206:	4770      	bx	lr
     208:	0000aeac 	.word	0x0000aeac

0000020c <rosserial_msgs::Log::getMD5()>:
     20c:	4800      	ldr	r0, [pc, #0]	; (210 <rosserial_msgs::Log::getMD5()+0x4>)
     20e:	4770      	bx	lr
     210:	0000aec0 	.word	0x0000aec0

00000214 <rosserial_msgs::RequestParamResponse::getType()>:
     214:	4800      	ldr	r0, [pc, #0]	; (218 <rosserial_msgs::RequestParamResponse::getType()+0x4>)
     216:	4770      	bx	lr
     218:	0000b07c 	.word	0x0000b07c

0000021c <rosserial_msgs::RequestParamResponse::getMD5()>:
     21c:	4800      	ldr	r0, [pc, #0]	; (220 <rosserial_msgs::RequestParamResponse::getMD5()+0x4>)
     21e:	4770      	bx	lr
     220:	0000aee4 	.word	0x0000aee4

00000224 <std_msgs::MultiArrayDimension::getType()>:
     224:	4800      	ldr	r0, [pc, #0]	; (228 <std_msgs::MultiArrayDimension::getType()+0x4>)
     226:	4770      	bx	lr
     228:	0000af08 	.word	0x0000af08

0000022c <std_msgs::MultiArrayDimension::getMD5()>:
     22c:	4800      	ldr	r0, [pc, #0]	; (230 <std_msgs::MultiArrayDimension::getMD5()+0x4>)
     22e:	4770      	bx	lr
     230:	0000af28 	.word	0x0000af28

00000234 <std_msgs::MultiArrayLayout::getType()>:
     234:	4800      	ldr	r0, [pc, #0]	; (238 <std_msgs::MultiArrayLayout::getType()+0x4>)
     236:	4770      	bx	lr
     238:	0000af4c 	.word	0x0000af4c

0000023c <std_msgs::MultiArrayLayout::getMD5()>:
     23c:	4800      	ldr	r0, [pc, #0]	; (240 <std_msgs::MultiArrayLayout::getMD5()+0x4>)
     23e:	4770      	bx	lr
     240:	0000af68 	.word	0x0000af68

00000244 <std_msgs::Int16MultiArray::getType()>:
     244:	4800      	ldr	r0, [pc, #0]	; (248 <std_msgs::Int16MultiArray::getType()+0x4>)
     246:	4770      	bx	lr
     248:	0000af8c 	.word	0x0000af8c

0000024c <std_msgs::Int16MultiArray::getMD5()>:
     24c:	4800      	ldr	r0, [pc, #0]	; (250 <std_msgs::Int16MultiArray::getMD5()+0x4>)
     24e:	4770      	bx	lr
     250:	0000afa8 	.word	0x0000afa8

00000254 <std_msgs::Float32MultiArray::getType()>:
     254:	4800      	ldr	r0, [pc, #0]	; (258 <std_msgs::Float32MultiArray::getType()+0x4>)
     256:	4770      	bx	lr
     258:	0000afcc 	.word	0x0000afcc

0000025c <std_msgs::Float32MultiArray::getMD5()>:
     25c:	4800      	ldr	r0, [pc, #0]	; (260 <std_msgs::Float32MultiArray::getMD5()+0x4>)
     25e:	4770      	bx	lr
     260:	0000afe8 	.word	0x0000afe8

00000264 <command_callback(std_msgs::Int16MultiArray const&)>:
     264:	b410      	push	{r4}
     266:	6a84      	ldr	r4, [r0, #40]	; 0x28
     268:	4a09      	ldr	r2, [pc, #36]	; (290 <command_callback(std_msgs::Int16MultiArray const&)+0x2c>)
     26a:	1ea3      	subs	r3, r4, #2
     26c:	f104 0008 	add.w	r0, r4, #8
     270:	f933 1f02 	ldrsh.w	r1, [r3, #2]!
     274:	4283      	cmp	r3, r0
     276:	f842 1b04 	str.w	r1, [r2], #4
     27a:	d1f9      	bne.n	270 <command_callback(std_msgs::Int16MultiArray const&)+0xc>
     27c:	f9b4 000a 	ldrsh.w	r0, [r4, #10]
     280:	f9b4 200c 	ldrsh.w	r2, [r4, #12]
     284:	4903      	ldr	r1, [pc, #12]	; (294 <command_callback(std_msgs::Int16MultiArray const&)+0x30>)
     286:	4b04      	ldr	r3, [pc, #16]	; (298 <command_callback(std_msgs::Int16MultiArray const&)+0x34>)
     288:	6008      	str	r0, [r1, #0]
     28a:	601a      	str	r2, [r3, #0]
     28c:	bc10      	pop	{r4}
     28e:	4770      	bx	lr
     290:	10000888 	.word	0x10000888
     294:	10000954 	.word	0x10000954
     298:	1000024c 	.word	0x1000024c

0000029c <ros::Subscriber<std_msgs::Int16MultiArray>::getEndpointType()>:
     29c:	6bc0      	ldr	r0, [r0, #60]	; 0x3c
     29e:	4770      	bx	lr

000002a0 <ros::Subscriber<std_msgs::Int16MultiArray>::getMsgType()>:
     2a0:	4800      	ldr	r0, [pc, #0]	; (2a4 <ros::Subscriber<std_msgs::Int16MultiArray>::getMsgType()+0x4>)
     2a2:	4770      	bx	lr
     2a4:	0000af8c 	.word	0x0000af8c

000002a8 <ros::Subscriber<std_msgs::Int16MultiArray>::getMsgMD5()>:
     2a8:	4800      	ldr	r0, [pc, #0]	; (2ac <ros::Subscriber<std_msgs::Int16MultiArray>::getMsgMD5()+0x4>)
     2aa:	4770      	bx	lr
     2ac:	0000afa8 	.word	0x0000afa8

000002b0 <ros::NodeHandle_<MbedHardware, 25, 25, 512, 512>::connected()>:
     2b0:	f890 05fc 	ldrb.w	r0, [r0, #1532]	; 0x5fc
     2b4:	4770      	bx	lr
     2b6:	bf00      	nop

000002b8 <std_msgs::MultiArrayDimension::serialize(unsigned char*) const>:
     2b8:	b570      	push	{r4, r5, r6, lr}
     2ba:	4605      	mov	r5, r0
     2bc:	b082      	sub	sp, #8
     2be:	460c      	mov	r4, r1
     2c0:	6840      	ldr	r0, [r0, #4]
     2c2:	f009 ff54 	bl	a16e <strlen>
     2c6:	4623      	mov	r3, r4
     2c8:	4606      	mov	r6, r0
     2ca:	aa02      	add	r2, sp, #8
     2cc:	f842 0d04 	str.w	r0, [r2, #-4]!
     2d0:	6810      	ldr	r0, [r2, #0]
     2d2:	4632      	mov	r2, r6
     2d4:	f843 0b04 	str.w	r0, [r3], #4
     2d8:	6869      	ldr	r1, [r5, #4]
     2da:	4618      	mov	r0, r3
     2dc:	f008 ffc0 	bl	9260 <memcpy>
     2e0:	68ab      	ldr	r3, [r5, #8]
     2e2:	19a1      	adds	r1, r4, r6
     2e4:	710b      	strb	r3, [r1, #4]
     2e6:	68ab      	ldr	r3, [r5, #8]
     2e8:	f106 000c 	add.w	r0, r6, #12
     2ec:	0a1b      	lsrs	r3, r3, #8
     2ee:	714b      	strb	r3, [r1, #5]
     2f0:	896b      	ldrh	r3, [r5, #10]
     2f2:	718b      	strb	r3, [r1, #6]
     2f4:	7aeb      	ldrb	r3, [r5, #11]
     2f6:	71cb      	strb	r3, [r1, #7]
     2f8:	68eb      	ldr	r3, [r5, #12]
     2fa:	720b      	strb	r3, [r1, #8]
     2fc:	68eb      	ldr	r3, [r5, #12]
     2fe:	0a1b      	lsrs	r3, r3, #8
     300:	724b      	strb	r3, [r1, #9]
     302:	89eb      	ldrh	r3, [r5, #14]
     304:	728b      	strb	r3, [r1, #10]
     306:	7beb      	ldrb	r3, [r5, #15]
     308:	72cb      	strb	r3, [r1, #11]
     30a:	b002      	add	sp, #8
     30c:	bd70      	pop	{r4, r5, r6, pc}
     30e:	bf00      	nop

00000310 <rosserial_msgs::RequestParamResponse::serialize(unsigned char*) const>:
     310:	e92d 43f0 	stmdb	sp!, {r4, r5, r6, r7, r8, r9, lr}
     314:	7903      	ldrb	r3, [r0, #4]
     316:	2400      	movs	r4, #0
     318:	700b      	strb	r3, [r1, #0]
     31a:	704c      	strb	r4, [r1, #1]
     31c:	708c      	strb	r4, [r1, #2]
     31e:	70cc      	strb	r4, [r1, #3]
     320:	7903      	ldrb	r3, [r0, #4]
     322:	b083      	sub	sp, #12
     324:	2b00      	cmp	r3, #0
     326:	d068      	beq.n	3fa <rosserial_msgs::RequestParamResponse::serialize(unsigned char*) const+0xea>
     328:	460b      	mov	r3, r1
     32a:	2504      	movs	r5, #4
     32c:	68c2      	ldr	r2, [r0, #12]
     32e:	1c66      	adds	r6, r4, #1
     330:	f852 2024 	ldr.w	r2, [r2, r4, lsl #2]
     334:	b2f4      	uxtb	r4, r6
     336:	ea4f 2e12 	mov.w	lr, r2, lsr #8
     33a:	0c17      	lsrs	r7, r2, #16
     33c:	0e16      	lsrs	r6, r2, #24
     33e:	711a      	strb	r2, [r3, #4]
     340:	f883 e005 	strb.w	lr, [r3, #5]
     344:	719f      	strb	r7, [r3, #6]
     346:	71de      	strb	r6, [r3, #7]
     348:	7902      	ldrb	r2, [r0, #4]
     34a:	3504      	adds	r5, #4
     34c:	42a2      	cmp	r2, r4
     34e:	f103 0304 	add.w	r3, r3, #4
     352:	d8eb      	bhi.n	32c <rosserial_msgs::RequestParamResponse::serialize(unsigned char*) const+0x1c>
     354:	462b      	mov	r3, r5
     356:	1d2a      	adds	r2, r5, #4
     358:	4615      	mov	r5, r2
     35a:	f103 0c01 	add.w	r12, r3, #1
     35e:	f103 0e02 	add.w	lr, r3, #2
     362:	1cdf      	adds	r7, r3, #3
     364:	7c06      	ldrb	r6, [r0, #16]
     366:	2400      	movs	r4, #0
     368:	54ce      	strb	r6, [r1, r3]
     36a:	f801 400c 	strb.w	r4, [r1, r12]
     36e:	f801 400e 	strb.w	r4, [r1, lr]
     372:	55cc      	strb	r4, [r1, r7]
     374:	7c03      	ldrb	r3, [r0, #16]
     376:	b1ab      	cbz	r3, 3a4 <rosserial_msgs::RequestParamResponse::serialize(unsigned char*) const+0x94>
     378:	194b      	adds	r3, r1, r5
     37a:	6982      	ldr	r2, [r0, #24]
     37c:	1c66      	adds	r6, r4, #1
     37e:	f852 2024 	ldr.w	r2, [r2, r4, lsl #2]
     382:	b2f4      	uxtb	r4, r6
     384:	ea4f 2e12 	mov.w	lr, r2, lsr #8
     388:	0c17      	lsrs	r7, r2, #16
     38a:	0e16      	lsrs	r6, r2, #24
     38c:	554a      	strb	r2, [r1, r5]
     38e:	f883 e001 	strb.w	lr, [r3, #1]
     392:	709f      	strb	r7, [r3, #2]
     394:	70de      	strb	r6, [r3, #3]
     396:	7c02      	ldrb	r2, [r0, #16]
     398:	3504      	adds	r5, #4
     39a:	42a2      	cmp	r2, r4
     39c:	f103 0304 	add.w	r3, r3, #4
     3a0:	d8eb      	bhi.n	37a <rosserial_msgs::RequestParamResponse::serialize(unsigned char*) const+0x6a>
     3a2:	462a      	mov	r2, r5
     3a4:	7f06      	ldrb	r6, [r0, #28]
     3a6:	194b      	adds	r3, r1, r5
     3a8:	2400      	movs	r4, #0
     3aa:	548e      	strb	r6, [r1, r2]
     3ac:	705c      	strb	r4, [r3, #1]
     3ae:	709c      	strb	r4, [r3, #2]
     3b0:	70dc      	strb	r4, [r3, #3]
     3b2:	7f03      	ldrb	r3, [r0, #28]
     3b4:	1d2e      	adds	r6, r5, #4
     3b6:	b1e3      	cbz	r3, 3f2 <rosserial_msgs::RequestParamResponse::serialize(unsigned char*) const+0xe2>
     3b8:	4688      	mov	r8, r1
     3ba:	4607      	mov	r7, r0
     3bc:	6a7b      	ldr	r3, [r7, #36]	; 0x24
     3be:	f106 0904 	add.w	r9, r6, #4
     3c2:	f853 0024 	ldr.w	r0, [r3, r4, lsl #2]
     3c6:	f009 fed2 	bl	a16e <strlen>
     3ca:	4605      	mov	r5, r0
     3cc:	9001      	str	r0, [sp, #4]
     3ce:	9801      	ldr	r0, [sp, #4]
     3d0:	462a      	mov	r2, r5
     3d2:	f848 0006 	str.w	r0, [r8, r6]
     3d6:	6a7b      	ldr	r3, [r7, #36]	; 0x24
     3d8:	eb08 0009 	add.w	r0, r8, r9
     3dc:	f853 1024 	ldr.w	r1, [r3, r4, lsl #2]
     3e0:	f008 ff3e 	bl	9260 <memcpy>
     3e4:	3401      	adds	r4, #1
     3e6:	7f3b      	ldrb	r3, [r7, #28]
     3e8:	b2e4      	uxtb	r4, r4
     3ea:	42a3      	cmp	r3, r4
     3ec:	eb05 0609 	add.w	r6, r5, r9
     3f0:	d8e4      	bhi.n	3bc <rosserial_msgs::RequestParamResponse::serialize(unsigned char*) const+0xac>
     3f2:	4630      	mov	r0, r6
     3f4:	b003      	add	sp, #12
     3f6:	e8bd 83f0 	ldmia.w	sp!, {r4, r5, r6, r7, r8, r9, pc}
     3fa:	2208      	movs	r2, #8
     3fc:	4615      	mov	r5, r2
     3fe:	2707      	movs	r7, #7
     400:	f04f 0e06 	mov.w	lr, #6
     404:	f04f 0c05 	mov.w	r12, #5
     408:	2304      	movs	r3, #4
     40a:	e7ab      	b.n	364 <rosserial_msgs::RequestParamResponse::serialize(unsigned char*) const+0x54>

0000040c <rosserial_msgs::Log::serialize(unsigned char*) const>:
     40c:	b570      	push	{r4, r5, r6, lr}
     40e:	7903      	ldrb	r3, [r0, #4]
     410:	b082      	sub	sp, #8
     412:	700b      	strb	r3, [r1, #0]
     414:	4606      	mov	r6, r0
     416:	6880      	ldr	r0, [r0, #8]
     418:	460d      	mov	r5, r1
     41a:	f009 fea8 	bl	a16e <strlen>
     41e:	4604      	mov	r4, r0
     420:	ab02      	add	r3, sp, #8
     422:	f843 0d04 	str.w	r0, [r3, #-4]!
     426:	6818      	ldr	r0, [r3, #0]
     428:	4622      	mov	r2, r4
     42a:	f8c5 0001 	str.w	r0, [r5, #1]
     42e:	68b1      	ldr	r1, [r6, #8]
     430:	1d68      	adds	r0, r5, #5
     432:	f008 ff15 	bl	9260 <memcpy>
     436:	1d60      	adds	r0, r4, #5
     438:	b002      	add	sp, #8
     43a:	bd70      	pop	{r4, r5, r6, pc}

0000043c <rosserial_msgs::TopicInfo::serialize(unsigned char*) const>:
     43c:	8883      	ldrh	r3, [r0, #4]
     43e:	e92d 41f0 	stmdb	sp!, {r4, r5, r6, r7, r8, lr}
     442:	700b      	strb	r3, [r1, #0]
     444:	8883      	ldrh	r3, [r0, #4]
     446:	b084      	sub	sp, #16
     448:	0a1b      	lsrs	r3, r3, #8
     44a:	704b      	strb	r3, [r1, #1]
     44c:	4606      	mov	r6, r0
     44e:	6880      	ldr	r0, [r0, #8]
     450:	460d      	mov	r5, r1
     452:	f009 fe8c 	bl	a16e <strlen>
     456:	4604      	mov	r4, r0
     458:	ab04      	add	r3, sp, #16
     45a:	f843 0d0c 	str.w	r0, [r3, #-12]!
     45e:	6818      	ldr	r0, [r3, #0]
     460:	4622      	mov	r2, r4
     462:	f8c5 0002 	str.w	r0, [r5, #2]
     466:	68b1      	ldr	r1, [r6, #8]
     468:	1da8      	adds	r0, r5, #6
     46a:	f008 fef9 	bl	9260 <memcpy>
     46e:	68f0      	ldr	r0, [r6, #12]
     470:	f009 fe7d 	bl	a16e <strlen>
     474:	4680      	mov	r8, r0
     476:	ab04      	add	r3, sp, #16
     478:	f843 0d08 	str.w	r0, [r3, #-8]!
     47c:	6818      	ldr	r0, [r3, #0]
     47e:	1da3      	adds	r3, r4, #6
     480:	50e8      	str	r0, [r5, r3]
     482:	340a      	adds	r4, #10
     484:	68f1      	ldr	r1, [r6, #12]
     486:	4642      	mov	r2, r8
     488:	1928      	adds	r0, r5, r4
     48a:	f008 fee9 	bl	9260 <memcpy>
     48e:	6930      	ldr	r0, [r6, #16]
     490:	f009 fe6d 	bl	a16e <strlen>
     494:	4607      	mov	r7, r0
     496:	ab04      	add	r3, sp, #16
     498:	f843 0d04 	str.w	r0, [r3, #-4]!
     49c:	6818      	ldr	r0, [r3, #0]
     49e:	4444      	add	r4, r8
     4a0:	5128      	str	r0, [r5, r4]
     4a2:	3404      	adds	r4, #4
     4a4:	6931      	ldr	r1, [r6, #16]
     4a6:	1928      	adds	r0, r5, r4
     4a8:	463a      	mov	r2, r7
     4aa:	f008 fed9 	bl	9260 <memcpy>
     4ae:	6973      	ldr	r3, [r6, #20]
     4b0:	1938      	adds	r0, r7, r4
     4b2:	182a      	adds	r2, r5, r0
     4b4:	542b      	strb	r3, [r5, r0]
     4b6:	0a1e      	lsrs	r6, r3, #8
     4b8:	0c1c      	lsrs	r4, r3, #16
     4ba:	0e19      	lsrs	r1, r3, #24
     4bc:	3004      	adds	r0, #4
     4be:	7056      	strb	r6, [r2, #1]
     4c0:	7094      	strb	r4, [r2, #2]
     4c2:	70d1      	strb	r1, [r2, #3]
     4c4:	b004      	add	sp, #16
     4c6:	e8bd 81f0 	ldmia.w	sp!, {r4, r5, r6, r7, r8, pc}
     4ca:	bf00      	nop

000004cc <rosserial_msgs::Log::deserialize(unsigned char*)>:
     4cc:	460b      	mov	r3, r1
     4ce:	b4f0      	push	{r4, r5, r6, r7}
     4d0:	f813 2b01 	ldrb.w	r2, [r3], #1
     4d4:	4606      	mov	r6, r0
     4d6:	7102      	strb	r2, [r0, #4]
     4d8:	6818      	ldr	r0, [r3, #0]
     4da:	b082      	sub	sp, #8
     4dc:	9001      	str	r0, [sp, #4]
     4de:	9d01      	ldr	r5, [sp, #4]
     4e0:	1d0f      	adds	r7, r1, #4
     4e2:	1d68      	adds	r0, r5, #5
     4e4:	2805      	cmp	r0, #5
     4e6:	d908      	bls.n	4fa <rosserial_msgs::Log::deserialize(unsigned char*)+0x2e>
     4e8:	463b      	mov	r3, r7
     4ea:	1d2c      	adds	r4, r5, #4
     4ec:	440c      	add	r4, r1
     4ee:	f813 2f01 	ldrb.w	r2, [r3, #1]!
     4f2:	42a3      	cmp	r3, r4
     4f4:	f803 2c01 	strb.w	r2, [r3, #-1]
     4f8:	d1f9      	bne.n	4ee <rosserial_msgs::Log::deserialize(unsigned char*)+0x22>
     4fa:	440d      	add	r5, r1
     4fc:	2300      	movs	r3, #0
     4fe:	712b      	strb	r3, [r5, #4]
     500:	60b7      	str	r7, [r6, #8]
     502:	b002      	add	sp, #8
     504:	bcf0      	pop	{r4, r5, r6, r7}
     506:	4770      	bx	lr

00000508 <std_msgs::MultiArrayDimension::deserialize(unsigned char*)>:
     508:	b4f0      	push	{r4, r5, r6, r7}
     50a:	4605      	mov	r5, r0
     50c:	6808      	ldr	r0, [r1, #0]
     50e:	b082      	sub	sp, #8
     510:	9001      	str	r0, [sp, #4]
     512:	9801      	ldr	r0, [sp, #4]
     514:	1ccf      	adds	r7, r1, #3
     516:	1d06      	adds	r6, r0, #4
     518:	2e04      	cmp	r6, #4
     51a:	d908      	bls.n	52e <std_msgs::MultiArrayDimension::deserialize(unsigned char*)+0x26>
     51c:	463b      	mov	r3, r7
     51e:	1cc4      	adds	r4, r0, #3
     520:	440c      	add	r4, r1
     522:	f813 2f01 	ldrb.w	r2, [r3, #1]!
     526:	42a3      	cmp	r3, r4
     528:	f803 2c01 	strb.w	r2, [r3, #-1]
     52c:	d1f9      	bne.n	522 <std_msgs::MultiArrayDimension::deserialize(unsigned char*)+0x1a>
     52e:	180a      	adds	r2, r1, r0
     530:	2300      	movs	r3, #0
     532:	70d3      	strb	r3, [r2, #3]
     534:	606f      	str	r7, [r5, #4]
     536:	5d8b      	ldrb	r3, [r1, r6]
     538:	300c      	adds	r0, #12
     53a:	60ab      	str	r3, [r5, #8]
     53c:	7951      	ldrb	r1, [r2, #5]
     53e:	ea43 2301 	orr.w	r3, r3, r1, lsl #8
     542:	60ab      	str	r3, [r5, #8]
     544:	7991      	ldrb	r1, [r2, #6]
     546:	ea43 4301 	orr.w	r3, r3, r1, lsl #16
     54a:	60ab      	str	r3, [r5, #8]
     54c:	79d1      	ldrb	r1, [r2, #7]
     54e:	ea43 6301 	orr.w	r3, r3, r1, lsl #24
     552:	60ab      	str	r3, [r5, #8]
     554:	7a13      	ldrb	r3, [r2, #8]
     556:	60eb      	str	r3, [r5, #12]
     558:	7a51      	ldrb	r1, [r2, #9]
     55a:	ea43 2301 	orr.w	r3, r3, r1, lsl #8
     55e:	60eb      	str	r3, [r5, #12]
     560:	7a91      	ldrb	r1, [r2, #10]
     562:	ea43 4301 	orr.w	r3, r3, r1, lsl #16
     566:	60eb      	str	r3, [r5, #12]
     568:	7ad2      	ldrb	r2, [r2, #11]
     56a:	ea43 6302 	orr.w	r3, r3, r2, lsl #24
     56e:	60eb      	str	r3, [r5, #12]
     570:	b002      	add	sp, #8
     572:	bcf0      	pop	{r4, r5, r6, r7}
     574:	4770      	bx	lr
     576:	bf00      	nop

00000578 <rosserial_msgs::TopicInfo::deserialize(unsigned char*)>:
     578:	b4f0      	push	{r4, r5, r6, r7}
     57a:	780b      	ldrb	r3, [r1, #0]
     57c:	4605      	mov	r5, r0
     57e:	8083      	strh	r3, [r0, #4]
     580:	784a      	ldrb	r2, [r1, #1]
     582:	b084      	sub	sp, #16
     584:	ea43 2302 	orr.w	r3, r3, r2, lsl #8
     588:	8083      	strh	r3, [r0, #4]
     58a:	f8d1 0002 	ldr.w	r0, [r1, #2]
     58e:	1d4f      	adds	r7, r1, #5
     590:	9001      	str	r0, [sp, #4]
     592:	9a01      	ldr	r2, [sp, #4]
     594:	1d96      	adds	r6, r2, #6
     596:	2e06      	cmp	r6, #6
     598:	d908      	bls.n	5ac <rosserial_msgs::TopicInfo::deserialize(unsigned char*)+0x34>
     59a:	463b      	mov	r3, r7
     59c:	1d54      	adds	r4, r2, #5
     59e:	440c      	add	r4, r1
     5a0:	f813 0f01 	ldrb.w	r0, [r3, #1]!
     5a4:	429c      	cmp	r4, r3
     5a6:	f803 0c01 	strb.w	r0, [r3, #-1]
     5aa:	d1f9      	bne.n	5a0 <rosserial_msgs::TopicInfo::deserialize(unsigned char*)+0x28>
     5ac:	188b      	adds	r3, r1, r2
     5ae:	2000      	movs	r0, #0
     5b0:	7158      	strb	r0, [r3, #5]
     5b2:	60af      	str	r7, [r5, #8]
     5b4:	5988      	ldr	r0, [r1, r6]
     5b6:	3604      	adds	r6, #4
     5b8:	9002      	str	r0, [sp, #8]
     5ba:	9b02      	ldr	r3, [sp, #8]
     5bc:	4433      	add	r3, r6
     5be:	429e      	cmp	r6, r3
     5c0:	d209      	bcs.n	5d6 <rosserial_msgs::TopicInfo::deserialize(unsigned char*)+0x5e>
     5c2:	4630      	mov	r0, r6
     5c4:	3209      	adds	r2, #9
     5c6:	440a      	add	r2, r1
     5c8:	f812 4f01 	ldrb.w	r4, [r2, #1]!
     5cc:	3001      	adds	r0, #1
     5ce:	4298      	cmp	r0, r3
     5d0:	f802 4c01 	strb.w	r4, [r2, #-1]
     5d4:	d3f8      	bcc.n	5c8 <rosserial_msgs::TopicInfo::deserialize(unsigned char*)+0x50>
     5d6:	3e01      	subs	r6, #1
     5d8:	440e      	add	r6, r1
     5da:	18ca      	adds	r2, r1, r3
     5dc:	2000      	movs	r0, #0
     5de:	f802 0c01 	strb.w	r0, [r2, #-1]
     5e2:	60ee      	str	r6, [r5, #12]
     5e4:	6810      	ldr	r0, [r2, #0]
     5e6:	1d1e      	adds	r6, r3, #4
     5e8:	9003      	str	r0, [sp, #12]
     5ea:	9803      	ldr	r0, [sp, #12]
     5ec:	4430      	add	r0, r6
     5ee:	4286      	cmp	r6, r0
     5f0:	d209      	bcs.n	606 <rosserial_msgs::TopicInfo::deserialize(unsigned char*)+0x8e>
     5f2:	4632      	mov	r2, r6
     5f4:	3303      	adds	r3, #3
     5f6:	440b      	add	r3, r1
     5f8:	f813 4f01 	ldrb.w	r4, [r3, #1]!
     5fc:	3201      	adds	r2, #1
     5fe:	4282      	cmp	r2, r0
     600:	f803 4c01 	strb.w	r4, [r3, #-1]
     604:	d3f8      	bcc.n	5f8 <rosserial_msgs::TopicInfo::deserialize(unsigned char*)+0x80>
     606:	3e01      	subs	r6, #1
     608:	180c      	adds	r4, r1, r0
     60a:	440e      	add	r6, r1
     60c:	2300      	movs	r3, #0
     60e:	f804 3c01 	strb.w	r3, [r4, #-1]
     612:	612e      	str	r6, [r5, #16]
     614:	78a3      	ldrb	r3, [r4, #2]
     616:	7866      	ldrb	r6, [r4, #1]
     618:	5c0a      	ldrb	r2, [r1, r0]
     61a:	041b      	lsls	r3, r3, #16
     61c:	78e1      	ldrb	r1, [r4, #3]
     61e:	ea43 2306 	orr.w	r3, r3, r6, lsl #8
     622:	4313      	orrs	r3, r2
     624:	ea43 6301 	orr.w	r3, r3, r1, lsl #24
     628:	3004      	adds	r0, #4
     62a:	616b      	str	r3, [r5, #20]
     62c:	b004      	add	sp, #16
     62e:	bcf0      	pop	{r4, r5, r6, r7}
     630:	4770      	bx	lr
     632:	bf00      	nop

00000634 <rosserial_msgs::RequestParamResponse::deserialize(unsigned char*)>:
     634:	e92d 41f0 	stmdb	sp!, {r4, r5, r6, r7, r8, lr}
     638:	7903      	ldrb	r3, [r0, #4]
     63a:	780c      	ldrb	r4, [r1, #0]
     63c:	b082      	sub	sp, #8
     63e:	42a3      	cmp	r3, r4
     640:	4605      	mov	r5, r0
     642:	460e      	mov	r6, r1
     644:	f0c0 8082 	bcc.w	74c <rosserial_msgs::RequestParamResponse::deserialize(unsigned char*)+0x118>
     648:	712c      	strb	r4, [r5, #4]
     64a:	2c00      	cmp	r4, #0
     64c:	f000 8087 	beq.w	75e <rosserial_msgs::RequestParamResponse::deserialize(unsigned char*)+0x12a>
     650:	4633      	mov	r3, r6
     652:	f105 0708 	add.w	r7, r5, #8
     656:	2000      	movs	r0, #0
     658:	2404      	movs	r4, #4
     65a:	799a      	ldrb	r2, [r3, #6]
     65c:	f893 e005 	ldrb.w	lr, [r3, #5]
     660:	7919      	ldrb	r1, [r3, #4]
     662:	0412      	lsls	r2, r2, #16
     664:	ea42 220e 	orr.w	r2, r2, lr, lsl #8
     668:	f893 e007 	ldrb.w	lr, [r3, #7]
     66c:	430a      	orrs	r2, r1
     66e:	ea42 620e 	orr.w	r2, r2, lr, lsl #24
     672:	60aa      	str	r2, [r5, #8]
     674:	f8d7 e000 	ldr.w	lr, [r7]
     678:	68ea      	ldr	r2, [r5, #12]
     67a:	1c41      	adds	r1, r0, #1
     67c:	f842 e020 	str.w	lr, [r2, r0, lsl #2]
     680:	792a      	ldrb	r2, [r5, #4]
     682:	b2c8      	uxtb	r0, r1
     684:	4282      	cmp	r2, r0
     686:	f104 0404 	add.w	r4, r4, #4
     68a:	f103 0304 	add.w	r3, r3, #4
     68e:	d8e4      	bhi.n	65a <rosserial_msgs::RequestParamResponse::deserialize(unsigned char*)+0x26>
     690:	4623      	mov	r3, r4
     692:	f816 8003 	ldrb.w	r8, [r6, r3]
     696:	7c2b      	ldrb	r3, [r5, #16]
     698:	1d27      	adds	r7, r4, #4
     69a:	4543      	cmp	r3, r8
     69c:	463c      	mov	r4, r7
     69e:	d366      	bcc.n	76e <rosserial_msgs::RequestParamResponse::deserialize(unsigned char*)+0x13a>
     6a0:	f885 8010 	strb.w	r8, [r5, #16]
     6a4:	f1b8 0f00 	cmp.w	r8, #0
     6a8:	d01f      	beq.n	6ea <rosserial_msgs::RequestParamResponse::deserialize(unsigned char*)+0xb6>
     6aa:	f105 0714 	add.w	r7, r5, #20
     6ae:	1933      	adds	r3, r6, r4
     6b0:	2000      	movs	r0, #0
     6b2:	789a      	ldrb	r2, [r3, #2]
     6b4:	f893 e001 	ldrb.w	lr, [r3, #1]
     6b8:	7819      	ldrb	r1, [r3, #0]
     6ba:	0412      	lsls	r2, r2, #16
     6bc:	ea42 220e 	orr.w	r2, r2, lr, lsl #8
     6c0:	f893 e003 	ldrb.w	lr, [r3, #3]
     6c4:	430a      	orrs	r2, r1
     6c6:	ea42 620e 	orr.w	r2, r2, lr, lsl #24
     6ca:	616a      	str	r2, [r5, #20]
     6cc:	f8d7 e000 	ldr.w	lr, [r7]
     6d0:	69aa      	ldr	r2, [r5, #24]
     6d2:	1c41      	adds	r1, r0, #1
     6d4:	f842 e020 	str.w	lr, [r2, r0, lsl #2]
     6d8:	7c2a      	ldrb	r2, [r5, #16]
     6da:	b2c8      	uxtb	r0, r1
     6dc:	4282      	cmp	r2, r0
     6de:	f104 0404 	add.w	r4, r4, #4
     6e2:	f103 0304 	add.w	r3, r3, #4
     6e6:	d8e4      	bhi.n	6b2 <rosserial_msgs::RequestParamResponse::deserialize(unsigned char*)+0x7e>
     6e8:	4627      	mov	r7, r4
     6ea:	5df7      	ldrb	r7, [r6, r7]
     6ec:	7f2b      	ldrb	r3, [r5, #28]
     6ee:	42bb      	cmp	r3, r7
     6f0:	d344      	bcc.n	77c <rosserial_msgs::RequestParamResponse::deserialize(unsigned char*)+0x148>
     6f2:	1d23      	adds	r3, r4, #4
     6f4:	772f      	strb	r7, [r5, #28]
     6f6:	b32f      	cbz	r7, 744 <rosserial_msgs::RequestParamResponse::deserialize(unsigned char*)+0x110>
     6f8:	2700      	movs	r7, #0
     6fa:	46bc      	mov	r12, r7
     6fc:	f105 0e20 	add.w	lr, r5, #32
     700:	58f0      	ldr	r0, [r6, r3]
     702:	1d1c      	adds	r4, r3, #4
     704:	9001      	str	r0, [sp, #4]
     706:	9801      	ldr	r0, [sp, #4]
     708:	4420      	add	r0, r4
     70a:	4284      	cmp	r4, r0
     70c:	d209      	bcs.n	722 <rosserial_msgs::RequestParamResponse::deserialize(unsigned char*)+0xee>
     70e:	4622      	mov	r2, r4
     710:	3303      	adds	r3, #3
     712:	4433      	add	r3, r6
     714:	f813 1f01 	ldrb.w	r1, [r3, #1]!
     718:	3201      	adds	r2, #1
     71a:	4282      	cmp	r2, r0
     71c:	f803 1c01 	strb.w	r1, [r3, #-1]
     720:	d3f8      	bcc.n	714 <rosserial_msgs::RequestParamResponse::deserialize(unsigned char*)+0xe0>
     722:	3c01      	subs	r4, #1
     724:	1833      	adds	r3, r6, r0
     726:	4434      	add	r4, r6
     728:	f803 cc01 	strb.w	r12, [r3, #-1]
     72c:	622c      	str	r4, [r5, #32]
     72e:	6a6a      	ldr	r2, [r5, #36]	; 0x24
     730:	f8de 1000 	ldr.w	r1, [lr]
     734:	1c7b      	adds	r3, r7, #1
     736:	f842 1027 	str.w	r1, [r2, r7, lsl #2]
     73a:	7f2a      	ldrb	r2, [r5, #28]
     73c:	b2df      	uxtb	r7, r3
     73e:	42ba      	cmp	r2, r7
     740:	4603      	mov	r3, r0
     742:	d8dd      	bhi.n	700 <rosserial_msgs::RequestParamResponse::deserialize(unsigned char*)+0xcc>
     744:	4618      	mov	r0, r3
     746:	b002      	add	sp, #8
     748:	e8bd 81f0 	ldmia.w	sp!, {r4, r5, r6, r7, r8, pc}
     74c:	00a1      	lsls	r1, r4, #2
     74e:	68c0      	ldr	r0, [r0, #12]
     750:	f005 fc34 	bl	5fbc <__wrap_realloc>
     754:	712c      	strb	r4, [r5, #4]
     756:	60e8      	str	r0, [r5, #12]
     758:	2c00      	cmp	r4, #0
     75a:	f47f af79 	bne.w	650 <rosserial_msgs::RequestParamResponse::deserialize(unsigned char*)+0x1c>
     75e:	2304      	movs	r3, #4
     760:	f816 8003 	ldrb.w	r8, [r6, r3]
     764:	7c2b      	ldrb	r3, [r5, #16]
     766:	2708      	movs	r7, #8
     768:	4543      	cmp	r3, r8
     76a:	463c      	mov	r4, r7
     76c:	d298      	bcs.n	6a0 <rosserial_msgs::RequestParamResponse::deserialize(unsigned char*)+0x6c>
     76e:	ea4f 0188 	mov.w	r1, r8, lsl #2
     772:	69a8      	ldr	r0, [r5, #24]
     774:	f005 fc22 	bl	5fbc <__wrap_realloc>
     778:	61a8      	str	r0, [r5, #24]
     77a:	e791      	b.n	6a0 <rosserial_msgs::RequestParamResponse::deserialize(unsigned char*)+0x6c>
     77c:	00b9      	lsls	r1, r7, #2
     77e:	6a68      	ldr	r0, [r5, #36]	; 0x24
     780:	f005 fc1c 	bl	5fbc <__wrap_realloc>
     784:	6268      	str	r0, [r5, #36]	; 0x24
     786:	e7b4      	b.n	6f2 <rosserial_msgs::RequestParamResponse::deserialize(unsigned char*)+0xbe>

00000788 <mbed::SerialBase::~SerialBase()>:
     788:	b510      	push	{r4, lr}
     78a:	4604      	mov	r4, r0
     78c:	f007 fa1f 	bl	7bce <operator delete(void*)>
     790:	4620      	mov	r0, r4
     792:	bd10      	pop	{r4, pc}

00000794 <std::vector<Dynamixel*, std::allocator<Dynamixel*> >::~vector()>:
     794:	b510      	push	{r4, lr}
     796:	4604      	mov	r4, r0
     798:	6800      	ldr	r0, [r0, #0]
     79a:	b108      	cbz	r0, 7a0 <std::vector<Dynamixel*, std::allocator<Dynamixel*> >::~vector()+0xc>
     79c:	f007 fa17 	bl	7bce <operator delete(void*)>
     7a0:	4620      	mov	r0, r4
     7a2:	bd10      	pop	{r4, pc}

000007a4 <mbed::Serial::~Serial()>:
     7a4:	b510      	push	{r4, lr}
     7a6:	4604      	mov	r4, r0
     7a8:	4b06      	ldr	r3, [pc, #24]	; (7c4 <mbed::Serial::~Serial()+0x20>)
     7aa:	3040      	adds	r0, #64	; 0x40
     7ac:	f103 0118 	add.w	r1, r3, #24
     7b0:	f103 024c 	add.w	r2, r3, #76	; 0x4c
     7b4:	6023      	str	r3, [r4, #0]
     7b6:	6421      	str	r1, [r4, #64]	; 0x40
     7b8:	6462      	str	r2, [r4, #68]	; 0x44
     7ba:	f007 f811 	bl	77e0 <mbed::Stream::~Stream()>
     7be:	4620      	mov	r0, r4
     7c0:	bd10      	pop	{r4, pc}
     7c2:	bf00      	nop
     7c4:	0000b410 	.word	0x0000b410

000007c8 <non-virtual thunk to mbed::Serial::~Serial()>:
     7c8:	f1a0 0040 	sub.w	r0, r0, #64	; 0x40
     7cc:	e7ea      	b.n	7a4 <mbed::Serial::~Serial()>
     7ce:	bf00      	nop

000007d0 <non-virtual thunk to mbed::Serial::~Serial()>:
     7d0:	f1a0 0044 	sub.w	r0, r0, #68	; 0x44
     7d4:	e7e6      	b.n	7a4 <mbed::Serial::~Serial()>
     7d6:	bf00      	nop

000007d8 <std_msgs::MultiArrayLayout::serialize(unsigned char*) const>:
     7d8:	e92d 4ff0 	stmdb	sp!, {r4, r5, r6, r7, r8, r9, r10, r11, lr}
     7dc:	7903      	ldrb	r3, [r0, #4]
     7de:	2600      	movs	r6, #0
     7e0:	700b      	strb	r3, [r1, #0]
     7e2:	704e      	strb	r6, [r1, #1]
     7e4:	708e      	strb	r6, [r1, #2]
     7e6:	70ce      	strb	r6, [r1, #3]
     7e8:	7903      	ldrb	r3, [r0, #4]
     7ea:	b083      	sub	sp, #12
     7ec:	4683      	mov	r11, r0
     7ee:	4689      	mov	r9, r1
     7f0:	2b00      	cmp	r3, #0
     7f2:	d059      	beq.n	8a8 <Heap_Size+0xa8>
     7f4:	f8df a0c0 	ldr.w	r10, [pc, #192]	; 8b8 <Heap_Size+0xb8>
     7f8:	f04f 0804 	mov.w	r8, #4
     7fc:	e02a      	b.n	854 <Heap_Size+0x54>
     7fe:	6860      	ldr	r0, [r4, #4]
     800:	f009 fcb5 	bl	a16e <strlen>
     804:	4607      	mov	r7, r0
     806:	ab02      	add	r3, sp, #8
     808:	f843 0d04 	str.w	r0, [r3, #-4]!
     80c:	6818      	ldr	r0, [r3, #0]
     80e:	463a      	mov	r2, r7
     810:	f849 0008 	str.w	r0, [r9, r8]
     814:	6861      	ldr	r1, [r4, #4]
     816:	1d28      	adds	r0, r5, #4
     818:	f008 fd22 	bl	9260 <memcpy>
     81c:	68a3      	ldr	r3, [r4, #8]
     81e:	19e9      	adds	r1, r5, r7
     820:	710b      	strb	r3, [r1, #4]
     822:	68a3      	ldr	r3, [r4, #8]
     824:	f107 000c 	add.w	r0, r7, #12
     828:	0a1b      	lsrs	r3, r3, #8
     82a:	714b      	strb	r3, [r1, #5]
     82c:	8963      	ldrh	r3, [r4, #10]
     82e:	718b      	strb	r3, [r1, #6]
     830:	7ae3      	ldrb	r3, [r4, #11]
     832:	71cb      	strb	r3, [r1, #7]
     834:	68e3      	ldr	r3, [r4, #12]
     836:	720b      	strb	r3, [r1, #8]
     838:	68e3      	ldr	r3, [r4, #12]
     83a:	0a1b      	lsrs	r3, r3, #8
     83c:	724b      	strb	r3, [r1, #9]
     83e:	89e3      	ldrh	r3, [r4, #14]
     840:	728b      	strb	r3, [r1, #10]
     842:	7be3      	ldrb	r3, [r4, #15]
     844:	72cb      	strb	r3, [r1, #11]
     846:	3601      	adds	r6, #1
     848:	f89b 3004 	ldrb.w	r3, [r11, #4]
     84c:	b2f6      	uxtb	r6, r6
     84e:	42b3      	cmp	r3, r6
     850:	4480      	add	r8, r0
     852:	d90d      	bls.n	870 <Heap_Size+0x70>
     854:	f8db 4018 	ldr.w	r4, [r11, #24]
     858:	0133      	lsls	r3, r6, #4
     85a:	58e2      	ldr	r2, [r4, r3]
     85c:	441c      	add	r4, r3
     85e:	6813      	ldr	r3, [r2, #0]
     860:	eb09 0508 	add.w	r5, r9, r8
     864:	4553      	cmp	r3, r10
     866:	d0ca      	beq.n	7fe <std_msgs::MultiArrayLayout::serialize(unsigned char*) const+0x26>
     868:	4629      	mov	r1, r5
     86a:	4620      	mov	r0, r4
     86c:	4798      	blx	r3
     86e:	e7ea      	b.n	846 <Heap_Size+0x46>
     870:	f108 0401 	add.w	r4, r8, #1
     874:	f108 0102 	add.w	r1, r8, #2
     878:	f108 0203 	add.w	r2, r8, #3
     87c:	f108 0004 	add.w	r0, r8, #4
     880:	f8db 301c 	ldr.w	r3, [r11, #28]
     884:	f809 3008 	strb.w	r3, [r9, r8]
     888:	f8db 301c 	ldr.w	r3, [r11, #28]
     88c:	0a1b      	lsrs	r3, r3, #8
     88e:	f809 3004 	strb.w	r3, [r9, r4]
     892:	f8bb 301e 	ldrh.w	r3, [r11, #30]
     896:	f809 3001 	strb.w	r3, [r9, r1]
     89a:	f89b 301f 	ldrb.w	r3, [r11, #31]
     89e:	f809 3002 	strb.w	r3, [r9, r2]
     8a2:	b003      	add	sp, #12
     8a4:	e8bd 8ff0 	ldmia.w	sp!, {r4, r5, r6, r7, r8, r9, r10, r11, pc}
     8a8:	2008      	movs	r0, #8
     8aa:	2207      	movs	r2, #7
     8ac:	2106      	movs	r1, #6
     8ae:	2405      	movs	r4, #5
     8b0:	f04f 0804 	mov.w	r8, #4
     8b4:	e7e4      	b.n	880 <Heap_Size+0x80>
     8b6:	bf00      	nop
     8b8:	000002b9 	.word	0x000002b9

000008bc <std_msgs::MultiArrayLayout::deserialize(unsigned char*)>:
     8bc:	e92d 47f0 	stmdb	sp!, {r4, r5, r6, r7, r8, r9, r10, lr}
     8c0:	7903      	ldrb	r3, [r0, #4]
     8c2:	780d      	ldrb	r5, [r1, #0]
     8c4:	b082      	sub	sp, #8
     8c6:	42ab      	cmp	r3, r5
     8c8:	4604      	mov	r4, r0
     8ca:	460e      	mov	r6, r1
     8cc:	d378      	bcc.n	9c0 <std_msgs::MultiArrayLayout::deserialize(unsigned char*)+0x104>
     8ce:	7125      	strb	r5, [r4, #4]
     8d0:	2d00      	cmp	r5, #0
     8d2:	d07d      	beq.n	9d0 <std_msgs::MultiArrayLayout::deserialize(unsigned char*)+0x114>
     8d4:	2500      	movs	r5, #0
     8d6:	46ac      	mov	r12, r5
     8d8:	f104 0708 	add.w	r7, r4, #8
     8dc:	f04f 0e04 	mov.w	lr, #4
     8e0:	eb06 080e 	add.w	r8, r6, lr
     8e4:	f8d8 0000 	ldr.w	r0, [r8]
     8e8:	f108 0a03 	add.w	r10, r8, #3
     8ec:	9001      	str	r0, [sp, #4]
     8ee:	9801      	ldr	r0, [sp, #4]
     8f0:	f100 0904 	add.w	r9, r0, #4
     8f4:	f1b9 0f04 	cmp.w	r9, #4
     8f8:	d908      	bls.n	90c <std_msgs::MultiArrayLayout::deserialize(unsigned char*)+0x50>
     8fa:	4653      	mov	r3, r10
     8fc:	1cc1      	adds	r1, r0, #3
     8fe:	4441      	add	r1, r8
     900:	f813 2f01 	ldrb.w	r2, [r3, #1]!
     904:	4299      	cmp	r1, r3
     906:	f803 2c01 	strb.w	r2, [r3, #-1]
     90a:	d1f9      	bne.n	900 <std_msgs::MultiArrayLayout::deserialize(unsigned char*)+0x44>
     90c:	eb08 0200 	add.w	r2, r8, r0
     910:	f882 c003 	strb.w	r12, [r2, #3]
     914:	f8c4 a00c 	str.w	r10, [r4, #12]
     918:	f818 3009 	ldrb.w	r3, [r8, r9]
     91c:	f8d4 8018 	ldr.w	r8, [r4, #24]
     920:	6123      	str	r3, [r4, #16]
     922:	f892 9005 	ldrb.w	r9, [r2, #5]
     926:	0129      	lsls	r1, r5, #4
     928:	ea43 2309 	orr.w	r3, r3, r9, lsl #8
     92c:	6123      	str	r3, [r4, #16]
     92e:	f892 9006 	ldrb.w	r9, [r2, #6]
     932:	300c      	adds	r0, #12
     934:	ea43 4309 	orr.w	r3, r3, r9, lsl #16
     938:	6123      	str	r3, [r4, #16]
     93a:	f892 9007 	ldrb.w	r9, [r2, #7]
     93e:	4486      	add	lr, r0
     940:	ea43 6309 	orr.w	r3, r3, r9, lsl #24
     944:	6123      	str	r3, [r4, #16]
     946:	7a13      	ldrb	r3, [r2, #8]
     948:	eb08 0001 	add.w	r0, r8, r1
     94c:	6163      	str	r3, [r4, #20]
     94e:	f892 9009 	ldrb.w	r9, [r2, #9]
     952:	3501      	adds	r5, #1
     954:	ea43 2309 	orr.w	r3, r3, r9, lsl #8
     958:	6163      	str	r3, [r4, #20]
     95a:	f892 900a 	ldrb.w	r9, [r2, #10]
     95e:	b2ed      	uxtb	r5, r5
     960:	ea43 4309 	orr.w	r3, r3, r9, lsl #16
     964:	6163      	str	r3, [r4, #20]
     966:	7ad2      	ldrb	r2, [r2, #11]
     968:	ea43 6302 	orr.w	r3, r3, r2, lsl #24
     96c:	6163      	str	r3, [r4, #20]
     96e:	68fb      	ldr	r3, [r7, #12]
     970:	f8d7 a000 	ldr.w	r10, [r7]
     974:	f8d7 9004 	ldr.w	r9, [r7, #4]
     978:	68ba      	ldr	r2, [r7, #8]
     97a:	f848 a001 	str.w	r10, [r8, r1]
     97e:	f8c0 9004 	str.w	r9, [r0, #4]
     982:	6082      	str	r2, [r0, #8]
     984:	60c3      	str	r3, [r0, #12]
     986:	7923      	ldrb	r3, [r4, #4]
     988:	42ab      	cmp	r3, r5
     98a:	d8a9      	bhi.n	8e0 <std_msgs::MultiArrayLayout::deserialize(unsigned char*)+0x24>
     98c:	f10e 0501 	add.w	r5, lr, #1
     990:	f10e 0102 	add.w	r1, lr, #2
     994:	f10e 0203 	add.w	r2, lr, #3
     998:	f10e 0004 	add.w	r0, lr, #4
     99c:	f816 300e 	ldrb.w	r3, [r6, lr]
     9a0:	61e3      	str	r3, [r4, #28]
     9a2:	5d75      	ldrb	r5, [r6, r5]
     9a4:	ea43 2305 	orr.w	r3, r3, r5, lsl #8
     9a8:	61e3      	str	r3, [r4, #28]
     9aa:	5c71      	ldrb	r1, [r6, r1]
     9ac:	ea43 4301 	orr.w	r3, r3, r1, lsl #16
     9b0:	61e3      	str	r3, [r4, #28]
     9b2:	5cb2      	ldrb	r2, [r6, r2]
     9b4:	ea43 6302 	orr.w	r3, r3, r2, lsl #24
     9b8:	61e3      	str	r3, [r4, #28]
     9ba:	b002      	add	sp, #8
     9bc:	e8bd 87f0 	ldmia.w	sp!, {r4, r5, r6, r7, r8, r9, r10, pc}
     9c0:	0129      	lsls	r1, r5, #4
     9c2:	6980      	ldr	r0, [r0, #24]
     9c4:	f005 fafa 	bl	5fbc <__wrap_realloc>
     9c8:	7125      	strb	r5, [r4, #4]
     9ca:	61a0      	str	r0, [r4, #24]
     9cc:	2d00      	cmp	r5, #0
     9ce:	d181      	bne.n	8d4 <std_msgs::MultiArrayLayout::deserialize(unsigned char*)+0x18>
     9d0:	2008      	movs	r0, #8
     9d2:	2207      	movs	r2, #7
     9d4:	2106      	movs	r1, #6
     9d6:	2505      	movs	r5, #5
     9d8:	f04f 0e04 	mov.w	lr, #4
     9dc:	e7de      	b.n	99c <std_msgs::MultiArrayLayout::deserialize(unsigned char*)+0xe0>
     9de:	bf00      	nop

000009e0 <std_msgs::Int16MultiArray::serialize(unsigned char*) const>:
     9e0:	e92d 4ff0 	stmdb	sp!, {r4, r5, r6, r7, r8, r9, r10, r11, lr}
     9e4:	7a03      	ldrb	r3, [r0, #8]
     9e6:	2600      	movs	r6, #0
     9e8:	700b      	strb	r3, [r1, #0]
     9ea:	704e      	strb	r6, [r1, #1]
     9ec:	708e      	strb	r6, [r1, #2]
     9ee:	70ce      	strb	r6, [r1, #3]
     9f0:	7a03      	ldrb	r3, [r0, #8]
     9f2:	b083      	sub	sp, #12
     9f4:	4680      	mov	r8, r0
     9f6:	460f      	mov	r7, r1
     9f8:	2b00      	cmp	r3, #0
     9fa:	d07b      	beq.n	af4 <std_msgs::Int16MultiArray::serialize(unsigned char*) const+0x114>
     9fc:	f8df a110 	ldr.w	r10, [pc, #272]	; b10 <std_msgs::Int16MultiArray::serialize(unsigned char*) const+0x130>
     a00:	f04f 0b04 	mov.w	r11, #4
     a04:	e02b      	b.n	a5e <std_msgs::Int16MultiArray::serialize(unsigned char*) const+0x7e>
     a06:	6860      	ldr	r0, [r4, #4]
     a08:	f009 fbb1 	bl	a16e <strlen>
     a0c:	4681      	mov	r9, r0
     a0e:	ab02      	add	r3, sp, #8
     a10:	f843 0d04 	str.w	r0, [r3, #-4]!
     a14:	6818      	ldr	r0, [r3, #0]
     a16:	464a      	mov	r2, r9
     a18:	f847 000b 	str.w	r0, [r7, r11]
     a1c:	6861      	ldr	r1, [r4, #4]
     a1e:	1d28      	adds	r0, r5, #4
     a20:	f008 fc1e 	bl	9260 <memcpy>
     a24:	68a3      	ldr	r3, [r4, #8]
     a26:	eb05 0109 	add.w	r1, r5, r9
     a2a:	710b      	strb	r3, [r1, #4]
     a2c:	68a3      	ldr	r3, [r4, #8]
     a2e:	f109 000c 	add.w	r0, r9, #12
     a32:	0a1b      	lsrs	r3, r3, #8
     a34:	714b      	strb	r3, [r1, #5]
     a36:	8963      	ldrh	r3, [r4, #10]
     a38:	718b      	strb	r3, [r1, #6]
     a3a:	7ae3      	ldrb	r3, [r4, #11]
     a3c:	71cb      	strb	r3, [r1, #7]
     a3e:	68e3      	ldr	r3, [r4, #12]
     a40:	720b      	strb	r3, [r1, #8]
     a42:	68e3      	ldr	r3, [r4, #12]
     a44:	0a1b      	lsrs	r3, r3, #8
     a46:	724b      	strb	r3, [r1, #9]
     a48:	89e3      	ldrh	r3, [r4, #14]
     a4a:	728b      	strb	r3, [r1, #10]
     a4c:	7be3      	ldrb	r3, [r4, #15]
     a4e:	72cb      	strb	r3, [r1, #11]
     a50:	3601      	adds	r6, #1
     a52:	f898 3008 	ldrb.w	r3, [r8, #8]
     a56:	b2f6      	uxtb	r6, r6
     a58:	42b3      	cmp	r3, r6
     a5a:	4483      	add	r11, r0
     a5c:	d90d      	bls.n	a7a <std_msgs::Int16MultiArray::serialize(unsigned char*) const+0x9a>
     a5e:	f8d8 401c 	ldr.w	r4, [r8, #28]
     a62:	0133      	lsls	r3, r6, #4
     a64:	58e2      	ldr	r2, [r4, r3]
     a66:	441c      	add	r4, r3
     a68:	6813      	ldr	r3, [r2, #0]
     a6a:	eb07 050b 	add.w	r5, r7, r11
     a6e:	4553      	cmp	r3, r10
     a70:	d0c9      	beq.n	a06 <std_msgs::Int16MultiArray::serialize(unsigned char*) const+0x26>
     a72:	4629      	mov	r1, r5
     a74:	4620      	mov	r0, r4
     a76:	4798      	blx	r3
     a78:	e7ea      	b.n	a50 <std_msgs::Int16MultiArray::serialize(unsigned char*) const+0x70>
     a7a:	f10b 0104 	add.w	r1, r11, #4
     a7e:	1d08      	adds	r0, r1, #4
     a80:	f10b 0605 	add.w	r6, r11, #5
     a84:	f10b 0506 	add.w	r5, r11, #6
     a88:	f10b 0407 	add.w	r4, r11, #7
     a8c:	f10b 0901 	add.w	r9, r11, #1
     a90:	f10b 0c02 	add.w	r12, r11, #2
     a94:	f10b 0e03 	add.w	lr, r11, #3
     a98:	f8d8 2020 	ldr.w	r2, [r8, #32]
     a9c:	2300      	movs	r3, #0
     a9e:	f807 200b 	strb.w	r2, [r7, r11]
     aa2:	f8d8 2020 	ldr.w	r2, [r8, #32]
     aa6:	0a12      	lsrs	r2, r2, #8
     aa8:	f807 2009 	strb.w	r2, [r7, r9]
     aac:	f8b8 2022 	ldrh.w	r2, [r8, #34]	; 0x22
     ab0:	f807 200c 	strb.w	r2, [r7, r12]
     ab4:	f898 2023 	ldrb.w	r2, [r8, #35]	; 0x23
     ab8:	f807 200e 	strb.w	r2, [r7, lr]
     abc:	f898 2024 	ldrb.w	r2, [r8, #36]	; 0x24
     ac0:	547a      	strb	r2, [r7, r1]
     ac2:	55bb      	strb	r3, [r7, r6]
     ac4:	557b      	strb	r3, [r7, r5]
     ac6:	553b      	strb	r3, [r7, r4]
     ac8:	f898 2024 	ldrb.w	r2, [r8, #36]	; 0x24
     acc:	b17a      	cbz	r2, aee <std_msgs::Int16MultiArray::serialize(unsigned char*) const+0x10e>
     ace:	f8d8 2028 	ldr.w	r2, [r8, #40]	; 0x28
     ad2:	1839      	adds	r1, r7, r0
     ad4:	f832 2013 	ldrh.w	r2, [r2, r3, lsl #1]
     ad8:	3301      	adds	r3, #1
     ada:	0a14      	lsrs	r4, r2, #8
     adc:	543a      	strb	r2, [r7, r0]
     ade:	704c      	strb	r4, [r1, #1]
     ae0:	f898 2024 	ldrb.w	r2, [r8, #36]	; 0x24
     ae4:	b2db      	uxtb	r3, r3
     ae6:	429a      	cmp	r2, r3
     ae8:	f100 0002 	add.w	r0, r0, #2
     aec:	d8ef      	bhi.n	ace <std_msgs::Int16MultiArray::serialize(unsigned char*) const+0xee>
     aee:	b003      	add	sp, #12
     af0:	e8bd 8ff0 	ldmia.w	sp!, {r4, r5, r6, r7, r8, r9, r10, r11, pc}
     af4:	2108      	movs	r1, #8
     af6:	f04f 0e07 	mov.w	lr, #7
     afa:	f04f 0c06 	mov.w	r12, #6
     afe:	f04f 0905 	mov.w	r9, #5
     b02:	f04f 0b04 	mov.w	r11, #4
     b06:	240b      	movs	r4, #11
     b08:	200c      	movs	r0, #12
     b0a:	250a      	movs	r5, #10
     b0c:	2609      	movs	r6, #9
     b0e:	e7c3      	b.n	a98 <std_msgs::Int16MultiArray::serialize(unsigned char*) const+0xb8>
     b10:	000002b9 	.word	0x000002b9

00000b14 <std_msgs::Float32MultiArray::serialize(unsigned char*) const>:
     b14:	e92d 4ff0 	stmdb	sp!, {r4, r5, r6, r7, r8, r9, r10, r11, lr}
     b18:	7a03      	ldrb	r3, [r0, #8]
     b1a:	2600      	movs	r6, #0
     b1c:	700b      	strb	r3, [r1, #0]
     b1e:	704e      	strb	r6, [r1, #1]
     b20:	708e      	strb	r6, [r1, #2]
     b22:	70ce      	strb	r6, [r1, #3]
     b24:	7a03      	ldrb	r3, [r0, #8]
     b26:	b083      	sub	sp, #12
     b28:	4680      	mov	r8, r0
     b2a:	4689      	mov	r9, r1
     b2c:	2b00      	cmp	r3, #0
     b2e:	f000 8086 	beq.w	c3e <Stack_Size+0x3e>
     b32:	f8df a124 	ldr.w	r10, [pc, #292]	; c58 <Stack_Size+0x58>
     b36:	f04f 0b04 	mov.w	r11, #4
     b3a:	e02a      	b.n	b92 <std_msgs::Float32MultiArray::serialize(unsigned char*) const+0x7e>
     b3c:	6860      	ldr	r0, [r4, #4]
     b3e:	f009 fb16 	bl	a16e <strlen>
     b42:	4607      	mov	r7, r0
     b44:	ab02      	add	r3, sp, #8
     b46:	f843 0d04 	str.w	r0, [r3, #-4]!
     b4a:	6818      	ldr	r0, [r3, #0]
     b4c:	463a      	mov	r2, r7
     b4e:	f849 000b 	str.w	r0, [r9, r11]
     b52:	6861      	ldr	r1, [r4, #4]
     b54:	1d28      	adds	r0, r5, #4
     b56:	f008 fb83 	bl	9260 <memcpy>
     b5a:	68a3      	ldr	r3, [r4, #8]
     b5c:	19e9      	adds	r1, r5, r7
     b5e:	710b      	strb	r3, [r1, #4]
     b60:	68a3      	ldr	r3, [r4, #8]
     b62:	f107 000c 	add.w	r0, r7, #12
     b66:	0a1b      	lsrs	r3, r3, #8
     b68:	714b      	strb	r3, [r1, #5]
     b6a:	8963      	ldrh	r3, [r4, #10]
     b6c:	718b      	strb	r3, [r1, #6]
     b6e:	7ae3      	ldrb	r3, [r4, #11]
     b70:	71cb      	strb	r3, [r1, #7]
     b72:	68e3      	ldr	r3, [r4, #12]
     b74:	720b      	strb	r3, [r1, #8]
     b76:	68e3      	ldr	r3, [r4, #12]
     b78:	0a1b      	lsrs	r3, r3, #8
     b7a:	724b      	strb	r3, [r1, #9]
     b7c:	89e3      	ldrh	r3, [r4, #14]
     b7e:	728b      	strb	r3, [r1, #10]
     b80:	7be3      	ldrb	r3, [r4, #15]
     b82:	72cb      	strb	r3, [r1, #11]
     b84:	3601      	adds	r6, #1
     b86:	f898 3008 	ldrb.w	r3, [r8, #8]
     b8a:	b2f6      	uxtb	r6, r6
     b8c:	42b3      	cmp	r3, r6
     b8e:	4483      	add	r11, r0
     b90:	d90d      	bls.n	bae <std_msgs::Float32MultiArray::serialize(unsigned char*) const+0x9a>
     b92:	f8d8 401c 	ldr.w	r4, [r8, #28]
     b96:	0133      	lsls	r3, r6, #4
     b98:	58e2      	ldr	r2, [r4, r3]
     b9a:	441c      	add	r4, r3
     b9c:	6813      	ldr	r3, [r2, #0]
     b9e:	eb09 050b 	add.w	r5, r9, r11
     ba2:	4553      	cmp	r3, r10
     ba4:	d0ca      	beq.n	b3c <std_msgs::Float32MultiArray::serialize(unsigned char*) const+0x28>
     ba6:	4629      	mov	r1, r5
     ba8:	4620      	mov	r0, r4
     baa:	4798      	blx	r3
     bac:	e7ea      	b.n	b84 <std_msgs::Float32MultiArray::serialize(unsigned char*) const+0x70>
     bae:	f10b 0204 	add.w	r2, r11, #4
     bb2:	1d10      	adds	r0, r2, #4
     bb4:	f10b 0605 	add.w	r6, r11, #5
     bb8:	f10b 0506 	add.w	r5, r11, #6
     bbc:	f10b 0407 	add.w	r4, r11, #7
     bc0:	f10b 0c01 	add.w	r12, r11, #1
     bc4:	f10b 0e02 	add.w	lr, r11, #2
     bc8:	f10b 0703 	add.w	r7, r11, #3
     bcc:	f8d8 3020 	ldr.w	r3, [r8, #32]
     bd0:	2100      	movs	r1, #0
     bd2:	f809 300b 	strb.w	r3, [r9, r11]
     bd6:	f8d8 3020 	ldr.w	r3, [r8, #32]
     bda:	0a1b      	lsrs	r3, r3, #8
     bdc:	f809 300c 	strb.w	r3, [r9, r12]
     be0:	f8b8 3022 	ldrh.w	r3, [r8, #34]	; 0x22
     be4:	f809 300e 	strb.w	r3, [r9, lr]
     be8:	f898 3023 	ldrb.w	r3, [r8, #35]	; 0x23
     bec:	f809 3007 	strb.w	r3, [r9, r7]
     bf0:	f898 3024 	ldrb.w	r3, [r8, #36]	; 0x24
     bf4:	f809 3002 	strb.w	r3, [r9, r2]
     bf8:	f809 1006 	strb.w	r1, [r9, r6]
     bfc:	f809 1005 	strb.w	r1, [r9, r5]
     c00:	f809 1004 	strb.w	r1, [r9, r4]
     c04:	f898 3024 	ldrb.w	r3, [r8, #36]	; 0x24
     c08:	b1b3      	cbz	r3, c38 <Stack_Size+0x38>
     c0a:	eb09 0300 	add.w	r3, r9, r0
     c0e:	f8d8 202c 	ldr.w	r2, [r8, #44]	; 0x2c
     c12:	1c4c      	adds	r4, r1, #1
     c14:	f852 2021 	ldr.w	r2, [r2, r1, lsl #2]
     c18:	b2e1      	uxtb	r1, r4
     c1a:	0a16      	lsrs	r6, r2, #8
     c1c:	0c15      	lsrs	r5, r2, #16
     c1e:	0e14      	lsrs	r4, r2, #24
     c20:	f809 2000 	strb.w	r2, [r9, r0]
     c24:	705e      	strb	r6, [r3, #1]
     c26:	709d      	strb	r5, [r3, #2]
     c28:	70dc      	strb	r4, [r3, #3]
     c2a:	f898 2024 	ldrb.w	r2, [r8, #36]	; 0x24
     c2e:	3004      	adds	r0, #4
     c30:	428a      	cmp	r2, r1
     c32:	f103 0304 	add.w	r3, r3, #4
     c36:	d8ea      	bhi.n	c0e <Stack_Size+0xe>
     c38:	b003      	add	sp, #12
     c3a:	e8bd 8ff0 	ldmia.w	sp!, {r4, r5, r6, r7, r8, r9, r10, r11, pc}
     c3e:	2208      	movs	r2, #8
     c40:	2707      	movs	r7, #7
     c42:	f04f 0e06 	mov.w	lr, #6
     c46:	f04f 0c05 	mov.w	r12, #5
     c4a:	f04f 0b04 	mov.w	r11, #4
     c4e:	240b      	movs	r4, #11
     c50:	200c      	movs	r0, #12
     c52:	250a      	movs	r5, #10
     c54:	2609      	movs	r6, #9
     c56:	e7b9      	b.n	bcc <std_msgs::Float32MultiArray::serialize(unsigned char*) const+0xb8>
     c58:	000002b9 	.word	0x000002b9

00000c5c <ros::Subscriber<std_msgs::Int16MultiArray>::callback(unsigned char*)>:
     c5c:	e92d 4ff0 	stmdb	sp!, {r4, r5, r6, r7, r8, r9, r10, r11, lr}
     c60:	7d03      	ldrb	r3, [r0, #20]
     c62:	780d      	ldrb	r5, [r1, #0]
     c64:	b083      	sub	sp, #12
     c66:	42ab      	cmp	r3, r5
     c68:	4604      	mov	r4, r0
     c6a:	4688      	mov	r8, r1
     c6c:	f100 090c 	add.w	r9, r0, #12
     c70:	f0c0 809b 	bcc.w	daa <ros::Subscriber<std_msgs::Int16MultiArray>::callback(unsigned char*)+0x14e>
     c74:	7525      	strb	r5, [r4, #20]
     c76:	2d00      	cmp	r5, #0
     c78:	f000 80a0 	beq.w	dbc <ros::Subscriber<std_msgs::Int16MultiArray>::callback(unsigned char*)+0x160>
     c7c:	2500      	movs	r5, #0
     c7e:	46aa      	mov	r10, r5
     c80:	f104 0718 	add.w	r7, r4, #24
     c84:	f04f 0e04 	mov.w	lr, #4
     c88:	eb08 060e 	add.w	r6, r8, lr
     c8c:	6830      	ldr	r0, [r6, #0]
     c8e:	f106 0b03 	add.w	r11, r6, #3
     c92:	9001      	str	r0, [sp, #4]
     c94:	9801      	ldr	r0, [sp, #4]
     c96:	f100 0c04 	add.w	r12, r0, #4
     c9a:	f1bc 0f04 	cmp.w	r12, #4
     c9e:	d908      	bls.n	cb2 <ros::Subscriber<std_msgs::Int16MultiArray>::callback(unsigned char*)+0x56>
     ca0:	465b      	mov	r3, r11
     ca2:	1cc1      	adds	r1, r0, #3
     ca4:	4431      	add	r1, r6
     ca6:	f813 2f01 	ldrb.w	r2, [r3, #1]!
     caa:	428b      	cmp	r3, r1
     cac:	f803 2c01 	strb.w	r2, [r3, #-1]
     cb0:	d1f9      	bne.n	ca6 <ros::Subscriber<std_msgs::Int16MultiArray>::callback(unsigned char*)+0x4a>
     cb2:	1832      	adds	r2, r6, r0
     cb4:	f882 a003 	strb.w	r10, [r2, #3]
     cb8:	f8c4 b01c 	str.w	r11, [r4, #28]
     cbc:	f816 300c 	ldrb.w	r3, [r6, r12]
     cc0:	6aa6      	ldr	r6, [r4, #40]	; 0x28
     cc2:	6223      	str	r3, [r4, #32]
     cc4:	f892 c005 	ldrb.w	r12, [r2, #5]
     cc8:	0129      	lsls	r1, r5, #4
     cca:	ea43 230c 	orr.w	r3, r3, r12, lsl #8
     cce:	6223      	str	r3, [r4, #32]
     cd0:	f892 c006 	ldrb.w	r12, [r2, #6]
     cd4:	300c      	adds	r0, #12
     cd6:	ea43 430c 	orr.w	r3, r3, r12, lsl #16
     cda:	6223      	str	r3, [r4, #32]
     cdc:	f892 c007 	ldrb.w	r12, [r2, #7]
     ce0:	4486      	add	lr, r0
     ce2:	ea43 630c 	orr.w	r3, r3, r12, lsl #24
     ce6:	6223      	str	r3, [r4, #32]
     ce8:	7a13      	ldrb	r3, [r2, #8]
     cea:	1870      	adds	r0, r6, r1
     cec:	6263      	str	r3, [r4, #36]	; 0x24
     cee:	f892 c009 	ldrb.w	r12, [r2, #9]
     cf2:	3501      	adds	r5, #1
     cf4:	ea43 230c 	orr.w	r3, r3, r12, lsl #8
     cf8:	6263      	str	r3, [r4, #36]	; 0x24
     cfa:	f892 c00a 	ldrb.w	r12, [r2, #10]
     cfe:	b2ed      	uxtb	r5, r5
     d00:	ea43 430c 	orr.w	r3, r3, r12, lsl #16
     d04:	6263      	str	r3, [r4, #36]	; 0x24
     d06:	7ad2      	ldrb	r2, [r2, #11]
     d08:	ea43 6302 	orr.w	r3, r3, r2, lsl #24
     d0c:	6263      	str	r3, [r4, #36]	; 0x24
     d0e:	68fb      	ldr	r3, [r7, #12]
     d10:	f8d7 b000 	ldr.w	r11, [r7]
     d14:	f8d7 c004 	ldr.w	r12, [r7, #4]
     d18:	68ba      	ldr	r2, [r7, #8]
     d1a:	f846 b001 	str.w	r11, [r6, r1]
     d1e:	f8c0 c004 	str.w	r12, [r0, #4]
     d22:	6082      	str	r2, [r0, #8]
     d24:	60c3      	str	r3, [r0, #12]
     d26:	7d23      	ldrb	r3, [r4, #20]
     d28:	42ab      	cmp	r3, r5
     d2a:	d8ad      	bhi.n	c88 <ros::Subscriber<std_msgs::Int16MultiArray>::callback(unsigned char*)+0x2c>
     d2c:	f10e 0204 	add.w	r2, lr, #4
     d30:	1d15      	adds	r5, r2, #4
     d32:	f10e 0601 	add.w	r6, lr, #1
     d36:	f10e 0002 	add.w	r0, lr, #2
     d3a:	f10e 0103 	add.w	r1, lr, #3
     d3e:	f818 300e 	ldrb.w	r3, [r8, lr]
     d42:	f894 7030 	ldrb.w	r7, [r4, #48]	; 0x30
     d46:	62e3      	str	r3, [r4, #44]	; 0x2c
     d48:	f818 6006 	ldrb.w	r6, [r8, r6]
     d4c:	ea43 2306 	orr.w	r3, r3, r6, lsl #8
     d50:	62e3      	str	r3, [r4, #44]	; 0x2c
     d52:	f818 0000 	ldrb.w	r0, [r8, r0]
     d56:	ea43 4300 	orr.w	r3, r3, r0, lsl #16
     d5a:	62e3      	str	r3, [r4, #44]	; 0x2c
     d5c:	f818 1001 	ldrb.w	r1, [r8, r1]
     d60:	ea43 6301 	orr.w	r3, r3, r1, lsl #24
     d64:	62e3      	str	r3, [r4, #44]	; 0x2c
     d66:	f818 6002 	ldrb.w	r6, [r8, r2]
     d6a:	42b7      	cmp	r7, r6
     d6c:	d32e      	bcc.n	dcc <ros::Subscriber<std_msgs::Int16MultiArray>::callback(unsigned char*)+0x170>
     d6e:	f884 6030 	strb.w	r6, [r4, #48]	; 0x30
     d72:	b1a6      	cbz	r6, d9e <ros::Subscriber<std_msgs::Int16MultiArray>::callback(unsigned char*)+0x142>
     d74:	44a8      	add	r8, r5
     d76:	2300      	movs	r3, #0
     d78:	f104 0532 	add.w	r5, r4, #50	; 0x32
     d7c:	f898 1001 	ldrb.w	r1, [r8, #1]
     d80:	f818 2b02 	ldrb.w	r2, [r8], #2
     d84:	6b60      	ldr	r0, [r4, #52]	; 0x34
     d86:	ea42 2201 	orr.w	r2, r2, r1, lsl #8
     d8a:	8662      	strh	r2, [r4, #50]	; 0x32
     d8c:	882a      	ldrh	r2, [r5, #0]
     d8e:	1c59      	adds	r1, r3, #1
     d90:	f820 2013 	strh.w	r2, [r0, r3, lsl #1]
     d94:	f894 2030 	ldrb.w	r2, [r4, #48]	; 0x30
     d98:	b2cb      	uxtb	r3, r1
     d9a:	429a      	cmp	r2, r3
     d9c:	d8ee      	bhi.n	d7c <ros::Subscriber<std_msgs::Int16MultiArray>::callback(unsigned char*)+0x120>
     d9e:	4648      	mov	r0, r9
     da0:	6ba3      	ldr	r3, [r4, #56]	; 0x38
     da2:	b003      	add	sp, #12
     da4:	e8bd 4ff0 	ldmia.w	sp!, {r4, r5, r6, r7, r8, r9, r10, r11, lr}
     da8:	4718      	bx	r3
     daa:	0129      	lsls	r1, r5, #4
     dac:	6a80      	ldr	r0, [r0, #40]	; 0x28
     dae:	f005 f905 	bl	5fbc <__wrap_realloc>
     db2:	7525      	strb	r5, [r4, #20]
     db4:	62a0      	str	r0, [r4, #40]	; 0x28
     db6:	2d00      	cmp	r5, #0
     db8:	f47f af60 	bne.w	c7c <ros::Subscriber<std_msgs::Int16MultiArray>::callback(unsigned char*)+0x20>
     dbc:	2208      	movs	r2, #8
     dbe:	2107      	movs	r1, #7
     dc0:	2006      	movs	r0, #6
     dc2:	2605      	movs	r6, #5
     dc4:	f04f 0e04 	mov.w	lr, #4
     dc8:	250c      	movs	r5, #12
     dca:	e7b8      	b.n	d3e <ros::Subscriber<std_msgs::Int16MultiArray>::callback(unsigned char*)+0xe2>
     dcc:	0071      	lsls	r1, r6, #1
     dce:	6b60      	ldr	r0, [r4, #52]	; 0x34
     dd0:	f005 f8f4 	bl	5fbc <__wrap_realloc>
     dd4:	6360      	str	r0, [r4, #52]	; 0x34
     dd6:	e7ca      	b.n	d6e <ros::Subscriber<std_msgs::Int16MultiArray>::callback(unsigned char*)+0x112>

00000dd8 <std_msgs::Int16MultiArray::deserialize(unsigned char*)>:
     dd8:	e92d 47f0 	stmdb	sp!, {r4, r5, r6, r7, r8, r9, r10, lr}
     ddc:	7a03      	ldrb	r3, [r0, #8]
     dde:	780d      	ldrb	r5, [r1, #0]
     de0:	b082      	sub	sp, #8
     de2:	42ab      	cmp	r3, r5
     de4:	4604      	mov	r4, r0
     de6:	460e      	mov	r6, r1
     de8:	f0c0 809a 	bcc.w	f20 <std_msgs::Int16MultiArray::deserialize(unsigned char*)+0x148>
     dec:	7225      	strb	r5, [r4, #8]
     dee:	2d00      	cmp	r5, #0
     df0:	f000 809f 	beq.w	f32 <std_msgs::Int16MultiArray::deserialize(unsigned char*)+0x15a>
     df4:	2500      	movs	r5, #0
     df6:	46ac      	mov	r12, r5
     df8:	f104 070c 	add.w	r7, r4, #12
     dfc:	f04f 0e04 	mov.w	lr, #4
     e00:	eb06 080e 	add.w	r8, r6, lr
     e04:	f8d8 0000 	ldr.w	r0, [r8]
     e08:	f108 0a03 	add.w	r10, r8, #3
     e0c:	9001      	str	r0, [sp, #4]
     e0e:	9801      	ldr	r0, [sp, #4]
     e10:	f100 0904 	add.w	r9, r0, #4
     e14:	f1b9 0f04 	cmp.w	r9, #4
     e18:	d908      	bls.n	e2c <std_msgs::Int16MultiArray::deserialize(unsigned char*)+0x54>
     e1a:	4653      	mov	r3, r10
     e1c:	1cc1      	adds	r1, r0, #3
     e1e:	4441      	add	r1, r8
     e20:	f813 2f01 	ldrb.w	r2, [r3, #1]!
     e24:	428b      	cmp	r3, r1
     e26:	f803 2c01 	strb.w	r2, [r3, #-1]
     e2a:	d1f9      	bne.n	e20 <std_msgs::Int16MultiArray::deserialize(unsigned char*)+0x48>
     e2c:	eb08 0200 	add.w	r2, r8, r0
     e30:	f882 c003 	strb.w	r12, [r2, #3]
     e34:	f8c4 a010 	str.w	r10, [r4, #16]
     e38:	f818 3009 	ldrb.w	r3, [r8, r9]
     e3c:	f8d4 801c 	ldr.w	r8, [r4, #28]
     e40:	6163      	str	r3, [r4, #20]
     e42:	f892 9005 	ldrb.w	r9, [r2, #5]
     e46:	0129      	lsls	r1, r5, #4
     e48:	ea43 2309 	orr.w	r3, r3, r9, lsl #8
     e4c:	6163      	str	r3, [r4, #20]
     e4e:	f892 9006 	ldrb.w	r9, [r2, #6]
     e52:	300c      	adds	r0, #12
     e54:	ea43 4309 	orr.w	r3, r3, r9, lsl #16
     e58:	6163      	str	r3, [r4, #20]
     e5a:	f892 9007 	ldrb.w	r9, [r2, #7]
     e5e:	4486      	add	lr, r0
     e60:	ea43 6309 	orr.w	r3, r3, r9, lsl #24
     e64:	6163      	str	r3, [r4, #20]
     e66:	7a13      	ldrb	r3, [r2, #8]
     e68:	eb08 0001 	add.w	r0, r8, r1
     e6c:	61a3      	str	r3, [r4, #24]
     e6e:	f892 9009 	ldrb.w	r9, [r2, #9]
     e72:	3501      	adds	r5, #1
     e74:	ea43 2309 	orr.w	r3, r3, r9, lsl #8
     e78:	61a3      	str	r3, [r4, #24]
     e7a:	f892 900a 	ldrb.w	r9, [r2, #10]
     e7e:	b2ed      	uxtb	r5, r5
     e80:	ea43 4309 	orr.w	r3, r3, r9, lsl #16
     e84:	61a3      	str	r3, [r4, #24]
     e86:	7ad2      	ldrb	r2, [r2, #11]
     e88:	ea43 6302 	orr.w	r3, r3, r2, lsl #24
     e8c:	61a3      	str	r3, [r4, #24]
     e8e:	68fb      	ldr	r3, [r7, #12]
     e90:	f8d7 a000 	ldr.w	r10, [r7]
     e94:	f8d7 9004 	ldr.w	r9, [r7, #4]
     e98:	68ba      	ldr	r2, [r7, #8]
     e9a:	f848 a001 	str.w	r10, [r8, r1]
     e9e:	f8c0 9004 	str.w	r9, [r0, #4]
     ea2:	6082      	str	r2, [r0, #8]
     ea4:	60c3      	str	r3, [r0, #12]
     ea6:	7a23      	ldrb	r3, [r4, #8]
     ea8:	42ab      	cmp	r3, r5
     eaa:	d8a9      	bhi.n	e00 <std_msgs::Int16MultiArray::deserialize(unsigned char*)+0x28>
     eac:	f10e 0204 	add.w	r2, lr, #4
     eb0:	1d15      	adds	r5, r2, #4
     eb2:	f10e 0701 	add.w	r7, lr, #1
     eb6:	f10e 0002 	add.w	r0, lr, #2
     eba:	f10e 0103 	add.w	r1, lr, #3
     ebe:	f816 300e 	ldrb.w	r3, [r6, lr]
     ec2:	f894 e024 	ldrb.w	lr, [r4, #36]	; 0x24
     ec6:	6223      	str	r3, [r4, #32]
     ec8:	5df7      	ldrb	r7, [r6, r7]
     eca:	ea43 2307 	orr.w	r3, r3, r7, lsl #8
     ece:	6223      	str	r3, [r4, #32]
     ed0:	5c30      	ldrb	r0, [r6, r0]
     ed2:	ea43 4300 	orr.w	r3, r3, r0, lsl #16
     ed6:	6223      	str	r3, [r4, #32]
     ed8:	5c71      	ldrb	r1, [r6, r1]
     eda:	ea43 6301 	orr.w	r3, r3, r1, lsl #24
     ede:	6223      	str	r3, [r4, #32]
     ee0:	5cb7      	ldrb	r7, [r6, r2]
     ee2:	45be      	cmp	lr, r7
     ee4:	d32d      	bcc.n	f42 <std_msgs::Int16MultiArray::deserialize(unsigned char*)+0x16a>
     ee6:	f884 7024 	strb.w	r7, [r4, #36]	; 0x24
     eea:	b1af      	cbz	r7, f18 <std_msgs::Int16MultiArray::deserialize(unsigned char*)+0x140>
     eec:	442e      	add	r6, r5
     eee:	f104 0726 	add.w	r7, r4, #38	; 0x26
     ef2:	2300      	movs	r3, #0
     ef4:	7871      	ldrb	r1, [r6, #1]
     ef6:	f816 2b02 	ldrb.w	r2, [r6], #2
     efa:	6aa0      	ldr	r0, [r4, #40]	; 0x28
     efc:	ea42 2201 	orr.w	r2, r2, r1, lsl #8
     f00:	84e2      	strh	r2, [r4, #38]	; 0x26
     f02:	883a      	ldrh	r2, [r7, #0]
     f04:	1c59      	adds	r1, r3, #1
     f06:	f820 2013 	strh.w	r2, [r0, r3, lsl #1]
     f0a:	f894 2024 	ldrb.w	r2, [r4, #36]	; 0x24
     f0e:	b2cb      	uxtb	r3, r1
     f10:	429a      	cmp	r2, r3
     f12:	f105 0502 	add.w	r5, r5, #2
     f16:	d8ed      	bhi.n	ef4 <std_msgs::Int16MultiArray::deserialize(unsigned char*)+0x11c>
     f18:	4628      	mov	r0, r5
     f1a:	b002      	add	sp, #8
     f1c:	e8bd 87f0 	ldmia.w	sp!, {r4, r5, r6, r7, r8, r9, r10, pc}
     f20:	0129      	lsls	r1, r5, #4
     f22:	69c0      	ldr	r0, [r0, #28]
     f24:	f005 f84a 	bl	5fbc <__wrap_realloc>
     f28:	7225      	strb	r5, [r4, #8]
     f2a:	61e0      	str	r0, [r4, #28]
     f2c:	2d00      	cmp	r5, #0
     f2e:	f47f af61 	bne.w	df4 <std_msgs::Int16MultiArray::deserialize(unsigned char*)+0x1c>
     f32:	2208      	movs	r2, #8
     f34:	2107      	movs	r1, #7
     f36:	2006      	movs	r0, #6
     f38:	2705      	movs	r7, #5
     f3a:	f04f 0e04 	mov.w	lr, #4
     f3e:	250c      	movs	r5, #12
     f40:	e7bd      	b.n	ebe <std_msgs::Int16MultiArray::deserialize(unsigned char*)+0xe6>
     f42:	0079      	lsls	r1, r7, #1
     f44:	6aa0      	ldr	r0, [r4, #40]	; 0x28
     f46:	f005 f839 	bl	5fbc <__wrap_realloc>
     f4a:	62a0      	str	r0, [r4, #40]	; 0x28
     f4c:	e7cb      	b.n	ee6 <std_msgs::Int16MultiArray::deserialize(unsigned char*)+0x10e>
     f4e:	bf00      	nop

00000f50 <std_msgs::Float32MultiArray::deserialize(unsigned char*)>:
     f50:	e92d 47f0 	stmdb	sp!, {r4, r5, r6, r7, r8, r9, r10, lr}
     f54:	7a03      	ldrb	r3, [r0, #8]
     f56:	780e      	ldrb	r6, [r1, #0]
     f58:	b082      	sub	sp, #8
     f5a:	42b3      	cmp	r3, r6
     f5c:	4604      	mov	r4, r0
     f5e:	460d      	mov	r5, r1
     f60:	f0c0 80a1 	bcc.w	10a6 <std_msgs::Float32MultiArray::deserialize(unsigned char*)+0x156>
     f64:	7226      	strb	r6, [r4, #8]
     f66:	2e00      	cmp	r6, #0
     f68:	f000 80a6 	beq.w	10b8 <std_msgs::Float32MultiArray::deserialize(unsigned char*)+0x168>
     f6c:	2600      	movs	r6, #0
     f6e:	46b4      	mov	r12, r6
     f70:	f104 070c 	add.w	r7, r4, #12
     f74:	f04f 0e04 	mov.w	lr, #4
     f78:	eb05 080e 	add.w	r8, r5, lr
     f7c:	f8d8 0000 	ldr.w	r0, [r8]
     f80:	f108 0a03 	add.w	r10, r8, #3
     f84:	9001      	str	r0, [sp, #4]
     f86:	9801      	ldr	r0, [sp, #4]
     f88:	f100 0904 	add.w	r9, r0, #4
     f8c:	f1b9 0f04 	cmp.w	r9, #4
     f90:	d908      	bls.n	fa4 <std_msgs::Float32MultiArray::deserialize(unsigned char*)+0x54>
     f92:	4653      	mov	r3, r10
     f94:	1cc1      	adds	r1, r0, #3
     f96:	4441      	add	r1, r8
     f98:	f813 2f01 	ldrb.w	r2, [r3, #1]!
     f9c:	4299      	cmp	r1, r3
     f9e:	f803 2c01 	strb.w	r2, [r3, #-1]
     fa2:	d1f9      	bne.n	f98 <std_msgs::Float32MultiArray::deserialize(unsigned char*)+0x48>
     fa4:	eb08 0200 	add.w	r2, r8, r0
     fa8:	f882 c003 	strb.w	r12, [r2, #3]
     fac:	f8c4 a010 	str.w	r10, [r4, #16]
     fb0:	f818 3009 	ldrb.w	r3, [r8, r9]
     fb4:	f8d4 801c 	ldr.w	r8, [r4, #28]
     fb8:	6163      	str	r3, [r4, #20]
     fba:	f892 9005 	ldrb.w	r9, [r2, #5]
     fbe:	0131      	lsls	r1, r6, #4
     fc0:	ea43 2309 	orr.w	r3, r3, r9, lsl #8
     fc4:	6163      	str	r3, [r4, #20]
     fc6:	f892 9006 	ldrb.w	r9, [r2, #6]
     fca:	300c      	adds	r0, #12
     fcc:	ea43 4309 	orr.w	r3, r3, r9, lsl #16
     fd0:	6163      	str	r3, [r4, #20]
     fd2:	f892 9007 	ldrb.w	r9, [r2, #7]
     fd6:	4486      	add	lr, r0
     fd8:	ea43 6309 	orr.w	r3, r3, r9, lsl #24
     fdc:	6163      	str	r3, [r4, #20]
     fde:	7a13      	ldrb	r3, [r2, #8]
     fe0:	eb08 0001 	add.w	r0, r8, r1
     fe4:	61a3      	str	r3, [r4, #24]
     fe6:	f892 9009 	ldrb.w	r9, [r2, #9]
     fea:	3601      	adds	r6, #1
     fec:	ea43 2309 	orr.w	r3, r3, r9, lsl #8
     ff0:	61a3      	str	r3, [r4, #24]
     ff2:	f892 900a 	ldrb.w	r9, [r2, #10]
     ff6:	b2f6      	uxtb	r6, r6
     ff8:	ea43 4309 	orr.w	r3, r3, r9, lsl #16
     ffc:	61a3      	str	r3, [r4, #24]
     ffe:	7ad2      	ldrb	r2, [r2, #11]
    1000:	ea43 6302 	orr.w	r3, r3, r2, lsl #24
    1004:	61a3      	str	r3, [r4, #24]
    1006:	68fb      	ldr	r3, [r7, #12]
    1008:	f8d7 a000 	ldr.w	r10, [r7]
    100c:	f8d7 9004 	ldr.w	r9, [r7, #4]
    1010:	68ba      	ldr	r2, [r7, #8]
    1012:	f848 a001 	str.w	r10, [r8, r1]
    1016:	f8c0 9004 	str.w	r9, [r0, #4]
    101a:	6082      	str	r2, [r0, #8]
    101c:	60c3      	str	r3, [r0, #12]
    101e:	7a23      	ldrb	r3, [r4, #8]
    1020:	42b3      	cmp	r3, r6
    1022:	d8a9      	bhi.n	f78 <std_msgs::Float32MultiArray::deserialize(unsigned char*)+0x28>
    1024:	f10e 0204 	add.w	r2, lr, #4
    1028:	1d16      	adds	r6, r2, #4
    102a:	f10e 0701 	add.w	r7, lr, #1
    102e:	f10e 0002 	add.w	r0, lr, #2
    1032:	f10e 0103 	add.w	r1, lr, #3
    1036:	f815 300e 	ldrb.w	r3, [r5, lr]
    103a:	f894 e024 	ldrb.w	lr, [r4, #36]	; 0x24
    103e:	6223      	str	r3, [r4, #32]
    1040:	5def      	ldrb	r7, [r5, r7]
    1042:	ea43 2307 	orr.w	r3, r3, r7, lsl #8
    1046:	6223      	str	r3, [r4, #32]
    1048:	5c28      	ldrb	r0, [r5, r0]
    104a:	ea43 4300 	orr.w	r3, r3, r0, lsl #16
    104e:	6223      	str	r3, [r4, #32]
    1050:	5c69      	ldrb	r1, [r5, r1]
    1052:	ea43 6301 	orr.w	r3, r3, r1, lsl #24
    1056:	6223      	str	r3, [r4, #32]
    1058:	5caf      	ldrb	r7, [r5, r2]
    105a:	45be      	cmp	lr, r7
    105c:	d334      	bcc.n	10c8 <std_msgs::Float32MultiArray::deserialize(unsigned char*)+0x178>
    105e:	f884 7024 	strb.w	r7, [r4, #36]	; 0x24
    1062:	b1e7      	cbz	r7, 109e <std_msgs::Float32MultiArray::deserialize(unsigned char*)+0x14e>
    1064:	4435      	add	r5, r6
    1066:	f104 0028 	add.w	r0, r4, #40	; 0x28
    106a:	2100      	movs	r1, #0
    106c:	78ab      	ldrb	r3, [r5, #2]
    106e:	786f      	ldrb	r7, [r5, #1]
    1070:	782a      	ldrb	r2, [r5, #0]
    1072:	041b      	lsls	r3, r3, #16
    1074:	ea43 2307 	orr.w	r3, r3, r7, lsl #8
    1078:	78ef      	ldrb	r7, [r5, #3]
    107a:	4313      	orrs	r3, r2
    107c:	ea43 6307 	orr.w	r3, r3, r7, lsl #24
    1080:	62a3      	str	r3, [r4, #40]	; 0x28
    1082:	6807      	ldr	r7, [r0, #0]
    1084:	6ae3      	ldr	r3, [r4, #44]	; 0x2c
    1086:	1c4a      	adds	r2, r1, #1
    1088:	f843 7021 	str.w	r7, [r3, r1, lsl #2]
    108c:	f894 3024 	ldrb.w	r3, [r4, #36]	; 0x24
    1090:	b2d1      	uxtb	r1, r2
    1092:	428b      	cmp	r3, r1
    1094:	f106 0604 	add.w	r6, r6, #4
    1098:	f105 0504 	add.w	r5, r5, #4
    109c:	d8e6      	bhi.n	106c <std_msgs::Float32MultiArray::deserialize(unsigned char*)+0x11c>
    109e:	4630      	mov	r0, r6
    10a0:	b002      	add	sp, #8
    10a2:	e8bd 87f0 	ldmia.w	sp!, {r4, r5, r6, r7, r8, r9, r10, pc}
    10a6:	0131      	lsls	r1, r6, #4
    10a8:	69c0      	ldr	r0, [r0, #28]
    10aa:	f004 ff87 	bl	5fbc <__wrap_realloc>
    10ae:	7226      	strb	r6, [r4, #8]
    10b0:	61e0      	str	r0, [r4, #28]
    10b2:	2e00      	cmp	r6, #0
    10b4:	f47f af5a 	bne.w	f6c <std_msgs::Float32MultiArray::deserialize(unsigned char*)+0x1c>
    10b8:	2208      	movs	r2, #8
    10ba:	2107      	movs	r1, #7
    10bc:	2006      	movs	r0, #6
    10be:	2705      	movs	r7, #5
    10c0:	f04f 0e04 	mov.w	lr, #4
    10c4:	260c      	movs	r6, #12
    10c6:	e7b6      	b.n	1036 <std_msgs::Float32MultiArray::deserialize(unsigned char*)+0xe6>
    10c8:	00b9      	lsls	r1, r7, #2
    10ca:	6ae0      	ldr	r0, [r4, #44]	; 0x2c
    10cc:	f004 ff76 	bl	5fbc <__wrap_realloc>
    10d0:	62e0      	str	r0, [r4, #44]	; 0x2c
    10d2:	e7c4      	b.n	105e <std_msgs::Float32MultiArray::deserialize(unsigned char*)+0x10e>

000010d4 <ros::NodeHandle_<MbedHardware, 25, 25, 512, 512>::publish(int, ros::Msg const*)>:
    10d4:	e92d 41f0 	stmdb	sp!, {r4, r5, r6, r7, r8, lr}
    10d8:	2963      	cmp	r1, #99	; 0x63
    10da:	b084      	sub	sp, #16
    10dc:	dd03      	ble.n	10e6 <ros::NodeHandle_<MbedHardware, 25, 25, 512, 512>::publish(int, ros::Msg const*)+0x12>
    10de:	f890 55fc 	ldrb.w	r5, [r0, #1532]	; 0x5fc
    10e2:	2d00      	cmp	r5, #0
    10e4:	d04a      	beq.n	117c <ros::NodeHandle_<MbedHardware, 25, 25, 512, 512>::publish(int, ros::Msg const*)+0xa8>
    10e6:	4606      	mov	r6, r0
    10e8:	6813      	ldr	r3, [r2, #0]
    10ea:	4688      	mov	r8, r1
    10ec:	4610      	mov	r0, r2
    10ee:	681b      	ldr	r3, [r3, #0]
    10f0:	f206 3127 	addw	r1, r6, #807	; 0x327
    10f4:	4798      	blx	r3
    10f6:	b2c4      	uxtb	r4, r0
    10f8:	f3c0 2107 	ubfx	r1, r0, #8, #8
    10fc:	1862      	adds	r2, r4, r1
    10fe:	43d2      	mvns	r2, r2
    1100:	b280      	uxth	r0, r0
    1102:	f886 4322 	strb.w	r4, [r6, #802]	; 0x322
    1106:	24ff      	movs	r4, #255	; 0xff
    1108:	f206 3725 	addw	r7, r6, #805	; 0x325
    110c:	f200 3526 	addw	r5, r0, #806	; 0x326
    1110:	f886 2324 	strb.w	r2, [r6, #804]	; 0x324
    1114:	f886 4320 	strb.w	r4, [r6, #800]	; 0x320
    1118:	22fe      	movs	r2, #254	; 0xfe
    111a:	fa5f f488 	uxtb.w	r4, r8
    111e:	f348 2807 	sbfx	r8, r8, #8, #8
    1122:	f886 2321 	strb.w	r2, [r6, #801]	; 0x321
    1126:	463b      	mov	r3, r7
    1128:	f886 1323 	strb.w	r1, [r6, #803]	; 0x323
    112c:	4435      	add	r5, r6
    112e:	f886 4325 	strb.w	r4, [r6, #805]	; 0x325
    1132:	f886 8326 	strb.w	r8, [r6, #806]	; 0x326
    1136:	2200      	movs	r2, #0
    1138:	e001      	b.n	113e <ros::NodeHandle_<MbedHardware, 25, 25, 512, 512>::publish(int, ros::Msg const*)+0x6a>
    113a:	f813 4f01 	ldrb.w	r4, [r3, #1]!
    113e:	42ab      	cmp	r3, r5
    1140:	4422      	add	r2, r4
    1142:	d1fa      	bne.n	113a <ros::NodeHandle_<MbedHardware, 25, 25, 512, 512>::publish(int, ros::Msg const*)+0x66>
    1144:	43d2      	mvns	r2, r2
    1146:	1dc3      	adds	r3, r0, #7
    1148:	f100 0508 	add.w	r5, r0, #8
    114c:	b29b      	uxth	r3, r3
    114e:	b2ad      	uxth	r5, r5
    1150:	4433      	add	r3, r6
    1152:	f5b5 7f00 	cmp.w	r5, #512	; 0x200
    1156:	f883 2320 	strb.w	r2, [r3, #800]	; 0x320
    115a:	d813      	bhi.n	1184 <ros::NodeHandle_<MbedHardware, 25, 25, 512, 512>::publish(int, ros::Msg const*)+0xb0>
    115c:	f506 7748 	add.w	r7, r6, #800	; 0x320
    1160:	b165      	cbz	r5, 117c <ros::NodeHandle_<MbedHardware, 25, 25, 512, 512>::publish(int, ros::Msg const*)+0xa8>
    1162:	1e6b      	subs	r3, r5, #1
    1164:	441f      	add	r7, r3
    1166:	f106 0844 	add.w	r8, r6, #68	; 0x44
    116a:	f206 341f 	addw	r4, r6, #799	; 0x31f
    116e:	f814 1f01 	ldrb.w	r1, [r4, #1]!
    1172:	4640      	mov	r0, r8
    1174:	f006 fb46 	bl	7804 <mbed::Stream::putc(int)>
    1178:	42a7      	cmp	r7, r4
    117a:	d1f8      	bne.n	116e <ros::NodeHandle_<MbedHardware, 25, 25, 512, 512>::publish(int, ros::Msg const*)+0x9a>
    117c:	4628      	mov	r0, r5
    117e:	b004      	add	sp, #16
    1180:	e8bd 81f0 	ldmia.w	sp!, {r4, r5, r6, r7, r8, pc}
    1184:	4930      	ldr	r1, [pc, #192]	; (1248 <ros::NodeHandle_<MbedHardware, 25, 25, 512, 512>::publish(int, ros::Msg const*)+0x174>)
    1186:	4c31      	ldr	r4, [pc, #196]	; (124c <ros::NodeHandle_<MbedHardware, 25, 25, 512, 512>::publish(int, ros::Msg const*)+0x178>)
    1188:	2203      	movs	r2, #3
    118a:	6833      	ldr	r3, [r6, #0]
    118c:	9101      	str	r1, [sp, #4]
    118e:	9403      	str	r4, [sp, #12]
    1190:	f88d 2008 	strb.w	r2, [sp, #8]
    1194:	681b      	ldr	r3, [r3, #0]
    1196:	492e      	ldr	r1, [pc, #184]	; (1250 <ros::NodeHandle_<MbedHardware, 25, 25, 512, 512>::publish(int, ros::Msg const*)+0x17c>)
    1198:	428b      	cmp	r3, r1
    119a:	d14d      	bne.n	1238 <ros::NodeHandle_<MbedHardware, 25, 25, 512, 512>::publish(int, ros::Msg const*)+0x164>
    119c:	ab04      	add	r3, sp, #16
    119e:	2138      	movs	r1, #56	; 0x38
    11a0:	f843 1d10 	str.w	r1, [r3, #-16]!
    11a4:	6818      	ldr	r0, [r3, #0]
    11a6:	f886 2327 	strb.w	r2, [r6, #807]	; 0x327
    11aa:	f8c6 0328 	str.w	r0, [r6, #808]	; 0x328
    11ae:	f104 0c30 	add.w	r12, r4, #48	; 0x30
    11b2:	f506 754b 	add.w	r5, r6, #812	; 0x32c
    11b6:	46a6      	mov	lr, r4
    11b8:	e8be 000f 	ldmia.w	lr!, {r0, r1, r2, r3}
    11bc:	45e6      	cmp	lr, r12
    11be:	6028      	str	r0, [r5, #0]
    11c0:	6069      	str	r1, [r5, #4]
    11c2:	60aa      	str	r2, [r5, #8]
    11c4:	60eb      	str	r3, [r5, #12]
    11c6:	f104 0410 	add.w	r4, r4, #16
    11ca:	f105 0510 	add.w	r5, r5, #16
    11ce:	d1f2      	bne.n	11b6 <ros::NodeHandle_<MbedHardware, 25, 25, 512, 512>::publish(int, ros::Msg const*)+0xe2>
    11d0:	cc03      	ldmia	r4!, {r0, r1}
    11d2:	f04f 0e00 	mov.w	lr, #0
    11d6:	6028      	str	r0, [r5, #0]
    11d8:	6069      	str	r1, [r5, #4]
    11da:	f04f 0c07 	mov.w	r12, #7
    11de:	21c2      	movs	r1, #194	; 0xc2
    11e0:	25ff      	movs	r5, #255	; 0xff
    11e2:	24fe      	movs	r4, #254	; 0xfe
    11e4:	203d      	movs	r0, #61	; 0x3d
    11e6:	f886 1324 	strb.w	r1, [r6, #804]	; 0x324
    11ea:	4673      	mov	r3, lr
    11ec:	4662      	mov	r2, r12
    11ee:	f886 e323 	strb.w	lr, [r6, #803]	; 0x323
    11f2:	f886 e326 	strb.w	lr, [r6, #806]	; 0x326
    11f6:	f886 c325 	strb.w	r12, [r6, #805]	; 0x325
    11fa:	f886 5320 	strb.w	r5, [r6, #800]	; 0x320
    11fe:	f886 4321 	strb.w	r4, [r6, #801]	; 0x321
    1202:	f886 0322 	strb.w	r0, [r6, #802]	; 0x322
    1206:	f206 3163 	addw	r1, r6, #867	; 0x363
    120a:	e001      	b.n	1210 <ros::NodeHandle_<MbedHardware, 25, 25, 512, 512>::publish(int, ros::Msg const*)+0x13c>
    120c:	f817 2f01 	ldrb.w	r2, [r7, #1]!
    1210:	428f      	cmp	r7, r1
    1212:	4413      	add	r3, r2
    1214:	d1fa      	bne.n	120c <ros::NodeHandle_<MbedHardware, 25, 25, 512, 512>::publish(int, ros::Msg const*)+0x138>
    1216:	43db      	mvns	r3, r3
    1218:	f106 0744 	add.w	r7, r6, #68	; 0x44
    121c:	f886 3364 	strb.w	r3, [r6, #868]	; 0x364
    1220:	f206 351f 	addw	r5, r6, #799	; 0x31f
    1224:	f506 7459 	add.w	r4, r6, #868	; 0x364
    1228:	f815 1f01 	ldrb.w	r1, [r5, #1]!
    122c:	4638      	mov	r0, r7
    122e:	f006 fae9 	bl	7804 <mbed::Stream::putc(int)>
    1232:	42ac      	cmp	r4, r5
    1234:	d1f8      	bne.n	1228 <ros::NodeHandle_<MbedHardware, 25, 25, 512, 512>::publish(int, ros::Msg const*)+0x154>
    1236:	e003      	b.n	1240 <ros::NodeHandle_<MbedHardware, 25, 25, 512, 512>::publish(int, ros::Msg const*)+0x16c>
    1238:	4630      	mov	r0, r6
    123a:	aa01      	add	r2, sp, #4
    123c:	2107      	movs	r1, #7
    123e:	4798      	blx	r3
    1240:	f04f 35ff 	mov.w	r5, #4294967295
    1244:	e79a      	b.n	117c <ros::NodeHandle_<MbedHardware, 25, 25, 512, 512>::publish(int, ros::Msg const*)+0xa8>
    1246:	bf00      	nop
    1248:	0000ad84 	.word	0x0000ad84
    124c:	0000b00c 	.word	0x0000b00c
    1250:	000010d5 	.word	0x000010d5

00001254 <GetPubPosition()>:
    1254:	e92d 4ff0 	stmdb	sp!, {r4, r5, r6, r7, r8, r9, r10, r11, lr}
    1258:	f8df 82e4 	ldr.w	r8, [pc, #740]	; 1540 <GetPubPosition()+0x2ec>
    125c:	4eb4      	ldr	r6, [pc, #720]	; (1530 <GetPubPosition()+0x2dc>)
    125e:	b087      	sub	sp, #28
    1260:	2400      	movs	r4, #0
    1262:	6833      	ldr	r3, [r6, #0]
    1264:	f8d8 502c 	ldr.w	r5, [r8, #44]	; 0x2c
    1268:	5918      	ldr	r0, [r3, r4]
    126a:	6803      	ldr	r3, [r0, #0]
    126c:	6a1b      	ldr	r3, [r3, #32]
    126e:	4798      	blx	r3
    1270:	5128      	str	r0, [r5, r4]
    1272:	3404      	adds	r4, #4
    1274:	2c14      	cmp	r4, #20
    1276:	d1f4      	bne.n	1262 <GetPubPosition()+0xe>
    1278:	4bae      	ldr	r3, [pc, #696]	; (1534 <GetPubPosition()+0x2e0>)
    127a:	49af      	ldr	r1, [pc, #700]	; (1538 <GetPubPosition()+0x2e4>)
    127c:	f8d3 900c 	ldr.w	r9, [r3, #12]
    1280:	689b      	ldr	r3, [r3, #8]
    1282:	461a      	mov	r2, r3
    1284:	9301      	str	r3, [sp, #4]
    1286:	f8d9 3000 	ldr.w	r3, [r9]
    128a:	681b      	ldr	r3, [r3, #0]
    128c:	428b      	cmp	r3, r1
    128e:	d152      	bne.n	1336 <GetPubPosition()+0xe2>
    1290:	2a63      	cmp	r2, #99	; 0x63
    1292:	dd03      	ble.n	129c <GetPubPosition()+0x48>
    1294:	f899 35fc 	ldrb.w	r3, [r9, #1532]	; 0x5fc
    1298:	2b00      	cmp	r3, #0
    129a:	d050      	beq.n	133e <GetPubPosition()+0xea>
    129c:	f898 2008 	ldrb.w	r2, [r8, #8]
    12a0:	2600      	movs	r6, #0
    12a2:	f889 2327 	strb.w	r2, [r9, #807]	; 0x327
    12a6:	f889 6328 	strb.w	r6, [r9, #808]	; 0x328
    12aa:	f889 6329 	strb.w	r6, [r9, #809]	; 0x329
    12ae:	f889 632a 	strb.w	r6, [r9, #810]	; 0x32a
    12b2:	f209 3b27 	addw	r11, r9, #807	; 0x327
    12b6:	2a00      	cmp	r2, #0
    12b8:	f000 80cf 	beq.w	145a <GetPubPosition()+0x206>
    12bc:	f04f 0a04 	mov.w	r10, #4
    12c0:	e02a      	b.n	1318 <GetPubPosition()+0xc4>
    12c2:	6860      	ldr	r0, [r4, #4]
    12c4:	f008 ff53 	bl	a16e <strlen>
    12c8:	4607      	mov	r7, r0
    12ca:	ab06      	add	r3, sp, #24
    12cc:	f843 0d0c 	str.w	r0, [r3, #-12]!
    12d0:	6818      	ldr	r0, [r3, #0]
    12d2:	463a      	mov	r2, r7
    12d4:	f84b 000a 	str.w	r0, [r11, r10]
    12d8:	6861      	ldr	r1, [r4, #4]
    12da:	1d28      	adds	r0, r5, #4
    12dc:	f007 ffc0 	bl	9260 <memcpy>
    12e0:	68a2      	ldr	r2, [r4, #8]
    12e2:	19eb      	adds	r3, r5, r7
    12e4:	711a      	strb	r2, [r3, #4]
    12e6:	68a2      	ldr	r2, [r4, #8]
    12e8:	f107 000c 	add.w	r0, r7, #12
    12ec:	0a12      	lsrs	r2, r2, #8
    12ee:	715a      	strb	r2, [r3, #5]
    12f0:	8962      	ldrh	r2, [r4, #10]
    12f2:	719a      	strb	r2, [r3, #6]
    12f4:	7ae2      	ldrb	r2, [r4, #11]
    12f6:	71da      	strb	r2, [r3, #7]
    12f8:	68e2      	ldr	r2, [r4, #12]
    12fa:	721a      	strb	r2, [r3, #8]
    12fc:	68e2      	ldr	r2, [r4, #12]
    12fe:	0a12      	lsrs	r2, r2, #8
    1300:	725a      	strb	r2, [r3, #9]
    1302:	89e2      	ldrh	r2, [r4, #14]
    1304:	729a      	strb	r2, [r3, #10]
    1306:	7be2      	ldrb	r2, [r4, #15]
    1308:	72da      	strb	r2, [r3, #11]
    130a:	3601      	adds	r6, #1
    130c:	f898 3008 	ldrb.w	r3, [r8, #8]
    1310:	b2f6      	uxtb	r6, r6
    1312:	42b3      	cmp	r3, r6
    1314:	4482      	add	r10, r0
    1316:	d915      	bls.n	1344 <GetPubPosition()+0xf0>
    1318:	f8d8 401c 	ldr.w	r4, [r8, #28]
    131c:	0133      	lsls	r3, r6, #4
    131e:	58e2      	ldr	r2, [r4, r3]
    1320:	441c      	add	r4, r3
    1322:	6813      	ldr	r3, [r2, #0]
    1324:	4a85      	ldr	r2, [pc, #532]	; (153c <GetPubPosition()+0x2e8>)
    1326:	eb0b 050a 	add.w	r5, r11, r10
    132a:	4293      	cmp	r3, r2
    132c:	d0c9      	beq.n	12c2 <GetPubPosition()+0x6e>
    132e:	4629      	mov	r1, r5
    1330:	4620      	mov	r0, r4
    1332:	4798      	blx	r3
    1334:	e7e9      	b.n	130a <GetPubPosition()+0xb6>
    1336:	9901      	ldr	r1, [sp, #4]
    1338:	4648      	mov	r0, r9
    133a:	4a81      	ldr	r2, [pc, #516]	; (1540 <GetPubPosition()+0x2ec>)
    133c:	4798      	blx	r3
    133e:	b007      	add	sp, #28
    1340:	e8bd 8ff0 	ldmia.w	sp!, {r4, r5, r6, r7, r8, r9, r10, r11, pc}
    1344:	f10a 0404 	add.w	r4, r10, #4
    1348:	1d22      	adds	r2, r4, #4
    134a:	f10a 0605 	add.w	r6, r10, #5
    134e:	f10a 0506 	add.w	r5, r10, #6
    1352:	f10a 0307 	add.w	r3, r10, #7
    1356:	f10a 0c01 	add.w	r12, r10, #1
    135a:	f10a 0e02 	add.w	lr, r10, #2
    135e:	f10a 0703 	add.w	r7, r10, #3
    1362:	f8d8 0020 	ldr.w	r0, [r8, #32]
    1366:	2100      	movs	r1, #0
    1368:	f80b 000a 	strb.w	r0, [r11, r10]
    136c:	f8d8 0020 	ldr.w	r0, [r8, #32]
    1370:	0a00      	lsrs	r0, r0, #8
    1372:	f80b 000c 	strb.w	r0, [r11, r12]
    1376:	f8b8 0022 	ldrh.w	r0, [r8, #34]	; 0x22
    137a:	f80b 000e 	strb.w	r0, [r11, lr]
    137e:	f898 0023 	ldrb.w	r0, [r8, #35]	; 0x23
    1382:	f80b 0007 	strb.w	r0, [r11, r7]
    1386:	f898 0024 	ldrb.w	r0, [r8, #36]	; 0x24
    138a:	f80b 0004 	strb.w	r0, [r11, r4]
    138e:	f80b 1006 	strb.w	r1, [r11, r6]
    1392:	f80b 1005 	strb.w	r1, [r11, r5]
    1396:	f80b 1003 	strb.w	r1, [r11, r3]
    139a:	f898 0024 	ldrb.w	r0, [r8, #36]	; 0x24
    139e:	b1b0      	cbz	r0, 13ce <GetPubPosition()+0x17a>
    13a0:	eb0b 0002 	add.w	r0, r11, r2
    13a4:	f8d8 302c 	ldr.w	r3, [r8, #44]	; 0x2c
    13a8:	1c4c      	adds	r4, r1, #1
    13aa:	f853 3021 	ldr.w	r3, [r3, r1, lsl #2]
    13ae:	b2e1      	uxtb	r1, r4
    13b0:	0a1e      	lsrs	r6, r3, #8
    13b2:	0c1d      	lsrs	r5, r3, #16
    13b4:	0e1c      	lsrs	r4, r3, #24
    13b6:	f80b 3002 	strb.w	r3, [r11, r2]
    13ba:	7046      	strb	r6, [r0, #1]
    13bc:	7085      	strb	r5, [r0, #2]
    13be:	70c4      	strb	r4, [r0, #3]
    13c0:	f898 3024 	ldrb.w	r3, [r8, #36]	; 0x24
    13c4:	3204      	adds	r2, #4
    13c6:	428b      	cmp	r3, r1
    13c8:	f100 0004 	add.w	r0, r0, #4
    13cc:	d8ea      	bhi.n	13a4 <GetPubPosition()+0x150>
    13ce:	b2d4      	uxtb	r4, r2
    13d0:	f3c2 2007 	ubfx	r0, r2, #8, #8
    13d4:	1821      	adds	r1, r4, r0
    13d6:	43c9      	mvns	r1, r1
    13d8:	f889 1324 	strb.w	r1, [r9, #804]	; 0x324
    13dc:	21ff      	movs	r1, #255	; 0xff
    13de:	f889 1320 	strb.w	r1, [r9, #800]	; 0x320
    13e2:	9901      	ldr	r1, [sp, #4]
    13e4:	b292      	uxth	r2, r2
    13e6:	f209 3525 	addw	r5, r9, #805	; 0x325
    13ea:	f889 4322 	strb.w	r4, [r9, #802]	; 0x322
    13ee:	f889 0323 	strb.w	r0, [r9, #803]	; 0x323
    13f2:	f202 3426 	addw	r4, r2, #806	; 0x326
    13f6:	b2c8      	uxtb	r0, r1
    13f8:	26fe      	movs	r6, #254	; 0xfe
    13fa:	f341 2107 	sbfx	r1, r1, #8, #8
    13fe:	f889 1326 	strb.w	r1, [r9, #806]	; 0x326
    1402:	462b      	mov	r3, r5
    1404:	444c      	add	r4, r9
    1406:	f889 6321 	strb.w	r6, [r9, #801]	; 0x321
    140a:	f889 0325 	strb.w	r0, [r9, #805]	; 0x325
    140e:	2100      	movs	r1, #0
    1410:	e001      	b.n	1416 <GetPubPosition()+0x1c2>
    1412:	f813 0f01 	ldrb.w	r0, [r3, #1]!
    1416:	42a3      	cmp	r3, r4
    1418:	4401      	add	r1, r0
    141a:	d1fa      	bne.n	1412 <GetPubPosition()+0x1be>
    141c:	43c9      	mvns	r1, r1
    141e:	1dd0      	adds	r0, r2, #7
    1420:	3208      	adds	r2, #8
    1422:	b280      	uxth	r0, r0
    1424:	b293      	uxth	r3, r2
    1426:	4448      	add	r0, r9
    1428:	f5b3 7f00 	cmp.w	r3, #512	; 0x200
    142c:	f880 1320 	strb.w	r1, [r0, #800]	; 0x320
    1430:	d820      	bhi.n	1474 <GetPubPosition()+0x220>
    1432:	f509 7448 	add.w	r4, r9, #800	; 0x320
    1436:	2b00      	cmp	r3, #0
    1438:	d081      	beq.n	133e <GetPubPosition()+0xea>
    143a:	3b01      	subs	r3, #1
    143c:	f109 0544 	add.w	r5, r9, #68	; 0x44
    1440:	441c      	add	r4, r3
    1442:	f209 391f 	addw	r9, r9, #799	; 0x31f
    1446:	f819 1f01 	ldrb.w	r1, [r9, #1]!
    144a:	4628      	mov	r0, r5
    144c:	f006 f9da 	bl	7804 <mbed::Stream::putc(int)>
    1450:	454c      	cmp	r4, r9
    1452:	d1f8      	bne.n	1446 <GetPubPosition()+0x1f2>
    1454:	b007      	add	sp, #28
    1456:	e8bd 8ff0 	ldmia.w	sp!, {r4, r5, r6, r7, r8, r9, r10, r11, pc}
    145a:	2408      	movs	r4, #8
    145c:	2707      	movs	r7, #7
    145e:	f04f 0e06 	mov.w	lr, #6
    1462:	f04f 0c05 	mov.w	r12, #5
    1466:	f04f 0a04 	mov.w	r10, #4
    146a:	230b      	movs	r3, #11
    146c:	220c      	movs	r2, #12
    146e:	250a      	movs	r5, #10
    1470:	2609      	movs	r6, #9
    1472:	e776      	b.n	1362 <GetPubPosition()+0x10e>
    1474:	4b33      	ldr	r3, [pc, #204]	; (1544 <GetPubPosition()+0x2f0>)
    1476:	4c34      	ldr	r4, [pc, #208]	; (1548 <GetPubPosition()+0x2f4>)
    1478:	2203      	movs	r2, #3
    147a:	9303      	str	r3, [sp, #12]
    147c:	9405      	str	r4, [sp, #20]
    147e:	f88d 2010 	strb.w	r2, [sp, #16]
    1482:	f8d9 3000 	ldr.w	r3, [r9]
    1486:	492c      	ldr	r1, [pc, #176]	; (1538 <GetPubPosition()+0x2e4>)
    1488:	681b      	ldr	r3, [r3, #0]
    148a:	428b      	cmp	r3, r1
    148c:	d14b      	bne.n	1526 <GetPubPosition()+0x2d2>
    148e:	ab06      	add	r3, sp, #24
    1490:	2138      	movs	r1, #56	; 0x38
    1492:	f843 1d10 	str.w	r1, [r3, #-16]!
    1496:	6818      	ldr	r0, [r3, #0]
    1498:	f889 2327 	strb.w	r2, [r9, #807]	; 0x327
    149c:	f8c9 0328 	str.w	r0, [r9, #808]	; 0x328
    14a0:	f104 0e30 	add.w	lr, r4, #48	; 0x30
    14a4:	f509 764b 	add.w	r6, r9, #812	; 0x32c
    14a8:	4627      	mov	r7, r4
    14aa:	cf0f      	ldmia	r7!, {r0, r1, r2, r3}
    14ac:	4577      	cmp	r7, lr
    14ae:	6030      	str	r0, [r6, #0]
    14b0:	6071      	str	r1, [r6, #4]
    14b2:	60b2      	str	r2, [r6, #8]
    14b4:	60f3      	str	r3, [r6, #12]
    14b6:	f104 0410 	add.w	r4, r4, #16
    14ba:	f106 0610 	add.w	r6, r6, #16
    14be:	d1f3      	bne.n	14a8 <GetPubPosition()+0x254>
    14c0:	cc03      	ldmia	r4!, {r0, r1}
    14c2:	2700      	movs	r7, #0
    14c4:	6030      	str	r0, [r6, #0]
    14c6:	6071      	str	r1, [r6, #4]
    14c8:	f04f 0e07 	mov.w	lr, #7
    14cc:	21c2      	movs	r1, #194	; 0xc2
    14ce:	26ff      	movs	r6, #255	; 0xff
    14d0:	24fe      	movs	r4, #254	; 0xfe
    14d2:	203d      	movs	r0, #61	; 0x3d
    14d4:	f889 1324 	strb.w	r1, [r9, #804]	; 0x324
    14d8:	463b      	mov	r3, r7
    14da:	4672      	mov	r2, lr
    14dc:	f889 7323 	strb.w	r7, [r9, #803]	; 0x323
    14e0:	f889 7326 	strb.w	r7, [r9, #806]	; 0x326
    14e4:	f889 e325 	strb.w	lr, [r9, #805]	; 0x325
    14e8:	f889 6320 	strb.w	r6, [r9, #800]	; 0x320
    14ec:	f889 4321 	strb.w	r4, [r9, #801]	; 0x321
    14f0:	f889 0322 	strb.w	r0, [r9, #802]	; 0x322
    14f4:	f209 3163 	addw	r1, r9, #867	; 0x363
    14f8:	e001      	b.n	14fe <GetPubPosition()+0x2aa>
    14fa:	f815 2f01 	ldrb.w	r2, [r5, #1]!
    14fe:	428d      	cmp	r5, r1
    1500:	4413      	add	r3, r2
    1502:	d1fa      	bne.n	14fa <GetPubPosition()+0x2a6>
    1504:	43db      	mvns	r3, r3
    1506:	f109 0544 	add.w	r5, r9, #68	; 0x44
    150a:	f889 3364 	strb.w	r3, [r9, #868]	; 0x364
    150e:	f209 341f 	addw	r4, r9, #799	; 0x31f
    1512:	f509 7959 	add.w	r9, r9, #868	; 0x364
    1516:	f814 1f01 	ldrb.w	r1, [r4, #1]!
    151a:	4628      	mov	r0, r5
    151c:	f006 f972 	bl	7804 <mbed::Stream::putc(int)>
    1520:	454c      	cmp	r4, r9
    1522:	d1f8      	bne.n	1516 <GetPubPosition()+0x2c2>
    1524:	e70b      	b.n	133e <GetPubPosition()+0xea>
    1526:	4648      	mov	r0, r9
    1528:	aa03      	add	r2, sp, #12
    152a:	2107      	movs	r1, #7
    152c:	4798      	blx	r3
    152e:	e706      	b.n	133e <GetPubPosition()+0xea>
    1530:	100001f8 	.word	0x100001f8
    1534:	10000988 	.word	0x10000988
    1538:	000010d5 	.word	0x000010d5
    153c:	000002b9 	.word	0x000002b9
    1540:	1000021c 	.word	0x1000021c
    1544:	0000ad84 	.word	0x0000ad84
    1548:	0000b00c 	.word	0x0000b00c

0000154c <DxResetTorque()>:
    154c:	e92d 41f0 	stmdb	sp!, {r4, r5, r6, r7, r8, lr}
    1550:	f7ff fe80 	bl	1254 <GetPubPosition()>
    1554:	4e0c      	ldr	r6, [pc, #48]	; (1588 <DxResetTorque()+0x3c>)
    1556:	f8df 8038 	ldr.w	r8, [pc, #56]	; 1590 <DxResetTorque()+0x44>
    155a:	4f0c      	ldr	r7, [pc, #48]	; (158c <DxResetTorque()+0x40>)
    155c:	2400      	movs	r4, #0
    155e:	f8d8 302c 	ldr.w	r3, [r8, #44]	; 0x2c
    1562:	683a      	ldr	r2, [r7, #0]
    1564:	591b      	ldr	r3, [r3, r4]
    1566:	5915      	ldr	r5, [r2, r4]
    1568:	4618      	mov	r0, r3
    156a:	f846 3b04 	str.w	r3, [r6], #4
    156e:	f007 fa5f 	bl	8a30 <__aeabi_f2iz>
    1572:	682b      	ldr	r3, [r5, #0]
    1574:	4601      	mov	r1, r0
    1576:	3404      	adds	r4, #4
    1578:	685b      	ldr	r3, [r3, #4]
    157a:	4628      	mov	r0, r5
    157c:	2200      	movs	r2, #0
    157e:	4798      	blx	r3
    1580:	2c14      	cmp	r4, #20
    1582:	d1ec      	bne.n	155e <DxResetTorque()+0x12>
    1584:	e8bd 81f0 	ldmia.w	sp!, {r4, r5, r6, r7, r8, pc}
    1588:	10000108 	.word	0x10000108
    158c:	100001f8 	.word	0x100001f8
    1590:	1000021c 	.word	0x1000021c

00001594 <DxInitialize()>:
    1594:	e92d 41f0 	stmdb	sp!, {r4, r5, r6, r7, r8, lr}
    1598:	f8df 8048 	ldr.w	r8, [pc, #72]	; 15e4 <DxInitialize()+0x50>
    159c:	4f0e      	ldr	r7, [pc, #56]	; (15d8 <DxInitialize()+0x44>)
    159e:	4e0f      	ldr	r6, [pc, #60]	; (15dc <DxInitialize()+0x48>)
    15a0:	4d0f      	ldr	r5, [pc, #60]	; (15e0 <DxInitialize()+0x4c>)
    15a2:	2400      	movs	r4, #0
    15a4:	682b      	ldr	r3, [r5, #0]
    15a6:	f858 1b04 	ldr.w	r1, [r8], #4
    15aa:	5918      	ldr	r0, [r3, r4]
    15ac:	6803      	ldr	r3, [r0, #0]
    15ae:	68db      	ldr	r3, [r3, #12]
    15b0:	4798      	blx	r3
    15b2:	682b      	ldr	r3, [r5, #0]
    15b4:	f857 1b04 	ldr.w	r1, [r7], #4
    15b8:	5918      	ldr	r0, [r3, r4]
    15ba:	6803      	ldr	r3, [r0, #0]
    15bc:	691b      	ldr	r3, [r3, #16]
    15be:	4798      	blx	r3
    15c0:	682b      	ldr	r3, [r5, #0]
    15c2:	f856 1b04 	ldr.w	r1, [r6], #4
    15c6:	5918      	ldr	r0, [r3, r4]
    15c8:	3404      	adds	r4, #4
    15ca:	6803      	ldr	r3, [r0, #0]
    15cc:	689b      	ldr	r3, [r3, #8]
    15ce:	4798      	blx	r3
    15d0:	2c14      	cmp	r4, #20
    15d2:	d1e7      	bne.n	15a4 <DxInitialize()+0x10>
    15d4:	e8bd 81f0 	ldmia.w	sp!, {r4, r5, r6, r7, r8, pc}
    15d8:	100000f4 	.word	0x100000f4
    15dc:	100000e0 	.word	0x100000e0
    15e0:	100001f8 	.word	0x100001f8
    15e4:	100000cc 	.word	0x100000cc

000015e8 <ros::NodeHandle_<MbedHardware, 25, 25, 512, 512>::requestSyncTime()>:
    15e8:	b5f0      	push	{r4, r5, r6, r7, lr}
    15ea:	4a2b      	ldr	r2, [pc, #172]	; (1698 <ros::NodeHandle_<MbedHardware, 25, 25, 512, 512>::requestSyncTime()+0xb0>)
    15ec:	b085      	sub	sp, #20
    15ee:	6803      	ldr	r3, [r0, #0]
    15f0:	9201      	str	r2, [sp, #4]
    15f2:	681c      	ldr	r4, [r3, #0]
    15f4:	4a29      	ldr	r2, [pc, #164]	; (169c <ros::NodeHandle_<MbedHardware, 25, 25, 512, 512>::requestSyncTime()+0xb4>)
    15f6:	2300      	movs	r3, #0
    15f8:	4294      	cmp	r4, r2
    15fa:	4605      	mov	r5, r0
    15fc:	9302      	str	r3, [sp, #8]
    15fe:	9303      	str	r3, [sp, #12]
    1600:	d146      	bne.n	1690 <ros::NodeHandle_<MbedHardware, 25, 25, 512, 512>::requestSyncTime()+0xa8>
    1602:	200a      	movs	r0, #10
    1604:	461a      	mov	r2, r3
    1606:	27ff      	movs	r7, #255	; 0xff
    1608:	26fe      	movs	r6, #254	; 0xfe
    160a:	2408      	movs	r4, #8
    160c:	f885 3327 	strb.w	r3, [r5, #807]	; 0x327
    1610:	f885 3328 	strb.w	r3, [r5, #808]	; 0x328
    1614:	f885 3329 	strb.w	r3, [r5, #809]	; 0x329
    1618:	f885 332a 	strb.w	r3, [r5, #810]	; 0x32a
    161c:	f885 332b 	strb.w	r3, [r5, #811]	; 0x32b
    1620:	f885 332c 	strb.w	r3, [r5, #812]	; 0x32c
    1624:	f885 332d 	strb.w	r3, [r5, #813]	; 0x32d
    1628:	f885 332e 	strb.w	r3, [r5, #814]	; 0x32e
    162c:	f885 3323 	strb.w	r3, [r5, #803]	; 0x323
    1630:	f885 3326 	strb.w	r3, [r5, #806]	; 0x326
    1634:	23f7      	movs	r3, #247	; 0xf7
    1636:	4601      	mov	r1, r0
    1638:	f885 0325 	strb.w	r0, [r5, #805]	; 0x325
    163c:	f885 3324 	strb.w	r3, [r5, #804]	; 0x324
    1640:	f885 7320 	strb.w	r7, [r5, #800]	; 0x320
    1644:	f885 6321 	strb.w	r6, [r5, #801]	; 0x321
    1648:	f885 4322 	strb.w	r4, [r5, #802]	; 0x322
    164c:	f205 3325 	addw	r3, r5, #805	; 0x325
    1650:	f205 302e 	addw	r0, r5, #814	; 0x32e
    1654:	e001      	b.n	165a <ros::NodeHandle_<MbedHardware, 25, 25, 512, 512>::requestSyncTime()+0x72>
    1656:	f813 1f01 	ldrb.w	r1, [r3, #1]!
    165a:	4298      	cmp	r0, r3
    165c:	440a      	add	r2, r1
    165e:	d1fa      	bne.n	1656 <ros::NodeHandle_<MbedHardware, 25, 25, 512, 512>::requestSyncTime()+0x6e>
    1660:	43d2      	mvns	r2, r2
    1662:	f105 0744 	add.w	r7, r5, #68	; 0x44
    1666:	f885 232f 	strb.w	r2, [r5, #815]	; 0x32f
    166a:	f205 341f 	addw	r4, r5, #799	; 0x31f
    166e:	f205 362f 	addw	r6, r5, #815	; 0x32f
    1672:	f814 1f01 	ldrb.w	r1, [r4, #1]!
    1676:	4638      	mov	r0, r7
    1678:	f006 f8c4 	bl	7804 <mbed::Stream::putc(int)>
    167c:	42b4      	cmp	r4, r6
    167e:	d1f8      	bne.n	1672 <ros::NodeHandle_<MbedHardware, 25, 25, 512, 512>::requestSyncTime()+0x8a>
    1680:	f505 7082 	add.w	r0, r5, #260	; 0x104
    1684:	f006 f8f8 	bl	7878 <mbed::Timer::read_ms()>
    1688:	f8c5 0114 	str.w	r0, [r5, #276]	; 0x114
    168c:	b005      	add	sp, #20
    168e:	bdf0      	pop	{r4, r5, r6, r7, pc}
    1690:	aa01      	add	r2, sp, #4
    1692:	210a      	movs	r1, #10
    1694:	47a0      	blx	r4
    1696:	e7f3      	b.n	1680 <ros::NodeHandle_<MbedHardware, 25, 25, 512, 512>::requestSyncTime()+0x98>
    1698:	0000ad54 	.word	0x0000ad54
    169c:	000010d5 	.word	0x000010d5

000016a0 <DxGoHome()>:
    16a0:	4b59      	ldr	r3, [pc, #356]	; (1808 <DxGoHome()+0x168>)
    16a2:	e92d 4ff0 	stmdb	sp!, {r4, r5, r6, r7, r8, r9, r10, r11, lr}
    16a6:	6818      	ldr	r0, [r3, #0]
    16a8:	f8df a188 	ldr.w	r10, [pc, #392]	; 1834 <DxGoHome()+0x194>
    16ac:	6803      	ldr	r3, [r0, #0]
    16ae:	f8df 9188 	ldr.w	r9, [pc, #392]	; 1838 <DxGoHome()+0x198>
    16b2:	b08f      	sub	sp, #60	; 0x3c
    16b4:	f8da 1010 	ldr.w	r1, [r10, #16]
    16b8:	685b      	ldr	r3, [r3, #4]
    16ba:	2200      	movs	r2, #0
    16bc:	4798      	blx	r3
    16be:	f7ff fdc9 	bl	1254 <GetPubPosition()>
    16c2:	f8d9 202c 	ldr.w	r2, [r9, #44]	; 0x2c
    16c6:	f8da 3004 	ldr.w	r3, [r10, #4]
    16ca:	f8da 400c 	ldr.w	r4, [r10, #12]
    16ce:	6850      	ldr	r0, [r2, #4]
    16d0:	441c      	add	r4, r3
    16d2:	f007 f9ad 	bl	8a30 <__aeabi_f2iz>
    16d6:	4b4d      	ldr	r3, [pc, #308]	; (180c <DxGoHome()+0x16c>)
    16d8:	1a21      	subs	r1, r4, r0
    16da:	6818      	ldr	r0, [r3, #0]
    16dc:	2200      	movs	r2, #0
    16de:	6803      	ldr	r3, [r0, #0]
    16e0:	685b      	ldr	r3, [r3, #4]
    16e2:	4798      	blx	r3
    16e4:	f8d9 302c 	ldr.w	r3, [r9, #44]	; 0x2c
    16e8:	4949      	ldr	r1, [pc, #292]	; (1810 <DxGoHome()+0x170>)
    16ea:	681c      	ldr	r4, [r3, #0]
    16ec:	4620      	mov	r0, r4
    16ee:	f007 f995 	bl	8a1c <__aeabi_fcmpgt>
    16f2:	b130      	cbz	r0, 1702 <DxGoHome()+0x62>
    16f4:	4620      	mov	r0, r4
    16f6:	4947      	ldr	r1, [pc, #284]	; (1814 <DxGoHome()+0x174>)
    16f8:	f007 f972 	bl	89e0 <__aeabi_fcmplt>
    16fc:	2800      	cmp	r0, #0
    16fe:	f040 8738 	bne.w	2572 <DxGoHome()+0xed2>
    1702:	4b45      	ldr	r3, [pc, #276]	; (1818 <DxGoHome()+0x178>)
    1704:	2200      	movs	r2, #0
    1706:	6818      	ldr	r0, [r3, #0]
    1708:	21dc      	movs	r1, #220	; 0xdc
    170a:	6803      	ldr	r3, [r0, #0]
    170c:	4c43      	ldr	r4, [pc, #268]	; (181c <DxGoHome()+0x17c>)
    170e:	685b      	ldr	r3, [r3, #4]
    1710:	4798      	blx	r3
    1712:	4b43      	ldr	r3, [pc, #268]	; (1820 <DxGoHome()+0x180>)
    1714:	2200      	movs	r2, #0
    1716:	6818      	ldr	r0, [r3, #0]
    1718:	21dc      	movs	r1, #220	; 0xdc
    171a:	6803      	ldr	r3, [r0, #0]
    171c:	9401      	str	r4, [sp, #4]
    171e:	685b      	ldr	r3, [r3, #4]
    1720:	4798      	blx	r3
    1722:	6823      	ldr	r3, [r4, #0]
    1724:	2b00      	cmp	r3, #0
    1726:	f040 8279 	bne.w	1c1c <DxGoHome()+0x57c>
    172a:	4c3e      	ldr	r4, [pc, #248]	; (1824 <DxGoHome()+0x184>)
    172c:	46a3      	mov	r11, r4
    172e:	e013      	b.n	1758 <DxGoHome()+0xb8>
    1730:	f894 35fc 	ldrb.w	r3, [r4, #1532]	; 0x5fc
    1734:	b143      	cbz	r3, 1748 <DxGoHome()+0xa8>
    1736:	f640 12c4 	movw	r2, #2500	; 0x9c4
    173a:	f8d4 3600 	ldr.w	r3, [r4, #1536]	; 0x600
    173e:	ebc3 0308 	rsb	r3, r3, r8
    1742:	4293      	cmp	r3, r2
    1744:	f200 8224 	bhi.w	1b90 <DxGoHome()+0x4f0>
    1748:	200a      	movs	r0, #10
    174a:	f005 f91f 	bl	698c <wait_ms>
    174e:	9b01      	ldr	r3, [sp, #4]
    1750:	681b      	ldr	r3, [r3, #0]
    1752:	2b00      	cmp	r3, #0
    1754:	f040 8262 	bne.w	1c1c <DxGoHome()+0x57c>
    1758:	f7ff fd7c 	bl	1254 <GetPubPosition()>
    175c:	f8d9 202c 	ldr.w	r2, [r9, #44]	; 0x2c
    1760:	f8da 3004 	ldr.w	r3, [r10, #4]
    1764:	f8da 500c 	ldr.w	r5, [r10, #12]
    1768:	6850      	ldr	r0, [r2, #4]
    176a:	441d      	add	r5, r3
    176c:	f007 f960 	bl	8a30 <__aeabi_f2iz>
    1770:	4b26      	ldr	r3, [pc, #152]	; (180c <DxGoHome()+0x16c>)
    1772:	1a29      	subs	r1, r5, r0
    1774:	681b      	ldr	r3, [r3, #0]
    1776:	681a      	ldr	r2, [r3, #0]
    1778:	4618      	mov	r0, r3
    177a:	6853      	ldr	r3, [r2, #4]
    177c:	2200      	movs	r2, #0
    177e:	4798      	blx	r3
    1780:	f8d9 302c 	ldr.w	r3, [r9, #44]	; 0x2c
    1784:	4928      	ldr	r1, [pc, #160]	; (1828 <DxGoHome()+0x188>)
    1786:	6858      	ldr	r0, [r3, #4]
    1788:	f007 f92a 	bl	89e0 <__aeabi_fcmplt>
    178c:	4605      	mov	r5, r0
    178e:	2800      	cmp	r0, #0
    1790:	f040 8252 	bne.w	1c38 <DxGoHome()+0x598>
    1794:	4825      	ldr	r0, [pc, #148]	; (182c <DxGoHome()+0x18c>)
    1796:	f006 f86f 	bl	7878 <mbed::Timer::read_ms()>
    179a:	f642 22f8 	movw	r2, #11000	; 0x2af8
    179e:	f8d4 3604 	ldr.w	r3, [r4, #1540]	; 0x604
    17a2:	4680      	mov	r8, r0
    17a4:	1ac3      	subs	r3, r0, r3
    17a6:	4293      	cmp	r3, r2
    17a8:	f8d4 35e8 	ldr.w	r3, [r4, #1512]	; 0x5e8
    17ac:	bf88      	it	hi
    17ae:	f88b 55fc 	strbhi.w	r5, [r11, #1532]	; 0x5fc
    17b2:	b133      	cbz	r3, 17c2 <DxGoHome()+0x122>
    17b4:	f8d4 3608 	ldr.w	r3, [r4, #1544]	; 0x608
    17b8:	4298      	cmp	r0, r3
    17ba:	d902      	bls.n	17c2 <DxGoHome()+0x122>
    17bc:	2300      	movs	r3, #0
    17be:	f8c4 35e8 	str.w	r3, [r4, #1512]	; 0x5e8
    17c2:	481b      	ldr	r0, [pc, #108]	; (1830 <DxGoHome()+0x190>)
    17c4:	f004 fd90 	bl	62e8 <AjK::MODSERIAL::rxBufferEmpty()>
    17c8:	4606      	mov	r6, r0
    17ca:	2800      	cmp	r0, #0
    17cc:	d1b0      	bne.n	1730 <DxGoHome()+0x90>
    17ce:	2101      	movs	r1, #1
    17d0:	4817      	ldr	r0, [pc, #92]	; (1830 <DxGoHome()+0x190>)
    17d2:	f004 fc07 	bl	5fe4 <AjK::MODSERIAL::__getc(bool)>
    17d6:	2800      	cmp	r0, #0
    17d8:	dbaa      	blt.n	1730 <DxGoHome()+0x90>
    17da:	f8d4 35f8 	ldr.w	r3, [r4, #1528]	; 0x5f8
    17de:	f8d4 55e8 	ldr.w	r5, [r4, #1512]	; 0x5e8
    17e2:	4403      	add	r3, r0
    17e4:	2d07      	cmp	r5, #7
    17e6:	f8c4 35f8 	str.w	r3, [r4, #1528]	; 0x5f8
    17ea:	f000 8118 	beq.w	1a1e <DxGoHome()+0x37e>
    17ee:	bb2d      	cbnz	r5, 183c <DxGoHome()+0x19c>
    17f0:	28ff      	cmp	r0, #255	; 0xff
    17f2:	f040 8128 	bne.w	1a46 <DxGoHome()+0x3a6>
    17f6:	2201      	movs	r2, #1
    17f8:	f108 0314 	add.w	r3, r8, #20
    17fc:	f8c4 25e8 	str.w	r2, [r4, #1512]	; 0x5e8
    1800:	f8c4 3608 	str.w	r3, [r4, #1544]	; 0x608
    1804:	e7dd      	b.n	17c2 <DxGoHome()+0x122>
    1806:	bf00      	nop
    1808:	1000089c 	.word	0x1000089c
    180c:	10000950 	.word	0x10000950
    1810:	c2880000 	.word	0xc2880000
    1814:	42880000 	.word	0x42880000
    1818:	1000099c 	.word	0x1000099c
    181c:	1000024c 	.word	0x1000024c
    1820:	10000204 	.word	0x10000204
    1824:	10000250 	.word	0x10000250
    1828:	43610000 	.word	0x43610000
    182c:	10000354 	.word	0x10000354
    1830:	10000254 	.word	0x10000254
    1834:	1000011c 	.word	0x1000011c
    1838:	1000021c 	.word	0x1000021c
    183c:	2d01      	cmp	r5, #1
    183e:	f000 810d 	beq.w	1a5c <DxGoHome()+0x3bc>
    1842:	2d02      	cmp	r5, #2
    1844:	f000 8156 	beq.w	1af4 <DxGoHome()+0x454>
    1848:	2d03      	cmp	r5, #3
    184a:	f000 815d 	beq.w	1b08 <DxGoHome()+0x468>
    184e:	2d04      	cmp	r5, #4
    1850:	f000 8164 	beq.w	1b1c <DxGoHome()+0x47c>
    1854:	2d05      	cmp	r5, #5
    1856:	f000 8170 	beq.w	1b3a <DxGoHome()+0x49a>
    185a:	2d06      	cmp	r5, #6
    185c:	f000 8175 	beq.w	1b4a <DxGoHome()+0x4aa>
    1860:	2d08      	cmp	r5, #8
    1862:	d1ae      	bne.n	17c2 <DxGoHome()+0x122>
    1864:	4ac3      	ldr	r2, [pc, #780]	; (1b74 <DxGoHome()+0x4d4>)
    1866:	2100      	movs	r1, #0
    1868:	401a      	ands	r2, r3
    186a:	428a      	cmp	r2, r1
    186c:	f8c4 15e8 	str.w	r1, [r4, #1512]	; 0x5e8
    1870:	f2c0 81d9 	blt.w	1c26 <DxGoHome()+0x586>
    1874:	2aff      	cmp	r2, #255	; 0xff
    1876:	d1a4      	bne.n	17c2 <DxGoHome()+0x122>
    1878:	f8d4 35f0 	ldr.w	r3, [r4, #1520]	; 0x5f0
    187c:	2b00      	cmp	r3, #0
    187e:	f000 870d 	beq.w	269c <DxGoHome()+0xffc>
    1882:	2b0a      	cmp	r3, #10
    1884:	f000 86ca 	beq.w	261c <DxGoHome()+0xf7c>
    1888:	2b06      	cmp	r3, #6
    188a:	f000 86fd 	beq.w	2688 <DxGoHome()+0xfe8>
    188e:	2b0b      	cmp	r3, #11
    1890:	f000 81ce 	beq.w	1c30 <DxGoHome()+0x590>
    1894:	eb04 0383 	add.w	r3, r4, r3, lsl #2
    1898:	f8d3 53f4 	ldr.w	r5, [r3, #1012]	; 0x3f4
    189c:	2d00      	cmp	r5, #0
    189e:	d090      	beq.n	17c2 <DxGoHome()+0x122>
    18a0:	682b      	ldr	r3, [r5, #0]
    18a2:	4ab5      	ldr	r2, [pc, #724]	; (1b78 <DxGoHome()+0x4d8>)
    18a4:	681b      	ldr	r3, [r3, #0]
    18a6:	4293      	cmp	r3, r2
    18a8:	f041 80f6 	bne.w	2a98 <DxGoHome()+0x13f8>
    18ac:	f894 6120 	ldrb.w	r6, [r4, #288]	; 0x120
    18b0:	7d2b      	ldrb	r3, [r5, #20]
    18b2:	f105 020c 	add.w	r2, r5, #12
    18b6:	42b3      	cmp	r3, r6
    18b8:	9205      	str	r2, [sp, #20]
    18ba:	d204      	bcs.n	18c6 <DxGoHome()+0x226>
    18bc:	0131      	lsls	r1, r6, #4
    18be:	6aa8      	ldr	r0, [r5, #40]	; 0x28
    18c0:	f004 fb7c 	bl	5fbc <__wrap_realloc>
    18c4:	62a8      	str	r0, [r5, #40]	; 0x28
    18c6:	752e      	strb	r6, [r5, #20]
    18c8:	2e00      	cmp	r6, #0
    18ca:	f001 8142 	beq.w	2b52 <DxGoHome()+0x14b2>
    18ce:	4bab      	ldr	r3, [pc, #684]	; (1b7c <DxGoHome()+0x4dc>)
    18d0:	2600      	movs	r6, #0
    18d2:	9304      	str	r3, [sp, #16]
    18d4:	2304      	movs	r3, #4
    18d6:	9302      	str	r3, [sp, #8]
    18d8:	ab0b      	add	r3, sp, #44	; 0x2c
    18da:	f105 0e18 	add.w	lr, r5, #24
    18de:	9303      	str	r3, [sp, #12]
    18e0:	f8cd 8018 	str.w	r8, [sp, #24]
    18e4:	9b04      	ldr	r3, [sp, #16]
    18e6:	9a02      	ldr	r2, [sp, #8]
    18e8:	189f      	adds	r7, r3, r2
    18ea:	6838      	ldr	r0, [r7, #0]
    18ec:	9b03      	ldr	r3, [sp, #12]
    18ee:	f107 0c03 	add.w	r12, r7, #3
    18f2:	6018      	str	r0, [r3, #0]
    18f4:	980b      	ldr	r0, [sp, #44]	; 0x2c
    18f6:	f100 0804 	add.w	r8, r0, #4
    18fa:	f1b8 0f04 	cmp.w	r8, #4
    18fe:	d908      	bls.n	1912 <DxGoHome()+0x272>
    1900:	4663      	mov	r3, r12
    1902:	1cc1      	adds	r1, r0, #3
    1904:	4439      	add	r1, r7
    1906:	f813 2f01 	ldrb.w	r2, [r3, #1]!
    190a:	428b      	cmp	r3, r1
    190c:	f803 2c01 	strb.w	r2, [r3, #-1]
    1910:	d1f9      	bne.n	1906 <DxGoHome()+0x266>
    1912:	f04f 0300 	mov.w	r3, #0
    1916:	183a      	adds	r2, r7, r0
    1918:	70d3      	strb	r3, [r2, #3]
    191a:	f8c5 c01c 	str.w	r12, [r5, #28]
    191e:	f817 3008 	ldrb.w	r3, [r7, r8]
    1922:	f100 0c0c 	add.w	r12, r0, #12
    1926:	622b      	str	r3, [r5, #32]
    1928:	7957      	ldrb	r7, [r2, #5]
    192a:	9802      	ldr	r0, [sp, #8]
    192c:	ea43 2307 	orr.w	r3, r3, r7, lsl #8
    1930:	622b      	str	r3, [r5, #32]
    1932:	7997      	ldrb	r7, [r2, #6]
    1934:	4460      	add	r0, r12
    1936:	ea43 4307 	orr.w	r3, r3, r7, lsl #16
    193a:	622b      	str	r3, [r5, #32]
    193c:	79d7      	ldrb	r7, [r2, #7]
    193e:	9002      	str	r0, [sp, #8]
    1940:	ea43 6307 	orr.w	r3, r3, r7, lsl #24
    1944:	622b      	str	r3, [r5, #32]
    1946:	7a13      	ldrb	r3, [r2, #8]
    1948:	f8d5 8028 	ldr.w	r8, [r5, #40]	; 0x28
    194c:	626b      	str	r3, [r5, #36]	; 0x24
    194e:	7a57      	ldrb	r7, [r2, #9]
    1950:	0131      	lsls	r1, r6, #4
    1952:	ea43 2007 	orr.w	r0, r3, r7, lsl #8
    1956:	6268      	str	r0, [r5, #36]	; 0x24
    1958:	7a97      	ldrb	r7, [r2, #10]
    195a:	eb08 0301 	add.w	r3, r8, r1
    195e:	ea40 4007 	orr.w	r0, r0, r7, lsl #16
    1962:	6268      	str	r0, [r5, #36]	; 0x24
    1964:	7ad2      	ldrb	r2, [r2, #11]
    1966:	3601      	adds	r6, #1
    1968:	ea40 6002 	orr.w	r0, r0, r2, lsl #24
    196c:	6268      	str	r0, [r5, #36]	; 0x24
    196e:	f8de c000 	ldr.w	r12, [lr]
    1972:	f8de 7004 	ldr.w	r7, [lr, #4]
    1976:	f8de 0008 	ldr.w	r0, [lr, #8]
    197a:	f8de 200c 	ldr.w	r2, [lr, #12]
    197e:	f848 c001 	str.w	r12, [r8, r1]
    1982:	605f      	str	r7, [r3, #4]
    1984:	6098      	str	r0, [r3, #8]
    1986:	60da      	str	r2, [r3, #12]
    1988:	7d2b      	ldrb	r3, [r5, #20]
    198a:	b2f6      	uxtb	r6, r6
    198c:	42b3      	cmp	r3, r6
    198e:	d8a9      	bhi.n	18e4 <DxGoHome()+0x244>
    1990:	9b02      	ldr	r3, [sp, #8]
    1992:	f8dd 8018 	ldr.w	r8, [sp, #24]
    1996:	1d1a      	adds	r2, r3, #4
    1998:	1d16      	adds	r6, r2, #4
    199a:	1c5f      	adds	r7, r3, #1
    199c:	1c98      	adds	r0, r3, #2
    199e:	1cd9      	adds	r1, r3, #3
    19a0:	4423      	add	r3, r4
    19a2:	f893 3120 	ldrb.w	r3, [r3, #288]	; 0x120
    19a6:	4427      	add	r7, r4
    19a8:	62eb      	str	r3, [r5, #44]	; 0x2c
    19aa:	f897 7120 	ldrb.w	r7, [r7, #288]	; 0x120
    19ae:	4420      	add	r0, r4
    19b0:	ea43 2307 	orr.w	r3, r3, r7, lsl #8
    19b4:	62eb      	str	r3, [r5, #44]	; 0x2c
    19b6:	f890 0120 	ldrb.w	r0, [r0, #288]	; 0x120
    19ba:	4421      	add	r1, r4
    19bc:	ea43 4300 	orr.w	r3, r3, r0, lsl #16
    19c0:	62eb      	str	r3, [r5, #44]	; 0x2c
    19c2:	f891 1120 	ldrb.w	r1, [r1, #288]	; 0x120
    19c6:	4422      	add	r2, r4
    19c8:	ea43 6301 	orr.w	r3, r3, r1, lsl #24
    19cc:	62eb      	str	r3, [r5, #44]	; 0x2c
    19ce:	f892 7120 	ldrb.w	r7, [r2, #288]	; 0x120
    19d2:	f895 3030 	ldrb.w	r3, [r5, #48]	; 0x30
    19d6:	42bb      	cmp	r3, r7
    19d8:	d204      	bcs.n	19e4 <DxGoHome()+0x344>
    19da:	0079      	lsls	r1, r7, #1
    19dc:	6b68      	ldr	r0, [r5, #52]	; 0x34
    19de:	f004 faed 	bl	5fbc <__wrap_realloc>
    19e2:	6368      	str	r0, [r5, #52]	; 0x34
    19e4:	f885 7030 	strb.w	r7, [r5, #48]	; 0x30
    19e8:	b1af      	cbz	r7, 1a16 <DxGoHome()+0x376>
    19ea:	19a0      	adds	r0, r4, r6
    19ec:	2100      	movs	r1, #0
    19ee:	f105 0632 	add.w	r6, r5, #50	; 0x32
    19f2:	f890 2121 	ldrb.w	r2, [r0, #289]	; 0x121
    19f6:	f890 3120 	ldrb.w	r3, [r0, #288]	; 0x120
    19fa:	3002      	adds	r0, #2
    19fc:	ea43 2302 	orr.w	r3, r3, r2, lsl #8
    1a00:	866b      	strh	r3, [r5, #50]	; 0x32
    1a02:	8837      	ldrh	r7, [r6, #0]
    1a04:	6b6b      	ldr	r3, [r5, #52]	; 0x34
    1a06:	1c4a      	adds	r2, r1, #1
    1a08:	f823 7011 	strh.w	r7, [r3, r1, lsl #1]
    1a0c:	f895 3030 	ldrb.w	r3, [r5, #48]	; 0x30
    1a10:	b2d1      	uxtb	r1, r2
    1a12:	428b      	cmp	r3, r1
    1a14:	d8ed      	bhi.n	19f2 <DxGoHome()+0x352>
    1a16:	6bab      	ldr	r3, [r5, #56]	; 0x38
    1a18:	9805      	ldr	r0, [sp, #20]
    1a1a:	4798      	blx	r3
    1a1c:	e6d1      	b.n	17c2 <DxGoHome()+0x122>
    1a1e:	f8d4 25f4 	ldr.w	r2, [r4, #1524]	; 0x5f4
    1a22:	f8d4 35ec 	ldr.w	r3, [r4, #1516]	; 0x5ec
    1a26:	1c51      	adds	r1, r2, #1
    1a28:	3b01      	subs	r3, #1
    1a2a:	4422      	add	r2, r4
    1a2c:	f8c4 15f4 	str.w	r1, [r4, #1524]	; 0x5f4
    1a30:	f882 0120 	strb.w	r0, [r2, #288]	; 0x120
    1a34:	f8c4 35ec 	str.w	r3, [r4, #1516]	; 0x5ec
    1a38:	2b00      	cmp	r3, #0
    1a3a:	f47f aec2 	bne.w	17c2 <DxGoHome()+0x122>
    1a3e:	2308      	movs	r3, #8
    1a40:	f8c4 35e8 	str.w	r3, [r4, #1512]	; 0x5e8
    1a44:	e6bd      	b.n	17c2 <DxGoHome()+0x122>
    1a46:	484e      	ldr	r0, [pc, #312]	; (1b80 <DxGoHome()+0x4e0>)
    1a48:	f005 ff16 	bl	7878 <mbed::Timer::read_ms()>
    1a4c:	ebc8 0000 	rsb	r0, r8, r0
    1a50:	2805      	cmp	r0, #5
    1a52:	f67f aeb6 	bls.w	17c2 <DxGoHome()+0x122>
    1a56:	f88b 55fc 	strb.w	r5, [r11, #1532]	; 0x5fc
    1a5a:	e675      	b.n	1748 <DxGoHome()+0xa8>
    1a5c:	28fe      	cmp	r0, #254	; 0xfe
    1a5e:	d068      	beq.n	1b32 <DxGoHome()+0x492>
    1a60:	f894 05fc 	ldrb.w	r0, [r4, #1532]	; 0x5fc
    1a64:	f8c4 65e8 	str.w	r6, [r4, #1512]	; 0x5e8
    1a68:	2800      	cmp	r0, #0
    1a6a:	f47f aeaa 	bne.w	17c2 <DxGoHome()+0x122>
    1a6e:	250a      	movs	r5, #10
    1a70:	26ff      	movs	r6, #255	; 0xff
    1a72:	4b44      	ldr	r3, [pc, #272]	; (1b84 <DxGoHome()+0x4e4>)
    1a74:	4629      	mov	r1, r5
    1a76:	27fe      	movs	r7, #254	; 0xfe
    1a78:	f884 5325 	strb.w	r5, [r4, #805]	; 0x325
    1a7c:	f884 6320 	strb.w	r6, [r4, #800]	; 0x320
    1a80:	25f7      	movs	r5, #247	; 0xf7
    1a82:	2608      	movs	r6, #8
    1a84:	4602      	mov	r2, r0
    1a86:	f884 0327 	strb.w	r0, [r4, #807]	; 0x327
    1a8a:	f884 0328 	strb.w	r0, [r4, #808]	; 0x328
    1a8e:	f884 0329 	strb.w	r0, [r4, #809]	; 0x329
    1a92:	f884 032a 	strb.w	r0, [r4, #810]	; 0x32a
    1a96:	f884 032b 	strb.w	r0, [r4, #811]	; 0x32b
    1a9a:	f884 032c 	strb.w	r0, [r4, #812]	; 0x32c
    1a9e:	f884 032d 	strb.w	r0, [r4, #813]	; 0x32d
    1aa2:	f884 032e 	strb.w	r0, [r4, #814]	; 0x32e
    1aa6:	f884 0323 	strb.w	r0, [r4, #803]	; 0x323
    1aaa:	f884 0326 	strb.w	r0, [r4, #806]	; 0x326
    1aae:	f884 7321 	strb.w	r7, [r4, #801]	; 0x321
    1ab2:	f103 0009 	add.w	r0, r3, #9
    1ab6:	f884 6322 	strb.w	r6, [r4, #802]	; 0x322
    1aba:	f884 5324 	strb.w	r5, [r4, #804]	; 0x324
    1abe:	e001      	b.n	1ac4 <DxGoHome()+0x424>
    1ac0:	f813 1f01 	ldrb.w	r1, [r3, #1]!
    1ac4:	4298      	cmp	r0, r3
    1ac6:	440a      	add	r2, r1
    1ac8:	d1fa      	bne.n	1ac0 <DxGoHome()+0x420>
    1aca:	43d2      	mvns	r2, r2
    1acc:	4d2e      	ldr	r5, [pc, #184]	; (1b88 <DxGoHome()+0x4e8>)
    1ace:	f884 232f 	strb.w	r2, [r4, #815]	; 0x32f
    1ad2:	f105 060f 	add.w	r6, r5, #15
    1ad6:	21ff      	movs	r1, #255	; 0xff
    1ad8:	e001      	b.n	1ade <DxGoHome()+0x43e>
    1ada:	f815 1f01 	ldrb.w	r1, [r5, #1]!
    1ade:	482b      	ldr	r0, [pc, #172]	; (1b8c <DxGoHome()+0x4ec>)
    1ae0:	f005 fe90 	bl	7804 <mbed::Stream::putc(int)>
    1ae4:	42b5      	cmp	r5, r6
    1ae6:	d1f8      	bne.n	1ada <DxGoHome()+0x43a>
    1ae8:	4825      	ldr	r0, [pc, #148]	; (1b80 <DxGoHome()+0x4e0>)
    1aea:	f005 fec5 	bl	7878 <mbed::Timer::read_ms()>
    1aee:	f8cb 0114 	str.w	r0, [r11, #276]	; 0x114
    1af2:	e666      	b.n	17c2 <DxGoHome()+0x122>
    1af4:	2303      	movs	r3, #3
    1af6:	f8c4 05ec 	str.w	r0, [r4, #1516]	; 0x5ec
    1afa:	f8c4 65f4 	str.w	r6, [r4, #1524]	; 0x5f4
    1afe:	f8c4 05f8 	str.w	r0, [r4, #1528]	; 0x5f8
    1b02:	f8c4 35e8 	str.w	r3, [r4, #1512]	; 0x5e8
    1b06:	e65c      	b.n	17c2 <DxGoHome()+0x122>
    1b08:	f8d4 35ec 	ldr.w	r3, [r4, #1516]	; 0x5ec
    1b0c:	2204      	movs	r2, #4
    1b0e:	eb03 2000 	add.w	r0, r3, r0, lsl #8
    1b12:	f8c4 05ec 	str.w	r0, [r4, #1516]	; 0x5ec
    1b16:	f8c4 25e8 	str.w	r2, [r4, #1512]	; 0x5e8
    1b1a:	e652      	b.n	17c2 <DxGoHome()+0x122>
    1b1c:	4a15      	ldr	r2, [pc, #84]	; (1b74 <DxGoHome()+0x4d4>)
    1b1e:	401a      	ands	r2, r3
    1b20:	2a00      	cmp	r2, #0
    1b22:	db21      	blt.n	1b68 <DxGoHome()+0x4c8>
    1b24:	2aff      	cmp	r2, #255	; 0xff
    1b26:	f47f ae49 	bne.w	17bc <DxGoHome()+0x11c>
    1b2a:	2305      	movs	r3, #5
    1b2c:	f8c4 35e8 	str.w	r3, [r4, #1512]	; 0x5e8
    1b30:	e647      	b.n	17c2 <DxGoHome()+0x122>
    1b32:	2302      	movs	r3, #2
    1b34:	f8c4 35e8 	str.w	r3, [r4, #1512]	; 0x5e8
    1b38:	e643      	b.n	17c2 <DxGoHome()+0x122>
    1b3a:	2306      	movs	r3, #6
    1b3c:	f8c4 05f0 	str.w	r0, [r4, #1520]	; 0x5f0
    1b40:	f8c4 05f8 	str.w	r0, [r4, #1528]	; 0x5f8
    1b44:	f8c4 35e8 	str.w	r3, [r4, #1512]	; 0x5e8
    1b48:	e63b      	b.n	17c2 <DxGoHome()+0x122>
    1b4a:	f8d4 35f0 	ldr.w	r3, [r4, #1520]	; 0x5f0
    1b4e:	f8d4 25ec 	ldr.w	r2, [r4, #1516]	; 0x5ec
    1b52:	eb03 2300 	add.w	r3, r3, r0, lsl #8
    1b56:	2107      	movs	r1, #7
    1b58:	f8c4 35f0 	str.w	r3, [r4, #1520]	; 0x5f0
    1b5c:	f8c4 15e8 	str.w	r1, [r4, #1512]	; 0x5e8
    1b60:	2a00      	cmp	r2, #0
    1b62:	f43f af6c 	beq.w	1a3e <DxGoHome()+0x39e>
    1b66:	e62c      	b.n	17c2 <DxGoHome()+0x122>
    1b68:	3a01      	subs	r2, #1
    1b6a:	f062 02ff 	orn	r2, r2, #255	; 0xff
    1b6e:	3201      	adds	r2, #1
    1b70:	e7d8      	b.n	1b24 <DxGoHome()+0x484>
    1b72:	bf00      	nop
    1b74:	800000ff 	.word	0x800000ff
    1b78:	00000c5d 	.word	0x00000c5d
    1b7c:	10000370 	.word	0x10000370
    1b80:	10000354 	.word	0x10000354
    1b84:	10000575 	.word	0x10000575
    1b88:	10000570 	.word	0x10000570
    1b8c:	10000294 	.word	0x10000294
    1b90:	250a      	movs	r5, #10
    1b92:	26ff      	movs	r6, #255	; 0xff
    1b94:	4b68      	ldr	r3, [pc, #416]	; (1d38 <DxGoHome()+0x698>)
    1b96:	2000      	movs	r0, #0
    1b98:	4629      	mov	r1, r5
    1b9a:	27fe      	movs	r7, #254	; 0xfe
    1b9c:	f884 5325 	strb.w	r5, [r4, #805]	; 0x325
    1ba0:	f884 6320 	strb.w	r6, [r4, #800]	; 0x320
    1ba4:	25f7      	movs	r5, #247	; 0xf7
    1ba6:	2608      	movs	r6, #8
    1ba8:	4602      	mov	r2, r0
    1baa:	f884 0327 	strb.w	r0, [r4, #807]	; 0x327
    1bae:	f884 0328 	strb.w	r0, [r4, #808]	; 0x328
    1bb2:	f884 0329 	strb.w	r0, [r4, #809]	; 0x329
    1bb6:	f884 032a 	strb.w	r0, [r4, #810]	; 0x32a
    1bba:	f884 032b 	strb.w	r0, [r4, #811]	; 0x32b
    1bbe:	f884 032c 	strb.w	r0, [r4, #812]	; 0x32c
    1bc2:	f884 032d 	strb.w	r0, [r4, #813]	; 0x32d
    1bc6:	f884 032e 	strb.w	r0, [r4, #814]	; 0x32e
    1bca:	f884 0323 	strb.w	r0, [r4, #803]	; 0x323
    1bce:	f884 0326 	strb.w	r0, [r4, #806]	; 0x326
    1bd2:	f884 7321 	strb.w	r7, [r4, #801]	; 0x321
    1bd6:	f103 0009 	add.w	r0, r3, #9
    1bda:	f884 6322 	strb.w	r6, [r4, #802]	; 0x322
    1bde:	f884 5324 	strb.w	r5, [r4, #804]	; 0x324
    1be2:	e001      	b.n	1be8 <DxGoHome()+0x548>
    1be4:	f813 1f01 	ldrb.w	r1, [r3, #1]!
    1be8:	4283      	cmp	r3, r0
    1bea:	440a      	add	r2, r1
    1bec:	d1fa      	bne.n	1be4 <DxGoHome()+0x544>
    1bee:	43d2      	mvns	r2, r2
    1bf0:	4d52      	ldr	r5, [pc, #328]	; (1d3c <DxGoHome()+0x69c>)
    1bf2:	f884 232f 	strb.w	r2, [r4, #815]	; 0x32f
    1bf6:	f105 060f 	add.w	r6, r5, #15
    1bfa:	21ff      	movs	r1, #255	; 0xff
    1bfc:	e001      	b.n	1c02 <DxGoHome()+0x562>
    1bfe:	f815 1f01 	ldrb.w	r1, [r5, #1]!
    1c02:	484f      	ldr	r0, [pc, #316]	; (1d40 <DxGoHome()+0x6a0>)
    1c04:	f005 fdfe 	bl	7804 <mbed::Stream::putc(int)>
    1c08:	42b5      	cmp	r5, r6
    1c0a:	d1f8      	bne.n	1bfe <DxGoHome()+0x55e>
    1c0c:	484d      	ldr	r0, [pc, #308]	; (1d44 <DxGoHome()+0x6a4>)
    1c0e:	f005 fe33 	bl	7878 <mbed::Timer::read_ms()>
    1c12:	f8cb 8600 	str.w	r8, [r11, #1536]	; 0x600
    1c16:	f8cb 0114 	str.w	r0, [r11, #276]	; 0x114
    1c1a:	e595      	b.n	1748 <DxGoHome()+0xa8>
    1c1c:	f7ff fc96 	bl	154c <DxResetTorque()>
    1c20:	b00f      	add	sp, #60	; 0x3c
    1c22:	e8bd 8ff0 	ldmia.w	sp!, {r4, r5, r6, r7, r8, r9, r10, r11, pc}
    1c26:	3a01      	subs	r2, #1
    1c28:	f062 02ff 	orn	r2, r2, #255	; 0xff
    1c2c:	3201      	adds	r2, #1
    1c2e:	e621      	b.n	1874 <DxGoHome()+0x1d4>
    1c30:	2300      	movs	r3, #0
    1c32:	f884 35fc 	strb.w	r3, [r4, #1532]	; 0x5fc
    1c36:	e5c4      	b.n	17c2 <DxGoHome()+0x122>
    1c38:	4c43      	ldr	r4, [pc, #268]	; (1d48 <DxGoHome()+0x6a8>)
    1c3a:	6820      	ldr	r0, [r4, #0]
    1c3c:	2200      	movs	r2, #0
    1c3e:	6803      	ldr	r3, [r0, #0]
    1c40:	f8da 1000 	ldr.w	r1, [r10]
    1c44:	685b      	ldr	r3, [r3, #4]
    1c46:	4798      	blx	r3
    1c48:	9b01      	ldr	r3, [sp, #4]
    1c4a:	681b      	ldr	r3, [r3, #0]
    1c4c:	2b00      	cmp	r3, #0
    1c4e:	d1e5      	bne.n	1c1c <DxGoHome()+0x57c>
    1c50:	4c3e      	ldr	r4, [pc, #248]	; (1d4c <DxGoHome()+0x6ac>)
    1c52:	46a3      	mov	r11, r4
    1c54:	e012      	b.n	1c7c <DxGoHome()+0x5dc>
    1c56:	f894 35fc 	ldrb.w	r3, [r4, #1532]	; 0x5fc
    1c5a:	b143      	cbz	r3, 1c6e <DxGoHome()+0x5ce>
    1c5c:	f640 12c4 	movw	r2, #2500	; 0x9c4
    1c60:	f8d4 3600 	ldr.w	r3, [r4, #1536]	; 0x600
    1c64:	ebc3 0308 	rsb	r3, r3, r8
    1c68:	4293      	cmp	r3, r2
    1c6a:	f200 821d 	bhi.w	20a8 <DxGoHome()+0xa08>
    1c6e:	200a      	movs	r0, #10
    1c70:	f004 fe8c 	bl	698c <wait_ms>
    1c74:	9b01      	ldr	r3, [sp, #4]
    1c76:	681b      	ldr	r3, [r3, #0]
    1c78:	2b00      	cmp	r3, #0
    1c7a:	d1cf      	bne.n	1c1c <DxGoHome()+0x57c>
    1c7c:	f7ff faea 	bl	1254 <GetPubPosition()>
    1c80:	f8d9 202c 	ldr.w	r2, [r9, #44]	; 0x2c
    1c84:	f8da 3004 	ldr.w	r3, [r10, #4]
    1c88:	f8da 500c 	ldr.w	r5, [r10, #12]
    1c8c:	6850      	ldr	r0, [r2, #4]
    1c8e:	441d      	add	r5, r3
    1c90:	f006 fece 	bl	8a30 <__aeabi_f2iz>
    1c94:	4b2e      	ldr	r3, [pc, #184]	; (1d50 <DxGoHome()+0x6b0>)
    1c96:	1a29      	subs	r1, r5, r0
    1c98:	681b      	ldr	r3, [r3, #0]
    1c9a:	4d2e      	ldr	r5, [pc, #184]	; (1d54 <DxGoHome()+0x6b4>)
    1c9c:	681a      	ldr	r2, [r3, #0]
    1c9e:	4618      	mov	r0, r3
    1ca0:	6853      	ldr	r3, [r2, #4]
    1ca2:	2200      	movs	r2, #0
    1ca4:	4798      	blx	r3
    1ca6:	f8d9 302c 	ldr.w	r3, [r9, #44]	; 0x2c
    1caa:	492b      	ldr	r1, [pc, #172]	; (1d58 <DxGoHome()+0x6b8>)
    1cac:	681e      	ldr	r6, [r3, #0]
    1cae:	4630      	mov	r0, r6
    1cb0:	f006 feb4 	bl	8a1c <__aeabi_fcmpgt>
    1cb4:	b130      	cbz	r0, 1cc4 <DxGoHome()+0x624>
    1cb6:	4630      	mov	r0, r6
    1cb8:	4928      	ldr	r1, [pc, #160]	; (1d5c <DxGoHome()+0x6bc>)
    1cba:	f006 fe91 	bl	89e0 <__aeabi_fcmplt>
    1cbe:	2800      	cmp	r0, #0
    1cc0:	f040 823d 	bne.w	213e <DxGoHome()+0xa9e>
    1cc4:	481f      	ldr	r0, [pc, #124]	; (1d44 <DxGoHome()+0x6a4>)
    1cc6:	f005 fdd7 	bl	7878 <mbed::Timer::read_ms()>
    1cca:	f642 22f8 	movw	r2, #11000	; 0x2af8
    1cce:	f8d4 3604 	ldr.w	r3, [r4, #1540]	; 0x604
    1cd2:	4680      	mov	r8, r0
    1cd4:	1ac3      	subs	r3, r0, r3
    1cd6:	4293      	cmp	r3, r2
    1cd8:	bf84      	itt	hi
    1cda:	2300      	movhi	r3, #0
    1cdc:	f88b 35fc 	strbhi.w	r3, [r11, #1532]	; 0x5fc
    1ce0:	f8d4 35e8 	ldr.w	r3, [r4, #1512]	; 0x5e8
    1ce4:	b133      	cbz	r3, 1cf4 <DxGoHome()+0x654>
    1ce6:	f8d4 3608 	ldr.w	r3, [r4, #1544]	; 0x608
    1cea:	4298      	cmp	r0, r3
    1cec:	d902      	bls.n	1cf4 <DxGoHome()+0x654>
    1cee:	2300      	movs	r3, #0
    1cf0:	f8c4 35e8 	str.w	r3, [r4, #1512]	; 0x5e8
    1cf4:	481a      	ldr	r0, [pc, #104]	; (1d60 <DxGoHome()+0x6c0>)
    1cf6:	f004 faf7 	bl	62e8 <AjK::MODSERIAL::rxBufferEmpty()>
    1cfa:	4606      	mov	r6, r0
    1cfc:	2800      	cmp	r0, #0
    1cfe:	d1aa      	bne.n	1c56 <DxGoHome()+0x5b6>
    1d00:	2101      	movs	r1, #1
    1d02:	4817      	ldr	r0, [pc, #92]	; (1d60 <DxGoHome()+0x6c0>)
    1d04:	f004 f96e 	bl	5fe4 <AjK::MODSERIAL::__getc(bool)>
    1d08:	2800      	cmp	r0, #0
    1d0a:	dba4      	blt.n	1c56 <DxGoHome()+0x5b6>
    1d0c:	f8d4 35f8 	ldr.w	r3, [r4, #1528]	; 0x5f8
    1d10:	f8d4 55e8 	ldr.w	r5, [r4, #1512]	; 0x5e8
    1d14:	4403      	add	r3, r0
    1d16:	2d07      	cmp	r5, #7
    1d18:	f8c4 35f8 	str.w	r3, [r4, #1528]	; 0x5f8
    1d1c:	f000 810b 	beq.w	1f36 <DxGoHome()+0x896>
    1d20:	bb05      	cbnz	r5, 1d64 <DxGoHome()+0x6c4>
    1d22:	28ff      	cmp	r0, #255	; 0xff
    1d24:	f040 811b 	bne.w	1f5e <DxGoHome()+0x8be>
    1d28:	2201      	movs	r2, #1
    1d2a:	f108 0314 	add.w	r3, r8, #20
    1d2e:	f8c4 25e8 	str.w	r2, [r4, #1512]	; 0x5e8
    1d32:	f8c4 3608 	str.w	r3, [r4, #1544]	; 0x608
    1d36:	e7dd      	b.n	1cf4 <DxGoHome()+0x654>
    1d38:	10000575 	.word	0x10000575
    1d3c:	10000570 	.word	0x10000570
    1d40:	10000294 	.word	0x10000294
    1d44:	10000354 	.word	0x10000354
    1d48:	1000094c 	.word	0x1000094c
    1d4c:	10000250 	.word	0x10000250
    1d50:	10000950 	.word	0x10000950
    1d54:	1000011c 	.word	0x1000011c
    1d58:	c2880000 	.word	0xc2880000
    1d5c:	42880000 	.word	0x42880000
    1d60:	10000254 	.word	0x10000254
    1d64:	2d01      	cmp	r5, #1
    1d66:	f000 8105 	beq.w	1f74 <DxGoHome()+0x8d4>
    1d6a:	2d02      	cmp	r5, #2
    1d6c:	f000 814e 	beq.w	200c <DxGoHome()+0x96c>
    1d70:	2d03      	cmp	r5, #3
    1d72:	f000 8155 	beq.w	2020 <DxGoHome()+0x980>
    1d76:	2d04      	cmp	r5, #4
    1d78:	f000 815c 	beq.w	2034 <DxGoHome()+0x994>
    1d7c:	2d05      	cmp	r5, #5
    1d7e:	f000 8168 	beq.w	2052 <DxGoHome()+0x9b2>
    1d82:	2d06      	cmp	r5, #6
    1d84:	f000 816d 	beq.w	2062 <DxGoHome()+0x9c2>
    1d88:	2d08      	cmp	r5, #8
    1d8a:	d1b3      	bne.n	1cf4 <DxGoHome()+0x654>
    1d8c:	4abf      	ldr	r2, [pc, #764]	; (208c <DxGoHome()+0x9ec>)
    1d8e:	2100      	movs	r1, #0
    1d90:	401a      	ands	r2, r3
    1d92:	428a      	cmp	r2, r1
    1d94:	f8c4 15e8 	str.w	r1, [r4, #1512]	; 0x5e8
    1d98:	f2c0 81cc 	blt.w	2134 <DxGoHome()+0xa94>
    1d9c:	2aff      	cmp	r2, #255	; 0xff
    1d9e:	d1a9      	bne.n	1cf4 <DxGoHome()+0x654>
    1da0:	f8d4 35f0 	ldr.w	r3, [r4, #1520]	; 0x5f0
    1da4:	2b00      	cmp	r3, #0
    1da6:	f000 86dc 	beq.w	2b62 <DxGoHome()+0x14c2>
    1daa:	2b0a      	cmp	r3, #10
    1dac:	f000 8400 	beq.w	25b0 <DxGoHome()+0xf10>
    1db0:	2b06      	cmp	r3, #6
    1db2:	f000 83f3 	beq.w	259c <DxGoHome()+0xefc>
    1db6:	2b0b      	cmp	r3, #11
    1db8:	f000 83eb 	beq.w	2592 <DxGoHome()+0xef2>
    1dbc:	eb04 0383 	add.w	r3, r4, r3, lsl #2
    1dc0:	f8d3 53f4 	ldr.w	r5, [r3, #1012]	; 0x3f4
    1dc4:	2d00      	cmp	r5, #0
    1dc6:	d095      	beq.n	1cf4 <DxGoHome()+0x654>
    1dc8:	682b      	ldr	r3, [r5, #0]
    1dca:	4ab1      	ldr	r2, [pc, #708]	; (2090 <DxGoHome()+0x9f0>)
    1dcc:	681b      	ldr	r3, [r3, #0]
    1dce:	4293      	cmp	r3, r2
    1dd0:	f040 8667 	bne.w	2aa2 <DxGoHome()+0x1402>
    1dd4:	f894 6120 	ldrb.w	r6, [r4, #288]	; 0x120
    1dd8:	7d2b      	ldrb	r3, [r5, #20]
    1dda:	f105 020c 	add.w	r2, r5, #12
    1dde:	42b3      	cmp	r3, r6
    1de0:	9205      	str	r2, [sp, #20]
    1de2:	f0c0 8663 	bcc.w	2aac <DxGoHome()+0x140c>
    1de6:	752e      	strb	r6, [r5, #20]
    1de8:	2e00      	cmp	r6, #0
    1dea:	f001 808a 	beq.w	2f02 <DxGoHome()+0x1862>
    1dee:	4ba9      	ldr	r3, [pc, #676]	; (2094 <DxGoHome()+0x9f4>)
    1df0:	2600      	movs	r6, #0
    1df2:	9303      	str	r3, [sp, #12]
    1df4:	2304      	movs	r3, #4
    1df6:	9302      	str	r3, [sp, #8]
    1df8:	ab0b      	add	r3, sp, #44	; 0x2c
    1dfa:	f105 0e18 	add.w	lr, r5, #24
    1dfe:	9304      	str	r3, [sp, #16]
    1e00:	f8cd 8018 	str.w	r8, [sp, #24]
    1e04:	9b03      	ldr	r3, [sp, #12]
    1e06:	9a02      	ldr	r2, [sp, #8]
    1e08:	189f      	adds	r7, r3, r2
    1e0a:	6838      	ldr	r0, [r7, #0]
    1e0c:	9b04      	ldr	r3, [sp, #16]
    1e0e:	f107 0c03 	add.w	r12, r7, #3
    1e12:	6018      	str	r0, [r3, #0]
    1e14:	980b      	ldr	r0, [sp, #44]	; 0x2c
    1e16:	f100 0804 	add.w	r8, r0, #4
    1e1a:	f1b8 0f04 	cmp.w	r8, #4
    1e1e:	d908      	bls.n	1e32 <DxGoHome()+0x792>
    1e20:	4663      	mov	r3, r12
    1e22:	1cc1      	adds	r1, r0, #3
    1e24:	4439      	add	r1, r7
    1e26:	f813 2f01 	ldrb.w	r2, [r3, #1]!
    1e2a:	428b      	cmp	r3, r1
    1e2c:	f803 2c01 	strb.w	r2, [r3, #-1]
    1e30:	d1f9      	bne.n	1e26 <DxGoHome()+0x786>
    1e32:	f04f 0300 	mov.w	r3, #0
    1e36:	183a      	adds	r2, r7, r0
    1e38:	70d3      	strb	r3, [r2, #3]
    1e3a:	f8c5 c01c 	str.w	r12, [r5, #28]
    1e3e:	f817 3008 	ldrb.w	r3, [r7, r8]
    1e42:	f100 0c0c 	add.w	r12, r0, #12
    1e46:	622b      	str	r3, [r5, #32]
    1e48:	7957      	ldrb	r7, [r2, #5]
    1e4a:	9802      	ldr	r0, [sp, #8]
    1e4c:	ea43 2307 	orr.w	r3, r3, r7, lsl #8
    1e50:	622b      	str	r3, [r5, #32]
    1e52:	7997      	ldrb	r7, [r2, #6]
    1e54:	4460      	add	r0, r12
    1e56:	ea43 4307 	orr.w	r3, r3, r7, lsl #16
    1e5a:	622b      	str	r3, [r5, #32]
    1e5c:	79d7      	ldrb	r7, [r2, #7]
    1e5e:	9002      	str	r0, [sp, #8]
    1e60:	ea43 6307 	orr.w	r3, r3, r7, lsl #24
    1e64:	622b      	str	r3, [r5, #32]
    1e66:	7a13      	ldrb	r3, [r2, #8]
    1e68:	f8d5 8028 	ldr.w	r8, [r5, #40]	; 0x28
    1e6c:	626b      	str	r3, [r5, #36]	; 0x24
    1e6e:	7a57      	ldrb	r7, [r2, #9]
    1e70:	0131      	lsls	r1, r6, #4
    1e72:	ea43 2007 	orr.w	r0, r3, r7, lsl #8
    1e76:	6268      	str	r0, [r5, #36]	; 0x24
    1e78:	7a97      	ldrb	r7, [r2, #10]
    1e7a:	eb08 0301 	add.w	r3, r8, r1
    1e7e:	ea40 4007 	orr.w	r0, r0, r7, lsl #16
    1e82:	6268      	str	r0, [r5, #36]	; 0x24
    1e84:	7ad2      	ldrb	r2, [r2, #11]
    1e86:	3601      	adds	r6, #1
    1e88:	ea40 6002 	orr.w	r0, r0, r2, lsl #24
    1e8c:	6268      	str	r0, [r5, #36]	; 0x24
    1e8e:	f8de c000 	ldr.w	r12, [lr]
    1e92:	f8de 7004 	ldr.w	r7, [lr, #4]
    1e96:	f8de 0008 	ldr.w	r0, [lr, #8]
    1e9a:	f8de 200c 	ldr.w	r2, [lr, #12]
    1e9e:	f848 c001 	str.w	r12, [r8, r1]
    1ea2:	605f      	str	r7, [r3, #4]
    1ea4:	6098      	str	r0, [r3, #8]
    1ea6:	60da      	str	r2, [r3, #12]
    1ea8:	7d2b      	ldrb	r3, [r5, #20]
    1eaa:	b2f6      	uxtb	r6, r6
    1eac:	42b3      	cmp	r3, r6
    1eae:	d8a9      	bhi.n	1e04 <DxGoHome()+0x764>
    1eb0:	9b02      	ldr	r3, [sp, #8]
    1eb2:	f8dd 8018 	ldr.w	r8, [sp, #24]
    1eb6:	1d1a      	adds	r2, r3, #4
    1eb8:	1d16      	adds	r6, r2, #4
    1eba:	1c5f      	adds	r7, r3, #1
    1ebc:	1c98      	adds	r0, r3, #2
    1ebe:	1cd9      	adds	r1, r3, #3
    1ec0:	4423      	add	r3, r4
    1ec2:	f893 3120 	ldrb.w	r3, [r3, #288]	; 0x120
    1ec6:	4427      	add	r7, r4
    1ec8:	62eb      	str	r3, [r5, #44]	; 0x2c
    1eca:	f897 7120 	ldrb.w	r7, [r7, #288]	; 0x120
    1ece:	4420      	add	r0, r4
    1ed0:	ea43 2307 	orr.w	r3, r3, r7, lsl #8
    1ed4:	62eb      	str	r3, [r5, #44]	; 0x2c
    1ed6:	f890 0120 	ldrb.w	r0, [r0, #288]	; 0x120
    1eda:	4421      	add	r1, r4
    1edc:	ea43 4300 	orr.w	r3, r3, r0, lsl #16
    1ee0:	62eb      	str	r3, [r5, #44]	; 0x2c
    1ee2:	f891 1120 	ldrb.w	r1, [r1, #288]	; 0x120
    1ee6:	4422      	add	r2, r4
    1ee8:	ea43 6301 	orr.w	r3, r3, r1, lsl #24
    1eec:	62eb      	str	r3, [r5, #44]	; 0x2c
    1eee:	f892 7120 	ldrb.w	r7, [r2, #288]	; 0x120
    1ef2:	f895 3030 	ldrb.w	r3, [r5, #48]	; 0x30
    1ef6:	42bb      	cmp	r3, r7
    1ef8:	f0c0 861f 	bcc.w	2b3a <DxGoHome()+0x149a>
    1efc:	f885 7030 	strb.w	r7, [r5, #48]	; 0x30
    1f00:	b1af      	cbz	r7, 1f2e <DxGoHome()+0x88e>
    1f02:	19a0      	adds	r0, r4, r6
    1f04:	2100      	movs	r1, #0
    1f06:	f105 0632 	add.w	r6, r5, #50	; 0x32
    1f0a:	f890 2121 	ldrb.w	r2, [r0, #289]	; 0x121
    1f0e:	f890 3120 	ldrb.w	r3, [r0, #288]	; 0x120
    1f12:	3002      	adds	r0, #2
    1f14:	ea43 2302 	orr.w	r3, r3, r2, lsl #8
    1f18:	866b      	strh	r3, [r5, #50]	; 0x32
    1f1a:	8837      	ldrh	r7, [r6, #0]
    1f1c:	6b6b      	ldr	r3, [r5, #52]	; 0x34
    1f1e:	1c4a      	adds	r2, r1, #1
    1f20:	f823 7011 	strh.w	r7, [r3, r1, lsl #1]
    1f24:	f895 3030 	ldrb.w	r3, [r5, #48]	; 0x30
    1f28:	b2d1      	uxtb	r1, r2
    1f2a:	428b      	cmp	r3, r1
    1f2c:	d8ed      	bhi.n	1f0a <DxGoHome()+0x86a>
    1f2e:	6bab      	ldr	r3, [r5, #56]	; 0x38
    1f30:	9805      	ldr	r0, [sp, #20]
    1f32:	4798      	blx	r3
    1f34:	e6de      	b.n	1cf4 <DxGoHome()+0x654>
    1f36:	f8d4 25f4 	ldr.w	r2, [r4, #1524]	; 0x5f4
    1f3a:	f8d4 35ec 	ldr.w	r3, [r4, #1516]	; 0x5ec
    1f3e:	1c51      	adds	r1, r2, #1
    1f40:	3b01      	subs	r3, #1
    1f42:	4422      	add	r2, r4
    1f44:	f8c4 15f4 	str.w	r1, [r4, #1524]	; 0x5f4
    1f48:	f882 0120 	strb.w	r0, [r2, #288]	; 0x120
    1f4c:	f8c4 35ec 	str.w	r3, [r4, #1516]	; 0x5ec
    1f50:	2b00      	cmp	r3, #0
    1f52:	f47f aecf 	bne.w	1cf4 <DxGoHome()+0x654>
    1f56:	2308      	movs	r3, #8
    1f58:	f8c4 35e8 	str.w	r3, [r4, #1512]	; 0x5e8
    1f5c:	e6ca      	b.n	1cf4 <DxGoHome()+0x654>
    1f5e:	484e      	ldr	r0, [pc, #312]	; (2098 <DxGoHome()+0x9f8>)
    1f60:	f005 fc8a 	bl	7878 <mbed::Timer::read_ms()>
    1f64:	ebc8 0000 	rsb	r0, r8, r0
    1f68:	2805      	cmp	r0, #5
    1f6a:	f67f aec3 	bls.w	1cf4 <DxGoHome()+0x654>
    1f6e:	f88b 55fc 	strb.w	r5, [r11, #1532]	; 0x5fc
    1f72:	e67c      	b.n	1c6e <DxGoHome()+0x5ce>
    1f74:	28fe      	cmp	r0, #254	; 0xfe
    1f76:	d068      	beq.n	204a <DxGoHome()+0x9aa>
    1f78:	f894 05fc 	ldrb.w	r0, [r4, #1532]	; 0x5fc
    1f7c:	f8c4 65e8 	str.w	r6, [r4, #1512]	; 0x5e8
    1f80:	2800      	cmp	r0, #0
    1f82:	f47f aeb7 	bne.w	1cf4 <DxGoHome()+0x654>
    1f86:	250a      	movs	r5, #10
    1f88:	26ff      	movs	r6, #255	; 0xff
    1f8a:	4b44      	ldr	r3, [pc, #272]	; (209c <DxGoHome()+0x9fc>)
    1f8c:	4629      	mov	r1, r5
    1f8e:	27fe      	movs	r7, #254	; 0xfe
    1f90:	f884 5325 	strb.w	r5, [r4, #805]	; 0x325
    1f94:	f884 6320 	strb.w	r6, [r4, #800]	; 0x320
    1f98:	25f7      	movs	r5, #247	; 0xf7
    1f9a:	2608      	movs	r6, #8
    1f9c:	4602      	mov	r2, r0
    1f9e:	f884 0327 	strb.w	r0, [r4, #807]	; 0x327
    1fa2:	f884 0328 	strb.w	r0, [r4, #808]	; 0x328
    1fa6:	f884 0329 	strb.w	r0, [r4, #809]	; 0x329
    1faa:	f884 032a 	strb.w	r0, [r4, #810]	; 0x32a
    1fae:	f884 032b 	strb.w	r0, [r4, #811]	; 0x32b
    1fb2:	f884 032c 	strb.w	r0, [r4, #812]	; 0x32c
    1fb6:	f884 032d 	strb.w	r0, [r4, #813]	; 0x32d
    1fba:	f884 032e 	strb.w	r0, [r4, #814]	; 0x32e
    1fbe:	f884 0323 	strb.w	r0, [r4, #803]	; 0x323
    1fc2:	f884 0326 	strb.w	r0, [r4, #806]	; 0x326
    1fc6:	f884 7321 	strb.w	r7, [r4, #801]	; 0x321
    1fca:	f103 0009 	add.w	r0, r3, #9
    1fce:	f884 6322 	strb.w	r6, [r4, #802]	; 0x322
    1fd2:	f884 5324 	strb.w	r5, [r4, #804]	; 0x324
    1fd6:	e001      	b.n	1fdc <DxGoHome()+0x93c>
    1fd8:	f813 1f01 	ldrb.w	r1, [r3, #1]!
    1fdc:	4283      	cmp	r3, r0
    1fde:	440a      	add	r2, r1
    1fe0:	d1fa      	bne.n	1fd8 <DxGoHome()+0x938>
    1fe2:	43d2      	mvns	r2, r2
    1fe4:	4d2e      	ldr	r5, [pc, #184]	; (20a0 <DxGoHome()+0xa00>)
    1fe6:	f884 232f 	strb.w	r2, [r4, #815]	; 0x32f
    1fea:	f105 060f 	add.w	r6, r5, #15
    1fee:	21ff      	movs	r1, #255	; 0xff
    1ff0:	e001      	b.n	1ff6 <DxGoHome()+0x956>
    1ff2:	f815 1f01 	ldrb.w	r1, [r5, #1]!
    1ff6:	482b      	ldr	r0, [pc, #172]	; (20a4 <DxGoHome()+0xa04>)
    1ff8:	f005 fc04 	bl	7804 <mbed::Stream::putc(int)>
    1ffc:	42b5      	cmp	r5, r6
    1ffe:	d1f8      	bne.n	1ff2 <DxGoHome()+0x952>
    2000:	4825      	ldr	r0, [pc, #148]	; (2098 <DxGoHome()+0x9f8>)
    2002:	f005 fc39 	bl	7878 <mbed::Timer::read_ms()>
    2006:	f8cb 0114 	str.w	r0, [r11, #276]	; 0x114
    200a:	e673      	b.n	1cf4 <DxGoHome()+0x654>
    200c:	2303      	movs	r3, #3
    200e:	f8c4 05ec 	str.w	r0, [r4, #1516]	; 0x5ec
    2012:	f8c4 65f4 	str.w	r6, [r4, #1524]	; 0x5f4
    2016:	f8c4 05f8 	str.w	r0, [r4, #1528]	; 0x5f8
    201a:	f8c4 35e8 	str.w	r3, [r4, #1512]	; 0x5e8
    201e:	e669      	b.n	1cf4 <DxGoHome()+0x654>
    2020:	f8d4 35ec 	ldr.w	r3, [r4, #1516]	; 0x5ec
    2024:	2204      	movs	r2, #4
    2026:	eb03 2000 	add.w	r0, r3, r0, lsl #8
    202a:	f8c4 05ec 	str.w	r0, [r4, #1516]	; 0x5ec
    202e:	f8c4 25e8 	str.w	r2, [r4, #1512]	; 0x5e8
    2032:	e65f      	b.n	1cf4 <DxGoHome()+0x654>
    2034:	4a15      	ldr	r2, [pc, #84]	; (208c <DxGoHome()+0x9ec>)
    2036:	401a      	ands	r2, r3
    2038:	2a00      	cmp	r2, #0
    203a:	db21      	blt.n	2080 <DxGoHome()+0x9e0>
    203c:	2aff      	cmp	r2, #255	; 0xff
    203e:	f47f ae56 	bne.w	1cee <DxGoHome()+0x64e>
    2042:	2305      	movs	r3, #5
    2044:	f8c4 35e8 	str.w	r3, [r4, #1512]	; 0x5e8
    2048:	e654      	b.n	1cf4 <DxGoHome()+0x654>
    204a:	2302      	movs	r3, #2
    204c:	f8c4 35e8 	str.w	r3, [r4, #1512]	; 0x5e8
    2050:	e650      	b.n	1cf4 <DxGoHome()+0x654>
    2052:	2306      	movs	r3, #6
    2054:	f8c4 05f0 	str.w	r0, [r4, #1520]	; 0x5f0
    2058:	f8c4 05f8 	str.w	r0, [r4, #1528]	; 0x5f8
    205c:	f8c4 35e8 	str.w	r3, [r4, #1512]	; 0x5e8
    2060:	e648      	b.n	1cf4 <DxGoHome()+0x654>
    2062:	f8d4 35f0 	ldr.w	r3, [r4, #1520]	; 0x5f0
    2066:	f8d4 25ec 	ldr.w	r2, [r4, #1516]	; 0x5ec
    206a:	eb03 2300 	add.w	r3, r3, r0, lsl #8
    206e:	2107      	movs	r1, #7
    2070:	f8c4 35f0 	str.w	r3, [r4, #1520]	; 0x5f0
    2074:	f8c4 15e8 	str.w	r1, [r4, #1512]	; 0x5e8
    2078:	2a00      	cmp	r2, #0
    207a:	f43f af6c 	beq.w	1f56 <DxGoHome()+0x8b6>
    207e:	e639      	b.n	1cf4 <DxGoHome()+0x654>
    2080:	3a01      	subs	r2, #1
    2082:	f062 02ff 	orn	r2, r2, #255	; 0xff
    2086:	3201      	adds	r2, #1
    2088:	e7d8      	b.n	203c <DxGoHome()+0x99c>
    208a:	bf00      	nop
    208c:	800000ff 	.word	0x800000ff
    2090:	00000c5d 	.word	0x00000c5d
    2094:	10000370 	.word	0x10000370
    2098:	10000354 	.word	0x10000354
    209c:	10000575 	.word	0x10000575
    20a0:	10000570 	.word	0x10000570
    20a4:	10000294 	.word	0x10000294
    20a8:	250a      	movs	r5, #10
    20aa:	26ff      	movs	r6, #255	; 0xff
    20ac:	4bb4      	ldr	r3, [pc, #720]	; (2380 <DxGoHome()+0xce0>)
    20ae:	2000      	movs	r0, #0
    20b0:	4629      	mov	r1, r5
    20b2:	27fe      	movs	r7, #254	; 0xfe
    20b4:	f884 5325 	strb.w	r5, [r4, #805]	; 0x325
    20b8:	f884 6320 	strb.w	r6, [r4, #800]	; 0x320
    20bc:	25f7      	movs	r5, #247	; 0xf7
    20be:	2608      	movs	r6, #8
    20c0:	4602      	mov	r2, r0
    20c2:	f884 0327 	strb.w	r0, [r4, #807]	; 0x327
    20c6:	f884 0328 	strb.w	r0, [r4, #808]	; 0x328
    20ca:	f884 0329 	strb.w	r0, [r4, #809]	; 0x329
    20ce:	f884 032a 	strb.w	r0, [r4, #810]	; 0x32a
    20d2:	f884 032b 	strb.w	r0, [r4, #811]	; 0x32b
    20d6:	f884 032c 	strb.w	r0, [r4, #812]	; 0x32c
    20da:	f884 032d 	strb.w	r0, [r4, #813]	; 0x32d
    20de:	f884 032e 	strb.w	r0, [r4, #814]	; 0x32e
    20e2:	f884 0323 	strb.w	r0, [r4, #803]	; 0x323
    20e6:	f884 0326 	strb.w	r0, [r4, #806]	; 0x326
    20ea:	f884 7321 	strb.w	r7, [r4, #801]	; 0x321
    20ee:	f103 0009 	add.w	r0, r3, #9
    20f2:	f884 6322 	strb.w	r6, [r4, #802]	; 0x322
    20f6:	f884 5324 	strb.w	r5, [r4, #804]	; 0x324
    20fa:	e001      	b.n	2100 <DxGoHome()+0xa60>
    20fc:	f813 1f01 	ldrb.w	r1, [r3, #1]!
    2100:	4298      	cmp	r0, r3
    2102:	440a      	add	r2, r1
    2104:	d1fa      	bne.n	20fc <DxGoHome()+0xa5c>
    2106:	43d2      	mvns	r2, r2
    2108:	4d9e      	ldr	r5, [pc, #632]	; (2384 <DxGoHome()+0xce4>)
    210a:	f884 232f 	strb.w	r2, [r4, #815]	; 0x32f
    210e:	f105 060f 	add.w	r6, r5, #15
    2112:	21ff      	movs	r1, #255	; 0xff
    2114:	e001      	b.n	211a <DxGoHome()+0xa7a>
    2116:	f815 1f01 	ldrb.w	r1, [r5, #1]!
    211a:	489b      	ldr	r0, [pc, #620]	; (2388 <DxGoHome()+0xce8>)
    211c:	f005 fb72 	bl	7804 <mbed::Stream::putc(int)>
    2120:	42b5      	cmp	r5, r6
    2122:	d1f8      	bne.n	2116 <DxGoHome()+0xa76>
    2124:	4899      	ldr	r0, [pc, #612]	; (238c <DxGoHome()+0xcec>)
    2126:	f005 fba7 	bl	7878 <mbed::Timer::read_ms()>
    212a:	f8cb 8600 	str.w	r8, [r11, #1536]	; 0x600
    212e:	f8cb 0114 	str.w	r0, [r11, #276]	; 0x114
    2132:	e59c      	b.n	1c6e <DxGoHome()+0x5ce>
    2134:	3a01      	subs	r2, #1
    2136:	f062 02ff 	orn	r2, r2, #255	; 0xff
    213a:	3201      	adds	r2, #1
    213c:	e62e      	b.n	1d9c <DxGoHome()+0x6fc>
    213e:	4e94      	ldr	r6, [pc, #592]	; (2390 <DxGoHome()+0xcf0>)
    2140:	4c94      	ldr	r4, [pc, #592]	; (2394 <DxGoHome()+0xcf4>)
    2142:	6830      	ldr	r0, [r6, #0]
    2144:	2200      	movs	r2, #0
    2146:	6803      	ldr	r3, [r0, #0]
    2148:	6869      	ldr	r1, [r5, #4]
    214a:	685b      	ldr	r3, [r3, #4]
    214c:	4798      	blx	r3
    214e:	6820      	ldr	r0, [r4, #0]
    2150:	2200      	movs	r2, #0
    2152:	6803      	ldr	r3, [r0, #0]
    2154:	68a9      	ldr	r1, [r5, #8]
    2156:	685b      	ldr	r3, [r3, #4]
    2158:	4798      	blx	r3
    215a:	6830      	ldr	r0, [r6, #0]
    215c:	2200      	movs	r2, #0
    215e:	6803      	ldr	r3, [r0, #0]
    2160:	6869      	ldr	r1, [r5, #4]
    2162:	685b      	ldr	r3, [r3, #4]
    2164:	4798      	blx	r3
    2166:	6820      	ldr	r0, [r4, #0]
    2168:	68a9      	ldr	r1, [r5, #8]
    216a:	6803      	ldr	r3, [r0, #0]
    216c:	2200      	movs	r2, #0
    216e:	685b      	ldr	r3, [r3, #4]
    2170:	4798      	blx	r3
    2172:	f8df 8230 	ldr.w	r8, [pc, #560]	; 23a4 <DxGoHome()+0xd04>
    2176:	f8df b23c 	ldr.w	r11, [pc, #572]	; 23b4 <DxGoHome()+0xd14>
    217a:	2400      	movs	r4, #0
    217c:	f8db 3000 	ldr.w	r3, [r11]
    2180:	5918      	ldr	r0, [r3, r4]
    2182:	3404      	adds	r4, #4
    2184:	6803      	ldr	r3, [r0, #0]
    2186:	699b      	ldr	r3, [r3, #24]
    2188:	4798      	blx	r3
    218a:	b980      	cbnz	r0, 21ae <DxGoHome()+0xb0e>
    218c:	2c14      	cmp	r4, #20
    218e:	d1f5      	bne.n	217c <DxGoHome()+0xadc>
    2190:	4c81      	ldr	r4, [pc, #516]	; (2398 <DxGoHome()+0xcf8>)
    2192:	4d82      	ldr	r5, [pc, #520]	; (239c <DxGoHome()+0xcfc>)
    2194:	f104 0614 	add.w	r6, r4, #20
    2198:	f854 0b04 	ldr.w	r0, [r4], #4
    219c:	f006 fa2e 	bl	85fc <__aeabi_i2f>
    21a0:	42b4      	cmp	r4, r6
    21a2:	f845 0b04 	str.w	r0, [r5], #4
    21a6:	d1f7      	bne.n	2198 <DxGoHome()+0xaf8>
    21a8:	b00f      	add	sp, #60	; 0x3c
    21aa:	e8bd 8ff0 	ldmia.w	sp!, {r4, r5, r6, r7, r8, r9, r10, r11, pc}
    21ae:	9b01      	ldr	r3, [sp, #4]
    21b0:	681c      	ldr	r4, [r3, #0]
    21b2:	2c00      	cmp	r4, #0
    21b4:	f47f ad32 	bne.w	1c1c <DxGoHome()+0x57c>
    21b8:	f7ff f84c 	bl	1254 <GetPubPosition()>
    21bc:	f8d9 202c 	ldr.w	r2, [r9, #44]	; 0x2c
    21c0:	f8da 3004 	ldr.w	r3, [r10, #4]
    21c4:	f8da 500c 	ldr.w	r5, [r10, #12]
    21c8:	6850      	ldr	r0, [r2, #4]
    21ca:	441d      	add	r5, r3
    21cc:	f006 fc30 	bl	8a30 <__aeabi_f2iz>
    21d0:	4b73      	ldr	r3, [pc, #460]	; (23a0 <DxGoHome()+0xd00>)
    21d2:	1a29      	subs	r1, r5, r0
    21d4:	681b      	ldr	r3, [r3, #0]
    21d6:	4d73      	ldr	r5, [pc, #460]	; (23a4 <DxGoHome()+0xd04>)
    21d8:	681a      	ldr	r2, [r3, #0]
    21da:	4618      	mov	r0, r3
    21dc:	6856      	ldr	r6, [r2, #4]
    21de:	4622      	mov	r2, r4
    21e0:	47b0      	blx	r6
    21e2:	f505 7082 	add.w	r0, r5, #260	; 0x104
    21e6:	f005 fb47 	bl	7878 <mbed::Timer::read_ms()>
    21ea:	f642 22f8 	movw	r2, #11000	; 0x2af8
    21ee:	f8d8 3604 	ldr.w	r3, [r8, #1540]	; 0x604
    21f2:	4607      	mov	r7, r0
    21f4:	1ac3      	subs	r3, r0, r3
    21f6:	4293      	cmp	r3, r2
    21f8:	f8d8 35e8 	ldr.w	r3, [r8, #1512]	; 0x5e8
    21fc:	bf88      	it	hi
    21fe:	f885 45fc 	strbhi.w	r4, [r5, #1532]	; 0x5fc
    2202:	b133      	cbz	r3, 2212 <DxGoHome()+0xb72>
    2204:	f8d8 3608 	ldr.w	r3, [r8, #1544]	; 0x608
    2208:	4298      	cmp	r0, r3
    220a:	d902      	bls.n	2212 <DxGoHome()+0xb72>
    220c:	2300      	movs	r3, #0
    220e:	f8c8 35e8 	str.w	r3, [r8, #1512]	; 0x5e8
    2212:	4c64      	ldr	r4, [pc, #400]	; (23a4 <DxGoHome()+0xd04>)
    2214:	1d20      	adds	r0, r4, #4
    2216:	f004 f867 	bl	62e8 <AjK::MODSERIAL::rxBufferEmpty()>
    221a:	4605      	mov	r5, r0
    221c:	b170      	cbz	r0, 223c <DxGoHome()+0xb9c>
    221e:	f898 35fc 	ldrb.w	r3, [r8, #1532]	; 0x5fc
    2222:	b13b      	cbz	r3, 2234 <DxGoHome()+0xb94>
    2224:	f640 12c4 	movw	r2, #2500	; 0x9c4
    2228:	f8d8 3600 	ldr.w	r3, [r8, #1536]	; 0x600
    222c:	1afb      	subs	r3, r7, r3
    222e:	4293      	cmp	r3, r2
    2230:	f200 8151 	bhi.w	24d6 <DxGoHome()+0xe36>
    2234:	200a      	movs	r0, #10
    2236:	f004 fba9 	bl	698c <wait_ms>
    223a:	e79e      	b.n	217a <DxGoHome()+0xada>
    223c:	2101      	movs	r1, #1
    223e:	1d20      	adds	r0, r4, #4
    2240:	f003 fed0 	bl	5fe4 <AjK::MODSERIAL::__getc(bool)>
    2244:	2800      	cmp	r0, #0
    2246:	dbea      	blt.n	221e <DxGoHome()+0xb7e>
    2248:	f8d8 35f8 	ldr.w	r3, [r8, #1528]	; 0x5f8
    224c:	f8d8 65e8 	ldr.w	r6, [r8, #1512]	; 0x5e8
    2250:	4403      	add	r3, r0
    2252:	2e07      	cmp	r6, #7
    2254:	f8c8 35f8 	str.w	r3, [r8, #1528]	; 0x5f8
    2258:	d073      	beq.n	2342 <DxGoHome()+0xca2>
    225a:	b956      	cbnz	r6, 2272 <DxGoHome()+0xbd2>
    225c:	28ff      	cmp	r0, #255	; 0xff
    225e:	f040 8084 	bne.w	236a <DxGoHome()+0xcca>
    2262:	2201      	movs	r2, #1
    2264:	f107 0314 	add.w	r3, r7, #20
    2268:	f8c8 25e8 	str.w	r2, [r8, #1512]	; 0x5e8
    226c:	f8c8 3608 	str.w	r3, [r8, #1544]	; 0x608
    2270:	e7cf      	b.n	2212 <DxGoHome()+0xb72>
    2272:	2e01      	cmp	r6, #1
    2274:	f000 80a0 	beq.w	23b8 <DxGoHome()+0xd18>
    2278:	2e02      	cmp	r6, #2
    227a:	f000 80ed 	beq.w	2458 <DxGoHome()+0xdb8>
    227e:	2e03      	cmp	r6, #3
    2280:	f000 80f4 	beq.w	246c <DxGoHome()+0xdcc>
    2284:	2e04      	cmp	r6, #4
    2286:	f000 80fb 	beq.w	2480 <DxGoHome()+0xde0>
    228a:	2e05      	cmp	r6, #5
    228c:	f000 8107 	beq.w	249e <DxGoHome()+0xdfe>
    2290:	2e06      	cmp	r6, #6
    2292:	f000 810c 	beq.w	24ae <DxGoHome()+0xe0e>
    2296:	2e08      	cmp	r6, #8
    2298:	d1bb      	bne.n	2212 <DxGoHome()+0xb72>
    229a:	4a43      	ldr	r2, [pc, #268]	; (23a8 <DxGoHome()+0xd08>)
    229c:	2100      	movs	r1, #0
    229e:	401a      	ands	r2, r3
    22a0:	428a      	cmp	r2, r1
    22a2:	f8c8 15e8 	str.w	r1, [r8, #1512]	; 0x5e8
    22a6:	f2c0 815f 	blt.w	2568 <DxGoHome()+0xec8>
    22aa:	2aff      	cmp	r2, #255	; 0xff
    22ac:	d1b1      	bne.n	2212 <DxGoHome()+0xb72>
    22ae:	f8d8 35f0 	ldr.w	r3, [r8, #1520]	; 0x5f0
    22b2:	2b00      	cmp	r3, #0
    22b4:	f000 8650 	beq.w	2f58 <DxGoHome()+0x18b8>
    22b8:	2b0a      	cmp	r3, #10
    22ba:	f000 8408 	beq.w	2ace <DxGoHome()+0x142e>
    22be:	2b06      	cmp	r3, #6
    22c0:	f000 83fb 	beq.w	2aba <DxGoHome()+0x141a>
    22c4:	2b0b      	cmp	r3, #11
    22c6:	f000 8160 	beq.w	258a <DxGoHome()+0xeea>
    22ca:	eb08 0383 	add.w	r3, r8, r3, lsl #2
    22ce:	f8d3 43f4 	ldr.w	r4, [r3, #1012]	; 0x3f4
    22d2:	2c00      	cmp	r4, #0
    22d4:	d09d      	beq.n	2212 <DxGoHome()+0xb72>
    22d6:	6823      	ldr	r3, [r4, #0]
    22d8:	4a34      	ldr	r2, [pc, #208]	; (23ac <DxGoHome()+0xd0c>)
    22da:	681b      	ldr	r3, [r3, #0]
    22dc:	4293      	cmp	r3, r2
    22de:	f040 8433 	bne.w	2b48 <DxGoHome()+0x14a8>
    22e2:	4933      	ldr	r1, [pc, #204]	; (23b0 <DxGoHome()+0xd10>)
    22e4:	f104 0010 	add.w	r0, r4, #16
    22e8:	f7fe fae8 	bl	8bc <std_msgs::MultiArrayLayout::deserialize(unsigned char*)>
    22ec:	eb08 0300 	add.w	r3, r8, r0
    22f0:	f893 3120 	ldrb.w	r3, [r3, #288]	; 0x120
    22f4:	f894 2030 	ldrb.w	r2, [r4, #48]	; 0x30
    22f8:	4606      	mov	r6, r0
    22fa:	429a      	cmp	r2, r3
    22fc:	f104 050c 	add.w	r5, r4, #12
    2300:	f0c0 8607 	bcc.w	2f12 <DxGoHome()+0x1872>
    2304:	f884 3030 	strb.w	r3, [r4, #48]	; 0x30
    2308:	b1bb      	cbz	r3, 233a <DxGoHome()+0xc9a>
    230a:	eb08 0006 	add.w	r0, r8, r6
    230e:	2100      	movs	r1, #0
    2310:	f104 0632 	add.w	r6, r4, #50	; 0x32
    2314:	f890 2125 	ldrb.w	r2, [r0, #293]	; 0x125
    2318:	f890 3124 	ldrb.w	r3, [r0, #292]	; 0x124
    231c:	3002      	adds	r0, #2
    231e:	ea43 2302 	orr.w	r3, r3, r2, lsl #8
    2322:	8663      	strh	r3, [r4, #50]	; 0x32
    2324:	f8b6 e000 	ldrh.w	lr, [r6]
    2328:	6b63      	ldr	r3, [r4, #52]	; 0x34
    232a:	1c4a      	adds	r2, r1, #1
    232c:	f823 e011 	strh.w	lr, [r3, r1, lsl #1]
    2330:	f894 3030 	ldrb.w	r3, [r4, #48]	; 0x30
    2334:	b2d1      	uxtb	r1, r2
    2336:	428b      	cmp	r3, r1
    2338:	d8ec      	bhi.n	2314 <DxGoHome()+0xc74>
    233a:	6ba3      	ldr	r3, [r4, #56]	; 0x38
    233c:	4628      	mov	r0, r5
    233e:	4798      	blx	r3
    2340:	e767      	b.n	2212 <DxGoHome()+0xb72>
    2342:	f8d8 25f4 	ldr.w	r2, [r8, #1524]	; 0x5f4
    2346:	f8d8 35ec 	ldr.w	r3, [r8, #1516]	; 0x5ec
    234a:	1c51      	adds	r1, r2, #1
    234c:	3b01      	subs	r3, #1
    234e:	4442      	add	r2, r8
    2350:	f8c8 15f4 	str.w	r1, [r8, #1524]	; 0x5f4
    2354:	f882 0120 	strb.w	r0, [r2, #288]	; 0x120
    2358:	f8c8 35ec 	str.w	r3, [r8, #1516]	; 0x5ec
    235c:	2b00      	cmp	r3, #0
    235e:	f47f af58 	bne.w	2212 <DxGoHome()+0xb72>
    2362:	2308      	movs	r3, #8
    2364:	f8c8 35e8 	str.w	r3, [r8, #1512]	; 0x5e8
    2368:	e753      	b.n	2212 <DxGoHome()+0xb72>
    236a:	f504 7082 	add.w	r0, r4, #260	; 0x104
    236e:	f005 fa83 	bl	7878 <mbed::Timer::read_ms()>
    2372:	1bc0      	subs	r0, r0, r7
    2374:	2805      	cmp	r0, #5
    2376:	f67f af4c 	bls.w	2212 <DxGoHome()+0xb72>
    237a:	f884 65fc 	strb.w	r6, [r4, #1532]	; 0x5fc
    237e:	e759      	b.n	2234 <DxGoHome()+0xb94>
    2380:	10000575 	.word	0x10000575
    2384:	10000570 	.word	0x10000570
    2388:	10000294 	.word	0x10000294
    238c:	10000354 	.word	0x10000354
    2390:	1000099c 	.word	0x1000099c
    2394:	10000204 	.word	0x10000204
    2398:	1000011c 	.word	0x1000011c
    239c:	10000108 	.word	0x10000108
    23a0:	10000950 	.word	0x10000950
    23a4:	10000250 	.word	0x10000250
    23a8:	800000ff 	.word	0x800000ff
    23ac:	00000c5d 	.word	0x00000c5d
    23b0:	10000370 	.word	0x10000370
    23b4:	100001f8 	.word	0x100001f8
    23b8:	28fe      	cmp	r0, #254	; 0xfe
    23ba:	d06c      	beq.n	2496 <DxGoHome()+0xdf6>
    23bc:	f898 35fc 	ldrb.w	r3, [r8, #1532]	; 0x5fc
    23c0:	f8c8 55e8 	str.w	r5, [r8, #1512]	; 0x5e8
    23c4:	2b00      	cmp	r3, #0
    23c6:	f47f af24 	bne.w	2212 <DxGoHome()+0xb72>
    23ca:	200a      	movs	r0, #10
    23cc:	461a      	mov	r2, r3
    23ce:	f888 3327 	strb.w	r3, [r8, #807]	; 0x327
    23d2:	f888 3328 	strb.w	r3, [r8, #808]	; 0x328
    23d6:	f888 3329 	strb.w	r3, [r8, #809]	; 0x329
    23da:	f888 332a 	strb.w	r3, [r8, #810]	; 0x32a
    23de:	f888 332b 	strb.w	r3, [r8, #811]	; 0x32b
    23e2:	f888 332c 	strb.w	r3, [r8, #812]	; 0x32c
    23e6:	f888 332d 	strb.w	r3, [r8, #813]	; 0x32d
    23ea:	f888 332e 	strb.w	r3, [r8, #814]	; 0x32e
    23ee:	f888 3323 	strb.w	r3, [r8, #803]	; 0x323
    23f2:	f888 3326 	strb.w	r3, [r8, #806]	; 0x326
    23f6:	23fe      	movs	r3, #254	; 0xfe
    23f8:	4601      	mov	r1, r0
    23fa:	25ff      	movs	r5, #255	; 0xff
    23fc:	f888 0325 	strb.w	r0, [r8, #805]	; 0x325
    2400:	f888 3321 	strb.w	r3, [r8, #801]	; 0x321
    2404:	2008      	movs	r0, #8
    2406:	23f7      	movs	r3, #247	; 0xf7
    2408:	f888 3324 	strb.w	r3, [r8, #804]	; 0x324
    240c:	f888 5320 	strb.w	r5, [r8, #800]	; 0x320
    2410:	f204 3325 	addw	r3, r4, #805	; 0x325
    2414:	f888 0322 	strb.w	r0, [r8, #802]	; 0x322
    2418:	f204 342e 	addw	r4, r4, #814	; 0x32e
    241c:	e001      	b.n	2422 <DxGoHome()+0xd82>
    241e:	f813 1f01 	ldrb.w	r1, [r3, #1]!
    2422:	429c      	cmp	r4, r3
    2424:	440a      	add	r2, r1
    2426:	d1fa      	bne.n	241e <DxGoHome()+0xd7e>
    2428:	43d2      	mvns	r2, r2
    242a:	4cb7      	ldr	r4, [pc, #732]	; (2708 <DxGoHome()+0x1068>)
    242c:	f888 232f 	strb.w	r2, [r8, #815]	; 0x32f
    2430:	f104 060f 	add.w	r6, r4, #15
    2434:	21ff      	movs	r1, #255	; 0xff
    2436:	e001      	b.n	243c <DxGoHome()+0xd9c>
    2438:	f814 1f01 	ldrb.w	r1, [r4, #1]!
    243c:	4db3      	ldr	r5, [pc, #716]	; (270c <DxGoHome()+0x106c>)
    243e:	f105 0044 	add.w	r0, r5, #68	; 0x44
    2442:	f005 f9df 	bl	7804 <mbed::Stream::putc(int)>
    2446:	42b4      	cmp	r4, r6
    2448:	d1f6      	bne.n	2438 <DxGoHome()+0xd98>
    244a:	f505 7082 	add.w	r0, r5, #260	; 0x104
    244e:	f005 fa13 	bl	7878 <mbed::Timer::read_ms()>
    2452:	f8c5 0114 	str.w	r0, [r5, #276]	; 0x114
    2456:	e6dc      	b.n	2212 <DxGoHome()+0xb72>
    2458:	2303      	movs	r3, #3
    245a:	f8c8 05ec 	str.w	r0, [r8, #1516]	; 0x5ec
    245e:	f8c8 55f4 	str.w	r5, [r8, #1524]	; 0x5f4
    2462:	f8c8 05f8 	str.w	r0, [r8, #1528]	; 0x5f8
    2466:	f8c8 35e8 	str.w	r3, [r8, #1512]	; 0x5e8
    246a:	e6d2      	b.n	2212 <DxGoHome()+0xb72>
    246c:	f8d8 35ec 	ldr.w	r3, [r8, #1516]	; 0x5ec
    2470:	2204      	movs	r2, #4
    2472:	eb03 2300 	add.w	r3, r3, r0, lsl #8
    2476:	f8c8 35ec 	str.w	r3, [r8, #1516]	; 0x5ec
    247a:	f8c8 25e8 	str.w	r2, [r8, #1512]	; 0x5e8
    247e:	e6c8      	b.n	2212 <DxGoHome()+0xb72>
    2480:	4aa3      	ldr	r2, [pc, #652]	; (2710 <DxGoHome()+0x1070>)
    2482:	401a      	ands	r2, r3
    2484:	2a00      	cmp	r2, #0
    2486:	db21      	blt.n	24cc <DxGoHome()+0xe2c>
    2488:	2aff      	cmp	r2, #255	; 0xff
    248a:	f47f aebf 	bne.w	220c <DxGoHome()+0xb6c>
    248e:	2305      	movs	r3, #5
    2490:	f8c8 35e8 	str.w	r3, [r8, #1512]	; 0x5e8
    2494:	e6bd      	b.n	2212 <DxGoHome()+0xb72>
    2496:	2302      	movs	r3, #2
    2498:	f8c8 35e8 	str.w	r3, [r8, #1512]	; 0x5e8
    249c:	e6b9      	b.n	2212 <DxGoHome()+0xb72>
    249e:	2306      	movs	r3, #6
    24a0:	f8c8 05f0 	str.w	r0, [r8, #1520]	; 0x5f0
    24a4:	f8c8 05f8 	str.w	r0, [r8, #1528]	; 0x5f8
    24a8:	f8c8 35e8 	str.w	r3, [r8, #1512]	; 0x5e8
    24ac:	e6b1      	b.n	2212 <DxGoHome()+0xb72>
    24ae:	f8d8 35f0 	ldr.w	r3, [r8, #1520]	; 0x5f0
    24b2:	f8d8 25ec 	ldr.w	r2, [r8, #1516]	; 0x5ec
    24b6:	eb03 2300 	add.w	r3, r3, r0, lsl #8
    24ba:	2107      	movs	r1, #7
    24bc:	f8c8 35f0 	str.w	r3, [r8, #1520]	; 0x5f0
    24c0:	f8c8 15e8 	str.w	r1, [r8, #1512]	; 0x5e8
    24c4:	2a00      	cmp	r2, #0
    24c6:	f43f af4c 	beq.w	2362 <DxGoHome()+0xcc2>
    24ca:	e6a2      	b.n	2212 <DxGoHome()+0xb72>
    24cc:	3a01      	subs	r2, #1
    24ce:	f062 02ff 	orn	r2, r2, #255	; 0xff
    24d2:	3201      	adds	r2, #1
    24d4:	e7d8      	b.n	2488 <DxGoHome()+0xde8>
    24d6:	240a      	movs	r4, #10
    24d8:	25ff      	movs	r5, #255	; 0xff
    24da:	4b8e      	ldr	r3, [pc, #568]	; (2714 <DxGoHome()+0x1074>)
    24dc:	2000      	movs	r0, #0
    24de:	4621      	mov	r1, r4
    24e0:	26fe      	movs	r6, #254	; 0xfe
    24e2:	f888 4325 	strb.w	r4, [r8, #805]	; 0x325
    24e6:	f888 5320 	strb.w	r5, [r8, #800]	; 0x320
    24ea:	24f7      	movs	r4, #247	; 0xf7
    24ec:	2508      	movs	r5, #8
    24ee:	4602      	mov	r2, r0
    24f0:	f888 0327 	strb.w	r0, [r8, #807]	; 0x327
    24f4:	f888 0328 	strb.w	r0, [r8, #808]	; 0x328
    24f8:	f888 0329 	strb.w	r0, [r8, #809]	; 0x329
    24fc:	f888 032a 	strb.w	r0, [r8, #810]	; 0x32a
    2500:	f888 032b 	strb.w	r0, [r8, #811]	; 0x32b
    2504:	f888 032c 	strb.w	r0, [r8, #812]	; 0x32c
    2508:	f888 032d 	strb.w	r0, [r8, #813]	; 0x32d
    250c:	f888 032e 	strb.w	r0, [r8, #814]	; 0x32e
    2510:	f888 0323 	strb.w	r0, [r8, #803]	; 0x323
    2514:	f888 0326 	strb.w	r0, [r8, #806]	; 0x326
    2518:	f888 6321 	strb.w	r6, [r8, #801]	; 0x321
    251c:	f103 0009 	add.w	r0, r3, #9
    2520:	f888 5322 	strb.w	r5, [r8, #802]	; 0x322
    2524:	f888 4324 	strb.w	r4, [r8, #804]	; 0x324
    2528:	e001      	b.n	252e <DxGoHome()+0xe8e>
    252a:	f813 1f01 	ldrb.w	r1, [r3, #1]!
    252e:	4283      	cmp	r3, r0
    2530:	440a      	add	r2, r1
    2532:	d1fa      	bne.n	252a <DxGoHome()+0xe8a>
    2534:	43d2      	mvns	r2, r2
    2536:	4c74      	ldr	r4, [pc, #464]	; (2708 <DxGoHome()+0x1068>)
    2538:	f888 232f 	strb.w	r2, [r8, #815]	; 0x32f
    253c:	f104 050f 	add.w	r5, r4, #15
    2540:	21ff      	movs	r1, #255	; 0xff
    2542:	e001      	b.n	2548 <DxGoHome()+0xea8>
    2544:	f814 1f01 	ldrb.w	r1, [r4, #1]!
    2548:	4e70      	ldr	r6, [pc, #448]	; (270c <DxGoHome()+0x106c>)
    254a:	f106 0044 	add.w	r0, r6, #68	; 0x44
    254e:	f005 f959 	bl	7804 <mbed::Stream::putc(int)>
    2552:	42ac      	cmp	r4, r5
    2554:	d1f6      	bne.n	2544 <DxGoHome()+0xea4>
    2556:	f506 7082 	add.w	r0, r6, #260	; 0x104
    255a:	f005 f98d 	bl	7878 <mbed::Timer::read_ms()>
    255e:	f8c6 7600 	str.w	r7, [r6, #1536]	; 0x600
    2562:	f8c6 0114 	str.w	r0, [r6, #276]	; 0x114
    2566:	e665      	b.n	2234 <DxGoHome()+0xb94>
    2568:	3a01      	subs	r2, #1
    256a:	f062 02ff 	orn	r2, r2, #255	; 0xff
    256e:	3201      	adds	r2, #1
    2570:	e69b      	b.n	22aa <DxGoHome()+0xc0a>
    2572:	4c69      	ldr	r4, [pc, #420]	; (2718 <DxGoHome()+0x1078>)
    2574:	2200      	movs	r2, #0
    2576:	6820      	ldr	r0, [r4, #0]
    2578:	f8da 1000 	ldr.w	r1, [r10]
    257c:	6803      	ldr	r3, [r0, #0]
    257e:	685b      	ldr	r3, [r3, #4]
    2580:	4798      	blx	r3
    2582:	4b66      	ldr	r3, [pc, #408]	; (271c <DxGoHome()+0x107c>)
    2584:	9301      	str	r3, [sp, #4]
    2586:	f7ff bb58 	b.w	1c3a <DxGoHome()+0x59a>
    258a:	2300      	movs	r3, #0
    258c:	f888 35fc 	strb.w	r3, [r8, #1532]	; 0x5fc
    2590:	e63f      	b.n	2212 <DxGoHome()+0xb72>
    2592:	2300      	movs	r3, #0
    2594:	f884 35fc 	strb.w	r3, [r4, #1532]	; 0x5fc
    2598:	f7ff bbac 	b.w	1cf4 <DxGoHome()+0x654>
    259c:	4960      	ldr	r1, [pc, #384]	; (2720 <DxGoHome()+0x1080>)
    259e:	f501 609e 	add.w	r0, r1, #1264	; 0x4f0
    25a2:	f7fe f847 	bl	634 <rosserial_msgs::RequestParamResponse::deserialize(unsigned char*)>
    25a6:	2301      	movs	r3, #1
    25a8:	f884 360c 	strb.w	r3, [r4, #1548]	; 0x60c
    25ac:	f7ff bba2 	b.w	1cf4 <DxGoHome()+0x654>
    25b0:	485c      	ldr	r0, [pc, #368]	; (2724 <DxGoHome()+0x1084>)
    25b2:	f005 f961 	bl	7878 <mbed::Timer::read_ms()>
    25b6:	f8d4 5114 	ldr.w	r5, [r4, #276]	; 0x114
    25ba:	f8d4 2120 	ldr.w	r2, [r4, #288]	; 0x120
    25be:	f8d4 3124 	ldr.w	r3, [r4, #292]	; 0x124
    25c2:	4f59      	ldr	r7, [pc, #356]	; (2728 <DxGoHome()+0x1088>)
    25c4:	1b45      	subs	r5, r0, r5
    25c6:	4857      	ldr	r0, [pc, #348]	; (2724 <DxGoHome()+0x1084>)
    25c8:	1e56      	subs	r6, r2, #1
    25ca:	441f      	add	r7, r3
    25cc:	f005 f954 	bl	7878 <mbed::Timer::read_ms()>
    25d0:	4b56      	ldr	r3, [pc, #344]	; (272c <DxGoHome()+0x108c>)
    25d2:	4956      	ldr	r1, [pc, #344]	; (272c <DxGoHome()+0x108c>)
    25d4:	fba3 3205 	umull	r3, r2, r3, r5
    25d8:	fba1 1e00 	umull	r1, lr, r1, r0
    25dc:	f44f 737a 	mov.w	r3, #1000	; 0x3e8
    25e0:	0992      	lsrs	r2, r2, #6
    25e2:	fb03 5112 	mls	r1, r3, r2, r5
    25e6:	ea4f 1e9e 	mov.w	lr, lr, lsr #6
    25ea:	fb03 031e 	mls	r3, r3, lr, r0
    25ee:	4850      	ldr	r0, [pc, #320]	; (2730 <DxGoHome()+0x1090>)
    25f0:	4432      	add	r2, r6
    25f2:	fb00 7101 	mla	r1, r0, r1, r7
    25f6:	fb00 1313 	mls	r3, r0, r3, r1
    25fa:	494e      	ldr	r1, [pc, #312]	; (2734 <DxGoHome()+0x1094>)
    25fc:	ebce 0202 	rsb	r2, lr, r2
    2600:	1f08      	subs	r0, r1, #4
    2602:	f8c4 311c 	str.w	r3, [r4, #284]	; 0x11c
    2606:	f8c4 2118 	str.w	r2, [r4, #280]	; 0x118
    260a:	f003 fef5 	bl	63f8 <ros::normalizeSecNSec(unsigned long&, unsigned long&)>
    260e:	4845      	ldr	r0, [pc, #276]	; (2724 <DxGoHome()+0x1084>)
    2610:	f005 f932 	bl	7878 <mbed::Timer::read_ms()>
    2614:	f8c4 0604 	str.w	r0, [r4, #1540]	; 0x604
    2618:	f7ff bb6c 	b.w	1cf4 <DxGoHome()+0x654>
    261c:	4841      	ldr	r0, [pc, #260]	; (2724 <DxGoHome()+0x1084>)
    261e:	f005 f92b 	bl	7878 <mbed::Timer::read_ms()>
    2622:	f8d4 5114 	ldr.w	r5, [r4, #276]	; 0x114
    2626:	f8d4 2120 	ldr.w	r2, [r4, #288]	; 0x120
    262a:	f8d4 3124 	ldr.w	r3, [r4, #292]	; 0x124
    262e:	4f3e      	ldr	r7, [pc, #248]	; (2728 <DxGoHome()+0x1088>)
    2630:	1b45      	subs	r5, r0, r5
    2632:	483c      	ldr	r0, [pc, #240]	; (2724 <DxGoHome()+0x1084>)
    2634:	1e56      	subs	r6, r2, #1
    2636:	441f      	add	r7, r3
    2638:	f005 f91e 	bl	7878 <mbed::Timer::read_ms()>
    263c:	4b3b      	ldr	r3, [pc, #236]	; (272c <DxGoHome()+0x108c>)
    263e:	493b      	ldr	r1, [pc, #236]	; (272c <DxGoHome()+0x108c>)
    2640:	fba3 3205 	umull	r3, r2, r3, r5
    2644:	fba1 1e00 	umull	r1, lr, r1, r0
    2648:	f44f 737a 	mov.w	r3, #1000	; 0x3e8
    264c:	0992      	lsrs	r2, r2, #6
    264e:	fb03 5112 	mls	r1, r3, r2, r5
    2652:	ea4f 1e9e 	mov.w	lr, lr, lsr #6
    2656:	fb03 031e 	mls	r3, r3, lr, r0
    265a:	4835      	ldr	r0, [pc, #212]	; (2730 <DxGoHome()+0x1090>)
    265c:	4432      	add	r2, r6
    265e:	fb00 7101 	mla	r1, r0, r1, r7
    2662:	fb00 1313 	mls	r3, r0, r3, r1
    2666:	4933      	ldr	r1, [pc, #204]	; (2734 <DxGoHome()+0x1094>)
    2668:	ebce 0202 	rsb	r2, lr, r2
    266c:	1f08      	subs	r0, r1, #4
    266e:	f8c4 311c 	str.w	r3, [r4, #284]	; 0x11c
    2672:	f8c4 2118 	str.w	r2, [r4, #280]	; 0x118
    2676:	f003 febf 	bl	63f8 <ros::normalizeSecNSec(unsigned long&, unsigned long&)>
    267a:	482a      	ldr	r0, [pc, #168]	; (2724 <DxGoHome()+0x1084>)
    267c:	f005 f8fc 	bl	7878 <mbed::Timer::read_ms()>
    2680:	f8c4 0604 	str.w	r0, [r4, #1540]	; 0x604
    2684:	f7ff b89d 	b.w	17c2 <DxGoHome()+0x122>
    2688:	4925      	ldr	r1, [pc, #148]	; (2720 <DxGoHome()+0x1080>)
    268a:	f501 609e 	add.w	r0, r1, #1264	; 0x4f0
    268e:	f7fd ffd1 	bl	634 <rosserial_msgs::RequestParamResponse::deserialize(unsigned char*)>
    2692:	2301      	movs	r3, #1
    2694:	f884 360c 	strb.w	r3, [r4, #1548]	; 0x60c
    2698:	f7ff b893 	b.w	17c2 <DxGoHome()+0x122>
    269c:	4d26      	ldr	r5, [pc, #152]	; (2738 <DxGoHome()+0x1098>)
    269e:	f88b 2320 	strb.w	r2, [r11, #800]	; 0x320
    26a2:	22fe      	movs	r2, #254	; 0xfe
    26a4:	260a      	movs	r6, #10
    26a6:	2708      	movs	r7, #8
    26a8:	f88b 2321 	strb.w	r2, [r11, #801]	; 0x321
    26ac:	22f7      	movs	r2, #247	; 0xf7
    26ae:	4619      	mov	r1, r3
    26b0:	f88b 3327 	strb.w	r3, [r11, #807]	; 0x327
    26b4:	f88b 3328 	strb.w	r3, [r11, #808]	; 0x328
    26b8:	f88b 3329 	strb.w	r3, [r11, #809]	; 0x329
    26bc:	f88b 332a 	strb.w	r3, [r11, #810]	; 0x32a
    26c0:	f88b 332b 	strb.w	r3, [r11, #811]	; 0x32b
    26c4:	f88b 332c 	strb.w	r3, [r11, #812]	; 0x32c
    26c8:	f88b 332d 	strb.w	r3, [r11, #813]	; 0x32d
    26cc:	f88b 332e 	strb.w	r3, [r11, #814]	; 0x32e
    26d0:	f88b 3323 	strb.w	r3, [r11, #803]	; 0x323
    26d4:	f88b 3326 	strb.w	r3, [r11, #806]	; 0x326
    26d8:	4630      	mov	r0, r6
    26da:	f88b 6325 	strb.w	r6, [r11, #805]	; 0x325
    26de:	f1a5 0309 	sub.w	r3, r5, #9
    26e2:	f88b 7322 	strb.w	r7, [r11, #802]	; 0x322
    26e6:	f88b 2324 	strb.w	r2, [r11, #804]	; 0x324
    26ea:	e001      	b.n	26f0 <DxGoHome()+0x1050>
    26ec:	f813 0f01 	ldrb.w	r0, [r3, #1]!
    26f0:	429d      	cmp	r5, r3
    26f2:	4401      	add	r1, r0
    26f4:	d1fa      	bne.n	26ec <DxGoHome()+0x104c>
    26f6:	43c9      	mvns	r1, r1
    26f8:	4d03      	ldr	r5, [pc, #12]	; (2708 <DxGoHome()+0x1068>)
    26fa:	f884 132f 	strb.w	r1, [r4, #815]	; 0x32f
    26fe:	f105 060f 	add.w	r6, r5, #15
    2702:	21ff      	movs	r1, #255	; 0xff
    2704:	e01c      	b.n	2740 <DxGoHome()+0x10a0>
    2706:	bf00      	nop
    2708:	10000570 	.word	0x10000570
    270c:	10000250 	.word	0x10000250
    2710:	800000ff 	.word	0x800000ff
    2714:	10000575 	.word	0x10000575
    2718:	1000094c 	.word	0x1000094c
    271c:	1000024c 	.word	0x1000024c
    2720:	10000370 	.word	0x10000370
    2724:	10000354 	.word	0x10000354
    2728:	3b9aca00 	.word	0x3b9aca00
    272c:	10624dd3 	.word	0x10624dd3
    2730:	000f4240 	.word	0x000f4240
    2734:	1000036c 	.word	0x1000036c
    2738:	1000057e 	.word	0x1000057e
    273c:	f815 1f01 	ldrb.w	r1, [r5, #1]!
    2740:	48c6      	ldr	r0, [pc, #792]	; (2a5c <DxGoHome()+0x13bc>)
    2742:	f005 f85f 	bl	7804 <mbed::Stream::putc(int)>
    2746:	42b5      	cmp	r5, r6
    2748:	d1f8      	bne.n	273c <DxGoHome()+0x109c>
    274a:	48c5      	ldr	r0, [pc, #788]	; (2a60 <DxGoHome()+0x13c0>)
    274c:	f005 f894 	bl	7878 <mbed::Timer::read_ms()>
    2750:	4bc4      	ldr	r3, [pc, #784]	; (2a64 <DxGoHome()+0x13c4>)
    2752:	f8cb 0114 	str.w	r0, [r11, #276]	; 0x114
    2756:	9303      	str	r3, [sp, #12]
    2758:	3364      	adds	r3, #100	; 0x64
    275a:	9302      	str	r3, [sp, #8]
    275c:	f8cd 8018 	str.w	r8, [sp, #24]
    2760:	9a03      	ldr	r2, [sp, #12]
    2762:	f852 3f04 	ldr.w	r3, [r2, #4]!
    2766:	9203      	str	r2, [sp, #12]
    2768:	2b00      	cmp	r3, #0
    276a:	f000 80a1 	beq.w	28b0 <DxGoHome()+0x1210>
    276e:	6858      	ldr	r0, [r3, #4]
    2770:	689e      	ldr	r6, [r3, #8]
    2772:	6802      	ldr	r2, [r0, #0]
    2774:	681d      	ldr	r5, [r3, #0]
    2776:	6892      	ldr	r2, [r2, #8]
    2778:	4790      	blx	r2
    277a:	9b03      	ldr	r3, [sp, #12]
    277c:	4607      	mov	r7, r0
    277e:	681b      	ldr	r3, [r3, #0]
    2780:	6858      	ldr	r0, [r3, #4]
    2782:	6803      	ldr	r3, [r0, #0]
    2784:	68db      	ldr	r3, [r3, #12]
    2786:	4798      	blx	r3
    2788:	9b03      	ldr	r3, [sp, #12]
    278a:	9004      	str	r0, [sp, #16]
    278c:	681b      	ldr	r3, [r3, #0]
    278e:	691b      	ldr	r3, [r3, #16]
    2790:	2b63      	cmp	r3, #99	; 0x63
    2792:	9305      	str	r3, [sp, #20]
    2794:	dd04      	ble.n	27a0 <DxGoHome()+0x1100>
    2796:	f894 35fc 	ldrb.w	r3, [r4, #1532]	; 0x5fc
    279a:	2b00      	cmp	r3, #0
    279c:	f000 8088 	beq.w	28b0 <DxGoHome()+0x1210>
    27a0:	f3c6 2307 	ubfx	r3, r6, #8, #8
    27a4:	f884 3328 	strb.w	r3, [r4, #808]	; 0x328
    27a8:	4628      	mov	r0, r5
    27aa:	f884 6327 	strb.w	r6, [r4, #807]	; 0x327
    27ae:	f007 fcde 	bl	a16e <strlen>
    27b2:	4606      	mov	r6, r0
    27b4:	ab0e      	add	r3, sp, #56	; 0x38
    27b6:	f843 0d14 	str.w	r0, [r3, #-20]!
    27ba:	6818      	ldr	r0, [r3, #0]
    27bc:	4baa      	ldr	r3, [pc, #680]	; (2a68 <DxGoHome()+0x13c8>)
    27be:	4632      	mov	r2, r6
    27c0:	4629      	mov	r1, r5
    27c2:	6018      	str	r0, [r3, #0]
    27c4:	1d18      	adds	r0, r3, #4
    27c6:	f006 fd4b 	bl	9260 <memcpy>
    27ca:	4638      	mov	r0, r7
    27cc:	f007 fccf 	bl	a16e <strlen>
    27d0:	4603      	mov	r3, r0
    27d2:	aa0e      	add	r2, sp, #56	; 0x38
    27d4:	f842 0d10 	str.w	r0, [r2, #-16]!
    27d8:	4da4      	ldr	r5, [pc, #656]	; (2a6c <DxGoHome()+0x13cc>)
    27da:	6810      	ldr	r0, [r2, #0]
    27dc:	1db2      	adds	r2, r6, #6
    27de:	360a      	adds	r6, #10
    27e0:	4639      	mov	r1, r7
    27e2:	50a8      	str	r0, [r5, r2]
    27e4:	461a      	mov	r2, r3
    27e6:	19a8      	adds	r0, r5, r6
    27e8:	9307      	str	r3, [sp, #28]
    27ea:	f006 fd39 	bl	9260 <memcpy>
    27ee:	9804      	ldr	r0, [sp, #16]
    27f0:	f007 fcbd 	bl	a16e <strlen>
    27f4:	4680      	mov	r8, r0
    27f6:	9b07      	ldr	r3, [sp, #28]
    27f8:	900b      	str	r0, [sp, #44]	; 0x2c
    27fa:	af0e      	add	r7, sp, #56	; 0x38
    27fc:	4433      	add	r3, r6
    27fe:	f857 0d0c 	ldr.w	r0, [r7, #-12]!
    2802:	1d1e      	adds	r6, r3, #4
    2804:	50e8      	str	r0, [r5, r3]
    2806:	4642      	mov	r2, r8
    2808:	19a8      	adds	r0, r5, r6
    280a:	9904      	ldr	r1, [sp, #16]
    280c:	f006 fd28 	bl	9260 <memcpy>
    2810:	eb08 0106 	add.w	r1, r8, r6
    2814:	1d0a      	adds	r2, r1, #4
    2816:	fa5f fe82 	uxtb.w	lr, r2
    281a:	f3c2 2807 	ubfx	r8, r2, #8, #8
    281e:	eb0e 0c08 	add.w	r12, lr, r8
    2822:	ea6f 0c0c 	mvn.w	r12, r12
    2826:	2000      	movs	r0, #0
    2828:	4421      	add	r1, r4
    282a:	f881 0327 	strb.w	r0, [r1, #807]	; 0x327
    282e:	f881 0329 	strb.w	r0, [r1, #809]	; 0x329
    2832:	f881 032a 	strb.w	r0, [r1, #810]	; 0x32a
    2836:	4603      	mov	r3, r0
    2838:	9805      	ldr	r0, [sp, #20]
    283a:	2602      	movs	r6, #2
    283c:	f881 6328 	strb.w	r6, [r1, #808]	; 0x328
    2840:	f884 c324 	strb.w	r12, [r4, #804]	; 0x324
    2844:	f884 e322 	strb.w	lr, [r4, #802]	; 0x322
    2848:	f340 2c07 	sbfx	r12, r0, #8, #8
    284c:	fa5f fe80 	uxtb.w	lr, r0
    2850:	f06f 0001 	mvn.w	r0, #1
    2854:	b292      	uxth	r2, r2
    2856:	f202 3126 	addw	r1, r2, #806	; 0x326
    285a:	26ff      	movs	r6, #255	; 0xff
    285c:	3d02      	subs	r5, #2
    285e:	f884 8323 	strb.w	r8, [r4, #803]	; 0x323
    2862:	4421      	add	r1, r4
    2864:	f884 6320 	strb.w	r6, [r4, #800]	; 0x320
    2868:	f884 0321 	strb.w	r0, [r4, #801]	; 0x321
    286c:	f884 e325 	strb.w	lr, [r4, #805]	; 0x325
    2870:	f884 c326 	strb.w	r12, [r4, #806]	; 0x326
    2874:	e001      	b.n	287a <DxGoHome()+0x11da>
    2876:	f815 ef01 	ldrb.w	lr, [r5, #1]!
    287a:	428d      	cmp	r5, r1
    287c:	4473      	add	r3, lr
    287e:	d1fa      	bne.n	2876 <DxGoHome()+0x11d6>
    2880:	43db      	mvns	r3, r3
    2882:	1dd1      	adds	r1, r2, #7
    2884:	3208      	adds	r2, #8
    2886:	b289      	uxth	r1, r1
    2888:	b292      	uxth	r2, r2
    288a:	4421      	add	r1, r4
    288c:	f5b2 7f00 	cmp.w	r2, #512	; 0x200
    2890:	f881 3320 	strb.w	r3, [r1, #800]	; 0x320
    2894:	f200 8353 	bhi.w	2f3e <DxGoHome()+0x189e>
    2898:	b152      	cbz	r2, 28b0 <DxGoHome()+0x1210>
    289a:	f202 321f 	addw	r2, r2, #799	; 0x31f
    289e:	4d74      	ldr	r5, [pc, #464]	; (2a70 <DxGoHome()+0x13d0>)
    28a0:	18a6      	adds	r6, r4, r2
    28a2:	f815 1f01 	ldrb.w	r1, [r5, #1]!
    28a6:	486d      	ldr	r0, [pc, #436]	; (2a5c <DxGoHome()+0x13bc>)
    28a8:	f004 ffac 	bl	7804 <mbed::Stream::putc(int)>
    28ac:	42b5      	cmp	r5, r6
    28ae:	d1f8      	bne.n	28a2 <DxGoHome()+0x1202>
    28b0:	9b03      	ldr	r3, [sp, #12]
    28b2:	9a02      	ldr	r2, [sp, #8]
    28b4:	4293      	cmp	r3, r2
    28b6:	f47f af53 	bne.w	2760 <DxGoHome()+0x10c0>
    28ba:	f8dd 8018 	ldr.w	r8, [sp, #24]
    28be:	f8cd 8014 	str.w	r8, [sp, #20]
    28c2:	9b02      	ldr	r3, [sp, #8]
    28c4:	f853 0f04 	ldr.w	r0, [r3, #4]!
    28c8:	9302      	str	r3, [sp, #8]
    28ca:	2800      	cmp	r0, #0
    28cc:	f000 80a7 	beq.w	2a1e <DxGoHome()+0x137e>
    28d0:	e890 0028 	ldmia.w	r0, {r3, r5}
    28d4:	6881      	ldr	r1, [r0, #8]
    28d6:	689a      	ldr	r2, [r3, #8]
    28d8:	9104      	str	r1, [sp, #16]
    28da:	4966      	ldr	r1, [pc, #408]	; (2a74 <DxGoHome()+0x13d4>)
    28dc:	428a      	cmp	r2, r1
    28de:	f040 80d5 	bne.w	2a8c <DxGoHome()+0x13ec>
    28e2:	f8df 81a4 	ldr.w	r8, [pc, #420]	; 2a88 <DxGoHome()+0x13e8>
    28e6:	68da      	ldr	r2, [r3, #12]
    28e8:	4963      	ldr	r1, [pc, #396]	; (2a78 <DxGoHome()+0x13d8>)
    28ea:	428a      	cmp	r2, r1
    28ec:	f040 80a8 	bne.w	2a40 <DxGoHome()+0x13a0>
    28f0:	4a62      	ldr	r2, [pc, #392]	; (2a7c <DxGoHome()+0x13dc>)
    28f2:	685b      	ldr	r3, [r3, #4]
    28f4:	9203      	str	r2, [sp, #12]
    28f6:	4a62      	ldr	r2, [pc, #392]	; (2a80 <DxGoHome()+0x13e0>)
    28f8:	4293      	cmp	r3, r2
    28fa:	f040 80ab 	bne.w	2a54 <DxGoHome()+0x13b4>
    28fe:	6bc7      	ldr	r7, [r0, #60]	; 0x3c
    2900:	2f63      	cmp	r7, #99	; 0x63
    2902:	dd04      	ble.n	290e <DxGoHome()+0x126e>
    2904:	f894 35fc 	ldrb.w	r3, [r4, #1532]	; 0x5fc
    2908:	2b00      	cmp	r3, #0
    290a:	f000 8088 	beq.w	2a1e <DxGoHome()+0x137e>
    290e:	f3c5 2307 	ubfx	r3, r5, #8, #8
    2912:	f884 3328 	strb.w	r3, [r4, #808]	; 0x328
    2916:	9804      	ldr	r0, [sp, #16]
    2918:	f884 5327 	strb.w	r5, [r4, #807]	; 0x327
    291c:	f007 fc27 	bl	a16e <strlen>
    2920:	4606      	mov	r6, r0
    2922:	ab0e      	add	r3, sp, #56	; 0x38
    2924:	f843 0d14 	str.w	r0, [r3, #-20]!
    2928:	6818      	ldr	r0, [r3, #0]
    292a:	4b4f      	ldr	r3, [pc, #316]	; (2a68 <DxGoHome()+0x13c8>)
    292c:	4632      	mov	r2, r6
    292e:	6018      	str	r0, [r3, #0]
    2930:	9904      	ldr	r1, [sp, #16]
    2932:	1d18      	adds	r0, r3, #4
    2934:	f006 fc94 	bl	9260 <memcpy>
    2938:	4640      	mov	r0, r8
    293a:	f007 fc18 	bl	a16e <strlen>
    293e:	4603      	mov	r3, r0
    2940:	aa0e      	add	r2, sp, #56	; 0x38
    2942:	f842 0d10 	str.w	r0, [r2, #-16]!
    2946:	4d49      	ldr	r5, [pc, #292]	; (2a6c <DxGoHome()+0x13cc>)
    2948:	6810      	ldr	r0, [r2, #0]
    294a:	1db2      	adds	r2, r6, #6
    294c:	360a      	adds	r6, #10
    294e:	4641      	mov	r1, r8
    2950:	50a8      	str	r0, [r5, r2]
    2952:	461a      	mov	r2, r3
    2954:	19a8      	adds	r0, r5, r6
    2956:	9304      	str	r3, [sp, #16]
    2958:	f006 fc82 	bl	9260 <memcpy>
    295c:	9803      	ldr	r0, [sp, #12]
    295e:	f007 fc06 	bl	a16e <strlen>
    2962:	ab0e      	add	r3, sp, #56	; 0x38
    2964:	461a      	mov	r2, r3
    2966:	4680      	mov	r8, r0
    2968:	9b04      	ldr	r3, [sp, #16]
    296a:	900b      	str	r0, [sp, #44]	; 0x2c
    296c:	f852 0d0c 	ldr.w	r0, [r2, #-12]!
    2970:	4433      	add	r3, r6
    2972:	1d1e      	adds	r6, r3, #4
    2974:	50e8      	str	r0, [r5, r3]
    2976:	9204      	str	r2, [sp, #16]
    2978:	19a8      	adds	r0, r5, r6
    297a:	4642      	mov	r2, r8
    297c:	9903      	ldr	r1, [sp, #12]
    297e:	f006 fc6f 	bl	9260 <memcpy>
    2982:	eb08 0106 	add.w	r1, r8, r6
    2986:	1d0a      	adds	r2, r1, #4
    2988:	fa5f fe82 	uxtb.w	lr, r2
    298c:	f3c2 2c07 	ubfx	r12, r2, #8, #8
    2990:	eb0e 080c 	add.w	r8, lr, r12
    2994:	ea6f 0808 	mvn.w	r8, r8
    2998:	2000      	movs	r0, #0
    299a:	4421      	add	r1, r4
    299c:	2602      	movs	r6, #2
    299e:	b292      	uxth	r2, r2
    29a0:	f881 6328 	strb.w	r6, [r1, #808]	; 0x328
    29a4:	f881 0327 	strb.w	r0, [r1, #807]	; 0x327
    29a8:	f881 0329 	strb.w	r0, [r1, #809]	; 0x329
    29ac:	f881 032a 	strb.w	r0, [r1, #810]	; 0x32a
    29b0:	4603      	mov	r3, r0
    29b2:	f202 3126 	addw	r1, r2, #806	; 0x326
    29b6:	26ff      	movs	r6, #255	; 0xff
    29b8:	20fe      	movs	r0, #254	; 0xfe
    29ba:	f884 e322 	strb.w	lr, [r4, #802]	; 0x322
    29be:	fa5f fe87 	uxtb.w	lr, r7
    29c2:	f347 2707 	sbfx	r7, r7, #8, #8
    29c6:	3d02      	subs	r5, #2
    29c8:	f884 8324 	strb.w	r8, [r4, #804]	; 0x324
    29cc:	f884 c323 	strb.w	r12, [r4, #803]	; 0x323
    29d0:	4421      	add	r1, r4
    29d2:	f884 6320 	strb.w	r6, [r4, #800]	; 0x320
    29d6:	f884 0321 	strb.w	r0, [r4, #801]	; 0x321
    29da:	f884 e325 	strb.w	lr, [r4, #805]	; 0x325
    29de:	f884 7326 	strb.w	r7, [r4, #806]	; 0x326
    29e2:	e001      	b.n	29e8 <DxGoHome()+0x1348>
    29e4:	f815 ef01 	ldrb.w	lr, [r5, #1]!
    29e8:	428d      	cmp	r5, r1
    29ea:	4473      	add	r3, lr
    29ec:	d1fa      	bne.n	29e4 <DxGoHome()+0x1344>
    29ee:	43db      	mvns	r3, r3
    29f0:	1dd1      	adds	r1, r2, #7
    29f2:	3208      	adds	r2, #8
    29f4:	b289      	uxth	r1, r1
    29f6:	b292      	uxth	r2, r2
    29f8:	4421      	add	r1, r4
    29fa:	f5b2 7f00 	cmp.w	r2, #512	; 0x200
    29fe:	f881 3320 	strb.w	r3, [r1, #800]	; 0x320
    2a02:	f200 828f 	bhi.w	2f24 <DxGoHome()+0x1884>
    2a06:	b152      	cbz	r2, 2a1e <DxGoHome()+0x137e>
    2a08:	f202 321f 	addw	r2, r2, #799	; 0x31f
    2a0c:	4d18      	ldr	r5, [pc, #96]	; (2a70 <DxGoHome()+0x13d0>)
    2a0e:	18a6      	adds	r6, r4, r2
    2a10:	f815 1f01 	ldrb.w	r1, [r5, #1]!
    2a14:	4811      	ldr	r0, [pc, #68]	; (2a5c <DxGoHome()+0x13bc>)
    2a16:	f004 fef5 	bl	7804 <mbed::Stream::putc(int)>
    2a1a:	42b5      	cmp	r5, r6
    2a1c:	d1f8      	bne.n	2a10 <DxGoHome()+0x1370>
    2a1e:	9b02      	ldr	r3, [sp, #8]
    2a20:	461a      	mov	r2, r3
    2a22:	4b18      	ldr	r3, [pc, #96]	; (2a84 <DxGoHome()+0x13e4>)
    2a24:	429a      	cmp	r2, r3
    2a26:	f47f af4c 	bne.w	28c2 <DxGoHome()+0x1222>
    2a2a:	f8dd 8014 	ldr.w	r8, [sp, #20]
    2a2e:	2301      	movs	r3, #1
    2a30:	f8c4 8600 	str.w	r8, [r4, #1536]	; 0x600
    2a34:	f8c4 8604 	str.w	r8, [r4, #1540]	; 0x604
    2a38:	f884 35fc 	strb.w	r3, [r4, #1532]	; 0x5fc
    2a3c:	f7fe be84 	b.w	1748 <DxGoHome()+0xa8>
    2a40:	4790      	blx	r2
    2a42:	9b02      	ldr	r3, [sp, #8]
    2a44:	9003      	str	r0, [sp, #12]
    2a46:	6818      	ldr	r0, [r3, #0]
    2a48:	4a0d      	ldr	r2, [pc, #52]	; (2a80 <DxGoHome()+0x13e0>)
    2a4a:	6803      	ldr	r3, [r0, #0]
    2a4c:	685b      	ldr	r3, [r3, #4]
    2a4e:	4293      	cmp	r3, r2
    2a50:	f43f af55 	beq.w	28fe <DxGoHome()+0x125e>
    2a54:	4798      	blx	r3
    2a56:	4607      	mov	r7, r0
    2a58:	e752      	b.n	2900 <DxGoHome()+0x1260>
    2a5a:	bf00      	nop
    2a5c:	10000294 	.word	0x10000294
    2a60:	10000354 	.word	0x10000354
    2a64:	1000076c 	.word	0x1000076c
    2a68:	10000579 	.word	0x10000579
    2a6c:	10000577 	.word	0x10000577
    2a70:	1000056f 	.word	0x1000056f
    2a74:	000002a1 	.word	0x000002a1
    2a78:	000002a9 	.word	0x000002a9
    2a7c:	0000afa8 	.word	0x0000afa8
    2a80:	0000029d 	.word	0x0000029d
    2a84:	10000834 	.word	0x10000834
    2a88:	0000af8c 	.word	0x0000af8c
    2a8c:	4790      	blx	r2
    2a8e:	9b02      	ldr	r3, [sp, #8]
    2a90:	4680      	mov	r8, r0
    2a92:	6818      	ldr	r0, [r3, #0]
    2a94:	6803      	ldr	r3, [r0, #0]
    2a96:	e726      	b.n	28e6 <DxGoHome()+0x1246>
    2a98:	4628      	mov	r0, r5
    2a9a:	499b      	ldr	r1, [pc, #620]	; (2d08 <DxGoHome()+0x1668>)
    2a9c:	4798      	blx	r3
    2a9e:	f7fe be90 	b.w	17c2 <DxGoHome()+0x122>
    2aa2:	4628      	mov	r0, r5
    2aa4:	4998      	ldr	r1, [pc, #608]	; (2d08 <DxGoHome()+0x1668>)
    2aa6:	4798      	blx	r3
    2aa8:	f7ff b924 	b.w	1cf4 <DxGoHome()+0x654>
    2aac:	0131      	lsls	r1, r6, #4
    2aae:	6aa8      	ldr	r0, [r5, #40]	; 0x28
    2ab0:	f003 fa84 	bl	5fbc <__wrap_realloc>
    2ab4:	62a8      	str	r0, [r5, #40]	; 0x28
    2ab6:	f7ff b996 	b.w	1de6 <DxGoHome()+0x746>
    2aba:	4993      	ldr	r1, [pc, #588]	; (2d08 <DxGoHome()+0x1668>)
    2abc:	f501 609e 	add.w	r0, r1, #1264	; 0x4f0
    2ac0:	f7fd fdb8 	bl	634 <rosserial_msgs::RequestParamResponse::deserialize(unsigned char*)>
    2ac4:	2301      	movs	r3, #1
    2ac6:	f888 360c 	strb.w	r3, [r8, #1548]	; 0x60c
    2aca:	f7ff bba2 	b.w	2212 <DxGoHome()+0xb72>
    2ace:	488f      	ldr	r0, [pc, #572]	; (2d0c <DxGoHome()+0x166c>)
    2ad0:	f004 fed2 	bl	7878 <mbed::Timer::read_ms()>
    2ad4:	f8d8 4114 	ldr.w	r4, [r8, #276]	; 0x114
    2ad8:	f8d8 2120 	ldr.w	r2, [r8, #288]	; 0x120
    2adc:	f8d8 3124 	ldr.w	r3, [r8, #292]	; 0x124
    2ae0:	4e8b      	ldr	r6, [pc, #556]	; (2d10 <DxGoHome()+0x1670>)
    2ae2:	1b04      	subs	r4, r0, r4
    2ae4:	4889      	ldr	r0, [pc, #548]	; (2d0c <DxGoHome()+0x166c>)
    2ae6:	1e55      	subs	r5, r2, #1
    2ae8:	441e      	add	r6, r3
    2aea:	f004 fec5 	bl	7878 <mbed::Timer::read_ms()>
    2aee:	4b89      	ldr	r3, [pc, #548]	; (2d14 <DxGoHome()+0x1674>)
    2af0:	4988      	ldr	r1, [pc, #544]	; (2d14 <DxGoHome()+0x1674>)
    2af2:	fba3 3204 	umull	r3, r2, r3, r4
    2af6:	fba1 1e00 	umull	r1, lr, r1, r0
    2afa:	f44f 737a 	mov.w	r3, #1000	; 0x3e8
    2afe:	0992      	lsrs	r2, r2, #6
    2b00:	fb03 4112 	mls	r1, r3, r2, r4
    2b04:	ea4f 1e9e 	mov.w	lr, lr, lsr #6
    2b08:	fb03 031e 	mls	r3, r3, lr, r0
    2b0c:	4882      	ldr	r0, [pc, #520]	; (2d18 <DxGoHome()+0x1678>)
    2b0e:	442a      	add	r2, r5
    2b10:	fb00 6101 	mla	r1, r0, r1, r6
    2b14:	fb00 1313 	mls	r3, r0, r3, r1
    2b18:	4980      	ldr	r1, [pc, #512]	; (2d1c <DxGoHome()+0x167c>)
    2b1a:	ebce 0202 	rsb	r2, lr, r2
    2b1e:	1f08      	subs	r0, r1, #4
    2b20:	f8c8 311c 	str.w	r3, [r8, #284]	; 0x11c
    2b24:	f8c8 2118 	str.w	r2, [r8, #280]	; 0x118
    2b28:	f003 fc66 	bl	63f8 <ros::normalizeSecNSec(unsigned long&, unsigned long&)>
    2b2c:	4877      	ldr	r0, [pc, #476]	; (2d0c <DxGoHome()+0x166c>)
    2b2e:	f004 fea3 	bl	7878 <mbed::Timer::read_ms()>
    2b32:	f8c8 0604 	str.w	r0, [r8, #1540]	; 0x604
    2b36:	f7ff bb6c 	b.w	2212 <DxGoHome()+0xb72>
    2b3a:	0079      	lsls	r1, r7, #1
    2b3c:	6b68      	ldr	r0, [r5, #52]	; 0x34
    2b3e:	f003 fa3d 	bl	5fbc <__wrap_realloc>
    2b42:	6368      	str	r0, [r5, #52]	; 0x34
    2b44:	f7ff b9da 	b.w	1efc <DxGoHome()+0x85c>
    2b48:	4620      	mov	r0, r4
    2b4a:	496f      	ldr	r1, [pc, #444]	; (2d08 <DxGoHome()+0x1668>)
    2b4c:	4798      	blx	r3
    2b4e:	f7ff bb60 	b.w	2212 <DxGoHome()+0xb72>
    2b52:	2208      	movs	r2, #8
    2b54:	2107      	movs	r1, #7
    2b56:	2006      	movs	r0, #6
    2b58:	2705      	movs	r7, #5
    2b5a:	2304      	movs	r3, #4
    2b5c:	260c      	movs	r6, #12
    2b5e:	f7fe bf1f 	b.w	19a0 <DxGoHome()+0x300>
    2b62:	4d6f      	ldr	r5, [pc, #444]	; (2d20 <DxGoHome()+0x1680>)
    2b64:	f88b 2320 	strb.w	r2, [r11, #800]	; 0x320
    2b68:	22fe      	movs	r2, #254	; 0xfe
    2b6a:	260a      	movs	r6, #10
    2b6c:	2708      	movs	r7, #8
    2b6e:	f88b 2321 	strb.w	r2, [r11, #801]	; 0x321
    2b72:	22f7      	movs	r2, #247	; 0xf7
    2b74:	4619      	mov	r1, r3
    2b76:	f88b 3327 	strb.w	r3, [r11, #807]	; 0x327
    2b7a:	f88b 3328 	strb.w	r3, [r11, #808]	; 0x328
    2b7e:	f88b 3329 	strb.w	r3, [r11, #809]	; 0x329
    2b82:	f88b 332a 	strb.w	r3, [r11, #810]	; 0x32a
    2b86:	f88b 332b 	strb.w	r3, [r11, #811]	; 0x32b
    2b8a:	f88b 332c 	strb.w	r3, [r11, #812]	; 0x32c
    2b8e:	f88b 332d 	strb.w	r3, [r11, #813]	; 0x32d
    2b92:	f88b 332e 	strb.w	r3, [r11, #814]	; 0x32e
    2b96:	f88b 3323 	strb.w	r3, [r11, #803]	; 0x323
    2b9a:	f88b 3326 	strb.w	r3, [r11, #806]	; 0x326
    2b9e:	4630      	mov	r0, r6
    2ba0:	f88b 6325 	strb.w	r6, [r11, #805]	; 0x325
    2ba4:	f1a5 0309 	sub.w	r3, r5, #9
    2ba8:	f88b 7322 	strb.w	r7, [r11, #802]	; 0x322
    2bac:	f88b 2324 	strb.w	r2, [r11, #804]	; 0x324
    2bb0:	e001      	b.n	2bb6 <DxGoHome()+0x1516>
    2bb2:	f813 0f01 	ldrb.w	r0, [r3, #1]!
    2bb6:	42ab      	cmp	r3, r5
    2bb8:	4401      	add	r1, r0
    2bba:	d1fa      	bne.n	2bb2 <DxGoHome()+0x1512>
    2bbc:	43c9      	mvns	r1, r1
    2bbe:	4d59      	ldr	r5, [pc, #356]	; (2d24 <DxGoHome()+0x1684>)
    2bc0:	f884 132f 	strb.w	r1, [r4, #815]	; 0x32f
    2bc4:	f105 060f 	add.w	r6, r5, #15
    2bc8:	21ff      	movs	r1, #255	; 0xff
    2bca:	e001      	b.n	2bd0 <DxGoHome()+0x1530>
    2bcc:	f815 1f01 	ldrb.w	r1, [r5, #1]!
    2bd0:	4855      	ldr	r0, [pc, #340]	; (2d28 <DxGoHome()+0x1688>)
    2bd2:	f004 fe17 	bl	7804 <mbed::Stream::putc(int)>
    2bd6:	42b5      	cmp	r5, r6
    2bd8:	d1f8      	bne.n	2bcc <DxGoHome()+0x152c>
    2bda:	484c      	ldr	r0, [pc, #304]	; (2d0c <DxGoHome()+0x166c>)
    2bdc:	f004 fe4c 	bl	7878 <mbed::Timer::read_ms()>
    2be0:	4b52      	ldr	r3, [pc, #328]	; (2d2c <DxGoHome()+0x168c>)
    2be2:	f8cb 0114 	str.w	r0, [r11, #276]	; 0x114
    2be6:	9303      	str	r3, [sp, #12]
    2be8:	3364      	adds	r3, #100	; 0x64
    2bea:	9302      	str	r3, [sp, #8]
    2bec:	f8cd 8018 	str.w	r8, [sp, #24]
    2bf0:	9a03      	ldr	r2, [sp, #12]
    2bf2:	f852 3f04 	ldr.w	r3, [r2, #4]!
    2bf6:	9203      	str	r2, [sp, #12]
    2bf8:	2b00      	cmp	r3, #0
    2bfa:	f000 80ba 	beq.w	2d72 <DxGoHome()+0x16d2>
    2bfe:	6858      	ldr	r0, [r3, #4]
    2c00:	689e      	ldr	r6, [r3, #8]
    2c02:	6802      	ldr	r2, [r0, #0]
    2c04:	681d      	ldr	r5, [r3, #0]
    2c06:	6892      	ldr	r2, [r2, #8]
    2c08:	4790      	blx	r2
    2c0a:	9b03      	ldr	r3, [sp, #12]
    2c0c:	4607      	mov	r7, r0
    2c0e:	681b      	ldr	r3, [r3, #0]
    2c10:	6858      	ldr	r0, [r3, #4]
    2c12:	6803      	ldr	r3, [r0, #0]
    2c14:	68db      	ldr	r3, [r3, #12]
    2c16:	4798      	blx	r3
    2c18:	9b03      	ldr	r3, [sp, #12]
    2c1a:	9004      	str	r0, [sp, #16]
    2c1c:	681b      	ldr	r3, [r3, #0]
    2c1e:	691b      	ldr	r3, [r3, #16]
    2c20:	2b63      	cmp	r3, #99	; 0x63
    2c22:	9305      	str	r3, [sp, #20]
    2c24:	dd04      	ble.n	2c30 <DxGoHome()+0x1590>
    2c26:	f894 35fc 	ldrb.w	r3, [r4, #1532]	; 0x5fc
    2c2a:	2b00      	cmp	r3, #0
    2c2c:	f000 80a1 	beq.w	2d72 <DxGoHome()+0x16d2>
    2c30:	f3c6 2307 	ubfx	r3, r6, #8, #8
    2c34:	f884 3328 	strb.w	r3, [r4, #808]	; 0x328
    2c38:	4628      	mov	r0, r5
    2c3a:	f884 6327 	strb.w	r6, [r4, #807]	; 0x327
    2c3e:	f007 fa96 	bl	a16e <strlen>
    2c42:	4606      	mov	r6, r0
    2c44:	ab0e      	add	r3, sp, #56	; 0x38
    2c46:	f843 0d14 	str.w	r0, [r3, #-20]!
    2c4a:	6818      	ldr	r0, [r3, #0]
    2c4c:	4b38      	ldr	r3, [pc, #224]	; (2d30 <DxGoHome()+0x1690>)
    2c4e:	4632      	mov	r2, r6
    2c50:	4629      	mov	r1, r5
    2c52:	6018      	str	r0, [r3, #0]
    2c54:	1d18      	adds	r0, r3, #4
    2c56:	f006 fb03 	bl	9260 <memcpy>
    2c5a:	4638      	mov	r0, r7
    2c5c:	f007 fa87 	bl	a16e <strlen>
    2c60:	4603      	mov	r3, r0
    2c62:	aa0e      	add	r2, sp, #56	; 0x38
    2c64:	f842 0d10 	str.w	r0, [r2, #-16]!
    2c68:	4d32      	ldr	r5, [pc, #200]	; (2d34 <DxGoHome()+0x1694>)
    2c6a:	6810      	ldr	r0, [r2, #0]
    2c6c:	1db2      	adds	r2, r6, #6
    2c6e:	360a      	adds	r6, #10
    2c70:	4639      	mov	r1, r7
    2c72:	50a8      	str	r0, [r5, r2]
    2c74:	461a      	mov	r2, r3
    2c76:	19a8      	adds	r0, r5, r6
    2c78:	9307      	str	r3, [sp, #28]
    2c7a:	f006 faf1 	bl	9260 <memcpy>
    2c7e:	9804      	ldr	r0, [sp, #16]
    2c80:	f007 fa75 	bl	a16e <strlen>
    2c84:	4680      	mov	r8, r0
    2c86:	9b07      	ldr	r3, [sp, #28]
    2c88:	900b      	str	r0, [sp, #44]	; 0x2c
    2c8a:	af0e      	add	r7, sp, #56	; 0x38
    2c8c:	4433      	add	r3, r6
    2c8e:	f857 0d0c 	ldr.w	r0, [r7, #-12]!
    2c92:	1d1e      	adds	r6, r3, #4
    2c94:	50e8      	str	r0, [r5, r3]
    2c96:	4642      	mov	r2, r8
    2c98:	19a8      	adds	r0, r5, r6
    2c9a:	9904      	ldr	r1, [sp, #16]
    2c9c:	f006 fae0 	bl	9260 <memcpy>
    2ca0:	eb08 0106 	add.w	r1, r8, r6
    2ca4:	1d0a      	adds	r2, r1, #4
    2ca6:	fa5f fe82 	uxtb.w	lr, r2
    2caa:	f3c2 2807 	ubfx	r8, r2, #8, #8
    2cae:	eb0e 0c08 	add.w	r12, lr, r8
    2cb2:	ea6f 0c0c 	mvn.w	r12, r12
    2cb6:	2000      	movs	r0, #0
    2cb8:	4421      	add	r1, r4
    2cba:	f881 0327 	strb.w	r0, [r1, #807]	; 0x327
    2cbe:	f881 0329 	strb.w	r0, [r1, #809]	; 0x329
    2cc2:	f881 032a 	strb.w	r0, [r1, #810]	; 0x32a
    2cc6:	4603      	mov	r3, r0
    2cc8:	9805      	ldr	r0, [sp, #20]
    2cca:	2602      	movs	r6, #2
    2ccc:	f881 6328 	strb.w	r6, [r1, #808]	; 0x328
    2cd0:	f884 c324 	strb.w	r12, [r4, #804]	; 0x324
    2cd4:	f884 e322 	strb.w	lr, [r4, #802]	; 0x322
    2cd8:	f340 2c07 	sbfx	r12, r0, #8, #8
    2cdc:	fa5f fe80 	uxtb.w	lr, r0
    2ce0:	f06f 0001 	mvn.w	r0, #1
    2ce4:	b292      	uxth	r2, r2
    2ce6:	f202 3126 	addw	r1, r2, #806	; 0x326
    2cea:	26ff      	movs	r6, #255	; 0xff
    2cec:	3d02      	subs	r5, #2
    2cee:	f884 8323 	strb.w	r8, [r4, #803]	; 0x323
    2cf2:	4421      	add	r1, r4
    2cf4:	f884 6320 	strb.w	r6, [r4, #800]	; 0x320
    2cf8:	f884 0321 	strb.w	r0, [r4, #801]	; 0x321
    2cfc:	f884 e325 	strb.w	lr, [r4, #805]	; 0x325
    2d00:	f884 c326 	strb.w	r12, [r4, #806]	; 0x326
    2d04:	e01a      	b.n	2d3c <DxGoHome()+0x169c>
    2d06:	bf00      	nop
    2d08:	10000370 	.word	0x10000370
    2d0c:	10000354 	.word	0x10000354
    2d10:	3b9aca00 	.word	0x3b9aca00
    2d14:	10624dd3 	.word	0x10624dd3
    2d18:	000f4240 	.word	0x000f4240
    2d1c:	1000036c 	.word	0x1000036c
    2d20:	1000057e 	.word	0x1000057e
    2d24:	10000570 	.word	0x10000570
    2d28:	10000294 	.word	0x10000294
    2d2c:	1000076c 	.word	0x1000076c
    2d30:	10000579 	.word	0x10000579
    2d34:	10000577 	.word	0x10000577
    2d38:	f815 ef01 	ldrb.w	lr, [r5, #1]!
    2d3c:	428d      	cmp	r5, r1
    2d3e:	4473      	add	r3, lr
    2d40:	d1fa      	bne.n	2d38 <DxGoHome()+0x1698>
    2d42:	43db      	mvns	r3, r3
    2d44:	1dd1      	adds	r1, r2, #7
    2d46:	3208      	adds	r2, #8
    2d48:	b289      	uxth	r1, r1
    2d4a:	b292      	uxth	r2, r2
    2d4c:	4421      	add	r1, r4
    2d4e:	f5b2 7f00 	cmp.w	r2, #512	; 0x200
    2d52:	f881 3320 	strb.w	r3, [r1, #800]	; 0x320
    2d56:	f200 82ce 	bhi.w	32f6 <DxGoHome()+0x1c56>
    2d5a:	b152      	cbz	r2, 2d72 <DxGoHome()+0x16d2>
    2d5c:	f202 321f 	addw	r2, r2, #799	; 0x31f
    2d60:	4ec5      	ldr	r6, [pc, #788]	; (3078 <DxGoHome()+0x19d8>)
    2d62:	18a5      	adds	r5, r4, r2
    2d64:	f816 1f01 	ldrb.w	r1, [r6, #1]!
    2d68:	48c4      	ldr	r0, [pc, #784]	; (307c <DxGoHome()+0x19dc>)
    2d6a:	f004 fd4b 	bl	7804 <mbed::Stream::putc(int)>
    2d6e:	42ae      	cmp	r6, r5
    2d70:	d1f8      	bne.n	2d64 <DxGoHome()+0x16c4>
    2d72:	9b03      	ldr	r3, [sp, #12]
    2d74:	9a02      	ldr	r2, [sp, #8]
    2d76:	4293      	cmp	r3, r2
    2d78:	f47f af3a 	bne.w	2bf0 <DxGoHome()+0x1550>
    2d7c:	f8dd 8018 	ldr.w	r8, [sp, #24]
    2d80:	f8cd 8014 	str.w	r8, [sp, #20]
    2d84:	9b02      	ldr	r3, [sp, #8]
    2d86:	f853 0f04 	ldr.w	r0, [r3, #4]!
    2d8a:	9302      	str	r3, [sp, #8]
    2d8c:	2800      	cmp	r0, #0
    2d8e:	f000 80a7 	beq.w	2ee0 <DxGoHome()+0x1840>
    2d92:	e890 0028 	ldmia.w	r0, {r3, r5}
    2d96:	6881      	ldr	r1, [r0, #8]
    2d98:	689a      	ldr	r2, [r3, #8]
    2d9a:	9104      	str	r1, [sp, #16]
    2d9c:	49b8      	ldr	r1, [pc, #736]	; (3080 <DxGoHome()+0x19e0>)
    2d9e:	428a      	cmp	r2, r1
    2da0:	f040 8289 	bne.w	32b6 <DxGoHome()+0x1c16>
    2da4:	f8df 8304 	ldr.w	r8, [pc, #772]	; 30ac <DxGoHome()+0x1a0c>
    2da8:	68da      	ldr	r2, [r3, #12]
    2daa:	49b6      	ldr	r1, [pc, #728]	; (3084 <DxGoHome()+0x19e4>)
    2dac:	428a      	cmp	r2, r1
    2dae:	f040 827c 	bne.w	32aa <DxGoHome()+0x1c0a>
    2db2:	4ab5      	ldr	r2, [pc, #724]	; (3088 <DxGoHome()+0x19e8>)
    2db4:	9203      	str	r2, [sp, #12]
    2db6:	685b      	ldr	r3, [r3, #4]
    2db8:	4ab4      	ldr	r2, [pc, #720]	; (308c <DxGoHome()+0x19ec>)
    2dba:	4293      	cmp	r3, r2
    2dbc:	f040 8272 	bne.w	32a4 <DxGoHome()+0x1c04>
    2dc0:	6bc7      	ldr	r7, [r0, #60]	; 0x3c
    2dc2:	2f63      	cmp	r7, #99	; 0x63
    2dc4:	dd04      	ble.n	2dd0 <DxGoHome()+0x1730>
    2dc6:	f894 35fc 	ldrb.w	r3, [r4, #1532]	; 0x5fc
    2dca:	2b00      	cmp	r3, #0
    2dcc:	f000 8088 	beq.w	2ee0 <DxGoHome()+0x1840>
    2dd0:	f3c5 2307 	ubfx	r3, r5, #8, #8
    2dd4:	f884 3328 	strb.w	r3, [r4, #808]	; 0x328
    2dd8:	9804      	ldr	r0, [sp, #16]
    2dda:	f884 5327 	strb.w	r5, [r4, #807]	; 0x327
    2dde:	f007 f9c6 	bl	a16e <strlen>
    2de2:	4606      	mov	r6, r0
    2de4:	ab0e      	add	r3, sp, #56	; 0x38
    2de6:	f843 0d14 	str.w	r0, [r3, #-20]!
    2dea:	6818      	ldr	r0, [r3, #0]
    2dec:	4ba8      	ldr	r3, [pc, #672]	; (3090 <DxGoHome()+0x19f0>)
    2dee:	4632      	mov	r2, r6
    2df0:	6018      	str	r0, [r3, #0]
    2df2:	9904      	ldr	r1, [sp, #16]
    2df4:	1d18      	adds	r0, r3, #4
    2df6:	f006 fa33 	bl	9260 <memcpy>
    2dfa:	4640      	mov	r0, r8
    2dfc:	f007 f9b7 	bl	a16e <strlen>
    2e00:	4603      	mov	r3, r0
    2e02:	aa0e      	add	r2, sp, #56	; 0x38
    2e04:	f842 0d10 	str.w	r0, [r2, #-16]!
    2e08:	4da2      	ldr	r5, [pc, #648]	; (3094 <DxGoHome()+0x19f4>)
    2e0a:	6810      	ldr	r0, [r2, #0]
    2e0c:	1db2      	adds	r2, r6, #6
    2e0e:	360a      	adds	r6, #10
    2e10:	4641      	mov	r1, r8
    2e12:	50a8      	str	r0, [r5, r2]
    2e14:	461a      	mov	r2, r3
    2e16:	19a8      	adds	r0, r5, r6
    2e18:	9304      	str	r3, [sp, #16]
    2e1a:	f006 fa21 	bl	9260 <memcpy>
    2e1e:	9803      	ldr	r0, [sp, #12]
    2e20:	f007 f9a5 	bl	a16e <strlen>
    2e24:	ab0e      	add	r3, sp, #56	; 0x38
    2e26:	461a      	mov	r2, r3
    2e28:	4680      	mov	r8, r0
    2e2a:	9b04      	ldr	r3, [sp, #16]
    2e2c:	900b      	str	r0, [sp, #44]	; 0x2c
    2e2e:	f852 0d0c 	ldr.w	r0, [r2, #-12]!
    2e32:	4433      	add	r3, r6
    2e34:	1d1e      	adds	r6, r3, #4
    2e36:	50e8      	str	r0, [r5, r3]
    2e38:	9204      	str	r2, [sp, #16]
    2e3a:	19a8      	adds	r0, r5, r6
    2e3c:	4642      	mov	r2, r8
    2e3e:	9903      	ldr	r1, [sp, #12]
    2e40:	f006 fa0e 	bl	9260 <memcpy>
    2e44:	eb08 0106 	add.w	r1, r8, r6
    2e48:	1d0a      	adds	r2, r1, #4
    2e4a:	fa5f fe82 	uxtb.w	lr, r2
    2e4e:	f3c2 2c07 	ubfx	r12, r2, #8, #8
    2e52:	eb0e 080c 	add.w	r8, lr, r12
    2e56:	ea6f 0808 	mvn.w	r8, r8
    2e5a:	2000      	movs	r0, #0
    2e5c:	4421      	add	r1, r4
    2e5e:	2602      	movs	r6, #2
    2e60:	b292      	uxth	r2, r2
    2e62:	f881 6328 	strb.w	r6, [r1, #808]	; 0x328
    2e66:	f881 0327 	strb.w	r0, [r1, #807]	; 0x327
    2e6a:	f881 0329 	strb.w	r0, [r1, #809]	; 0x329
    2e6e:	f881 032a 	strb.w	r0, [r1, #810]	; 0x32a
    2e72:	4603      	mov	r3, r0
    2e74:	f202 3126 	addw	r1, r2, #806	; 0x326
    2e78:	26ff      	movs	r6, #255	; 0xff
    2e7a:	20fe      	movs	r0, #254	; 0xfe
    2e7c:	f884 e322 	strb.w	lr, [r4, #802]	; 0x322
    2e80:	fa5f fe87 	uxtb.w	lr, r7
    2e84:	f347 2707 	sbfx	r7, r7, #8, #8
    2e88:	3d02      	subs	r5, #2
    2e8a:	f884 8324 	strb.w	r8, [r4, #804]	; 0x324
    2e8e:	f884 c323 	strb.w	r12, [r4, #803]	; 0x323
    2e92:	4421      	add	r1, r4
    2e94:	f884 6320 	strb.w	r6, [r4, #800]	; 0x320
    2e98:	f884 0321 	strb.w	r0, [r4, #801]	; 0x321
    2e9c:	f884 e325 	strb.w	lr, [r4, #805]	; 0x325
    2ea0:	f884 7326 	strb.w	r7, [r4, #806]	; 0x326
    2ea4:	e001      	b.n	2eaa <DxGoHome()+0x180a>
    2ea6:	f815 ef01 	ldrb.w	lr, [r5, #1]!
    2eaa:	42a9      	cmp	r1, r5
    2eac:	4473      	add	r3, lr
    2eae:	d1fa      	bne.n	2ea6 <DxGoHome()+0x1806>
    2eb0:	43db      	mvns	r3, r3
    2eb2:	1dd1      	adds	r1, r2, #7
    2eb4:	3208      	adds	r2, #8
    2eb6:	b289      	uxth	r1, r1
    2eb8:	b292      	uxth	r2, r2
    2eba:	4421      	add	r1, r4
    2ebc:	f5b2 7f00 	cmp.w	r2, #512	; 0x200
    2ec0:	f881 3320 	strb.w	r3, [r1, #800]	; 0x320
    2ec4:	f200 81fd 	bhi.w	32c2 <DxGoHome()+0x1c22>
    2ec8:	b152      	cbz	r2, 2ee0 <DxGoHome()+0x1840>
    2eca:	f202 321f 	addw	r2, r2, #799	; 0x31f
    2ece:	4e6a      	ldr	r6, [pc, #424]	; (3078 <DxGoHome()+0x19d8>)
    2ed0:	18a5      	adds	r5, r4, r2
    2ed2:	f816 1f01 	ldrb.w	r1, [r6, #1]!
    2ed6:	4869      	ldr	r0, [pc, #420]	; (307c <DxGoHome()+0x19dc>)
    2ed8:	f004 fc94 	bl	7804 <mbed::Stream::putc(int)>
    2edc:	42ae      	cmp	r6, r5
    2ede:	d1f8      	bne.n	2ed2 <DxGoHome()+0x1832>
    2ee0:	9b02      	ldr	r3, [sp, #8]
    2ee2:	461a      	mov	r2, r3
    2ee4:	4b6c      	ldr	r3, [pc, #432]	; (3098 <DxGoHome()+0x19f8>)
    2ee6:	429a      	cmp	r2, r3
    2ee8:	f47f af4c 	bne.w	2d84 <DxGoHome()+0x16e4>
    2eec:	f8dd 8014 	ldr.w	r8, [sp, #20]
    2ef0:	2301      	movs	r3, #1
    2ef2:	f8c4 8600 	str.w	r8, [r4, #1536]	; 0x600
    2ef6:	f8c4 8604 	str.w	r8, [r4, #1540]	; 0x604
    2efa:	f884 35fc 	strb.w	r3, [r4, #1532]	; 0x5fc
    2efe:	f7fe beb6 	b.w	1c6e <DxGoHome()+0x5ce>
    2f02:	2208      	movs	r2, #8
    2f04:	2107      	movs	r1, #7
    2f06:	2006      	movs	r0, #6
    2f08:	2705      	movs	r7, #5
    2f0a:	2304      	movs	r3, #4
    2f0c:	260c      	movs	r6, #12
    2f0e:	f7fe bfd7 	b.w	1ec0 <DxGoHome()+0x820>
    2f12:	0059      	lsls	r1, r3, #1
    2f14:	6b60      	ldr	r0, [r4, #52]	; 0x34
    2f16:	9302      	str	r3, [sp, #8]
    2f18:	f003 f850 	bl	5fbc <__wrap_realloc>
    2f1c:	9b02      	ldr	r3, [sp, #8]
    2f1e:	6360      	str	r0, [r4, #52]	; 0x34
    2f20:	f7ff b9f0 	b.w	2304 <DxGoHome()+0xc64>
    2f24:	495d      	ldr	r1, [pc, #372]	; (309c <DxGoHome()+0x19fc>)
    2f26:	485e      	ldr	r0, [pc, #376]	; (30a0 <DxGoHome()+0x1a00>)
    2f28:	2303      	movs	r3, #3
    2f2a:	910b      	str	r1, [sp, #44]	; 0x2c
    2f2c:	900d      	str	r0, [sp, #52]	; 0x34
    2f2e:	9a04      	ldr	r2, [sp, #16]
    2f30:	2107      	movs	r1, #7
    2f32:	485c      	ldr	r0, [pc, #368]	; (30a4 <DxGoHome()+0x1a04>)
    2f34:	f88d 3030 	strb.w	r3, [sp, #48]	; 0x30
    2f38:	f7fe f8cc 	bl	10d4 <ros::NodeHandle_<MbedHardware, 25, 25, 512, 512>::publish(int, ros::Msg const*)>
    2f3c:	e56f      	b.n	2a1e <DxGoHome()+0x137e>
    2f3e:	4957      	ldr	r1, [pc, #348]	; (309c <DxGoHome()+0x19fc>)
    2f40:	4857      	ldr	r0, [pc, #348]	; (30a0 <DxGoHome()+0x1a00>)
    2f42:	2303      	movs	r3, #3
    2f44:	910b      	str	r1, [sp, #44]	; 0x2c
    2f46:	900d      	str	r0, [sp, #52]	; 0x34
    2f48:	463a      	mov	r2, r7
    2f4a:	2107      	movs	r1, #7
    2f4c:	4855      	ldr	r0, [pc, #340]	; (30a4 <DxGoHome()+0x1a04>)
    2f4e:	f88d 3030 	strb.w	r3, [sp, #48]	; 0x30
    2f52:	f7fe f8bf 	bl	10d4 <ros::NodeHandle_<MbedHardware, 25, 25, 512, 512>::publish(int, ros::Msg const*)>
    2f56:	e4ab      	b.n	28b0 <DxGoHome()+0x1210>
    2f58:	4852      	ldr	r0, [pc, #328]	; (30a4 <DxGoHome()+0x1a04>)
    2f5a:	f7fe fb45 	bl	15e8 <ros::NodeHandle_<MbedHardware, 25, 25, 512, 512>::requestSyncTime()>
    2f5e:	4b52      	ldr	r3, [pc, #328]	; (30a8 <DxGoHome()+0x1a08>)
    2f60:	9706      	str	r7, [sp, #24]
    2f62:	9303      	str	r3, [sp, #12]
    2f64:	3364      	adds	r3, #100	; 0x64
    2f66:	9302      	str	r3, [sp, #8]
    2f68:	9a03      	ldr	r2, [sp, #12]
    2f6a:	f852 3f04 	ldr.w	r3, [r2, #4]!
    2f6e:	4617      	mov	r7, r2
    2f70:	9203      	str	r2, [sp, #12]
    2f72:	2b00      	cmp	r3, #0
    2f74:	f000 80ba 	beq.w	30ec <DxGoHome()+0x1a4c>
    2f78:	6858      	ldr	r0, [r3, #4]
    2f7a:	689d      	ldr	r5, [r3, #8]
    2f7c:	6802      	ldr	r2, [r0, #0]
    2f7e:	681c      	ldr	r4, [r3, #0]
    2f80:	6892      	ldr	r2, [r2, #8]
    2f82:	4790      	blx	r2
    2f84:	683b      	ldr	r3, [r7, #0]
    2f86:	4606      	mov	r6, r0
    2f88:	6858      	ldr	r0, [r3, #4]
    2f8a:	6803      	ldr	r3, [r0, #0]
    2f8c:	68db      	ldr	r3, [r3, #12]
    2f8e:	4798      	blx	r3
    2f90:	683b      	ldr	r3, [r7, #0]
    2f92:	9004      	str	r0, [sp, #16]
    2f94:	691b      	ldr	r3, [r3, #16]
    2f96:	2b63      	cmp	r3, #99	; 0x63
    2f98:	9305      	str	r3, [sp, #20]
    2f9a:	dd04      	ble.n	2fa6 <DxGoHome()+0x1906>
    2f9c:	f898 35fc 	ldrb.w	r3, [r8, #1532]	; 0x5fc
    2fa0:	2b00      	cmp	r3, #0
    2fa2:	f000 80a3 	beq.w	30ec <DxGoHome()+0x1a4c>
    2fa6:	f3c5 2307 	ubfx	r3, r5, #8, #8
    2faa:	f888 3328 	strb.w	r3, [r8, #808]	; 0x328
    2fae:	4620      	mov	r0, r4
    2fb0:	f888 5327 	strb.w	r5, [r8, #807]	; 0x327
    2fb4:	f007 f8db 	bl	a16e <strlen>
    2fb8:	4605      	mov	r5, r0
    2fba:	ab0e      	add	r3, sp, #56	; 0x38
    2fbc:	f843 0d14 	str.w	r0, [r3, #-20]!
    2fc0:	6818      	ldr	r0, [r3, #0]
    2fc2:	4b33      	ldr	r3, [pc, #204]	; (3090 <DxGoHome()+0x19f0>)
    2fc4:	462a      	mov	r2, r5
    2fc6:	4621      	mov	r1, r4
    2fc8:	6018      	str	r0, [r3, #0]
    2fca:	1d18      	adds	r0, r3, #4
    2fcc:	f006 f948 	bl	9260 <memcpy>
    2fd0:	4630      	mov	r0, r6
    2fd2:	f007 f8cc 	bl	a16e <strlen>
    2fd6:	4603      	mov	r3, r0
    2fd8:	aa0e      	add	r2, sp, #56	; 0x38
    2fda:	f842 0d10 	str.w	r0, [r2, #-16]!
    2fde:	4c2d      	ldr	r4, [pc, #180]	; (3094 <DxGoHome()+0x19f4>)
    2fe0:	6810      	ldr	r0, [r2, #0]
    2fe2:	1daa      	adds	r2, r5, #6
    2fe4:	350a      	adds	r5, #10
    2fe6:	4631      	mov	r1, r6
    2fe8:	50a0      	str	r0, [r4, r2]
    2fea:	461a      	mov	r2, r3
    2fec:	1960      	adds	r0, r4, r5
    2fee:	9307      	str	r3, [sp, #28]
    2ff0:	f006 f936 	bl	9260 <memcpy>
    2ff4:	9804      	ldr	r0, [sp, #16]
    2ff6:	f007 f8ba 	bl	a16e <strlen>
    2ffa:	4607      	mov	r7, r0
    2ffc:	9b07      	ldr	r3, [sp, #28]
    2ffe:	900b      	str	r0, [sp, #44]	; 0x2c
    3000:	ae0e      	add	r6, sp, #56	; 0x38
    3002:	442b      	add	r3, r5
    3004:	f856 0d0c 	ldr.w	r0, [r6, #-12]!
    3008:	1d1d      	adds	r5, r3, #4
    300a:	50e0      	str	r0, [r4, r3]
    300c:	463a      	mov	r2, r7
    300e:	1960      	adds	r0, r4, r5
    3010:	9904      	ldr	r1, [sp, #16]
    3012:	f006 f925 	bl	9260 <memcpy>
    3016:	1979      	adds	r1, r7, r5
    3018:	1d0a      	adds	r2, r1, #4
    301a:	fa5f fe82 	uxtb.w	lr, r2
    301e:	f3c2 2c07 	ubfx	r12, r2, #8, #8
    3022:	eb0e 070c 	add.w	r7, lr, r12
    3026:	43ff      	mvns	r7, r7
    3028:	2000      	movs	r0, #0
    302a:	4441      	add	r1, r8
    302c:	f881 0327 	strb.w	r0, [r1, #807]	; 0x327
    3030:	f881 0329 	strb.w	r0, [r1, #809]	; 0x329
    3034:	f881 032a 	strb.w	r0, [r1, #810]	; 0x32a
    3038:	4603      	mov	r3, r0
    303a:	9805      	ldr	r0, [sp, #20]
    303c:	2502      	movs	r5, #2
    303e:	f881 5328 	strb.w	r5, [r1, #808]	; 0x328
    3042:	f888 7324 	strb.w	r7, [r8, #804]	; 0x324
    3046:	f888 e322 	strb.w	lr, [r8, #802]	; 0x322
    304a:	b2c7      	uxtb	r7, r0
    304c:	f340 2e07 	sbfx	lr, r0, #8, #8
    3050:	f06f 0001 	mvn.w	r0, #1
    3054:	b292      	uxth	r2, r2
    3056:	f202 3126 	addw	r1, r2, #806	; 0x326
    305a:	25ff      	movs	r5, #255	; 0xff
    305c:	3c02      	subs	r4, #2
    305e:	f888 c323 	strb.w	r12, [r8, #803]	; 0x323
    3062:	4441      	add	r1, r8
    3064:	f888 5320 	strb.w	r5, [r8, #800]	; 0x320
    3068:	f888 0321 	strb.w	r0, [r8, #801]	; 0x321
    306c:	f888 7325 	strb.w	r7, [r8, #805]	; 0x325
    3070:	f888 e326 	strb.w	lr, [r8, #806]	; 0x326
    3074:	e01e      	b.n	30b4 <DxGoHome()+0x1a14>
    3076:	bf00      	nop
    3078:	1000056f 	.word	0x1000056f
    307c:	10000294 	.word	0x10000294
    3080:	000002a1 	.word	0x000002a1
    3084:	000002a9 	.word	0x000002a9
    3088:	0000afa8 	.word	0x0000afa8
    308c:	0000029d 	.word	0x0000029d
    3090:	10000579 	.word	0x10000579
    3094:	10000577 	.word	0x10000577
    3098:	10000834 	.word	0x10000834
    309c:	0000ad84 	.word	0x0000ad84
    30a0:	0000b00c 	.word	0x0000b00c
    30a4:	10000250 	.word	0x10000250
    30a8:	1000076c 	.word	0x1000076c
    30ac:	0000af8c 	.word	0x0000af8c
    30b0:	f814 7f01 	ldrb.w	r7, [r4, #1]!
    30b4:	42a1      	cmp	r1, r4
    30b6:	443b      	add	r3, r7
    30b8:	d1fa      	bne.n	30b0 <DxGoHome()+0x1a10>
    30ba:	43db      	mvns	r3, r3
    30bc:	1dd1      	adds	r1, r2, #7
    30be:	3208      	adds	r2, #8
    30c0:	b289      	uxth	r1, r1
    30c2:	b292      	uxth	r2, r2
    30c4:	4441      	add	r1, r8
    30c6:	f5b2 7f00 	cmp.w	r2, #512	; 0x200
    30ca:	f881 3320 	strb.w	r3, [r1, #800]	; 0x320
    30ce:	f200 8105 	bhi.w	32dc <DxGoHome()+0x1c3c>
    30d2:	b15a      	cbz	r2, 30ec <DxGoHome()+0x1a4c>
    30d4:	f202 321f 	addw	r2, r2, #799	; 0x31f
    30d8:	4d8d      	ldr	r5, [pc, #564]	; (3310 <DxGoHome()+0x1c70>)
    30da:	eb08 0402 	add.w	r4, r8, r2
    30de:	f815 1f01 	ldrb.w	r1, [r5, #1]!
    30e2:	488c      	ldr	r0, [pc, #560]	; (3314 <DxGoHome()+0x1c74>)
    30e4:	f004 fb8e 	bl	7804 <mbed::Stream::putc(int)>
    30e8:	42ac      	cmp	r4, r5
    30ea:	d1f8      	bne.n	30de <DxGoHome()+0x1a3e>
    30ec:	9b03      	ldr	r3, [sp, #12]
    30ee:	9a02      	ldr	r2, [sp, #8]
    30f0:	4293      	cmp	r3, r2
    30f2:	f47f af39 	bne.w	2f68 <DxGoHome()+0x18c8>
    30f6:	9f06      	ldr	r7, [sp, #24]
    30f8:	9705      	str	r7, [sp, #20]
    30fa:	9b02      	ldr	r3, [sp, #8]
    30fc:	f853 0f04 	ldr.w	r0, [r3, #4]!
    3100:	9302      	str	r3, [sp, #8]
    3102:	2800      	cmp	r0, #0
    3104:	f000 80a3 	beq.w	324e <DxGoHome()+0x1bae>
    3108:	e890 0018 	ldmia.w	r0, {r3, r4}
    310c:	6881      	ldr	r1, [r0, #8]
    310e:	689a      	ldr	r2, [r3, #8]
    3110:	9104      	str	r1, [sp, #16]
    3112:	4981      	ldr	r1, [pc, #516]	; (3318 <DxGoHome()+0x1c78>)
    3114:	428a      	cmp	r2, r1
    3116:	f040 80b2 	bne.w	327e <DxGoHome()+0x1bde>
    311a:	4f80      	ldr	r7, [pc, #512]	; (331c <DxGoHome()+0x1c7c>)
    311c:	68da      	ldr	r2, [r3, #12]
    311e:	4980      	ldr	r1, [pc, #512]	; (3320 <DxGoHome()+0x1c80>)
    3120:	428a      	cmp	r2, r1
    3122:	f040 80a6 	bne.w	3272 <DxGoHome()+0x1bd2>
    3126:	4a7f      	ldr	r2, [pc, #508]	; (3324 <DxGoHome()+0x1c84>)
    3128:	9203      	str	r2, [sp, #12]
    312a:	685b      	ldr	r3, [r3, #4]
    312c:	4a7e      	ldr	r2, [pc, #504]	; (3328 <DxGoHome()+0x1c88>)
    312e:	4293      	cmp	r3, r2
    3130:	f040 809c 	bne.w	326c <DxGoHome()+0x1bcc>
    3134:	6bc6      	ldr	r6, [r0, #60]	; 0x3c
    3136:	2e63      	cmp	r6, #99	; 0x63
    3138:	dd04      	ble.n	3144 <DxGoHome()+0x1aa4>
    313a:	f898 35fc 	ldrb.w	r3, [r8, #1532]	; 0x5fc
    313e:	2b00      	cmp	r3, #0
    3140:	f000 8085 	beq.w	324e <DxGoHome()+0x1bae>
    3144:	f3c4 2307 	ubfx	r3, r4, #8, #8
    3148:	f888 3328 	strb.w	r3, [r8, #808]	; 0x328
    314c:	9804      	ldr	r0, [sp, #16]
    314e:	f888 4327 	strb.w	r4, [r8, #807]	; 0x327
    3152:	f007 f80c 	bl	a16e <strlen>
    3156:	4605      	mov	r5, r0
    3158:	ab0e      	add	r3, sp, #56	; 0x38
    315a:	f843 0d14 	str.w	r0, [r3, #-20]!
    315e:	6818      	ldr	r0, [r3, #0]
    3160:	4b72      	ldr	r3, [pc, #456]	; (332c <DxGoHome()+0x1c8c>)
    3162:	462a      	mov	r2, r5
    3164:	6018      	str	r0, [r3, #0]
    3166:	9904      	ldr	r1, [sp, #16]
    3168:	1d18      	adds	r0, r3, #4
    316a:	f006 f879 	bl	9260 <memcpy>
    316e:	4638      	mov	r0, r7
    3170:	f006 fffd 	bl	a16e <strlen>
    3174:	4603      	mov	r3, r0
    3176:	aa0e      	add	r2, sp, #56	; 0x38
    3178:	f842 0d10 	str.w	r0, [r2, #-16]!
    317c:	4c6c      	ldr	r4, [pc, #432]	; (3330 <DxGoHome()+0x1c90>)
    317e:	6810      	ldr	r0, [r2, #0]
    3180:	1daa      	adds	r2, r5, #6
    3182:	350a      	adds	r5, #10
    3184:	4639      	mov	r1, r7
    3186:	50a0      	str	r0, [r4, r2]
    3188:	461a      	mov	r2, r3
    318a:	1960      	adds	r0, r4, r5
    318c:	9304      	str	r3, [sp, #16]
    318e:	f006 f867 	bl	9260 <memcpy>
    3192:	9803      	ldr	r0, [sp, #12]
    3194:	f006 ffeb 	bl	a16e <strlen>
    3198:	ab0e      	add	r3, sp, #56	; 0x38
    319a:	461a      	mov	r2, r3
    319c:	4607      	mov	r7, r0
    319e:	9b04      	ldr	r3, [sp, #16]
    31a0:	900b      	str	r0, [sp, #44]	; 0x2c
    31a2:	f852 0d0c 	ldr.w	r0, [r2, #-12]!
    31a6:	442b      	add	r3, r5
    31a8:	1d1d      	adds	r5, r3, #4
    31aa:	50e0      	str	r0, [r4, r3]
    31ac:	9204      	str	r2, [sp, #16]
    31ae:	1960      	adds	r0, r4, r5
    31b0:	463a      	mov	r2, r7
    31b2:	9903      	ldr	r1, [sp, #12]
    31b4:	f006 f854 	bl	9260 <memcpy>
    31b8:	1979      	adds	r1, r7, r5
    31ba:	1d0a      	adds	r2, r1, #4
    31bc:	fa5f fe82 	uxtb.w	lr, r2
    31c0:	f3c2 2c07 	ubfx	r12, r2, #8, #8
    31c4:	eb0e 070c 	add.w	r7, lr, r12
    31c8:	43ff      	mvns	r7, r7
    31ca:	2000      	movs	r0, #0
    31cc:	4441      	add	r1, r8
    31ce:	2502      	movs	r5, #2
    31d0:	b292      	uxth	r2, r2
    31d2:	f881 5328 	strb.w	r5, [r1, #808]	; 0x328
    31d6:	f881 0327 	strb.w	r0, [r1, #807]	; 0x327
    31da:	f881 0329 	strb.w	r0, [r1, #809]	; 0x329
    31de:	f881 032a 	strb.w	r0, [r1, #810]	; 0x32a
    31e2:	4603      	mov	r3, r0
    31e4:	f202 3126 	addw	r1, r2, #806	; 0x326
    31e8:	25ff      	movs	r5, #255	; 0xff
    31ea:	f888 7324 	strb.w	r7, [r8, #804]	; 0x324
    31ee:	20fe      	movs	r0, #254	; 0xfe
    31f0:	b2f7      	uxtb	r7, r6
    31f2:	f346 2607 	sbfx	r6, r6, #8, #8
    31f6:	3c02      	subs	r4, #2
    31f8:	f888 e322 	strb.w	lr, [r8, #802]	; 0x322
    31fc:	f888 c323 	strb.w	r12, [r8, #803]	; 0x323
    3200:	4441      	add	r1, r8
    3202:	f888 5320 	strb.w	r5, [r8, #800]	; 0x320
    3206:	f888 0321 	strb.w	r0, [r8, #801]	; 0x321
    320a:	f888 7325 	strb.w	r7, [r8, #805]	; 0x325
    320e:	f888 6326 	strb.w	r6, [r8, #806]	; 0x326
    3212:	e001      	b.n	3218 <DxGoHome()+0x1b78>
    3214:	f814 7f01 	ldrb.w	r7, [r4, #1]!
    3218:	428c      	cmp	r4, r1
    321a:	443b      	add	r3, r7
    321c:	d1fa      	bne.n	3214 <DxGoHome()+0x1b74>
    321e:	43db      	mvns	r3, r3
    3220:	1dd1      	adds	r1, r2, #7
    3222:	3208      	adds	r2, #8
    3224:	b289      	uxth	r1, r1
    3226:	b292      	uxth	r2, r2
    3228:	4441      	add	r1, r8
    322a:	f5b2 7f00 	cmp.w	r2, #512	; 0x200
    322e:	f881 3320 	strb.w	r3, [r1, #800]	; 0x320
    3232:	d82a      	bhi.n	328a <DxGoHome()+0x1bea>
    3234:	b15a      	cbz	r2, 324e <DxGoHome()+0x1bae>
    3236:	f202 321f 	addw	r2, r2, #799	; 0x31f
    323a:	4d35      	ldr	r5, [pc, #212]	; (3310 <DxGoHome()+0x1c70>)
    323c:	eb08 0402 	add.w	r4, r8, r2
    3240:	f815 1f01 	ldrb.w	r1, [r5, #1]!
    3244:	4833      	ldr	r0, [pc, #204]	; (3314 <DxGoHome()+0x1c74>)
    3246:	f004 fadd 	bl	7804 <mbed::Stream::putc(int)>
    324a:	42a5      	cmp	r5, r4
    324c:	d1f8      	bne.n	3240 <DxGoHome()+0x1ba0>
    324e:	4b39      	ldr	r3, [pc, #228]	; (3334 <DxGoHome()+0x1c94>)
    3250:	9a02      	ldr	r2, [sp, #8]
    3252:	4293      	cmp	r3, r2
    3254:	f47f af51 	bne.w	30fa <DxGoHome()+0x1a5a>
    3258:	9f05      	ldr	r7, [sp, #20]
    325a:	2301      	movs	r3, #1
    325c:	f8c8 7600 	str.w	r7, [r8, #1536]	; 0x600
    3260:	f8c8 7604 	str.w	r7, [r8, #1540]	; 0x604
    3264:	f888 35fc 	strb.w	r3, [r8, #1532]	; 0x5fc
    3268:	f7fe bfe4 	b.w	2234 <DxGoHome()+0xb94>
    326c:	4798      	blx	r3
    326e:	4606      	mov	r6, r0
    3270:	e761      	b.n	3136 <DxGoHome()+0x1a96>
    3272:	4790      	blx	r2
    3274:	9b02      	ldr	r3, [sp, #8]
    3276:	9003      	str	r0, [sp, #12]
    3278:	6818      	ldr	r0, [r3, #0]
    327a:	6803      	ldr	r3, [r0, #0]
    327c:	e755      	b.n	312a <DxGoHome()+0x1a8a>
    327e:	4790      	blx	r2
    3280:	9b02      	ldr	r3, [sp, #8]
    3282:	4607      	mov	r7, r0
    3284:	6818      	ldr	r0, [r3, #0]
    3286:	6803      	ldr	r3, [r0, #0]
    3288:	e748      	b.n	311c <DxGoHome()+0x1a7c>
    328a:	492b      	ldr	r1, [pc, #172]	; (3338 <DxGoHome()+0x1c98>)
    328c:	482b      	ldr	r0, [pc, #172]	; (333c <DxGoHome()+0x1c9c>)
    328e:	2303      	movs	r3, #3
    3290:	910b      	str	r1, [sp, #44]	; 0x2c
    3292:	900d      	str	r0, [sp, #52]	; 0x34
    3294:	9a04      	ldr	r2, [sp, #16]
    3296:	2107      	movs	r1, #7
    3298:	4829      	ldr	r0, [pc, #164]	; (3340 <DxGoHome()+0x1ca0>)
    329a:	f88d 3030 	strb.w	r3, [sp, #48]	; 0x30
    329e:	f7fd ff19 	bl	10d4 <ros::NodeHandle_<MbedHardware, 25, 25, 512, 512>::publish(int, ros::Msg const*)>
    32a2:	e7d4      	b.n	324e <DxGoHome()+0x1bae>
    32a4:	4798      	blx	r3
    32a6:	4607      	mov	r7, r0
    32a8:	e58b      	b.n	2dc2 <DxGoHome()+0x1722>
    32aa:	4790      	blx	r2
    32ac:	9b02      	ldr	r3, [sp, #8]
    32ae:	9003      	str	r0, [sp, #12]
    32b0:	6818      	ldr	r0, [r3, #0]
    32b2:	6803      	ldr	r3, [r0, #0]
    32b4:	e57f      	b.n	2db6 <DxGoHome()+0x1716>
    32b6:	4790      	blx	r2
    32b8:	9b02      	ldr	r3, [sp, #8]
    32ba:	4680      	mov	r8, r0
    32bc:	6818      	ldr	r0, [r3, #0]
    32be:	6803      	ldr	r3, [r0, #0]
    32c0:	e572      	b.n	2da8 <DxGoHome()+0x1708>
    32c2:	491d      	ldr	r1, [pc, #116]	; (3338 <DxGoHome()+0x1c98>)
    32c4:	481d      	ldr	r0, [pc, #116]	; (333c <DxGoHome()+0x1c9c>)
    32c6:	2303      	movs	r3, #3
    32c8:	910b      	str	r1, [sp, #44]	; 0x2c
    32ca:	900d      	str	r0, [sp, #52]	; 0x34
    32cc:	9a04      	ldr	r2, [sp, #16]
    32ce:	2107      	movs	r1, #7
    32d0:	481b      	ldr	r0, [pc, #108]	; (3340 <DxGoHome()+0x1ca0>)
    32d2:	f88d 3030 	strb.w	r3, [sp, #48]	; 0x30
    32d6:	f7fd fefd 	bl	10d4 <ros::NodeHandle_<MbedHardware, 25, 25, 512, 512>::publish(int, ros::Msg const*)>
    32da:	e601      	b.n	2ee0 <DxGoHome()+0x1840>
    32dc:	4916      	ldr	r1, [pc, #88]	; (3338 <DxGoHome()+0x1c98>)
    32de:	4817      	ldr	r0, [pc, #92]	; (333c <DxGoHome()+0x1c9c>)
    32e0:	2303      	movs	r3, #3
    32e2:	910b      	str	r1, [sp, #44]	; 0x2c
    32e4:	900d      	str	r0, [sp, #52]	; 0x34
    32e6:	4632      	mov	r2, r6
    32e8:	2107      	movs	r1, #7
    32ea:	4815      	ldr	r0, [pc, #84]	; (3340 <DxGoHome()+0x1ca0>)
    32ec:	f88d 3030 	strb.w	r3, [sp, #48]	; 0x30
    32f0:	f7fd fef0 	bl	10d4 <ros::NodeHandle_<MbedHardware, 25, 25, 512, 512>::publish(int, ros::Msg const*)>
    32f4:	e6fa      	b.n	30ec <DxGoHome()+0x1a4c>
    32f6:	4910      	ldr	r1, [pc, #64]	; (3338 <DxGoHome()+0x1c98>)
    32f8:	4810      	ldr	r0, [pc, #64]	; (333c <DxGoHome()+0x1c9c>)
    32fa:	2303      	movs	r3, #3
    32fc:	910b      	str	r1, [sp, #44]	; 0x2c
    32fe:	900d      	str	r0, [sp, #52]	; 0x34
    3300:	463a      	mov	r2, r7
    3302:	2107      	movs	r1, #7
    3304:	480e      	ldr	r0, [pc, #56]	; (3340 <DxGoHome()+0x1ca0>)
    3306:	f88d 3030 	strb.w	r3, [sp, #48]	; 0x30
    330a:	f7fd fee3 	bl	10d4 <ros::NodeHandle_<MbedHardware, 25, 25, 512, 512>::publish(int, ros::Msg const*)>
    330e:	e530      	b.n	2d72 <DxGoHome()+0x16d2>
    3310:	1000056f 	.word	0x1000056f
    3314:	10000294 	.word	0x10000294
    3318:	000002a1 	.word	0x000002a1
    331c:	0000af8c 	.word	0x0000af8c
    3320:	000002a9 	.word	0x000002a9
    3324:	0000afa8 	.word	0x0000afa8
    3328:	0000029d 	.word	0x0000029d
    332c:	10000579 	.word	0x10000579
    3330:	10000577 	.word	0x10000577
    3334:	10000834 	.word	0x10000834
    3338:	0000ad84 	.word	0x0000ad84
    333c:	0000b00c 	.word	0x0000b00c
    3340:	10000250 	.word	0x10000250

00003344 <ros::NodeHandle_<MbedHardware, 25, 25, 512, 512>::negotiateTopics()>:
    3344:	e92d 4ff0 	stmdb	sp!, {r4, r5, r6, r7, r8, r9, r10, r11, lr}
    3348:	4607      	mov	r7, r0
    334a:	4bc1      	ldr	r3, [pc, #772]	; (3650 <ros::NodeHandle_<MbedHardware, 25, 25, 512, 512>::negotiateTopics()+0x30c>)
    334c:	49c1      	ldr	r1, [pc, #772]	; (3654 <ros::NodeHandle_<MbedHardware, 25, 25, 512, 512>::negotiateTopics()+0x310>)
    334e:	b091      	sub	sp, #68	; 0x44
    3350:	2200      	movs	r2, #0
    3352:	f500 68b0 	add.w	r8, r0, #1408	; 0x580
    3356:	f200 5b1c 	addw	r11, r0, #1308	; 0x51c
    335a:	910a      	str	r1, [sp, #40]	; 0x28
    335c:	930c      	str	r3, [sp, #48]	; 0x30
    335e:	930d      	str	r3, [sp, #52]	; 0x34
    3360:	930e      	str	r3, [sp, #56]	; 0x38
    3362:	f8ad 202c 	strh.w	r2, [sp, #44]	; 0x2c
    3366:	920f      	str	r2, [sp, #60]	; 0x3c
    3368:	f8cd 8004 	str.w	r8, [sp, #4]
    336c:	f85b 3f04 	ldr.w	r3, [r11, #4]!
    3370:	2b00      	cmp	r3, #0
    3372:	f000 80bd 	beq.w	34f0 <ros::NodeHandle_<MbedHardware, 25, 25, 512, 512>::negotiateTopics()+0x1ac>
    3376:	6858      	ldr	r0, [r3, #4]
    3378:	681c      	ldr	r4, [r3, #0]
    337a:	6801      	ldr	r1, [r0, #0]
    337c:	689a      	ldr	r2, [r3, #8]
    337e:	940c      	str	r4, [sp, #48]	; 0x30
    3380:	688b      	ldr	r3, [r1, #8]
    3382:	f8ad 202c 	strh.w	r2, [sp, #44]	; 0x2c
    3386:	4798      	blx	r3
    3388:	f8db 3000 	ldr.w	r3, [r11]
    338c:	900d      	str	r0, [sp, #52]	; 0x34
    338e:	6858      	ldr	r0, [r3, #4]
    3390:	6803      	ldr	r3, [r0, #0]
    3392:	68db      	ldr	r3, [r3, #12]
    3394:	4798      	blx	r3
    3396:	683b      	ldr	r3, [r7, #0]
    3398:	f8db 1000 	ldr.w	r1, [r11]
    339c:	f44f 7200 	mov.w	r2, #512	; 0x200
    33a0:	900e      	str	r0, [sp, #56]	; 0x38
    33a2:	681b      	ldr	r3, [r3, #0]
    33a4:	690e      	ldr	r6, [r1, #16]
    33a6:	920f      	str	r2, [sp, #60]	; 0x3c
    33a8:	4aab      	ldr	r2, [pc, #684]	; (3658 <ros::NodeHandle_<MbedHardware, 25, 25, 512, 512>::negotiateTopics()+0x314>)
    33aa:	4681      	mov	r9, r0
    33ac:	4293      	cmp	r3, r2
    33ae:	f040 818b 	bne.w	36c8 <ros::NodeHandle_<MbedHardware, 25, 25, 512, 512>::negotiateTopics()+0x384>
    33b2:	2e63      	cmp	r6, #99	; 0x63
    33b4:	dd04      	ble.n	33c0 <ros::NodeHandle_<MbedHardware, 25, 25, 512, 512>::negotiateTopics()+0x7c>
    33b6:	f897 35fc 	ldrb.w	r3, [r7, #1532]	; 0x5fc
    33ba:	2b00      	cmp	r3, #0
    33bc:	f000 8098 	beq.w	34f0 <ros::NodeHandle_<MbedHardware, 25, 25, 512, 512>::negotiateTopics()+0x1ac>
    33c0:	f8bd 302c 	ldrh.w	r3, [sp, #44]	; 0x2c
    33c4:	9d0c      	ldr	r5, [sp, #48]	; 0x30
    33c6:	0a1a      	lsrs	r2, r3, #8
    33c8:	f887 3327 	strb.w	r3, [r7, #807]	; 0x327
    33cc:	f887 2328 	strb.w	r2, [r7, #808]	; 0x328
    33d0:	4628      	mov	r0, r5
    33d2:	f006 fecc 	bl	a16e <strlen>
    33d6:	4604      	mov	r4, r0
    33d8:	ab10      	add	r3, sp, #64	; 0x40
    33da:	f843 0d2c 	str.w	r0, [r3, #-44]!
    33de:	6818      	ldr	r0, [r3, #0]
    33e0:	4629      	mov	r1, r5
    33e2:	4622      	mov	r2, r4
    33e4:	f8c7 0329 	str.w	r0, [r7, #809]	; 0x329
    33e8:	f207 302d 	addw	r0, r7, #813	; 0x32d
    33ec:	f005 ff38 	bl	9260 <memcpy>
    33f0:	9d0d      	ldr	r5, [sp, #52]	; 0x34
    33f2:	ab10      	add	r3, sp, #64	; 0x40
    33f4:	4628      	mov	r0, r5
    33f6:	9300      	str	r3, [sp, #0]
    33f8:	f006 feb9 	bl	a16e <strlen>
    33fc:	f207 3e27 	addw	lr, r7, #807	; 0x327
    3400:	4603      	mov	r3, r0
    3402:	4629      	mov	r1, r5
    3404:	4675      	mov	r5, lr
    3406:	9a00      	ldr	r2, [sp, #0]
    3408:	9006      	str	r0, [sp, #24]
    340a:	f852 0d28 	ldr.w	r0, [r2, #-40]!
    340e:	9302      	str	r3, [sp, #8]
    3410:	9200      	str	r2, [sp, #0]
    3412:	1da2      	adds	r2, r4, #6
    3414:	340a      	adds	r4, #10
    3416:	f84e 0002 	str.w	r0, [lr, r2]
    341a:	461a      	mov	r2, r3
    341c:	1928      	adds	r0, r5, r4
    341e:	f005 ff1f 	bl	9260 <memcpy>
    3422:	4648      	mov	r0, r9
    3424:	f006 fea3 	bl	a16e <strlen>
    3428:	4682      	mov	r10, r0
    342a:	9b02      	ldr	r3, [sp, #8]
    342c:	9007      	str	r0, [sp, #28]
    342e:	f10d 0840 	add.w	r8, sp, #64	; 0x40
    3432:	4423      	add	r3, r4
    3434:	f858 0d24 	ldr.w	r0, [r8, #-36]!
    3438:	1d1c      	adds	r4, r3, #4
    343a:	50e8      	str	r0, [r5, r3]
    343c:	4649      	mov	r1, r9
    343e:	4652      	mov	r2, r10
    3440:	1928      	adds	r0, r5, r4
    3442:	f005 ff0d 	bl	9260 <memcpy>
    3446:	eb0a 0004 	add.w	r0, r10, r4
    344a:	1d01      	adds	r1, r0, #4
    344c:	fa5f fa81 	uxtb.w	r10, r1
    3450:	f3c1 2907 	ubfx	r9, r1, #8, #8
    3454:	eb0a 0e09 	add.w	lr, r10, r9
    3458:	ea6f 0e0e 	mvn.w	lr, lr
    345c:	2400      	movs	r4, #0
    345e:	542c      	strb	r4, [r5, r0]
    3460:	eb05 0c00 	add.w	r12, r5, r0
    3464:	b289      	uxth	r1, r1
    3466:	2002      	movs	r0, #2
    3468:	f88c 4002 	strb.w	r4, [r12, #2]
    346c:	f88c 4003 	strb.w	r4, [r12, #3]
    3470:	f88c 0001 	strb.w	r0, [r12, #1]
    3474:	f207 3325 	addw	r3, r7, #805	; 0x325
    3478:	4622      	mov	r2, r4
    347a:	f201 3026 	addw	r0, r1, #806	; 0x326
    347e:	24ff      	movs	r4, #255	; 0xff
    3480:	f887 e324 	strb.w	lr, [r7, #804]	; 0x324
    3484:	25fe      	movs	r5, #254	; 0xfe
    3486:	fa5f fe86 	uxtb.w	lr, r6
    348a:	f346 2607 	sbfx	r6, r6, #8, #8
    348e:	9302      	str	r3, [sp, #8]
    3490:	f887 a322 	strb.w	r10, [r7, #802]	; 0x322
    3494:	f887 9323 	strb.w	r9, [r7, #803]	; 0x323
    3498:	4438      	add	r0, r7
    349a:	f887 4320 	strb.w	r4, [r7, #800]	; 0x320
    349e:	f887 5321 	strb.w	r5, [r7, #801]	; 0x321
    34a2:	f887 e325 	strb.w	lr, [r7, #805]	; 0x325
    34a6:	f887 6326 	strb.w	r6, [r7, #806]	; 0x326
    34aa:	e001      	b.n	34b0 <ros::NodeHandle_<MbedHardware, 25, 25, 512, 512>::negotiateTopics()+0x16c>
    34ac:	f813 ef01 	ldrb.w	lr, [r3, #1]!
    34b0:	4298      	cmp	r0, r3
    34b2:	4472      	add	r2, lr
    34b4:	d1fa      	bne.n	34ac <ros::NodeHandle_<MbedHardware, 25, 25, 512, 512>::negotiateTopics()+0x168>
    34b6:	43d2      	mvns	r2, r2
    34b8:	1dc8      	adds	r0, r1, #7
    34ba:	f101 0308 	add.w	r3, r1, #8
    34be:	b280      	uxth	r0, r0
    34c0:	b29b      	uxth	r3, r3
    34c2:	1839      	adds	r1, r7, r0
    34c4:	f5b3 7f00 	cmp.w	r3, #512	; 0x200
    34c8:	f881 2320 	strb.w	r2, [r1, #800]	; 0x320
    34cc:	f200 811d 	bhi.w	370a <ros::NodeHandle_<MbedHardware, 25, 25, 512, 512>::negotiateTopics()+0x3c6>
    34d0:	f507 7548 	add.w	r5, r7, #800	; 0x320
    34d4:	b163      	cbz	r3, 34f0 <ros::NodeHandle_<MbedHardware, 25, 25, 512, 512>::negotiateTopics()+0x1ac>
    34d6:	3b01      	subs	r3, #1
    34d8:	441d      	add	r5, r3
    34da:	f107 0644 	add.w	r6, r7, #68	; 0x44
    34de:	f207 341f 	addw	r4, r7, #799	; 0x31f
    34e2:	f814 1f01 	ldrb.w	r1, [r4, #1]!
    34e6:	4630      	mov	r0, r6
    34e8:	f004 f98c 	bl	7804 <mbed::Stream::putc(int)>
    34ec:	42a5      	cmp	r5, r4
    34ee:	d1f8      	bne.n	34e2 <ros::NodeHandle_<MbedHardware, 25, 25, 512, 512>::negotiateTopics()+0x19e>
    34f0:	9b01      	ldr	r3, [sp, #4]
    34f2:	459b      	cmp	r11, r3
    34f4:	f47f af3a 	bne.w	336c <ros::NodeHandle_<MbedHardware, 25, 25, 512, 512>::negotiateTopics()+0x28>
    34f8:	4698      	mov	r8, r3
    34fa:	f207 53e4 	addw	r3, r7, #1508	; 0x5e4
    34fe:	9301      	str	r3, [sp, #4]
    3500:	f858 0f04 	ldr.w	r0, [r8, #4]!
    3504:	2800      	cmp	r0, #0
    3506:	f000 80d5 	beq.w	36b4 <ros::NodeHandle_<MbedHardware, 25, 25, 512, 512>::negotiateTopics()+0x370>
    350a:	6882      	ldr	r2, [r0, #8]
    350c:	6803      	ldr	r3, [r0, #0]
    350e:	6841      	ldr	r1, [r0, #4]
    3510:	920c      	str	r2, [sp, #48]	; 0x30
    3512:	689a      	ldr	r2, [r3, #8]
    3514:	f8ad 102c 	strh.w	r1, [sp, #44]	; 0x2c
    3518:	4950      	ldr	r1, [pc, #320]	; (365c <ros::NodeHandle_<MbedHardware, 25, 25, 512, 512>::negotiateTopics()+0x318>)
    351a:	428a      	cmp	r2, r1
    351c:	f040 80ef 	bne.w	36fe <ros::NodeHandle_<MbedHardware, 25, 25, 512, 512>::negotiateTopics()+0x3ba>
    3520:	4a4f      	ldr	r2, [pc, #316]	; (3660 <ros::NodeHandle_<MbedHardware, 25, 25, 512, 512>::negotiateTopics()+0x31c>)
    3522:	920d      	str	r2, [sp, #52]	; 0x34
    3524:	68da      	ldr	r2, [r3, #12]
    3526:	494f      	ldr	r1, [pc, #316]	; (3664 <ros::NodeHandle_<MbedHardware, 25, 25, 512, 512>::negotiateTopics()+0x320>)
    3528:	428a      	cmp	r2, r1
    352a:	f040 80e2 	bne.w	36f2 <ros::NodeHandle_<MbedHardware, 25, 25, 512, 512>::negotiateTopics()+0x3ae>
    352e:	4a4e      	ldr	r2, [pc, #312]	; (3668 <ros::NodeHandle_<MbedHardware, 25, 25, 512, 512>::negotiateTopics()+0x324>)
    3530:	6839      	ldr	r1, [r7, #0]
    3532:	920e      	str	r2, [sp, #56]	; 0x38
    3534:	f44f 7200 	mov.w	r2, #512	; 0x200
    3538:	685b      	ldr	r3, [r3, #4]
    353a:	680c      	ldr	r4, [r1, #0]
    353c:	920f      	str	r2, [sp, #60]	; 0x3c
    353e:	4a4b      	ldr	r2, [pc, #300]	; (366c <ros::NodeHandle_<MbedHardware, 25, 25, 512, 512>::negotiateTopics()+0x328>)
    3540:	4293      	cmp	r3, r2
    3542:	f040 80d3 	bne.w	36ec <ros::NodeHandle_<MbedHardware, 25, 25, 512, 512>::negotiateTopics()+0x3a8>
    3546:	6bc6      	ldr	r6, [r0, #60]	; 0x3c
    3548:	f8df a10c 	ldr.w	r10, [pc, #268]	; 3658 <ros::NodeHandle_<MbedHardware, 25, 25, 512, 512>::negotiateTopics()+0x314>
    354c:	4554      	cmp	r4, r10
    354e:	f040 80c4 	bne.w	36da <ros::NodeHandle_<MbedHardware, 25, 25, 512, 512>::negotiateTopics()+0x396>
    3552:	2e63      	cmp	r6, #99	; 0x63
    3554:	dd04      	ble.n	3560 <ros::NodeHandle_<MbedHardware, 25, 25, 512, 512>::negotiateTopics()+0x21c>
    3556:	f897 35fc 	ldrb.w	r3, [r7, #1532]	; 0x5fc
    355a:	2b00      	cmp	r3, #0
    355c:	f000 80aa 	beq.w	36b4 <ros::NodeHandle_<MbedHardware, 25, 25, 512, 512>::negotiateTopics()+0x370>
    3560:	f8bd 302c 	ldrh.w	r3, [sp, #44]	; 0x2c
    3564:	9d0c      	ldr	r5, [sp, #48]	; 0x30
    3566:	0a1a      	lsrs	r2, r3, #8
    3568:	f887 3327 	strb.w	r3, [r7, #807]	; 0x327
    356c:	f887 2328 	strb.w	r2, [r7, #808]	; 0x328
    3570:	4628      	mov	r0, r5
    3572:	f006 fdfc 	bl	a16e <strlen>
    3576:	4604      	mov	r4, r0
    3578:	ab10      	add	r3, sp, #64	; 0x40
    357a:	f843 0d2c 	str.w	r0, [r3, #-44]!
    357e:	6818      	ldr	r0, [r3, #0]
    3580:	4629      	mov	r1, r5
    3582:	4622      	mov	r2, r4
    3584:	f8c7 0329 	str.w	r0, [r7, #809]	; 0x329
    3588:	f207 302d 	addw	r0, r7, #813	; 0x32d
    358c:	f005 fe68 	bl	9260 <memcpy>
    3590:	9d0d      	ldr	r5, [sp, #52]	; 0x34
    3592:	ab10      	add	r3, sp, #64	; 0x40
    3594:	4628      	mov	r0, r5
    3596:	9300      	str	r3, [sp, #0]
    3598:	f006 fde9 	bl	a16e <strlen>
    359c:	f207 3e27 	addw	lr, r7, #807	; 0x327
    35a0:	4603      	mov	r3, r0
    35a2:	4629      	mov	r1, r5
    35a4:	4675      	mov	r5, lr
    35a6:	9a00      	ldr	r2, [sp, #0]
    35a8:	9006      	str	r0, [sp, #24]
    35aa:	f852 0d28 	ldr.w	r0, [r2, #-40]!
    35ae:	9303      	str	r3, [sp, #12]
    35b0:	9200      	str	r2, [sp, #0]
    35b2:	1da2      	adds	r2, r4, #6
    35b4:	340a      	adds	r4, #10
    35b6:	f84e 0002 	str.w	r0, [lr, r2]
    35ba:	461a      	mov	r2, r3
    35bc:	1928      	adds	r0, r5, r4
    35be:	f005 fe4f 	bl	9260 <memcpy>
    35c2:	990e      	ldr	r1, [sp, #56]	; 0x38
    35c4:	f10d 0940 	add.w	r9, sp, #64	; 0x40
    35c8:	4608      	mov	r0, r1
    35ca:	9102      	str	r1, [sp, #8]
    35cc:	f006 fdcf 	bl	a16e <strlen>
    35d0:	4683      	mov	r11, r0
    35d2:	9b03      	ldr	r3, [sp, #12]
    35d4:	9007      	str	r0, [sp, #28]
    35d6:	4423      	add	r3, r4
    35d8:	f859 0d24 	ldr.w	r0, [r9, #-36]!
    35dc:	1d1c      	adds	r4, r3, #4
    35de:	50e8      	str	r0, [r5, r3]
    35e0:	465a      	mov	r2, r11
    35e2:	1928      	adds	r0, r5, r4
    35e4:	9902      	ldr	r1, [sp, #8]
    35e6:	f005 fe3b 	bl	9260 <memcpy>
    35ea:	eb0b 0004 	add.w	r0, r11, r4
    35ee:	1d02      	adds	r2, r0, #4
    35f0:	fa5f fb82 	uxtb.w	r11, r2
    35f4:	f3c2 2c07 	ubfx	r12, r2, #8, #8
    35f8:	eb0b 040c 	add.w	r4, r11, r12
    35fc:	43e4      	mvns	r4, r4
    35fe:	990f      	ldr	r1, [sp, #60]	; 0x3c
    3600:	eb05 0e00 	add.w	lr, r5, r0
    3604:	5429      	strb	r1, [r5, r0]
    3606:	0a08      	lsrs	r0, r1, #8
    3608:	f88e 0001 	strb.w	r0, [lr, #1]
    360c:	b292      	uxth	r2, r2
    360e:	0c08      	lsrs	r0, r1, #16
    3610:	0e09      	lsrs	r1, r1, #24
    3612:	f88e 0002 	strb.w	r0, [lr, #2]
    3616:	f88e 1003 	strb.w	r1, [lr, #3]
    361a:	f207 3325 	addw	r3, r7, #805	; 0x325
    361e:	21fe      	movs	r1, #254	; 0xfe
    3620:	f202 3026 	addw	r0, r2, #806	; 0x326
    3624:	25ff      	movs	r5, #255	; 0xff
    3626:	f887 4324 	strb.w	r4, [r7, #804]	; 0x324
    362a:	b2f4      	uxtb	r4, r6
    362c:	f346 2607 	sbfx	r6, r6, #8, #8
    3630:	f887 1321 	strb.w	r1, [r7, #801]	; 0x321
    3634:	9302      	str	r3, [sp, #8]
    3636:	f887 b322 	strb.w	r11, [r7, #802]	; 0x322
    363a:	f887 c323 	strb.w	r12, [r7, #803]	; 0x323
    363e:	4438      	add	r0, r7
    3640:	f887 5320 	strb.w	r5, [r7, #800]	; 0x320
    3644:	f887 4325 	strb.w	r4, [r7, #805]	; 0x325
    3648:	f887 6326 	strb.w	r6, [r7, #806]	; 0x326
    364c:	2100      	movs	r1, #0
    364e:	e011      	b.n	3674 <ros::NodeHandle_<MbedHardware, 25, 25, 512, 512>::negotiateTopics()+0x330>
    3650:	0000b044 	.word	0x0000b044
    3654:	0000ad6c 	.word	0x0000ad6c
    3658:	000010d5 	.word	0x000010d5
    365c:	000002a1 	.word	0x000002a1
    3660:	0000af8c 	.word	0x0000af8c
    3664:	000002a9 	.word	0x000002a9
    3668:	0000afa8 	.word	0x0000afa8
    366c:	0000029d 	.word	0x0000029d
    3670:	f813 4f01 	ldrb.w	r4, [r3, #1]!
    3674:	4298      	cmp	r0, r3
    3676:	4421      	add	r1, r4
    3678:	d1fa      	bne.n	3670 <ros::NodeHandle_<MbedHardware, 25, 25, 512, 512>::negotiateTopics()+0x32c>
    367a:	43c9      	mvns	r1, r1
    367c:	1dd0      	adds	r0, r2, #7
    367e:	f102 0308 	add.w	r3, r2, #8
    3682:	b280      	uxth	r0, r0
    3684:	b29b      	uxth	r3, r3
    3686:	183a      	adds	r2, r7, r0
    3688:	f5b3 7f00 	cmp.w	r3, #512	; 0x200
    368c:	f882 1320 	strb.w	r1, [r2, #800]	; 0x320
    3690:	f200 8099 	bhi.w	37c6 <ros::NodeHandle_<MbedHardware, 25, 25, 512, 512>::negotiateTopics()+0x482>
    3694:	f507 7548 	add.w	r5, r7, #800	; 0x320
    3698:	b163      	cbz	r3, 36b4 <ros::NodeHandle_<MbedHardware, 25, 25, 512, 512>::negotiateTopics()+0x370>
    369a:	3b01      	subs	r3, #1
    369c:	441d      	add	r5, r3
    369e:	f107 0644 	add.w	r6, r7, #68	; 0x44
    36a2:	f207 341f 	addw	r4, r7, #799	; 0x31f
    36a6:	f814 1f01 	ldrb.w	r1, [r4, #1]!
    36aa:	4630      	mov	r0, r6
    36ac:	f004 f8aa 	bl	7804 <mbed::Stream::putc(int)>
    36b0:	42a5      	cmp	r5, r4
    36b2:	d1f8      	bne.n	36a6 <ros::NodeHandle_<MbedHardware, 25, 25, 512, 512>::negotiateTopics()+0x362>
    36b4:	9b01      	ldr	r3, [sp, #4]
    36b6:	4543      	cmp	r3, r8
    36b8:	f47f af22 	bne.w	3500 <ros::NodeHandle_<MbedHardware, 25, 25, 512, 512>::negotiateTopics()+0x1bc>
    36bc:	2301      	movs	r3, #1
    36be:	f887 35fc 	strb.w	r3, [r7, #1532]	; 0x5fc
    36c2:	b011      	add	sp, #68	; 0x44
    36c4:	e8bd 8ff0 	ldmia.w	sp!, {r4, r5, r6, r7, r8, r9, r10, r11, pc}
    36c8:	4631      	mov	r1, r6
    36ca:	aa0a      	add	r2, sp, #40	; 0x28
    36cc:	4638      	mov	r0, r7
    36ce:	4798      	blx	r3
    36d0:	9b01      	ldr	r3, [sp, #4]
    36d2:	459b      	cmp	r11, r3
    36d4:	f47f ae4a 	bne.w	336c <ros::NodeHandle_<MbedHardware, 25, 25, 512, 512>::negotiateTopics()+0x28>
    36d8:	e70e      	b.n	34f8 <ros::NodeHandle_<MbedHardware, 25, 25, 512, 512>::negotiateTopics()+0x1b4>
    36da:	4631      	mov	r1, r6
    36dc:	aa0a      	add	r2, sp, #40	; 0x28
    36de:	4638      	mov	r0, r7
    36e0:	47a0      	blx	r4
    36e2:	9b01      	ldr	r3, [sp, #4]
    36e4:	4543      	cmp	r3, r8
    36e6:	f47f af0b 	bne.w	3500 <ros::NodeHandle_<MbedHardware, 25, 25, 512, 512>::negotiateTopics()+0x1bc>
    36ea:	e7e7      	b.n	36bc <ros::NodeHandle_<MbedHardware, 25, 25, 512, 512>::negotiateTopics()+0x378>
    36ec:	4798      	blx	r3
    36ee:	4606      	mov	r6, r0
    36f0:	e72a      	b.n	3548 <ros::NodeHandle_<MbedHardware, 25, 25, 512, 512>::negotiateTopics()+0x204>
    36f2:	4790      	blx	r2
    36f4:	4602      	mov	r2, r0
    36f6:	f8d8 0000 	ldr.w	r0, [r8]
    36fa:	6803      	ldr	r3, [r0, #0]
    36fc:	e718      	b.n	3530 <ros::NodeHandle_<MbedHardware, 25, 25, 512, 512>::negotiateTopics()+0x1ec>
    36fe:	4790      	blx	r2
    3700:	4602      	mov	r2, r0
    3702:	f8d8 0000 	ldr.w	r0, [r8]
    3706:	6803      	ldr	r3, [r0, #0]
    3708:	e70b      	b.n	3522 <ros::NodeHandle_<MbedHardware, 25, 25, 512, 512>::negotiateTopics()+0x1de>
    370a:	4961      	ldr	r1, [pc, #388]	; (3890 <ros::NodeHandle_<MbedHardware, 25, 25, 512, 512>::negotiateTopics()+0x54c>)
    370c:	2203      	movs	r2, #3
    370e:	9107      	str	r1, [sp, #28]
    3710:	4960      	ldr	r1, [pc, #384]	; (3894 <ros::NodeHandle_<MbedHardware, 25, 25, 512, 512>::negotiateTopics()+0x550>)
    3712:	683b      	ldr	r3, [r7, #0]
    3714:	9109      	str	r1, [sp, #36]	; 0x24
    3716:	f88d 2020 	strb.w	r2, [sp, #32]
    371a:	681b      	ldr	r3, [r3, #0]
    371c:	495e      	ldr	r1, [pc, #376]	; (3898 <ros::NodeHandle_<MbedHardware, 25, 25, 512, 512>::negotiateTopics()+0x554>)
    371e:	428b      	cmp	r3, r1
    3720:	f040 80ac 	bne.w	387c <ros::NodeHandle_<MbedHardware, 25, 25, 512, 512>::negotiateTopics()+0x538>
    3724:	2338      	movs	r3, #56	; 0x38
    3726:	9306      	str	r3, [sp, #24]
    3728:	9b00      	ldr	r3, [sp, #0]
    372a:	4c5a      	ldr	r4, [pc, #360]	; (3894 <ros::NodeHandle_<MbedHardware, 25, 25, 512, 512>::negotiateTopics()+0x550>)
    372c:	6818      	ldr	r0, [r3, #0]
    372e:	f887 2327 	strb.w	r2, [r7, #807]	; 0x327
    3732:	f8c7 0328 	str.w	r0, [r7, #808]	; 0x328
    3736:	f104 0e30 	add.w	lr, r4, #48	; 0x30
    373a:	f507 754b 	add.w	r5, r7, #812	; 0x32c
    373e:	4626      	mov	r6, r4
    3740:	ce0f      	ldmia	r6!, {r0, r1, r2, r3}
    3742:	4576      	cmp	r6, lr
    3744:	6028      	str	r0, [r5, #0]
    3746:	6069      	str	r1, [r5, #4]
    3748:	60aa      	str	r2, [r5, #8]
    374a:	60eb      	str	r3, [r5, #12]
    374c:	f104 0410 	add.w	r4, r4, #16
    3750:	f105 0510 	add.w	r5, r5, #16
    3754:	d1f3      	bne.n	373e <ros::NodeHandle_<MbedHardware, 25, 25, 512, 512>::negotiateTopics()+0x3fa>
    3756:	cc03      	ldmia	r4!, {r0, r1}
    3758:	9b02      	ldr	r3, [sp, #8]
    375a:	6028      	str	r0, [r5, #0]
    375c:	6069      	str	r1, [r5, #4]
    375e:	20ff      	movs	r0, #255	; 0xff
    3760:	21fe      	movs	r1, #254	; 0xfe
    3762:	2600      	movs	r6, #0
    3764:	f04f 0e07 	mov.w	lr, #7
    3768:	f887 0320 	strb.w	r0, [r7, #800]	; 0x320
    376c:	f887 1321 	strb.w	r1, [r7, #801]	; 0x321
    3770:	203d      	movs	r0, #61	; 0x3d
    3772:	21c2      	movs	r1, #194	; 0xc2
    3774:	f887 1324 	strb.w	r1, [r7, #804]	; 0x324
    3778:	4632      	mov	r2, r6
    377a:	4674      	mov	r4, lr
    377c:	f887 6323 	strb.w	r6, [r7, #803]	; 0x323
    3780:	f887 6326 	strb.w	r6, [r7, #806]	; 0x326
    3784:	f887 e325 	strb.w	lr, [r7, #805]	; 0x325
    3788:	f887 0322 	strb.w	r0, [r7, #802]	; 0x322
    378c:	f207 3163 	addw	r1, r7, #867	; 0x363
    3790:	e001      	b.n	3796 <ros::NodeHandle_<MbedHardware, 25, 25, 512, 512>::negotiateTopics()+0x452>
    3792:	f813 4f01 	ldrb.w	r4, [r3, #1]!
    3796:	4299      	cmp	r1, r3
    3798:	4422      	add	r2, r4
    379a:	d1fa      	bne.n	3792 <ros::NodeHandle_<MbedHardware, 25, 25, 512, 512>::negotiateTopics()+0x44e>
    379c:	43d2      	mvns	r2, r2
    379e:	f107 0644 	add.w	r6, r7, #68	; 0x44
    37a2:	f887 2364 	strb.w	r2, [r7, #868]	; 0x364
    37a6:	f207 341f 	addw	r4, r7, #799	; 0x31f
    37aa:	f507 7559 	add.w	r5, r7, #868	; 0x364
    37ae:	f814 1f01 	ldrb.w	r1, [r4, #1]!
    37b2:	4630      	mov	r0, r6
    37b4:	f004 f826 	bl	7804 <mbed::Stream::putc(int)>
    37b8:	42ac      	cmp	r4, r5
    37ba:	d1f8      	bne.n	37ae <ros::NodeHandle_<MbedHardware, 25, 25, 512, 512>::negotiateTopics()+0x46a>
    37bc:	9b01      	ldr	r3, [sp, #4]
    37be:	459b      	cmp	r11, r3
    37c0:	f47f add4 	bne.w	336c <ros::NodeHandle_<MbedHardware, 25, 25, 512, 512>::negotiateTopics()+0x28>
    37c4:	e698      	b.n	34f8 <ros::NodeHandle_<MbedHardware, 25, 25, 512, 512>::negotiateTopics()+0x1b4>
    37c6:	4932      	ldr	r1, [pc, #200]	; (3890 <ros::NodeHandle_<MbedHardware, 25, 25, 512, 512>::negotiateTopics()+0x54c>)
    37c8:	4c32      	ldr	r4, [pc, #200]	; (3894 <ros::NodeHandle_<MbedHardware, 25, 25, 512, 512>::negotiateTopics()+0x550>)
    37ca:	2203      	movs	r2, #3
    37cc:	683b      	ldr	r3, [r7, #0]
    37ce:	9107      	str	r1, [sp, #28]
    37d0:	9409      	str	r4, [sp, #36]	; 0x24
    37d2:	f88d 2020 	strb.w	r2, [sp, #32]
    37d6:	681b      	ldr	r3, [r3, #0]
    37d8:	4553      	cmp	r3, r10
    37da:	d154      	bne.n	3886 <ros::NodeHandle_<MbedHardware, 25, 25, 512, 512>::negotiateTopics()+0x542>
    37dc:	2338      	movs	r3, #56	; 0x38
    37de:	9306      	str	r3, [sp, #24]
    37e0:	9b00      	ldr	r3, [sp, #0]
    37e2:	f887 2327 	strb.w	r2, [r7, #807]	; 0x327
    37e6:	6818      	ldr	r0, [r3, #0]
    37e8:	f104 0e30 	add.w	lr, r4, #48	; 0x30
    37ec:	f8c7 0328 	str.w	r0, [r7, #808]	; 0x328
    37f0:	f507 754b 	add.w	r5, r7, #812	; 0x32c
    37f4:	4626      	mov	r6, r4
    37f6:	ce0f      	ldmia	r6!, {r0, r1, r2, r3}
    37f8:	4576      	cmp	r6, lr
    37fa:	6028      	str	r0, [r5, #0]
    37fc:	6069      	str	r1, [r5, #4]
    37fe:	60aa      	str	r2, [r5, #8]
    3800:	60eb      	str	r3, [r5, #12]
    3802:	f104 0410 	add.w	r4, r4, #16
    3806:	f105 0510 	add.w	r5, r5, #16
    380a:	d1f3      	bne.n	37f4 <ros::NodeHandle_<MbedHardware, 25, 25, 512, 512>::negotiateTopics()+0x4b0>
    380c:	cc03      	ldmia	r4!, {r0, r1}
    380e:	9b02      	ldr	r3, [sp, #8]
    3810:	6028      	str	r0, [r5, #0]
    3812:	6069      	str	r1, [r5, #4]
    3814:	20ff      	movs	r0, #255	; 0xff
    3816:	21fe      	movs	r1, #254	; 0xfe
    3818:	2600      	movs	r6, #0
    381a:	f04f 0e07 	mov.w	lr, #7
    381e:	f887 0320 	strb.w	r0, [r7, #800]	; 0x320
    3822:	f887 1321 	strb.w	r1, [r7, #801]	; 0x321
    3826:	203d      	movs	r0, #61	; 0x3d
    3828:	21c2      	movs	r1, #194	; 0xc2
    382a:	f887 1324 	strb.w	r1, [r7, #804]	; 0x324
    382e:	4632      	mov	r2, r6
    3830:	4674      	mov	r4, lr
    3832:	f887 6323 	strb.w	r6, [r7, #803]	; 0x323
    3836:	f887 6326 	strb.w	r6, [r7, #806]	; 0x326
    383a:	f887 e325 	strb.w	lr, [r7, #805]	; 0x325
    383e:	f887 0322 	strb.w	r0, [r7, #802]	; 0x322
    3842:	f207 3163 	addw	r1, r7, #867	; 0x363
    3846:	e001      	b.n	384c <ros::NodeHandle_<MbedHardware, 25, 25, 512, 512>::negotiateTopics()+0x508>
    3848:	f813 4f01 	ldrb.w	r4, [r3, #1]!
    384c:	428b      	cmp	r3, r1
    384e:	4422      	add	r2, r4
    3850:	d1fa      	bne.n	3848 <ros::NodeHandle_<MbedHardware, 25, 25, 512, 512>::negotiateTopics()+0x504>
    3852:	43d2      	mvns	r2, r2
    3854:	f107 0644 	add.w	r6, r7, #68	; 0x44
    3858:	f887 2364 	strb.w	r2, [r7, #868]	; 0x364
    385c:	f207 341f 	addw	r4, r7, #799	; 0x31f
    3860:	f507 7559 	add.w	r5, r7, #868	; 0x364
    3864:	f814 1f01 	ldrb.w	r1, [r4, #1]!
    3868:	4630      	mov	r0, r6
    386a:	f003 ffcb 	bl	7804 <mbed::Stream::putc(int)>
    386e:	42a5      	cmp	r5, r4
    3870:	d1f8      	bne.n	3864 <ros::NodeHandle_<MbedHardware, 25, 25, 512, 512>::negotiateTopics()+0x520>
    3872:	9b01      	ldr	r3, [sp, #4]
    3874:	4543      	cmp	r3, r8
    3876:	f47f ae43 	bne.w	3500 <ros::NodeHandle_<MbedHardware, 25, 25, 512, 512>::negotiateTopics()+0x1bc>
    387a:	e71f      	b.n	36bc <ros::NodeHandle_<MbedHardware, 25, 25, 512, 512>::negotiateTopics()+0x378>
    387c:	4642      	mov	r2, r8
    387e:	2107      	movs	r1, #7
    3880:	4638      	mov	r0, r7
    3882:	4798      	blx	r3
    3884:	e634      	b.n	34f0 <ros::NodeHandle_<MbedHardware, 25, 25, 512, 512>::negotiateTopics()+0x1ac>
    3886:	464a      	mov	r2, r9
    3888:	2107      	movs	r1, #7
    388a:	4638      	mov	r0, r7
    388c:	4798      	blx	r3
    388e:	e711      	b.n	36b4 <ros::NodeHandle_<MbedHardware, 25, 25, 512, 512>::negotiateTopics()+0x370>
    3890:	0000ad84 	.word	0x0000ad84
    3894:	0000b00c 	.word	0x0000b00c
    3898:	000010d5 	.word	0x000010d5

0000389c <ros::NodeHandle_<MbedHardware, 25, 25, 512, 512>::spinOnce()>:
    389c:	e92d 4ff0 	stmdb	sp!, {r4, r5, r6, r7, r8, r9, r10, r11, lr}
    38a0:	4604      	mov	r4, r0
    38a2:	f500 7a82 	add.w	r10, r0, #260	; 0x104
    38a6:	b08b      	sub	sp, #44	; 0x2c
    38a8:	4650      	mov	r0, r10
    38aa:	f003 ffe5 	bl	7878 <mbed::Timer::read_ms()>
    38ae:	f642 22f8 	movw	r2, #11000	; 0x2af8
    38b2:	f8d4 3604 	ldr.w	r3, [r4, #1540]	; 0x604
    38b6:	4680      	mov	r8, r0
    38b8:	1ac3      	subs	r3, r0, r3
    38ba:	4293      	cmp	r3, r2
    38bc:	bf84      	itt	hi
    38be:	2300      	movhi	r3, #0
    38c0:	f884 35fc 	strbhi.w	r3, [r4, #1532]	; 0x5fc
    38c4:	f8d4 35e8 	ldr.w	r3, [r4, #1512]	; 0x5e8
    38c8:	b133      	cbz	r3, 38d8 <ros::NodeHandle_<MbedHardware, 25, 25, 512, 512>::spinOnce()+0x3c>
    38ca:	f8d4 3608 	ldr.w	r3, [r4, #1544]	; 0x608
    38ce:	4283      	cmp	r3, r0
    38d0:	bf3c      	itt	cc
    38d2:	2300      	movcc	r3, #0
    38d4:	f8c4 35e8 	strcc.w	r3, [r4, #1512]	; 0x5e8
    38d8:	f104 0b04 	add.w	r11, r4, #4
    38dc:	4658      	mov	r0, r11
    38de:	f002 fd03 	bl	62e8 <AjK::MODSERIAL::rxBufferEmpty()>
    38e2:	4605      	mov	r5, r0
    38e4:	b178      	cbz	r0, 3906 <ros::NodeHandle_<MbedHardware, 25, 25, 512, 512>::spinOnce()+0x6a>
    38e6:	f894 05fc 	ldrb.w	r0, [r4, #1532]	; 0x5fc
    38ea:	b148      	cbz	r0, 3900 <ros::NodeHandle_<MbedHardware, 25, 25, 512, 512>::spinOnce()+0x64>
    38ec:	f640 12c4 	movw	r2, #2500	; 0x9c4
    38f0:	f8d4 3600 	ldr.w	r3, [r4, #1536]	; 0x600
    38f4:	ebc3 0308 	rsb	r3, r3, r8
    38f8:	4293      	cmp	r3, r2
    38fa:	f200 81cf 	bhi.w	3c9c <ros::NodeHandle_<MbedHardware, 25, 25, 512, 512>::spinOnce()+0x400>
    38fe:	2000      	movs	r0, #0
    3900:	b00b      	add	sp, #44	; 0x2c
    3902:	e8bd 8ff0 	ldmia.w	sp!, {r4, r5, r6, r7, r8, r9, r10, r11, pc}
    3906:	2101      	movs	r1, #1
    3908:	4658      	mov	r0, r11
    390a:	f002 fb6b 	bl	5fe4 <AjK::MODSERIAL::__getc(bool)>
    390e:	2800      	cmp	r0, #0
    3910:	dbe9      	blt.n	38e6 <ros::NodeHandle_<MbedHardware, 25, 25, 512, 512>::spinOnce()+0x4a>
    3912:	f8d4 35f8 	ldr.w	r3, [r4, #1528]	; 0x5f8
    3916:	f8d4 65e8 	ldr.w	r6, [r4, #1512]	; 0x5e8
    391a:	4403      	add	r3, r0
    391c:	2e07      	cmp	r6, #7
    391e:	f8c4 35f8 	str.w	r3, [r4, #1528]	; 0x5f8
    3922:	f000 80fe 	beq.w	3b22 <ros::NodeHandle_<MbedHardware, 25, 25, 512, 512>::spinOnce()+0x286>
    3926:	b956      	cbnz	r6, 393e <ros::NodeHandle_<MbedHardware, 25, 25, 512, 512>::spinOnce()+0xa2>
    3928:	28ff      	cmp	r0, #255	; 0xff
    392a:	f040 810e 	bne.w	3b4a <ros::NodeHandle_<MbedHardware, 25, 25, 512, 512>::spinOnce()+0x2ae>
    392e:	2201      	movs	r2, #1
    3930:	f108 0314 	add.w	r3, r8, #20
    3934:	f8c4 25e8 	str.w	r2, [r4, #1512]	; 0x5e8
    3938:	f8c4 3608 	str.w	r3, [r4, #1544]	; 0x608
    393c:	e7ce      	b.n	38dc <ros::NodeHandle_<MbedHardware, 25, 25, 512, 512>::spinOnce()+0x40>
    393e:	2e01      	cmp	r6, #1
    3940:	f000 8112 	beq.w	3b68 <ros::NodeHandle_<MbedHardware, 25, 25, 512, 512>::spinOnce()+0x2cc>
    3944:	2e02      	cmp	r6, #2
    3946:	f000 8167 	beq.w	3c18 <ros::NodeHandle_<MbedHardware, 25, 25, 512, 512>::spinOnce()+0x37c>
    394a:	2e03      	cmp	r6, #3
    394c:	f000 816e 	beq.w	3c2c <ros::NodeHandle_<MbedHardware, 25, 25, 512, 512>::spinOnce()+0x390>
    3950:	2e04      	cmp	r6, #4
    3952:	f000 8175 	beq.w	3c40 <ros::NodeHandle_<MbedHardware, 25, 25, 512, 512>::spinOnce()+0x3a4>
    3956:	2e05      	cmp	r6, #5
    3958:	f000 8181 	beq.w	3c5e <ros::NodeHandle_<MbedHardware, 25, 25, 512, 512>::spinOnce()+0x3c2>
    395c:	2e06      	cmp	r6, #6
    395e:	f000 8186 	beq.w	3c6e <ros::NodeHandle_<MbedHardware, 25, 25, 512, 512>::spinOnce()+0x3d2>
    3962:	2e08      	cmp	r6, #8
    3964:	d1ba      	bne.n	38dc <ros::NodeHandle_<MbedHardware, 25, 25, 512, 512>::spinOnce()+0x40>
    3966:	4ac9      	ldr	r2, [pc, #804]	; (3c8c <ros::NodeHandle_<MbedHardware, 25, 25, 512, 512>::spinOnce()+0x3f0>)
    3968:	2100      	movs	r1, #0
    396a:	401a      	ands	r2, r3
    396c:	428a      	cmp	r2, r1
    396e:	f8c4 15e8 	str.w	r1, [r4, #1512]	; 0x5e8
    3972:	f2c0 81f6 	blt.w	3d62 <ros::NodeHandle_<MbedHardware, 25, 25, 512, 512>::spinOnce()+0x4c6>
    3976:	2aff      	cmp	r2, #255	; 0xff
    3978:	d1b0      	bne.n	38dc <ros::NodeHandle_<MbedHardware, 25, 25, 512, 512>::spinOnce()+0x40>
    397a:	f8d4 35f0 	ldr.w	r3, [r4, #1520]	; 0x5f0
    397e:	2b00      	cmp	r3, #0
    3980:	f000 82f9 	beq.w	3f76 <ros::NodeHandle_<MbedHardware, 25, 25, 512, 512>::spinOnce()+0x6da>
    3984:	2b0a      	cmp	r3, #10
    3986:	f000 82a5 	beq.w	3ed4 <ros::NodeHandle_<MbedHardware, 25, 25, 512, 512>::spinOnce()+0x638>
    398a:	2b06      	cmp	r3, #6
    398c:	f000 81f7 	beq.w	3d7e <ros::NodeHandle_<MbedHardware, 25, 25, 512, 512>::spinOnce()+0x4e2>
    3990:	2b0b      	cmp	r3, #11
    3992:	f000 81f0 	beq.w	3d76 <ros::NodeHandle_<MbedHardware, 25, 25, 512, 512>::spinOnce()+0x4da>
    3996:	eb04 0383 	add.w	r3, r4, r3, lsl #2
    399a:	f8d3 53f4 	ldr.w	r5, [r3, #1012]	; 0x3f4
    399e:	2d00      	cmp	r5, #0
    39a0:	d09c      	beq.n	38dc <ros::NodeHandle_<MbedHardware, 25, 25, 512, 512>::spinOnce()+0x40>
    39a2:	682b      	ldr	r3, [r5, #0]
    39a4:	f504 7290 	add.w	r2, r4, #288	; 0x120
    39a8:	9201      	str	r2, [sp, #4]
    39aa:	681b      	ldr	r3, [r3, #0]
    39ac:	4ab8      	ldr	r2, [pc, #736]	; (3c90 <ros::NodeHandle_<MbedHardware, 25, 25, 512, 512>::spinOnce()+0x3f4>)
    39ae:	4293      	cmp	r3, r2
    39b0:	f040 82d4 	bne.w	3f5c <ros::NodeHandle_<MbedHardware, 25, 25, 512, 512>::spinOnce()+0x6c0>
    39b4:	f894 6120 	ldrb.w	r6, [r4, #288]	; 0x120
    39b8:	7d2b      	ldrb	r3, [r5, #20]
    39ba:	f105 020c 	add.w	r2, r5, #12
    39be:	42b3      	cmp	r3, r6
    39c0:	9202      	str	r2, [sp, #8]
    39c2:	f0c0 82c5 	bcc.w	3f50 <ros::NodeHandle_<MbedHardware, 25, 25, 512, 512>::spinOnce()+0x6b4>
    39c6:	752e      	strb	r6, [r5, #20]
    39c8:	2e00      	cmp	r6, #0
    39ca:	f000 82cb 	beq.w	3f64 <ros::NodeHandle_<MbedHardware, 25, 25, 512, 512>::spinOnce()+0x6c8>
    39ce:	2304      	movs	r3, #4
    39d0:	aa07      	add	r2, sp, #28
    39d2:	f8cd 8010 	str.w	r8, [sp, #16]
    39d6:	469c      	mov	r12, r3
    39d8:	4690      	mov	r8, r2
    39da:	9405      	str	r4, [sp, #20]
    39dc:	9c01      	ldr	r4, [sp, #4]
    39de:	2700      	movs	r7, #0
    39e0:	f105 0618 	add.w	r6, r5, #24
    39e4:	f8cd a00c 	str.w	r10, [sp, #12]
    39e8:	eb04 0e0c 	add.w	lr, r4, r12
    39ec:	f8de 0000 	ldr.w	r0, [lr]
    39f0:	f10e 0903 	add.w	r9, lr, #3
    39f4:	f8c8 0000 	str.w	r0, [r8]
    39f8:	9807      	ldr	r0, [sp, #28]
    39fa:	f100 0a04 	add.w	r10, r0, #4
    39fe:	f1ba 0f04 	cmp.w	r10, #4
    3a02:	d908      	bls.n	3a16 <ros::NodeHandle_<MbedHardware, 25, 25, 512, 512>::spinOnce()+0x17a>
    3a04:	464b      	mov	r3, r9
    3a06:	1cc1      	adds	r1, r0, #3
    3a08:	4471      	add	r1, lr
    3a0a:	f813 2f01 	ldrb.w	r2, [r3, #1]!
    3a0e:	4299      	cmp	r1, r3
    3a10:	f803 2c01 	strb.w	r2, [r3, #-1]
    3a14:	d1f9      	bne.n	3a0a <ros::NodeHandle_<MbedHardware, 25, 25, 512, 512>::spinOnce()+0x16e>
    3a16:	f04f 0300 	mov.w	r3, #0
    3a1a:	eb0e 0200 	add.w	r2, lr, r0
    3a1e:	70d3      	strb	r3, [r2, #3]
    3a20:	f8c5 901c 	str.w	r9, [r5, #28]
    3a24:	f81e 300a 	ldrb.w	r3, [lr, r10]
    3a28:	300c      	adds	r0, #12
    3a2a:	622b      	str	r3, [r5, #32]
    3a2c:	f892 9005 	ldrb.w	r9, [r2, #5]
    3a30:	4484      	add	r12, r0
    3a32:	ea43 2309 	orr.w	r3, r3, r9, lsl #8
    3a36:	622b      	str	r3, [r5, #32]
    3a38:	f892 9006 	ldrb.w	r9, [r2, #6]
    3a3c:	f8d5 e028 	ldr.w	lr, [r5, #40]	; 0x28
    3a40:	ea43 4309 	orr.w	r3, r3, r9, lsl #16
    3a44:	622b      	str	r3, [r5, #32]
    3a46:	f892 9007 	ldrb.w	r9, [r2, #7]
    3a4a:	0139      	lsls	r1, r7, #4
    3a4c:	ea43 6309 	orr.w	r3, r3, r9, lsl #24
    3a50:	622b      	str	r3, [r5, #32]
    3a52:	7a13      	ldrb	r3, [r2, #8]
    3a54:	3701      	adds	r7, #1
    3a56:	626b      	str	r3, [r5, #36]	; 0x24
    3a58:	f892 9009 	ldrb.w	r9, [r2, #9]
    3a5c:	b2ff      	uxtb	r7, r7
    3a5e:	ea43 2009 	orr.w	r0, r3, r9, lsl #8
    3a62:	6268      	str	r0, [r5, #36]	; 0x24
    3a64:	f892 900a 	ldrb.w	r9, [r2, #10]
    3a68:	eb0e 0301 	add.w	r3, lr, r1
    3a6c:	ea40 4009 	orr.w	r0, r0, r9, lsl #16
    3a70:	6268      	str	r0, [r5, #36]	; 0x24
    3a72:	7ad2      	ldrb	r2, [r2, #11]
    3a74:	ea40 6002 	orr.w	r0, r0, r2, lsl #24
    3a78:	6268      	str	r0, [r5, #36]	; 0x24
    3a7a:	f8d6 a000 	ldr.w	r10, [r6]
    3a7e:	f8d6 9004 	ldr.w	r9, [r6, #4]
    3a82:	68b0      	ldr	r0, [r6, #8]
    3a84:	68f2      	ldr	r2, [r6, #12]
    3a86:	f84e a001 	str.w	r10, [lr, r1]
    3a8a:	f8c3 9004 	str.w	r9, [r3, #4]
    3a8e:	6098      	str	r0, [r3, #8]
    3a90:	60da      	str	r2, [r3, #12]
    3a92:	7d2b      	ldrb	r3, [r5, #20]
    3a94:	42bb      	cmp	r3, r7
    3a96:	d8a7      	bhi.n	39e8 <ros::NodeHandle_<MbedHardware, 25, 25, 512, 512>::spinOnce()+0x14c>
    3a98:	4663      	mov	r3, r12
    3a9a:	f8dd a00c 	ldr.w	r10, [sp, #12]
    3a9e:	1d1a      	adds	r2, r3, #4
    3aa0:	f8dd 8010 	ldr.w	r8, [sp, #16]
    3aa4:	9c05      	ldr	r4, [sp, #20]
    3aa6:	f10c 0e01 	add.w	lr, r12, #1
    3aaa:	1d16      	adds	r6, r2, #4
    3aac:	1c98      	adds	r0, r3, #2
    3aae:	f10c 0c03 	add.w	r12, r12, #3
    3ab2:	9901      	ldr	r1, [sp, #4]
    3ab4:	f895 7030 	ldrb.w	r7, [r5, #48]	; 0x30
    3ab8:	5ccb      	ldrb	r3, [r1, r3]
    3aba:	62eb      	str	r3, [r5, #44]	; 0x2c
    3abc:	f811 e00e 	ldrb.w	lr, [r1, lr]
    3ac0:	ea43 230e 	orr.w	r3, r3, lr, lsl #8
    3ac4:	62eb      	str	r3, [r5, #44]	; 0x2c
    3ac6:	5c08      	ldrb	r0, [r1, r0]
    3ac8:	ea43 4300 	orr.w	r3, r3, r0, lsl #16
    3acc:	4608      	mov	r0, r1
    3ace:	62eb      	str	r3, [r5, #44]	; 0x2c
    3ad0:	f811 100c 	ldrb.w	r1, [r1, r12]
    3ad4:	ea43 6301 	orr.w	r3, r3, r1, lsl #24
    3ad8:	62eb      	str	r3, [r5, #44]	; 0x2c
    3ada:	f810 9002 	ldrb.w	r9, [r0, r2]
    3ade:	454f      	cmp	r7, r9
    3ae0:	f0c0 822f 	bcc.w	3f42 <ros::NodeHandle_<MbedHardware, 25, 25, 512, 512>::spinOnce()+0x6a6>
    3ae4:	f885 9030 	strb.w	r9, [r5, #48]	; 0x30
    3ae8:	f1b9 0f00 	cmp.w	r9, #0
    3aec:	d015      	beq.n	3b1a <ros::NodeHandle_<MbedHardware, 25, 25, 512, 512>::spinOnce()+0x27e>
    3aee:	9b01      	ldr	r3, [sp, #4]
    3af0:	f105 0732 	add.w	r7, r5, #50	; 0x32
    3af4:	4433      	add	r3, r6
    3af6:	461e      	mov	r6, r3
    3af8:	2000      	movs	r0, #0
    3afa:	7872      	ldrb	r2, [r6, #1]
    3afc:	f816 3b02 	ldrb.w	r3, [r6], #2
    3b00:	6b69      	ldr	r1, [r5, #52]	; 0x34
    3b02:	ea43 2302 	orr.w	r3, r3, r2, lsl #8
    3b06:	866b      	strh	r3, [r5, #50]	; 0x32
    3b08:	883b      	ldrh	r3, [r7, #0]
    3b0a:	1c42      	adds	r2, r0, #1
    3b0c:	f821 3010 	strh.w	r3, [r1, r0, lsl #1]
    3b10:	f895 3030 	ldrb.w	r3, [r5, #48]	; 0x30
    3b14:	b2d0      	uxtb	r0, r2
    3b16:	4283      	cmp	r3, r0
    3b18:	d8ef      	bhi.n	3afa <ros::NodeHandle_<MbedHardware, 25, 25, 512, 512>::spinOnce()+0x25e>
    3b1a:	6bab      	ldr	r3, [r5, #56]	; 0x38
    3b1c:	9802      	ldr	r0, [sp, #8]
    3b1e:	4798      	blx	r3
    3b20:	e6dc      	b.n	38dc <ros::NodeHandle_<MbedHardware, 25, 25, 512, 512>::spinOnce()+0x40>
    3b22:	f8d4 35f4 	ldr.w	r3, [r4, #1524]	; 0x5f4
    3b26:	1c5a      	adds	r2, r3, #1
    3b28:	4423      	add	r3, r4
    3b2a:	f8c4 25f4 	str.w	r2, [r4, #1524]	; 0x5f4
    3b2e:	f883 0120 	strb.w	r0, [r3, #288]	; 0x120
    3b32:	f8d4 35ec 	ldr.w	r3, [r4, #1516]	; 0x5ec
    3b36:	3b01      	subs	r3, #1
    3b38:	f8c4 35ec 	str.w	r3, [r4, #1516]	; 0x5ec
    3b3c:	2b00      	cmp	r3, #0
    3b3e:	f47f aecd 	bne.w	38dc <ros::NodeHandle_<MbedHardware, 25, 25, 512, 512>::spinOnce()+0x40>
    3b42:	2308      	movs	r3, #8
    3b44:	f8c4 35e8 	str.w	r3, [r4, #1512]	; 0x5e8
    3b48:	e6c8      	b.n	38dc <ros::NodeHandle_<MbedHardware, 25, 25, 512, 512>::spinOnce()+0x40>
    3b4a:	4650      	mov	r0, r10
    3b4c:	f003 fe94 	bl	7878 <mbed::Timer::read_ms()>
    3b50:	ebc8 0000 	rsb	r0, r8, r0
    3b54:	2805      	cmp	r0, #5
    3b56:	f67f aec1 	bls.w	38dc <ros::NodeHandle_<MbedHardware, 25, 25, 512, 512>::spinOnce()+0x40>
    3b5a:	f06f 0001 	mvn.w	r0, #1
    3b5e:	f884 65fc 	strb.w	r6, [r4, #1532]	; 0x5fc
    3b62:	b00b      	add	sp, #44	; 0x2c
    3b64:	e8bd 8ff0 	ldmia.w	sp!, {r4, r5, r6, r7, r8, r9, r10, r11, pc}
    3b68:	28fe      	cmp	r0, #254	; 0xfe
    3b6a:	d074      	beq.n	3c56 <ros::NodeHandle_<MbedHardware, 25, 25, 512, 512>::spinOnce()+0x3ba>
    3b6c:	f894 35fc 	ldrb.w	r3, [r4, #1532]	; 0x5fc
    3b70:	f8c4 55e8 	str.w	r5, [r4, #1512]	; 0x5e8
    3b74:	2b00      	cmp	r3, #0
    3b76:	f47f aeb1 	bne.w	38dc <ros::NodeHandle_<MbedHardware, 25, 25, 512, 512>::spinOnce()+0x40>
    3b7a:	4946      	ldr	r1, [pc, #280]	; (3c94 <ros::NodeHandle_<MbedHardware, 25, 25, 512, 512>::spinOnce()+0x3f8>)
    3b7c:	6822      	ldr	r2, [r4, #0]
    3b7e:	9107      	str	r1, [sp, #28]
    3b80:	6815      	ldr	r5, [r2, #0]
    3b82:	4a45      	ldr	r2, [pc, #276]	; (3c98 <ros::NodeHandle_<MbedHardware, 25, 25, 512, 512>::spinOnce()+0x3fc>)
    3b84:	9308      	str	r3, [sp, #32]
    3b86:	4295      	cmp	r5, r2
    3b88:	9309      	str	r3, [sp, #36]	; 0x24
    3b8a:	f040 80e0 	bne.w	3d4e <ros::NodeHandle_<MbedHardware, 25, 25, 512, 512>::spinOnce()+0x4b2>
    3b8e:	200a      	movs	r0, #10
    3b90:	461a      	mov	r2, r3
    3b92:	4601      	mov	r1, r0
    3b94:	26ff      	movs	r6, #255	; 0xff
    3b96:	f884 3327 	strb.w	r3, [r4, #807]	; 0x327
    3b9a:	f884 3328 	strb.w	r3, [r4, #808]	; 0x328
    3b9e:	f884 3329 	strb.w	r3, [r4, #809]	; 0x329
    3ba2:	f884 332a 	strb.w	r3, [r4, #810]	; 0x32a
    3ba6:	f884 332b 	strb.w	r3, [r4, #811]	; 0x32b
    3baa:	f884 332c 	strb.w	r3, [r4, #812]	; 0x32c
    3bae:	f884 332d 	strb.w	r3, [r4, #813]	; 0x32d
    3bb2:	f884 332e 	strb.w	r3, [r4, #814]	; 0x32e
    3bb6:	f884 3323 	strb.w	r3, [r4, #803]	; 0x323
    3bba:	f884 3326 	strb.w	r3, [r4, #806]	; 0x326
    3bbe:	25fe      	movs	r5, #254	; 0xfe
    3bc0:	23f7      	movs	r3, #247	; 0xf7
    3bc2:	f884 0325 	strb.w	r0, [r4, #805]	; 0x325
    3bc6:	2008      	movs	r0, #8
    3bc8:	f884 0322 	strb.w	r0, [r4, #802]	; 0x322
    3bcc:	f884 3324 	strb.w	r3, [r4, #804]	; 0x324
    3bd0:	f884 6320 	strb.w	r6, [r4, #800]	; 0x320
    3bd4:	f884 5321 	strb.w	r5, [r4, #801]	; 0x321
    3bd8:	f204 3325 	addw	r3, r4, #805	; 0x325
    3bdc:	f204 302e 	addw	r0, r4, #814	; 0x32e
    3be0:	e001      	b.n	3be6 <ros::NodeHandle_<MbedHardware, 25, 25, 512, 512>::spinOnce()+0x34a>
    3be2:	f813 1f01 	ldrb.w	r1, [r3, #1]!
    3be6:	4298      	cmp	r0, r3
    3be8:	440a      	add	r2, r1
    3bea:	d1fa      	bne.n	3be2 <ros::NodeHandle_<MbedHardware, 25, 25, 512, 512>::spinOnce()+0x346>
    3bec:	43d2      	mvns	r2, r2
    3bee:	f104 0744 	add.w	r7, r4, #68	; 0x44
    3bf2:	f884 232f 	strb.w	r2, [r4, #815]	; 0x32f
    3bf6:	f204 351f 	addw	r5, r4, #799	; 0x31f
    3bfa:	f204 362f 	addw	r6, r4, #815	; 0x32f
    3bfe:	f815 1f01 	ldrb.w	r1, [r5, #1]!
    3c02:	4638      	mov	r0, r7
    3c04:	f003 fdfe 	bl	7804 <mbed::Stream::putc(int)>
    3c08:	42ae      	cmp	r6, r5
    3c0a:	d1f8      	bne.n	3bfe <ros::NodeHandle_<MbedHardware, 25, 25, 512, 512>::spinOnce()+0x362>
    3c0c:	4650      	mov	r0, r10
    3c0e:	f003 fe33 	bl	7878 <mbed::Timer::read_ms()>
    3c12:	f8c4 0114 	str.w	r0, [r4, #276]	; 0x114
    3c16:	e661      	b.n	38dc <ros::NodeHandle_<MbedHardware, 25, 25, 512, 512>::spinOnce()+0x40>
    3c18:	2303      	movs	r3, #3
    3c1a:	f8c4 05ec 	str.w	r0, [r4, #1516]	; 0x5ec
    3c1e:	f8c4 55f4 	str.w	r5, [r4, #1524]	; 0x5f4
    3c22:	f8c4 05f8 	str.w	r0, [r4, #1528]	; 0x5f8
    3c26:	f8c4 35e8 	str.w	r3, [r4, #1512]	; 0x5e8
    3c2a:	e657      	b.n	38dc <ros::NodeHandle_<MbedHardware, 25, 25, 512, 512>::spinOnce()+0x40>
    3c2c:	f8d4 35ec 	ldr.w	r3, [r4, #1516]	; 0x5ec
    3c30:	2204      	movs	r2, #4
    3c32:	eb03 2000 	add.w	r0, r3, r0, lsl #8
    3c36:	f8c4 05ec 	str.w	r0, [r4, #1516]	; 0x5ec
    3c3a:	f8c4 25e8 	str.w	r2, [r4, #1512]	; 0x5e8
    3c3e:	e64d      	b.n	38dc <ros::NodeHandle_<MbedHardware, 25, 25, 512, 512>::spinOnce()+0x40>
    3c40:	4a12      	ldr	r2, [pc, #72]	; (3c8c <ros::NodeHandle_<MbedHardware, 25, 25, 512, 512>::spinOnce()+0x3f0>)
    3c42:	401a      	ands	r2, r3
    3c44:	2a00      	cmp	r2, #0
    3c46:	db7d      	blt.n	3d44 <ros::NodeHandle_<MbedHardware, 25, 25, 512, 512>::spinOnce()+0x4a8>
    3c48:	2aff      	cmp	r2, #255	; 0xff
    3c4a:	bf0c      	ite	eq
    3c4c:	2305      	moveq	r3, #5
    3c4e:	2300      	movne	r3, #0
    3c50:	f8c4 35e8 	str.w	r3, [r4, #1512]	; 0x5e8
    3c54:	e642      	b.n	38dc <ros::NodeHandle_<MbedHardware, 25, 25, 512, 512>::spinOnce()+0x40>
    3c56:	2302      	movs	r3, #2
    3c58:	f8c4 35e8 	str.w	r3, [r4, #1512]	; 0x5e8
    3c5c:	e63e      	b.n	38dc <ros::NodeHandle_<MbedHardware, 25, 25, 512, 512>::spinOnce()+0x40>
    3c5e:	2306      	movs	r3, #6
    3c60:	f8c4 05f0 	str.w	r0, [r4, #1520]	; 0x5f0
    3c64:	f8c4 05f8 	str.w	r0, [r4, #1528]	; 0x5f8
    3c68:	f8c4 35e8 	str.w	r3, [r4, #1512]	; 0x5e8
    3c6c:	e636      	b.n	38dc <ros::NodeHandle_<MbedHardware, 25, 25, 512, 512>::spinOnce()+0x40>
    3c6e:	f8d4 35f0 	ldr.w	r3, [r4, #1520]	; 0x5f0
    3c72:	f8d4 25ec 	ldr.w	r2, [r4, #1516]	; 0x5ec
    3c76:	eb03 2300 	add.w	r3, r3, r0, lsl #8
    3c7a:	2107      	movs	r1, #7
    3c7c:	f8c4 35f0 	str.w	r3, [r4, #1520]	; 0x5f0
    3c80:	f8c4 15e8 	str.w	r1, [r4, #1512]	; 0x5e8
    3c84:	2a00      	cmp	r2, #0
    3c86:	f43f af5c 	beq.w	3b42 <ros::NodeHandle_<MbedHardware, 25, 25, 512, 512>::spinOnce()+0x2a6>
    3c8a:	e627      	b.n	38dc <ros::NodeHandle_<MbedHardware, 25, 25, 512, 512>::spinOnce()+0x40>
    3c8c:	800000ff 	.word	0x800000ff
    3c90:	00000c5d 	.word	0x00000c5d
    3c94:	0000ad54 	.word	0x0000ad54
    3c98:	000010d5 	.word	0x000010d5
    3c9c:	4ac4      	ldr	r2, [pc, #784]	; (3fb0 <ros::NodeHandle_<MbedHardware, 25, 25, 512, 512>::spinOnce()+0x714>)
    3c9e:	6823      	ldr	r3, [r4, #0]
    3ca0:	9207      	str	r2, [sp, #28]
    3ca2:	681d      	ldr	r5, [r3, #0]
    3ca4:	4ac3      	ldr	r2, [pc, #780]	; (3fb4 <ros::NodeHandle_<MbedHardware, 25, 25, 512, 512>::spinOnce()+0x718>)
    3ca6:	2300      	movs	r3, #0
    3ca8:	4295      	cmp	r5, r2
    3caa:	9308      	str	r3, [sp, #32]
    3cac:	9309      	str	r3, [sp, #36]	; 0x24
    3cae:	d15d      	bne.n	3d6c <ros::NodeHandle_<MbedHardware, 25, 25, 512, 512>::spinOnce()+0x4d0>
    3cb0:	200a      	movs	r0, #10
    3cb2:	461a      	mov	r2, r3
    3cb4:	4601      	mov	r1, r0
    3cb6:	26ff      	movs	r6, #255	; 0xff
    3cb8:	f884 3327 	strb.w	r3, [r4, #807]	; 0x327
    3cbc:	f884 3328 	strb.w	r3, [r4, #808]	; 0x328
    3cc0:	f884 3329 	strb.w	r3, [r4, #809]	; 0x329
    3cc4:	f884 332a 	strb.w	r3, [r4, #810]	; 0x32a
    3cc8:	f884 332b 	strb.w	r3, [r4, #811]	; 0x32b
    3ccc:	f884 332c 	strb.w	r3, [r4, #812]	; 0x32c
    3cd0:	f884 332d 	strb.w	r3, [r4, #813]	; 0x32d
    3cd4:	f884 332e 	strb.w	r3, [r4, #814]	; 0x32e
    3cd8:	f884 3323 	strb.w	r3, [r4, #803]	; 0x323
    3cdc:	f884 3326 	strb.w	r3, [r4, #806]	; 0x326
    3ce0:	25fe      	movs	r5, #254	; 0xfe
    3ce2:	23f7      	movs	r3, #247	; 0xf7
    3ce4:	f884 0325 	strb.w	r0, [r4, #805]	; 0x325
    3ce8:	2008      	movs	r0, #8
    3cea:	f884 0322 	strb.w	r0, [r4, #802]	; 0x322
    3cee:	f884 3324 	strb.w	r3, [r4, #804]	; 0x324
    3cf2:	f884 6320 	strb.w	r6, [r4, #800]	; 0x320
    3cf6:	f884 5321 	strb.w	r5, [r4, #801]	; 0x321
    3cfa:	f204 3325 	addw	r3, r4, #805	; 0x325
    3cfe:	f204 302e 	addw	r0, r4, #814	; 0x32e
    3d02:	e001      	b.n	3d08 <ros::NodeHandle_<MbedHardware, 25, 25, 512, 512>::spinOnce()+0x46c>
    3d04:	f813 1f01 	ldrb.w	r1, [r3, #1]!
    3d08:	4298      	cmp	r0, r3
    3d0a:	440a      	add	r2, r1
    3d0c:	d1fa      	bne.n	3d04 <ros::NodeHandle_<MbedHardware, 25, 25, 512, 512>::spinOnce()+0x468>
    3d0e:	43d2      	mvns	r2, r2
    3d10:	f104 0744 	add.w	r7, r4, #68	; 0x44
    3d14:	f884 232f 	strb.w	r2, [r4, #815]	; 0x32f
    3d18:	f204 351f 	addw	r5, r4, #799	; 0x31f
    3d1c:	f204 362f 	addw	r6, r4, #815	; 0x32f
    3d20:	f815 1f01 	ldrb.w	r1, [r5, #1]!
    3d24:	4638      	mov	r0, r7
    3d26:	f003 fd6d 	bl	7804 <mbed::Stream::putc(int)>
    3d2a:	42b5      	cmp	r5, r6
    3d2c:	d1f8      	bne.n	3d20 <ros::NodeHandle_<MbedHardware, 25, 25, 512, 512>::spinOnce()+0x484>
    3d2e:	4650      	mov	r0, r10
    3d30:	f003 fda2 	bl	7878 <mbed::Timer::read_ms()>
    3d34:	f8c4 0114 	str.w	r0, [r4, #276]	; 0x114
    3d38:	2000      	movs	r0, #0
    3d3a:	f8c4 8600 	str.w	r8, [r4, #1536]	; 0x600
    3d3e:	b00b      	add	sp, #44	; 0x2c
    3d40:	e8bd 8ff0 	ldmia.w	sp!, {r4, r5, r6, r7, r8, r9, r10, r11, pc}
    3d44:	3a01      	subs	r2, #1
    3d46:	f062 02ff 	orn	r2, r2, #255	; 0xff
    3d4a:	3201      	adds	r2, #1
    3d4c:	e77c      	b.n	3c48 <ros::NodeHandle_<MbedHardware, 25, 25, 512, 512>::spinOnce()+0x3ac>
    3d4e:	aa07      	add	r2, sp, #28
    3d50:	210a      	movs	r1, #10
    3d52:	4620      	mov	r0, r4
    3d54:	47a8      	blx	r5
    3d56:	4650      	mov	r0, r10
    3d58:	f003 fd8e 	bl	7878 <mbed::Timer::read_ms()>
    3d5c:	f8c4 0114 	str.w	r0, [r4, #276]	; 0x114
    3d60:	e5bc      	b.n	38dc <ros::NodeHandle_<MbedHardware, 25, 25, 512, 512>::spinOnce()+0x40>
    3d62:	3a01      	subs	r2, #1
    3d64:	f062 02ff 	orn	r2, r2, #255	; 0xff
    3d68:	3201      	adds	r2, #1
    3d6a:	e604      	b.n	3976 <ros::NodeHandle_<MbedHardware, 25, 25, 512, 512>::spinOnce()+0xda>
    3d6c:	aa07      	add	r2, sp, #28
    3d6e:	210a      	movs	r1, #10
    3d70:	4620      	mov	r0, r4
    3d72:	47a8      	blx	r5
    3d74:	e7db      	b.n	3d2e <ros::NodeHandle_<MbedHardware, 25, 25, 512, 512>::spinOnce()+0x492>
    3d76:	2300      	movs	r3, #0
    3d78:	f884 35fc 	strb.w	r3, [r4, #1532]	; 0x5fc
    3d7c:	e5ae      	b.n	38dc <ros::NodeHandle_<MbedHardware, 25, 25, 512, 512>::spinOnce()+0x40>
    3d7e:	f894 6120 	ldrb.w	r6, [r4, #288]	; 0x120
    3d82:	f894 3614 	ldrb.w	r3, [r4, #1556]	; 0x614
    3d86:	f504 7590 	add.w	r5, r4, #288	; 0x120
    3d8a:	42b3      	cmp	r3, r6
    3d8c:	d206      	bcs.n	3d9c <ros::NodeHandle_<MbedHardware, 25, 25, 512, 512>::spinOnce()+0x500>
    3d8e:	00b1      	lsls	r1, r6, #2
    3d90:	f8d4 061c 	ldr.w	r0, [r4, #1564]	; 0x61c
    3d94:	f002 f912 	bl	5fbc <__wrap_realloc>
    3d98:	f8c4 061c 	str.w	r0, [r4, #1564]	; 0x61c
    3d9c:	f884 6614 	strb.w	r6, [r4, #1556]	; 0x614
    3da0:	2e00      	cmp	r6, #0
    3da2:	f000 8101 	beq.w	3fa8 <ros::NodeHandle_<MbedHardware, 25, 25, 512, 512>::spinOnce()+0x70c>
    3da6:	4628      	mov	r0, r5
    3da8:	f504 67c3 	add.w	r7, r4, #1560	; 0x618
    3dac:	2604      	movs	r6, #4
    3dae:	2100      	movs	r1, #0
    3db0:	7983      	ldrb	r3, [r0, #6]
    3db2:	f890 e005 	ldrb.w	lr, [r0, #5]
    3db6:	7902      	ldrb	r2, [r0, #4]
    3db8:	041b      	lsls	r3, r3, #16
    3dba:	ea43 230e 	orr.w	r3, r3, lr, lsl #8
    3dbe:	f890 e007 	ldrb.w	lr, [r0, #7]
    3dc2:	4313      	orrs	r3, r2
    3dc4:	ea43 630e 	orr.w	r3, r3, lr, lsl #24
    3dc8:	f8c4 3618 	str.w	r3, [r4, #1560]	; 0x618
    3dcc:	683a      	ldr	r2, [r7, #0]
    3dce:	f8d4 361c 	ldr.w	r3, [r4, #1564]	; 0x61c
    3dd2:	3604      	adds	r6, #4
    3dd4:	f843 2021 	str.w	r2, [r3, r1, lsl #2]
    3dd8:	f894 3614 	ldrb.w	r3, [r4, #1556]	; 0x614
    3ddc:	3101      	adds	r1, #1
    3dde:	b2c9      	uxtb	r1, r1
    3de0:	428b      	cmp	r3, r1
    3de2:	f100 0004 	add.w	r0, r0, #4
    3de6:	d8e3      	bhi.n	3db0 <ros::NodeHandle_<MbedHardware, 25, 25, 512, 512>::spinOnce()+0x514>
    3de8:	1d37      	adds	r7, r6, #4
    3dea:	4633      	mov	r3, r6
    3dec:	463e      	mov	r6, r7
    3dee:	f815 9003 	ldrb.w	r9, [r5, r3]
    3df2:	f894 3620 	ldrb.w	r3, [r4, #1568]	; 0x620
    3df6:	454b      	cmp	r3, r9
    3df8:	d207      	bcs.n	3e0a <ros::NodeHandle_<MbedHardware, 25, 25, 512, 512>::spinOnce()+0x56e>
    3dfa:	ea4f 0189 	mov.w	r1, r9, lsl #2
    3dfe:	f8d4 0628 	ldr.w	r0, [r4, #1576]	; 0x628
    3e02:	f002 f8db 	bl	5fbc <__wrap_realloc>
    3e06:	f8c4 0628 	str.w	r0, [r4, #1576]	; 0x628
    3e0a:	f884 9620 	strb.w	r9, [r4, #1568]	; 0x620
    3e0e:	f1b9 0f00 	cmp.w	r9, #0
    3e12:	d020      	beq.n	3e56 <ros::NodeHandle_<MbedHardware, 25, 25, 512, 512>::spinOnce()+0x5ba>
    3e14:	f204 6724 	addw	r7, r4, #1572	; 0x624
    3e18:	19a8      	adds	r0, r5, r6
    3e1a:	2300      	movs	r3, #0
    3e1c:	7882      	ldrb	r2, [r0, #2]
    3e1e:	f890 e001 	ldrb.w	lr, [r0, #1]
    3e22:	7801      	ldrb	r1, [r0, #0]
    3e24:	0412      	lsls	r2, r2, #16
    3e26:	ea42 220e 	orr.w	r2, r2, lr, lsl #8
    3e2a:	f890 e003 	ldrb.w	lr, [r0, #3]
    3e2e:	430a      	orrs	r2, r1
    3e30:	ea42 620e 	orr.w	r2, r2, lr, lsl #24
    3e34:	f8c4 2624 	str.w	r2, [r4, #1572]	; 0x624
    3e38:	6839      	ldr	r1, [r7, #0]
    3e3a:	f8d4 2628 	ldr.w	r2, [r4, #1576]	; 0x628
    3e3e:	3604      	adds	r6, #4
    3e40:	f842 1023 	str.w	r1, [r2, r3, lsl #2]
    3e44:	f894 2620 	ldrb.w	r2, [r4, #1568]	; 0x620
    3e48:	3301      	adds	r3, #1
    3e4a:	b2db      	uxtb	r3, r3
    3e4c:	429a      	cmp	r2, r3
    3e4e:	f100 0004 	add.w	r0, r0, #4
    3e52:	d8e3      	bhi.n	3e1c <ros::NodeHandle_<MbedHardware, 25, 25, 512, 512>::spinOnce()+0x580>
    3e54:	4637      	mov	r7, r6
    3e56:	5def      	ldrb	r7, [r5, r7]
    3e58:	f894 362c 	ldrb.w	r3, [r4, #1580]	; 0x62c
    3e5c:	42bb      	cmp	r3, r7
    3e5e:	d206      	bcs.n	3e6e <ros::NodeHandle_<MbedHardware, 25, 25, 512, 512>::spinOnce()+0x5d2>
    3e60:	00b9      	lsls	r1, r7, #2
    3e62:	f8d4 0634 	ldr.w	r0, [r4, #1588]	; 0x634
    3e66:	f002 f8a9 	bl	5fbc <__wrap_realloc>
    3e6a:	f8c4 0634 	str.w	r0, [r4, #1588]	; 0x634
    3e6e:	1d33      	adds	r3, r6, #4
    3e70:	f884 762c 	strb.w	r7, [r4, #1580]	; 0x62c
    3e74:	b357      	cbz	r7, 3ecc <ros::NodeHandle_<MbedHardware, 25, 25, 512, 512>::spinOnce()+0x630>
    3e76:	2600      	movs	r6, #0
    3e78:	aa07      	add	r2, sp, #28
    3e7a:	46b6      	mov	lr, r6
    3e7c:	4694      	mov	r12, r2
    3e7e:	f504 67c6 	add.w	r7, r4, #1584	; 0x630
    3e82:	58e8      	ldr	r0, [r5, r3]
    3e84:	1d19      	adds	r1, r3, #4
    3e86:	f8cc 0000 	str.w	r0, [r12]
    3e8a:	9a07      	ldr	r2, [sp, #28]
    3e8c:	440a      	add	r2, r1
    3e8e:	428a      	cmp	r2, r1
    3e90:	d909      	bls.n	3ea6 <ros::NodeHandle_<MbedHardware, 25, 25, 512, 512>::spinOnce()+0x60a>
    3e92:	4608      	mov	r0, r1
    3e94:	3303      	adds	r3, #3
    3e96:	442b      	add	r3, r5
    3e98:	f813 9f01 	ldrb.w	r9, [r3, #1]!
    3e9c:	3001      	adds	r0, #1
    3e9e:	4282      	cmp	r2, r0
    3ea0:	f803 9c01 	strb.w	r9, [r3, #-1]
    3ea4:	d8f8      	bhi.n	3e98 <ros::NodeHandle_<MbedHardware, 25, 25, 512, 512>::spinOnce()+0x5fc>
    3ea6:	1e4b      	subs	r3, r1, #1
    3ea8:	442b      	add	r3, r5
    3eaa:	18a9      	adds	r1, r5, r2
    3eac:	f801 ec01 	strb.w	lr, [r1, #-1]
    3eb0:	f8c4 3630 	str.w	r3, [r4, #1584]	; 0x630
    3eb4:	6838      	ldr	r0, [r7, #0]
    3eb6:	f8d4 1634 	ldr.w	r1, [r4, #1588]	; 0x634
    3eba:	4613      	mov	r3, r2
    3ebc:	f841 0026 	str.w	r0, [r1, r6, lsl #2]
    3ec0:	f894 262c 	ldrb.w	r2, [r4, #1580]	; 0x62c
    3ec4:	3601      	adds	r6, #1
    3ec6:	b2f6      	uxtb	r6, r6
    3ec8:	42b2      	cmp	r2, r6
    3eca:	d8da      	bhi.n	3e82 <ros::NodeHandle_<MbedHardware, 25, 25, 512, 512>::spinOnce()+0x5e6>
    3ecc:	2301      	movs	r3, #1
    3ece:	f884 360c 	strb.w	r3, [r4, #1548]	; 0x60c
    3ed2:	e503      	b.n	38dc <ros::NodeHandle_<MbedHardware, 25, 25, 512, 512>::spinOnce()+0x40>
    3ed4:	4650      	mov	r0, r10
    3ed6:	f003 fccf 	bl	7878 <mbed::Timer::read_ms()>
    3eda:	f8d4 5114 	ldr.w	r5, [r4, #276]	; 0x114
    3ede:	f8d4 3124 	ldr.w	r3, [r4, #292]	; 0x124
    3ee2:	f8df 90dc 	ldr.w	r9, [pc, #220]	; 3fc0 <ros::NodeHandle_<MbedHardware, 25, 25, 512, 512>::spinOnce()+0x724>
    3ee6:	1b45      	subs	r5, r0, r5
    3ee8:	4650      	mov	r0, r10
    3eea:	4499      	add	r9, r3
    3eec:	f8d4 6120 	ldr.w	r6, [r4, #288]	; 0x120
    3ef0:	f003 fcc2 	bl	7878 <mbed::Timer::read_ms()>
    3ef4:	4b30      	ldr	r3, [pc, #192]	; (3fb8 <ros::NodeHandle_<MbedHardware, 25, 25, 512, 512>::spinOnce()+0x71c>)
    3ef6:	4a30      	ldr	r2, [pc, #192]	; (3fb8 <ros::NodeHandle_<MbedHardware, 25, 25, 512, 512>::spinOnce()+0x71c>)
    3ef8:	fba3 3705 	umull	r3, r7, r3, r5
    3efc:	fba2 1200 	umull	r1, r2, r2, r0
    3f00:	f44f 737a 	mov.w	r3, #1000	; 0x3e8
    3f04:	09bf      	lsrs	r7, r7, #6
    3f06:	fb03 5517 	mls	r5, r3, r7, r5
    3f0a:	0991      	lsrs	r1, r2, #6
    3f0c:	4a2b      	ldr	r2, [pc, #172]	; (3fbc <ros::NodeHandle_<MbedHardware, 25, 25, 512, 512>::spinOnce()+0x720>)
    3f0e:	fb03 0311 	mls	r3, r3, r1, r0
    3f12:	fb02 9205 	mla	r2, r2, r5, r9
    3f16:	4829      	ldr	r0, [pc, #164]	; (3fbc <ros::NodeHandle_<MbedHardware, 25, 25, 512, 512>::spinOnce()+0x720>)
    3f18:	3e01      	subs	r6, #1
    3f1a:	fb00 2313 	mls	r3, r0, r3, r2
    3f1e:	443e      	add	r6, r7
    3f20:	1a72      	subs	r2, r6, r1
    3f22:	f8c4 311c 	str.w	r3, [r4, #284]	; 0x11c
    3f26:	f8c4 2118 	str.w	r2, [r4, #280]	; 0x118
    3f2a:	f504 718e 	add.w	r1, r4, #284	; 0x11c
    3f2e:	f504 708c 	add.w	r0, r4, #280	; 0x118
    3f32:	f002 fa61 	bl	63f8 <ros::normalizeSecNSec(unsigned long&, unsigned long&)>
    3f36:	4650      	mov	r0, r10
    3f38:	f003 fc9e 	bl	7878 <mbed::Timer::read_ms()>
    3f3c:	f8c4 0604 	str.w	r0, [r4, #1540]	; 0x604
    3f40:	e4cc      	b.n	38dc <ros::NodeHandle_<MbedHardware, 25, 25, 512, 512>::spinOnce()+0x40>
    3f42:	ea4f 0149 	mov.w	r1, r9, lsl #1
    3f46:	6b68      	ldr	r0, [r5, #52]	; 0x34
    3f48:	f002 f838 	bl	5fbc <__wrap_realloc>
    3f4c:	6368      	str	r0, [r5, #52]	; 0x34
    3f4e:	e5c9      	b.n	3ae4 <ros::NodeHandle_<MbedHardware, 25, 25, 512, 512>::spinOnce()+0x248>
    3f50:	0131      	lsls	r1, r6, #4
    3f52:	6aa8      	ldr	r0, [r5, #40]	; 0x28
    3f54:	f002 f832 	bl	5fbc <__wrap_realloc>
    3f58:	62a8      	str	r0, [r5, #40]	; 0x28
    3f5a:	e534      	b.n	39c6 <ros::NodeHandle_<MbedHardware, 25, 25, 512, 512>::spinOnce()+0x12a>
    3f5c:	9901      	ldr	r1, [sp, #4]
    3f5e:	4628      	mov	r0, r5
    3f60:	4798      	blx	r3
    3f62:	e4bb      	b.n	38dc <ros::NodeHandle_<MbedHardware, 25, 25, 512, 512>::spinOnce()+0x40>
    3f64:	2208      	movs	r2, #8
    3f66:	f04f 0c07 	mov.w	r12, #7
    3f6a:	2006      	movs	r0, #6
    3f6c:	f04f 0e05 	mov.w	lr, #5
    3f70:	2304      	movs	r3, #4
    3f72:	260c      	movs	r6, #12
    3f74:	e59d      	b.n	3ab2 <ros::NodeHandle_<MbedHardware, 25, 25, 512, 512>::spinOnce()+0x216>
    3f76:	490e      	ldr	r1, [pc, #56]	; (3fb0 <ros::NodeHandle_<MbedHardware, 25, 25, 512, 512>::spinOnce()+0x714>)
    3f78:	6822      	ldr	r2, [r4, #0]
    3f7a:	9107      	str	r1, [sp, #28]
    3f7c:	9308      	str	r3, [sp, #32]
    3f7e:	210a      	movs	r1, #10
    3f80:	9309      	str	r3, [sp, #36]	; 0x24
    3f82:	4620      	mov	r0, r4
    3f84:	6813      	ldr	r3, [r2, #0]
    3f86:	aa07      	add	r2, sp, #28
    3f88:	4798      	blx	r3
    3f8a:	4650      	mov	r0, r10
    3f8c:	f003 fc74 	bl	7878 <mbed::Timer::read_ms()>
    3f90:	f8c4 0114 	str.w	r0, [r4, #276]	; 0x114
    3f94:	4620      	mov	r0, r4
    3f96:	f7ff f9d5 	bl	3344 <ros::NodeHandle_<MbedHardware, 25, 25, 512, 512>::negotiateTopics()>
    3f9a:	f8c4 8600 	str.w	r8, [r4, #1536]	; 0x600
    3f9e:	f8c4 8604 	str.w	r8, [r4, #1540]	; 0x604
    3fa2:	f04f 30ff 	mov.w	r0, #4294967295
    3fa6:	e4ab      	b.n	3900 <ros::NodeHandle_<MbedHardware, 25, 25, 512, 512>::spinOnce()+0x64>
    3fa8:	2708      	movs	r7, #8
    3faa:	463e      	mov	r6, r7
    3fac:	2304      	movs	r3, #4
    3fae:	e71e      	b.n	3dee <ros::NodeHandle_<MbedHardware, 25, 25, 512, 512>::spinOnce()+0x552>
    3fb0:	0000ad54 	.word	0x0000ad54
    3fb4:	000010d5 	.word	0x000010d5
    3fb8:	10624dd3 	.word	0x10624dd3
    3fbc:	000f4240 	.word	0x000f4240
    3fc0:	3b9aca00 	.word	0x3b9aca00

00003fc4 <void std::vector<Dynamixel*, std::allocator<Dynamixel*> >::_M_emplace_back_aux<Dynamixel*>(Dynamixel*&&)>:
    3fc4:	e92d 41f0 	stmdb	sp!, {r4, r5, r6, r7, r8, lr}
    3fc8:	4606      	mov	r6, r0
    3fca:	c811      	ldmia	r0, {r0, r4}
    3fcc:	1a25      	subs	r5, r4, r0
    3fce:	10ad      	asrs	r5, r5, #2
    3fd0:	4688      	mov	r8, r1
    3fd2:	d005      	beq.n	3fe0 <void std::vector<Dynamixel*, std::allocator<Dynamixel*> >::_M_emplace_back_aux<Dynamixel*>(Dynamixel*&&)+0x1c>
    3fd4:	006b      	lsls	r3, r5, #1
    3fd6:	429d      	cmp	r5, r3
    3fd8:	d926      	bls.n	4028 <void std::vector<Dynamixel*, std::allocator<Dynamixel*> >::_M_emplace_back_aux<Dynamixel*>(Dynamixel*&&)+0x64>
    3fda:	f06f 0503 	mvn.w	r5, #3
    3fde:	e000      	b.n	3fe2 <void std::vector<Dynamixel*, std::allocator<Dynamixel*> >::_M_emplace_back_aux<Dynamixel*>(Dynamixel*&&)+0x1e>
    3fe0:	2504      	movs	r5, #4
    3fe2:	4628      	mov	r0, r5
    3fe4:	f003 fdf5 	bl	7bd2 <operator new(unsigned int)>
    3fe8:	4607      	mov	r7, r0
    3fea:	e896 0011 	ldmia.w	r6, {r0, r4}
    3fee:	1a24      	subs	r4, r4, r0
    3ff0:	42e7      	cmn	r7, r4
    3ff2:	f8d8 3000 	ldr.w	r3, [r8]
    3ff6:	d003      	beq.n	4000 <void std::vector<Dynamixel*, std::allocator<Dynamixel*> >::_M_emplace_back_aux<Dynamixel*>(Dynamixel*&&)+0x3c>
    3ff8:	513b      	str	r3, [r7, r4]
    3ffa:	e896 0011 	ldmia.w	r6, {r0, r4}
    3ffe:	1a24      	subs	r4, r4, r0
    4000:	08a3      	lsrs	r3, r4, #2
    4002:	d10a      	bne.n	401a <void std::vector<Dynamixel*, std::allocator<Dynamixel*> >::_M_emplace_back_aux<Dynamixel*>(Dynamixel*&&)+0x56>
    4004:	3404      	adds	r4, #4
    4006:	443c      	add	r4, r7
    4008:	b108      	cbz	r0, 400e <void std::vector<Dynamixel*, std::allocator<Dynamixel*> >::_M_emplace_back_aux<Dynamixel*>(Dynamixel*&&)+0x4a>
    400a:	f003 fde0 	bl	7bce <operator delete(void*)>
    400e:	443d      	add	r5, r7
    4010:	60b5      	str	r5, [r6, #8]
    4012:	6037      	str	r7, [r6, #0]
    4014:	6074      	str	r4, [r6, #4]
    4016:	e8bd 81f0 	ldmia.w	sp!, {r4, r5, r6, r7, r8, pc}
    401a:	4601      	mov	r1, r0
    401c:	4622      	mov	r2, r4
    401e:	4638      	mov	r0, r7
    4020:	f005 f929 	bl	9276 <memmove>
    4024:	6830      	ldr	r0, [r6, #0]
    4026:	e7ed      	b.n	4004 <void std::vector<Dynamixel*, std::allocator<Dynamixel*> >::_M_emplace_back_aux<Dynamixel*>(Dynamixel*&&)+0x40>
    4028:	f1b3 4f80 	cmp.w	r3, #1073741824	; 0x40000000
    402c:	d2d5      	bcs.n	3fda <void std::vector<Dynamixel*, std::allocator<Dynamixel*> >::_M_emplace_back_aux<Dynamixel*>(Dynamixel*&&)+0x16>
    402e:	b913      	cbnz	r3, 4036 <void std::vector<Dynamixel*, std::allocator<Dynamixel*> >::_M_emplace_back_aux<Dynamixel*>(Dynamixel*&&)+0x72>
    4030:	461d      	mov	r5, r3
    4032:	461f      	mov	r7, r3
    4034:	e7db      	b.n	3fee <void std::vector<Dynamixel*, std::allocator<Dynamixel*> >::_M_emplace_back_aux<Dynamixel*>(Dynamixel*&&)+0x2a>
    4036:	00ed      	lsls	r5, r5, #3
    4038:	e7d3      	b.n	3fe2 <void std::vector<Dynamixel*, std::allocator<Dynamixel*> >::_M_emplace_back_aux<Dynamixel*>(Dynamixel*&&)+0x1e>
    403a:	bf00      	nop

0000403c <void std::vector<Dynamixel*, std::allocator<Dynamixel*> >::emplace_back<Dynamixel*>(Dynamixel*&&)>:
    403c:	b538      	push	{r3, r4, r5, lr}
    403e:	6843      	ldr	r3, [r0, #4]
    4040:	6884      	ldr	r4, [r0, #8]
    4042:	42a3      	cmp	r3, r4
    4044:	d007      	beq.n	4056 <void std::vector<Dynamixel*, std::allocator<Dynamixel*> >::emplace_back<Dynamixel*>(Dynamixel*&&)+0x1a>
    4046:	4602      	mov	r2, r0
    4048:	6809      	ldr	r1, [r1, #0]
    404a:	b10b      	cbz	r3, 4050 <void std::vector<Dynamixel*, std::allocator<Dynamixel*> >::emplace_back<Dynamixel*>(Dynamixel*&&)+0x14>
    404c:	6019      	str	r1, [r3, #0]
    404e:	6843      	ldr	r3, [r0, #4]
    4050:	3304      	adds	r3, #4
    4052:	6053      	str	r3, [r2, #4]
    4054:	bd38      	pop	{r3, r4, r5, pc}
    4056:	f7ff ffb5 	bl	3fc4 <void std::vector<Dynamixel*, std::allocator<Dynamixel*> >::_M_emplace_back_aux<Dynamixel*>(Dynamixel*&&)>
    405a:	bd38      	pop	{r3, r4, r5, pc}

0000405c <main>:
    405c:	e92d 4ff0 	stmdb	sp!, {r4, r5, r6, r7, r8, r9, r10, r11, lr}
    4060:	b08f      	sub	sp, #60	; 0x3c
    4062:	ab0e      	add	r3, sp, #56	; 0x38
    4064:	461a      	mov	r2, r3
    4066:	4b9f      	ldr	r3, [pc, #636]	; (42e4 <main+0x288>)
    4068:	489f      	ldr	r0, [pc, #636]	; (42e8 <main+0x28c>)
    406a:	681b      	ldr	r3, [r3, #0]
    406c:	f842 3d0c 	str.w	r3, [r2, #-12]!
    4070:	4614      	mov	r4, r2
    4072:	4611      	mov	r1, r2
    4074:	9201      	str	r2, [sp, #4]
    4076:	f7ff ffe1 	bl	403c <void std::vector<Dynamixel*, std::allocator<Dynamixel*> >::emplace_back<Dynamixel*>(Dynamixel*&&)>
    407a:	4b9c      	ldr	r3, [pc, #624]	; (42ec <main+0x290>)
    407c:	4621      	mov	r1, r4
    407e:	681b      	ldr	r3, [r3, #0]
    4080:	4899      	ldr	r0, [pc, #612]	; (42e8 <main+0x28c>)
    4082:	930b      	str	r3, [sp, #44]	; 0x2c
    4084:	f7ff ffda 	bl	403c <void std::vector<Dynamixel*, std::allocator<Dynamixel*> >::emplace_back<Dynamixel*>(Dynamixel*&&)>
    4088:	4b99      	ldr	r3, [pc, #612]	; (42f0 <main+0x294>)
    408a:	4621      	mov	r1, r4
    408c:	681b      	ldr	r3, [r3, #0]
    408e:	4896      	ldr	r0, [pc, #600]	; (42e8 <main+0x28c>)
    4090:	930b      	str	r3, [sp, #44]	; 0x2c
    4092:	f7ff ffd3 	bl	403c <void std::vector<Dynamixel*, std::allocator<Dynamixel*> >::emplace_back<Dynamixel*>(Dynamixel*&&)>
    4096:	4b97      	ldr	r3, [pc, #604]	; (42f4 <main+0x298>)
    4098:	4621      	mov	r1, r4
    409a:	681b      	ldr	r3, [r3, #0]
    409c:	4892      	ldr	r0, [pc, #584]	; (42e8 <main+0x28c>)
    409e:	930b      	str	r3, [sp, #44]	; 0x2c
    40a0:	f7ff ffcc 	bl	403c <void std::vector<Dynamixel*, std::allocator<Dynamixel*> >::emplace_back<Dynamixel*>(Dynamixel*&&)>
    40a4:	4b94      	ldr	r3, [pc, #592]	; (42f8 <main+0x29c>)
    40a6:	4621      	mov	r1, r4
    40a8:	681b      	ldr	r3, [r3, #0]
    40aa:	488f      	ldr	r0, [pc, #572]	; (42e8 <main+0x28c>)
    40ac:	930b      	str	r3, [sp, #44]	; 0x2c
    40ae:	f7ff ffc5 	bl	403c <void std::vector<Dynamixel*, std::allocator<Dynamixel*> >::emplace_back<Dynamixel*>(Dynamixel*&&)>
    40b2:	4b92      	ldr	r3, [pc, #584]	; (42fc <main+0x2a0>)
    40b4:	1d18      	adds	r0, r3, #4
    40b6:	f8d3 1100 	ldr.w	r1, [r3, #256]	; 0x100
    40ba:	f003 fb29 	bl	7710 <mbed::SerialBase::baud(int)>
    40be:	2200      	movs	r2, #0
    40c0:	4613      	mov	r3, r2
    40c2:	498f      	ldr	r1, [pc, #572]	; (4300 <main+0x2a4>)
    40c4:	f5a1 60b0 	sub.w	r0, r1, #1408	; 0x580
    40c8:	668a      	str	r2, [r1, #104]	; 0x68
    40ca:	f8c0 25ec 	str.w	r2, [r0, #1516]	; 0x5ec
    40ce:	f8c0 25f4 	str.w	r2, [r0, #1524]	; 0x5f4
    40d2:	f8c0 25f0 	str.w	r2, [r0, #1520]	; 0x5f0
    40d6:	f851 2f04 	ldr.w	r2, [r1, #4]!
    40da:	b11a      	cbz	r2, 40e4 <main+0x88>
    40dc:	3301      	adds	r3, #1
    40de:	2b19      	cmp	r3, #25
    40e0:	d1f9      	bne.n	40d6 <main+0x7a>
    40e2:	e007      	b.n	40f4 <main+0x98>
    40e4:	4985      	ldr	r1, [pc, #532]	; (42fc <main+0x2a0>)
    40e6:	4a87      	ldr	r2, [pc, #540]	; (4304 <main+0x2a8>)
    40e8:	eb01 0183 	add.w	r1, r1, r3, lsl #2
    40ec:	3364      	adds	r3, #100	; 0x64
    40ee:	f8c1 2584 	str.w	r2, [r1, #1412]	; 0x584
    40f2:	6053      	str	r3, [r2, #4]
    40f4:	4d84      	ldr	r5, [pc, #528]	; (4308 <main+0x2ac>)
    40f6:	2320      	movs	r3, #32
    40f8:	2080      	movs	r0, #128	; 0x80
    40fa:	f885 3024 	strb.w	r3, [r5, #36]	; 0x24
    40fe:	f001 ff57 	bl	5fb0 <__wrap_malloc>
    4102:	4604      	mov	r4, r0
    4104:	4a81      	ldr	r2, [pc, #516]	; (430c <main+0x2b0>)
    4106:	62e8      	str	r0, [r5, #44]	; 0x2c
    4108:	2300      	movs	r3, #0
    410a:	f852 1f04 	ldr.w	r1, [r2, #4]!
    410e:	b119      	cbz	r1, 4118 <main+0xbc>
    4110:	3301      	adds	r3, #1
    4112:	2b19      	cmp	r3, #25
    4114:	d1f9      	bne.n	410a <main+0xae>
    4116:	e008      	b.n	412a <main+0xce>
    4118:	4a7d      	ldr	r2, [pc, #500]	; (4310 <main+0x2b4>)
    411a:	4878      	ldr	r0, [pc, #480]	; (42fc <main+0x2a0>)
    411c:	f503 71a4 	add.w	r1, r3, #328	; 0x148
    4120:	337d      	adds	r3, #125	; 0x7d
    4122:	60d0      	str	r0, [r2, #12]
    4124:	f840 2021 	str.w	r2, [r0, r1, lsl #2]
    4128:	6093      	str	r3, [r2, #8]
    412a:	4a78      	ldr	r2, [pc, #480]	; (430c <main+0x2b0>)
    412c:	2300      	movs	r3, #0
    412e:	f852 1f04 	ldr.w	r1, [r2, #4]!
    4132:	b119      	cbz	r1, 413c <main+0xe0>
    4134:	3301      	adds	r3, #1
    4136:	2b19      	cmp	r3, #25
    4138:	d1f9      	bne.n	412e <main+0xd2>
    413a:	e008      	b.n	414e <main+0xf2>
    413c:	4a75      	ldr	r2, [pc, #468]	; (4314 <main+0x2b8>)
    413e:	486f      	ldr	r0, [pc, #444]	; (42fc <main+0x2a0>)
    4140:	f503 71a4 	add.w	r1, r3, #328	; 0x148
    4144:	337d      	adds	r3, #125	; 0x7d
    4146:	60d0      	str	r0, [r2, #12]
    4148:	f840 2021 	str.w	r2, [r0, r1, lsl #2]
    414c:	6093      	str	r3, [r2, #8]
    414e:	f8df a1ec 	ldr.w	r10, [pc, #492]	; 433c <main+0x2e0>
    4152:	2305      	movs	r3, #5
    4154:	2014      	movs	r0, #20
    4156:	f88a 3024 	strb.w	r3, [r10, #36]	; 0x24
    415a:	f001 ff29 	bl	5fb0 <__wrap_malloc>
    415e:	4a6b      	ldr	r2, [pc, #428]	; (430c <main+0x2b0>)
    4160:	f8ca 002c 	str.w	r0, [r10, #44]	; 0x2c
    4164:	2300      	movs	r3, #0
    4166:	f852 1f04 	ldr.w	r1, [r2, #4]!
    416a:	b129      	cbz	r1, 4178 <main+0x11c>
    416c:	3301      	adds	r3, #1
    416e:	2b19      	cmp	r3, #25
    4170:	d1f9      	bne.n	4166 <main+0x10a>
    4172:	4b69      	ldr	r3, [pc, #420]	; (4318 <main+0x2bc>)
    4174:	9306      	str	r3, [sp, #24]
    4176:	e00a      	b.n	418e <main+0x132>
    4178:	4a67      	ldr	r2, [pc, #412]	; (4318 <main+0x2bc>)
    417a:	4d60      	ldr	r5, [pc, #384]	; (42fc <main+0x2a0>)
    417c:	4610      	mov	r0, r2
    417e:	9206      	str	r2, [sp, #24]
    4180:	f503 72a4 	add.w	r2, r3, #328	; 0x148
    4184:	337d      	adds	r3, #125	; 0x7d
    4186:	60c5      	str	r5, [r0, #12]
    4188:	f845 0022 	str.w	r0, [r5, r2, lsl #2]
    418c:	6083      	str	r3, [r0, #8]
    418e:	1f23      	subs	r3, r4, #4
    4190:	2200      	movs	r2, #0
    4192:	347c      	adds	r4, #124	; 0x7c
    4194:	f843 2f04 	str.w	r2, [r3, #4]!
    4198:	42a3      	cmp	r3, r4
    419a:	d1fb      	bne.n	4194 <main+0x138>
    419c:	f7fd f9fa 	bl	1594 <DxInitialize()>
    41a0:	f7fd fa7e 	bl	16a0 <DxGoHome()>
    41a4:	4a5d      	ldr	r2, [pc, #372]	; (431c <main+0x2c0>)
    41a6:	4b5e      	ldr	r3, [pc, #376]	; (4320 <main+0x2c4>)
    41a8:	9202      	str	r2, [sp, #8]
    41aa:	4a5e      	ldr	r2, [pc, #376]	; (4324 <main+0x2c8>)
    41ac:	9307      	str	r3, [sp, #28]
    41ae:	9203      	str	r2, [sp, #12]
    41b0:	f5a3 7b48 	sub.w	r11, r3, #800	; 0x320
    41b4:	4b5c      	ldr	r3, [pc, #368]	; (4328 <main+0x2cc>)
    41b6:	681b      	ldr	r3, [r3, #0]
    41b8:	2b00      	cmp	r3, #0
    41ba:	f040 8134 	bne.w	4426 <main+0x3ca>
    41be:	4b5b      	ldr	r3, [pc, #364]	; (432c <main+0x2d0>)
    41c0:	681c      	ldr	r4, [r3, #0]
    41c2:	2c00      	cmp	r4, #0
    41c4:	f040 838f 	bne.w	48e6 <main+0x88a>
    41c8:	9b02      	ldr	r3, [sp, #8]
    41ca:	6818      	ldr	r0, [r3, #0]
    41cc:	f003 fe6c 	bl	7ea8 <__aeabi_i2d>
    41d0:	9d03      	ldr	r5, [sp, #12]
    41d2:	4606      	mov	r6, r0
    41d4:	6828      	ldr	r0, [r5, #0]
    41d6:	460f      	mov	r7, r1
    41d8:	f003 fe78 	bl	7ecc <__aeabi_f2d>
    41dc:	4602      	mov	r2, r0
    41de:	460b      	mov	r3, r1
    41e0:	4630      	mov	r0, r6
    41e2:	4639      	mov	r1, r7
    41e4:	f003 fd14 	bl	7c10 <__adddf3>
    41e8:	f004 f8fe 	bl	83e8 <__aeabi_d2f>
    41ec:	4b4b      	ldr	r3, [pc, #300]	; (431c <main+0x2c0>)
    41ee:	4606      	mov	r6, r0
    41f0:	461a      	mov	r2, r3
    41f2:	9302      	str	r3, [sp, #8]
    41f4:	462b      	mov	r3, r5
    41f6:	6018      	str	r0, [r3, #0]
    41f8:	4b4a      	ldr	r3, [pc, #296]	; (4324 <main+0x2c8>)
    41fa:	4691      	mov	r9, r2
    41fc:	9303      	str	r3, [sp, #12]
    41fe:	461d      	mov	r5, r3
    4200:	e02c      	b.n	425c <main+0x200>
    4202:	f859 0f04 	ldr.w	r0, [r9, #4]!
    4206:	f003 fe4f 	bl	7ea8 <__aeabi_i2d>
    420a:	4606      	mov	r6, r0
    420c:	6868      	ldr	r0, [r5, #4]
    420e:	460f      	mov	r7, r1
    4210:	f003 fe5c 	bl	7ecc <__aeabi_f2d>
    4214:	4602      	mov	r2, r0
    4216:	460b      	mov	r3, r1
    4218:	4630      	mov	r0, r6
    421a:	4639      	mov	r1, r7
    421c:	f003 fcf8 	bl	7c10 <__adddf3>
    4220:	f004 f8e2 	bl	83e8 <__aeabi_d2f>
    4224:	4606      	mov	r6, r0
    4226:	4b42      	ldr	r3, [pc, #264]	; (4330 <main+0x2d4>)
    4228:	606e      	str	r6, [r5, #4]
    422a:	f853 0008 	ldr.w	r0, [r3, r8]
    422e:	f004 f9e5 	bl	85fc <__aeabi_i2f>
    4232:	4607      	mov	r7, r0
    4234:	4601      	mov	r1, r0
    4236:	4630      	mov	r0, r6
    4238:	f004 fbf0 	bl	8a1c <__aeabi_fcmpgt>
    423c:	b108      	cbz	r0, 4242 <main+0x1e6>
    423e:	463e      	mov	r6, r7
    4240:	606f      	str	r7, [r5, #4]
    4242:	4b3c      	ldr	r3, [pc, #240]	; (4334 <main+0x2d8>)
    4244:	f853 0008 	ldr.w	r0, [r3, r8]
    4248:	f004 f9d8 	bl	85fc <__aeabi_i2f>
    424c:	4631      	mov	r1, r6
    424e:	4607      	mov	r7, r0
    4250:	f004 fbe4 	bl	8a1c <__aeabi_fcmpgt>
    4254:	b108      	cbz	r0, 425a <main+0x1fe>
    4256:	463e      	mov	r6, r7
    4258:	606f      	str	r7, [r5, #4]
    425a:	3504      	adds	r5, #4
    425c:	4b22      	ldr	r3, [pc, #136]	; (42e8 <main+0x28c>)
    425e:	4630      	mov	r0, r6
    4260:	681b      	ldr	r3, [r3, #0]
    4262:	ea4f 0884 	mov.w	r8, r4, lsl #2
    4266:	f853 6024 	ldr.w	r6, [r3, r4, lsl #2]
    426a:	f004 fbe1 	bl	8a30 <__aeabi_f2iz>
    426e:	6833      	ldr	r3, [r6, #0]
    4270:	4601      	mov	r1, r0
    4272:	685b      	ldr	r3, [r3, #4]
    4274:	4630      	mov	r0, r6
    4276:	2200      	movs	r2, #0
    4278:	4798      	blx	r3
    427a:	4b1b      	ldr	r3, [pc, #108]	; (42e8 <main+0x28c>)
    427c:	f8da 602c 	ldr.w	r6, [r10, #44]	; 0x2c
    4280:	681b      	ldr	r3, [r3, #0]
    4282:	f108 0804 	add.w	r8, r8, #4
    4286:	f853 0024 	ldr.w	r0, [r3, r4, lsl #2]
    428a:	6803      	ldr	r3, [r0, #0]
    428c:	6a1b      	ldr	r3, [r3, #32]
    428e:	4798      	blx	r3
    4290:	f846 0024 	str.w	r0, [r6, r4, lsl #2]
    4294:	3401      	adds	r4, #1
    4296:	2c05      	cmp	r4, #5
    4298:	d1b3      	bne.n	4202 <main+0x1a6>
    429a:	9a06      	ldr	r2, [sp, #24]
    429c:	4926      	ldr	r1, [pc, #152]	; (4338 <main+0x2dc>)
    429e:	6893      	ldr	r3, [r2, #8]
    42a0:	68d7      	ldr	r7, [r2, #12]
    42a2:	9304      	str	r3, [sp, #16]
    42a4:	461a      	mov	r2, r3
    42a6:	683b      	ldr	r3, [r7, #0]
    42a8:	681b      	ldr	r3, [r3, #0]
    42aa:	428b      	cmp	r3, r1
    42ac:	f040 8082 	bne.w	43b4 <main+0x358>
    42b0:	2a63      	cmp	r2, #99	; 0x63
    42b2:	dd03      	ble.n	42bc <main+0x260>
    42b4:	f897 35fc 	ldrb.w	r3, [r7, #1532]	; 0x5fc
    42b8:	2b00      	cmp	r3, #0
    42ba:	d07f      	beq.n	43bc <main+0x360>
    42bc:	f89a 3008 	ldrb.w	r3, [r10, #8]
    42c0:	2600      	movs	r6, #0
    42c2:	f887 3327 	strb.w	r3, [r7, #807]	; 0x327
    42c6:	f887 6328 	strb.w	r6, [r7, #808]	; 0x328
    42ca:	f887 6329 	strb.w	r6, [r7, #809]	; 0x329
    42ce:	f887 632a 	strb.w	r6, [r7, #810]	; 0x32a
    42d2:	f207 3827 	addw	r8, r7, #807	; 0x327
    42d6:	2b00      	cmp	r3, #0
    42d8:	f000 835b 	beq.w	4992 <main+0x936>
    42dc:	f04f 0904 	mov.w	r9, #4
    42e0:	9705      	str	r7, [sp, #20]
    42e2:	e058      	b.n	4396 <main+0x33a>
    42e4:	1000094c 	.word	0x1000094c
    42e8:	100001f8 	.word	0x100001f8
    42ec:	1000099c 	.word	0x1000099c
    42f0:	10000204 	.word	0x10000204
    42f4:	10000950 	.word	0x10000950
    42f8:	1000089c 	.word	0x1000089c
    42fc:	10000250 	.word	0x10000250
    4300:	100007d0 	.word	0x100007d0
    4304:	100008f8 	.word	0x100008f8
    4308:	100001c8 	.word	0x100001c8
    430c:	1000076c 	.word	0x1000076c
    4310:	10000208 	.word	0x10000208
    4314:	10000938 	.word	0x10000938
    4318:	10000988 	.word	0x10000988
    431c:	10000888 	.word	0x10000888
    4320:	10000570 	.word	0x10000570
    4324:	10000108 	.word	0x10000108
    4328:	10000954 	.word	0x10000954
    432c:	1000024c 	.word	0x1000024c
    4330:	100000f4 	.word	0x100000f4
    4334:	100000cc 	.word	0x100000cc
    4338:	000010d5 	.word	0x000010d5
    433c:	1000021c 	.word	0x1000021c
    4340:	6860      	ldr	r0, [r4, #4]
    4342:	f005 ff14 	bl	a16e <strlen>
    4346:	4607      	mov	r7, r0
    4348:	9b01      	ldr	r3, [sp, #4]
    434a:	900b      	str	r0, [sp, #44]	; 0x2c
    434c:	6818      	ldr	r0, [r3, #0]
    434e:	463a      	mov	r2, r7
    4350:	f848 0009 	str.w	r0, [r8, r9]
    4354:	6861      	ldr	r1, [r4, #4]
    4356:	1d28      	adds	r0, r5, #4
    4358:	f004 ff82 	bl	9260 <memcpy>
    435c:	68a2      	ldr	r2, [r4, #8]
    435e:	443d      	add	r5, r7
    4360:	712a      	strb	r2, [r5, #4]
    4362:	68a2      	ldr	r2, [r4, #8]
    4364:	f107 000c 	add.w	r0, r7, #12
    4368:	0a12      	lsrs	r2, r2, #8
    436a:	716a      	strb	r2, [r5, #5]
    436c:	8962      	ldrh	r2, [r4, #10]
    436e:	71aa      	strb	r2, [r5, #6]
    4370:	7ae2      	ldrb	r2, [r4, #11]
    4372:	71ea      	strb	r2, [r5, #7]
    4374:	68e2      	ldr	r2, [r4, #12]
    4376:	722a      	strb	r2, [r5, #8]
    4378:	68e2      	ldr	r2, [r4, #12]
    437a:	0a12      	lsrs	r2, r2, #8
    437c:	726a      	strb	r2, [r5, #9]
    437e:	89e2      	ldrh	r2, [r4, #14]
    4380:	72aa      	strb	r2, [r5, #10]
    4382:	7be2      	ldrb	r2, [r4, #15]
    4384:	72ea      	strb	r2, [r5, #11]
    4386:	3601      	adds	r6, #1
    4388:	f89a 2008 	ldrb.w	r2, [r10, #8]
    438c:	b2f6      	uxtb	r6, r6
    438e:	42b2      	cmp	r2, r6
    4390:	4481      	add	r9, r0
    4392:	f240 821e 	bls.w	47d2 <main+0x776>
    4396:	f8da 401c 	ldr.w	r4, [r10, #28]
    439a:	0132      	lsls	r2, r6, #4
    439c:	58a1      	ldr	r1, [r4, r2]
    439e:	4bbd      	ldr	r3, [pc, #756]	; (4694 <main+0x638>)
    43a0:	4414      	add	r4, r2
    43a2:	680a      	ldr	r2, [r1, #0]
    43a4:	eb08 0509 	add.w	r5, r8, r9
    43a8:	429a      	cmp	r2, r3
    43aa:	d0c9      	beq.n	4340 <main+0x2e4>
    43ac:	4629      	mov	r1, r5
    43ae:	4620      	mov	r0, r4
    43b0:	4790      	blx	r2
    43b2:	e7e8      	b.n	4386 <main+0x32a>
    43b4:	9904      	ldr	r1, [sp, #16]
    43b6:	4638      	mov	r0, r7
    43b8:	4ab7      	ldr	r2, [pc, #732]	; (4698 <main+0x63c>)
    43ba:	4798      	blx	r3
    43bc:	48b7      	ldr	r0, [pc, #732]	; (469c <main+0x640>)
    43be:	f003 fa5b 	bl	7878 <mbed::Timer::read_ms()>
    43c2:	f642 22f8 	movw	r2, #11000	; 0x2af8
    43c6:	4bb6      	ldr	r3, [pc, #728]	; (46a0 <main+0x644>)
    43c8:	4681      	mov	r9, r0
    43ca:	f8d3 3604 	ldr.w	r3, [r3, #1540]	; 0x604
    43ce:	1ac3      	subs	r3, r0, r3
    43d0:	4293      	cmp	r3, r2
    43d2:	bf84      	itt	hi
    43d4:	2300      	movhi	r3, #0
    43d6:	f88b 35fc 	strbhi.w	r3, [r11, #1532]	; 0x5fc
    43da:	4bb1      	ldr	r3, [pc, #708]	; (46a0 <main+0x644>)
    43dc:	f8d3 35e8 	ldr.w	r3, [r3, #1512]	; 0x5e8
    43e0:	b133      	cbz	r3, 43f0 <main+0x394>
    43e2:	f8db 3608 	ldr.w	r3, [r11, #1544]	; 0x608
    43e6:	4298      	cmp	r0, r3
    43e8:	bf84      	itt	hi
    43ea:	2300      	movhi	r3, #0
    43ec:	f8cb 35e8 	strhi.w	r3, [r11, #1512]	; 0x5e8
    43f0:	4cab      	ldr	r4, [pc, #684]	; (46a0 <main+0x644>)
    43f2:	1d20      	adds	r0, r4, #4
    43f4:	f001 ff78 	bl	62e8 <AjK::MODSERIAL::rxBufferEmpty()>
    43f8:	4605      	mov	r5, r0
    43fa:	b1b8      	cbz	r0, 442c <main+0x3d0>
    43fc:	4ba8      	ldr	r3, [pc, #672]	; (46a0 <main+0x644>)
    43fe:	f893 35fc 	ldrb.w	r3, [r3, #1532]	; 0x5fc
    4402:	b143      	cbz	r3, 4416 <main+0x3ba>
    4404:	f640 12c4 	movw	r2, #2500	; 0x9c4
    4408:	f8db 3600 	ldr.w	r3, [r11, #1536]	; 0x600
    440c:	ebc3 0309 	rsb	r3, r3, r9
    4410:	4293      	cmp	r3, r2
    4412:	f200 8270 	bhi.w	48f6 <main+0x89a>
    4416:	201e      	movs	r0, #30
    4418:	f002 fab8 	bl	698c <wait_ms>
    441c:	4ba1      	ldr	r3, [pc, #644]	; (46a4 <main+0x648>)
    441e:	681b      	ldr	r3, [r3, #0]
    4420:	2b00      	cmp	r3, #0
    4422:	f43f aecc 	beq.w	41be <main+0x162>
    4426:	f7fd f93b 	bl	16a0 <DxGoHome()>
    442a:	e6c3      	b.n	41b4 <main+0x158>
    442c:	2101      	movs	r1, #1
    442e:	1d20      	adds	r0, r4, #4
    4430:	f001 fdd8 	bl	5fe4 <AjK::MODSERIAL::__getc(bool)>
    4434:	2800      	cmp	r0, #0
    4436:	dbe1      	blt.n	43fc <main+0x3a0>
    4438:	f8db 35f8 	ldr.w	r3, [r11, #1528]	; 0x5f8
    443c:	f8db 65e8 	ldr.w	r6, [r11, #1512]	; 0x5e8
    4440:	4403      	add	r3, r0
    4442:	2e07      	cmp	r6, #7
    4444:	f8cb 35f8 	str.w	r3, [r11, #1528]	; 0x5f8
    4448:	f000 8103 	beq.w	4652 <main+0x5f6>
    444c:	b956      	cbnz	r6, 4464 <main+0x408>
    444e:	28ff      	cmp	r0, #255	; 0xff
    4450:	f040 8114 	bne.w	467c <main+0x620>
    4454:	2201      	movs	r2, #1
    4456:	f109 0314 	add.w	r3, r9, #20
    445a:	f8cb 25e8 	str.w	r2, [r11, #1512]	; 0x5e8
    445e:	f8cb 3608 	str.w	r3, [r11, #1544]	; 0x608
    4462:	e7c5      	b.n	43f0 <main+0x394>
    4464:	2e01      	cmp	r6, #1
    4466:	f000 8125 	beq.w	46b4 <main+0x658>
    446a:	2e02      	cmp	r6, #2
    446c:	f000 8172 	beq.w	4754 <main+0x6f8>
    4470:	2e03      	cmp	r6, #3
    4472:	f000 8179 	beq.w	4768 <main+0x70c>
    4476:	2e04      	cmp	r6, #4
    4478:	f000 8180 	beq.w	477c <main+0x720>
    447c:	2e05      	cmp	r6, #5
    447e:	f000 818e 	beq.w	479e <main+0x742>
    4482:	2e06      	cmp	r6, #6
    4484:	f000 8193 	beq.w	47ae <main+0x752>
    4488:	2e08      	cmp	r6, #8
    448a:	d1b1      	bne.n	43f0 <main+0x394>
    448c:	4a86      	ldr	r2, [pc, #536]	; (46a8 <main+0x64c>)
    448e:	2100      	movs	r1, #0
    4490:	401a      	ands	r2, r3
    4492:	4b83      	ldr	r3, [pc, #524]	; (46a0 <main+0x644>)
    4494:	428a      	cmp	r2, r1
    4496:	f8c3 15e8 	str.w	r1, [r3, #1512]	; 0x5e8
    449a:	f2c0 8275 	blt.w	4988 <main+0x92c>
    449e:	2aff      	cmp	r2, #255	; 0xff
    44a0:	d1a6      	bne.n	43f0 <main+0x394>
    44a2:	4b7f      	ldr	r3, [pc, #508]	; (46a0 <main+0x644>)
    44a4:	4d7e      	ldr	r5, [pc, #504]	; (46a0 <main+0x644>)
    44a6:	f8d3 35f0 	ldr.w	r3, [r3, #1520]	; 0x5f0
    44aa:	2b00      	cmp	r3, #0
    44ac:	f000 83e0 	beq.w	4c70 <main+0xc14>
    44b0:	2b0a      	cmp	r3, #10
    44b2:	f000 839c 	beq.w	4bee <main+0xb92>
    44b6:	2b06      	cmp	r3, #6
    44b8:	f000 82e2 	beq.w	4a80 <main+0xa24>
    44bc:	2b0b      	cmp	r3, #11
    44be:	f000 8276 	beq.w	49ae <main+0x952>
    44c2:	eb0b 0383 	add.w	r3, r11, r3, lsl #2
    44c6:	f8d3 43f4 	ldr.w	r4, [r3, #1012]	; 0x3f4
    44ca:	2c00      	cmp	r4, #0
    44cc:	d090      	beq.n	43f0 <main+0x394>
    44ce:	6823      	ldr	r3, [r4, #0]
    44d0:	4a76      	ldr	r2, [pc, #472]	; (46ac <main+0x650>)
    44d2:	681b      	ldr	r3, [r3, #0]
    44d4:	4293      	cmp	r3, r2
    44d6:	f040 83c5 	bne.w	4c64 <main+0xc08>
    44da:	f89b 5120 	ldrb.w	r5, [r11, #288]	; 0x120
    44de:	7d23      	ldrb	r3, [r4, #20]
    44e0:	f104 020c 	add.w	r2, r4, #12
    44e4:	42ab      	cmp	r3, r5
    44e6:	9204      	str	r2, [sp, #16]
    44e8:	d204      	bcs.n	44f4 <main+0x498>
    44ea:	0129      	lsls	r1, r5, #4
    44ec:	6aa0      	ldr	r0, [r4, #40]	; 0x28
    44ee:	f001 fd65 	bl	5fbc <__wrap_realloc>
    44f2:	62a0      	str	r0, [r4, #40]	; 0x28
    44f4:	7525      	strb	r5, [r4, #20]
    44f6:	2d00      	cmp	r5, #0
    44f8:	f000 8642 	beq.w	5180 <main+0x1124>
    44fc:	f8cd 9014 	str.w	r9, [sp, #20]
    4500:	f8dd 9004 	ldr.w	r9, [sp, #4]
    4504:	2700      	movs	r7, #0
    4506:	f104 0618 	add.w	r6, r4, #24
    450a:	2504      	movs	r5, #4
    450c:	4b68      	ldr	r3, [pc, #416]	; (46b0 <main+0x654>)
    450e:	eb03 0e05 	add.w	lr, r3, r5
    4512:	f8de 0000 	ldr.w	r0, [lr]
    4516:	f10e 0803 	add.w	r8, lr, #3
    451a:	f8c9 0000 	str.w	r0, [r9]
    451e:	980b      	ldr	r0, [sp, #44]	; 0x2c
    4520:	f100 0c04 	add.w	r12, r0, #4
    4524:	f1bc 0f04 	cmp.w	r12, #4
    4528:	d908      	bls.n	453c <main+0x4e0>
    452a:	4643      	mov	r3, r8
    452c:	1cc1      	adds	r1, r0, #3
    452e:	4471      	add	r1, lr
    4530:	f813 2f01 	ldrb.w	r2, [r3, #1]!
    4534:	4299      	cmp	r1, r3
    4536:	f803 2c01 	strb.w	r2, [r3, #-1]
    453a:	d1f9      	bne.n	4530 <main+0x4d4>
    453c:	f04f 0300 	mov.w	r3, #0
    4540:	eb0e 0200 	add.w	r2, lr, r0
    4544:	70d3      	strb	r3, [r2, #3]
    4546:	f8c4 801c 	str.w	r8, [r4, #28]
    454a:	f81e 300c 	ldrb.w	r3, [lr, r12]
    454e:	300c      	adds	r0, #12
    4550:	6223      	str	r3, [r4, #32]
    4552:	f892 c005 	ldrb.w	r12, [r2, #5]
    4556:	4405      	add	r5, r0
    4558:	ea43 230c 	orr.w	r3, r3, r12, lsl #8
    455c:	6223      	str	r3, [r4, #32]
    455e:	f892 c006 	ldrb.w	r12, [r2, #6]
    4562:	f8d4 e028 	ldr.w	lr, [r4, #40]	; 0x28
    4566:	ea43 430c 	orr.w	r3, r3, r12, lsl #16
    456a:	6223      	str	r3, [r4, #32]
    456c:	f892 c007 	ldrb.w	r12, [r2, #7]
    4570:	0139      	lsls	r1, r7, #4
    4572:	ea43 630c 	orr.w	r3, r3, r12, lsl #24
    4576:	6223      	str	r3, [r4, #32]
    4578:	7a13      	ldrb	r3, [r2, #8]
    457a:	3701      	adds	r7, #1
    457c:	6263      	str	r3, [r4, #36]	; 0x24
    457e:	f892 c009 	ldrb.w	r12, [r2, #9]
    4582:	b2ff      	uxtb	r7, r7
    4584:	ea43 200c 	orr.w	r0, r3, r12, lsl #8
    4588:	6260      	str	r0, [r4, #36]	; 0x24
    458a:	f892 c00a 	ldrb.w	r12, [r2, #10]
    458e:	eb0e 0301 	add.w	r3, lr, r1
    4592:	ea40 400c 	orr.w	r0, r0, r12, lsl #16
    4596:	6260      	str	r0, [r4, #36]	; 0x24
    4598:	7ad2      	ldrb	r2, [r2, #11]
    459a:	ea40 6002 	orr.w	r0, r0, r2, lsl #24
    459e:	6260      	str	r0, [r4, #36]	; 0x24
    45a0:	f8d6 8000 	ldr.w	r8, [r6]
    45a4:	f8d6 c004 	ldr.w	r12, [r6, #4]
    45a8:	68b0      	ldr	r0, [r6, #8]
    45aa:	68f2      	ldr	r2, [r6, #12]
    45ac:	f84e 8001 	str.w	r8, [lr, r1]
    45b0:	f8c3 c004 	str.w	r12, [r3, #4]
    45b4:	6098      	str	r0, [r3, #8]
    45b6:	60da      	str	r2, [r3, #12]
    45b8:	7d23      	ldrb	r3, [r4, #20]
    45ba:	42bb      	cmp	r3, r7
    45bc:	d8a6      	bhi.n	450c <main+0x4b0>
    45be:	1d2a      	adds	r2, r5, #4
    45c0:	f8dd 9014 	ldr.w	r9, [sp, #20]
    45c4:	1d16      	adds	r6, r2, #4
    45c6:	1c6f      	adds	r7, r5, #1
    45c8:	1ca8      	adds	r0, r5, #2
    45ca:	1ce9      	adds	r1, r5, #3
    45cc:	4b34      	ldr	r3, [pc, #208]	; (46a0 <main+0x644>)
    45ce:	441d      	add	r5, r3
    45d0:	f895 3120 	ldrb.w	r3, [r5, #288]	; 0x120
    45d4:	4d32      	ldr	r5, [pc, #200]	; (46a0 <main+0x644>)
    45d6:	62e3      	str	r3, [r4, #44]	; 0x2c
    45d8:	442f      	add	r7, r5
    45da:	f897 5120 	ldrb.w	r5, [r7, #288]	; 0x120
    45de:	4f30      	ldr	r7, [pc, #192]	; (46a0 <main+0x644>)
    45e0:	ea43 2305 	orr.w	r3, r3, r5, lsl #8
    45e4:	62e3      	str	r3, [r4, #44]	; 0x2c
    45e6:	4438      	add	r0, r7
    45e8:	f890 0120 	ldrb.w	r0, [r0, #288]	; 0x120
    45ec:	4439      	add	r1, r7
    45ee:	ea43 4300 	orr.w	r3, r3, r0, lsl #16
    45f2:	62e3      	str	r3, [r4, #44]	; 0x2c
    45f4:	f891 1120 	ldrb.w	r1, [r1, #288]	; 0x120
    45f8:	443a      	add	r2, r7
    45fa:	ea43 6301 	orr.w	r3, r3, r1, lsl #24
    45fe:	62e3      	str	r3, [r4, #44]	; 0x2c
    4600:	f892 5120 	ldrb.w	r5, [r2, #288]	; 0x120
    4604:	f894 3030 	ldrb.w	r3, [r4, #48]	; 0x30
    4608:	42ab      	cmp	r3, r5
    460a:	d204      	bcs.n	4616 <main+0x5ba>
    460c:	0069      	lsls	r1, r5, #1
    460e:	6b60      	ldr	r0, [r4, #52]	; 0x34
    4610:	f001 fcd4 	bl	5fbc <__wrap_realloc>
    4614:	6360      	str	r0, [r4, #52]	; 0x34
    4616:	f884 5030 	strb.w	r5, [r4, #48]	; 0x30
    461a:	b1b5      	cbz	r5, 464a <main+0x5ee>
    461c:	4b20      	ldr	r3, [pc, #128]	; (46a0 <main+0x644>)
    461e:	f104 0532 	add.w	r5, r4, #50	; 0x32
    4622:	1998      	adds	r0, r3, r6
    4624:	2100      	movs	r1, #0
    4626:	f890 2121 	ldrb.w	r2, [r0, #289]	; 0x121
    462a:	f890 3120 	ldrb.w	r3, [r0, #288]	; 0x120
    462e:	3002      	adds	r0, #2
    4630:	ea43 2302 	orr.w	r3, r3, r2, lsl #8
    4634:	8663      	strh	r3, [r4, #50]	; 0x32
    4636:	882e      	ldrh	r6, [r5, #0]
    4638:	6b63      	ldr	r3, [r4, #52]	; 0x34
    463a:	1c4a      	adds	r2, r1, #1
    463c:	f823 6011 	strh.w	r6, [r3, r1, lsl #1]
    4640:	f894 3030 	ldrb.w	r3, [r4, #48]	; 0x30
    4644:	b2d1      	uxtb	r1, r2
    4646:	428b      	cmp	r3, r1
    4648:	d8ed      	bhi.n	4626 <main+0x5ca>
    464a:	6ba3      	ldr	r3, [r4, #56]	; 0x38
    464c:	9804      	ldr	r0, [sp, #16]
    464e:	4798      	blx	r3
    4650:	e6ce      	b.n	43f0 <main+0x394>
    4652:	f8db 25f4 	ldr.w	r2, [r11, #1524]	; 0x5f4
    4656:	f8db 35ec 	ldr.w	r3, [r11, #1516]	; 0x5ec
    465a:	1c51      	adds	r1, r2, #1
    465c:	3b01      	subs	r3, #1
    465e:	445a      	add	r2, r11
    4660:	f8cb 15f4 	str.w	r1, [r11, #1524]	; 0x5f4
    4664:	f882 0120 	strb.w	r0, [r2, #288]	; 0x120
    4668:	f8cb 35ec 	str.w	r3, [r11, #1516]	; 0x5ec
    466c:	2b00      	cmp	r3, #0
    466e:	f47f aebf 	bne.w	43f0 <main+0x394>
    4672:	4a0b      	ldr	r2, [pc, #44]	; (46a0 <main+0x644>)
    4674:	2308      	movs	r3, #8
    4676:	f8c2 35e8 	str.w	r3, [r2, #1512]	; 0x5e8
    467a:	e6b9      	b.n	43f0 <main+0x394>
    467c:	f504 7082 	add.w	r0, r4, #260	; 0x104
    4680:	f003 f8fa 	bl	7878 <mbed::Timer::read_ms()>
    4684:	ebc9 0000 	rsb	r0, r9, r0
    4688:	2805      	cmp	r0, #5
    468a:	f67f aeb1 	bls.w	43f0 <main+0x394>
    468e:	f884 65fc 	strb.w	r6, [r4, #1532]	; 0x5fc
    4692:	e6c0      	b.n	4416 <main+0x3ba>
    4694:	000002b9 	.word	0x000002b9
    4698:	1000021c 	.word	0x1000021c
    469c:	10000354 	.word	0x10000354
    46a0:	10000250 	.word	0x10000250
    46a4:	10000954 	.word	0x10000954
    46a8:	800000ff 	.word	0x800000ff
    46ac:	00000c5d 	.word	0x00000c5d
    46b0:	10000370 	.word	0x10000370
    46b4:	28fe      	cmp	r0, #254	; 0xfe
    46b6:	d06e      	beq.n	4796 <main+0x73a>
    46b8:	f89b 35fc 	ldrb.w	r3, [r11, #1532]	; 0x5fc
    46bc:	f8cb 55e8 	str.w	r5, [r11, #1512]	; 0x5e8
    46c0:	2b00      	cmp	r3, #0
    46c2:	f47f ae95 	bne.w	43f0 <main+0x394>
    46c6:	200a      	movs	r0, #10
    46c8:	461a      	mov	r2, r3
    46ca:	f88b 3327 	strb.w	r3, [r11, #807]	; 0x327
    46ce:	f88b 3328 	strb.w	r3, [r11, #808]	; 0x328
    46d2:	f88b 3329 	strb.w	r3, [r11, #809]	; 0x329
    46d6:	f88b 332a 	strb.w	r3, [r11, #810]	; 0x32a
    46da:	f88b 332b 	strb.w	r3, [r11, #811]	; 0x32b
    46de:	f88b 332c 	strb.w	r3, [r11, #812]	; 0x32c
    46e2:	f88b 332d 	strb.w	r3, [r11, #813]	; 0x32d
    46e6:	f88b 332e 	strb.w	r3, [r11, #814]	; 0x32e
    46ea:	f88b 3323 	strb.w	r3, [r11, #803]	; 0x323
    46ee:	f88b 3326 	strb.w	r3, [r11, #806]	; 0x326
    46f2:	23fe      	movs	r3, #254	; 0xfe
    46f4:	4601      	mov	r1, r0
    46f6:	25ff      	movs	r5, #255	; 0xff
    46f8:	f88b 0325 	strb.w	r0, [r11, #805]	; 0x325
    46fc:	f88b 3321 	strb.w	r3, [r11, #801]	; 0x321
    4700:	2008      	movs	r0, #8
    4702:	23f7      	movs	r3, #247	; 0xf7
    4704:	f88b 3324 	strb.w	r3, [r11, #804]	; 0x324
    4708:	f88b 5320 	strb.w	r5, [r11, #800]	; 0x320
    470c:	f204 3325 	addw	r3, r4, #805	; 0x325
    4710:	f88b 0322 	strb.w	r0, [r11, #802]	; 0x322
    4714:	f204 342e 	addw	r4, r4, #814	; 0x32e
    4718:	e001      	b.n	471e <main+0x6c2>
    471a:	f813 1f01 	ldrb.w	r1, [r3, #1]!
    471e:	429c      	cmp	r4, r3
    4720:	440a      	add	r2, r1
    4722:	d1fa      	bne.n	471a <main+0x6be>
    4724:	43d2      	mvns	r2, r2
    4726:	9907      	ldr	r1, [sp, #28]
    4728:	460c      	mov	r4, r1
    472a:	73ca      	strb	r2, [r1, #15]
    472c:	f101 060f 	add.w	r6, r1, #15
    4730:	21ff      	movs	r1, #255	; 0xff
    4732:	e001      	b.n	4738 <main+0x6dc>
    4734:	f814 1f01 	ldrb.w	r1, [r4, #1]!
    4738:	4dcb      	ldr	r5, [pc, #812]	; (4a68 <main+0xa0c>)
    473a:	f105 0044 	add.w	r0, r5, #68	; 0x44
    473e:	f003 f861 	bl	7804 <mbed::Stream::putc(int)>
    4742:	42b4      	cmp	r4, r6
    4744:	d1f6      	bne.n	4734 <main+0x6d8>
    4746:	f505 7082 	add.w	r0, r5, #260	; 0x104
    474a:	f003 f895 	bl	7878 <mbed::Timer::read_ms()>
    474e:	f8c5 0114 	str.w	r0, [r5, #276]	; 0x114
    4752:	e64d      	b.n	43f0 <main+0x394>
    4754:	2303      	movs	r3, #3
    4756:	f8cb 05ec 	str.w	r0, [r11, #1516]	; 0x5ec
    475a:	f8cb 55f4 	str.w	r5, [r11, #1524]	; 0x5f4
    475e:	f8cb 05f8 	str.w	r0, [r11, #1528]	; 0x5f8
    4762:	f8cb 35e8 	str.w	r3, [r11, #1512]	; 0x5e8
    4766:	e643      	b.n	43f0 <main+0x394>
    4768:	f8db 35ec 	ldr.w	r3, [r11, #1516]	; 0x5ec
    476c:	2204      	movs	r2, #4
    476e:	eb03 2000 	add.w	r0, r3, r0, lsl #8
    4772:	f8cb 05ec 	str.w	r0, [r11, #1516]	; 0x5ec
    4776:	f8cb 25e8 	str.w	r2, [r11, #1512]	; 0x5e8
    477a:	e639      	b.n	43f0 <main+0x394>
    477c:	4abb      	ldr	r2, [pc, #748]	; (4a6c <main+0xa10>)
    477e:	401a      	ands	r2, r3
    4780:	2a00      	cmp	r2, #0
    4782:	f2c0 80b3 	blt.w	48ec <main+0x890>
    4786:	2aff      	cmp	r2, #255	; 0xff
    4788:	4ab7      	ldr	r2, [pc, #732]	; (4a68 <main+0xa0c>)
    478a:	bf0c      	ite	eq
    478c:	2305      	moveq	r3, #5
    478e:	2300      	movne	r3, #0
    4790:	f8c2 35e8 	str.w	r3, [r2, #1512]	; 0x5e8
    4794:	e62c      	b.n	43f0 <main+0x394>
    4796:	2302      	movs	r3, #2
    4798:	f8cb 35e8 	str.w	r3, [r11, #1512]	; 0x5e8
    479c:	e628      	b.n	43f0 <main+0x394>
    479e:	2306      	movs	r3, #6
    47a0:	f8cb 05f0 	str.w	r0, [r11, #1520]	; 0x5f0
    47a4:	f8cb 05f8 	str.w	r0, [r11, #1528]	; 0x5f8
    47a8:	f8cb 35e8 	str.w	r3, [r11, #1512]	; 0x5e8
    47ac:	e620      	b.n	43f0 <main+0x394>
    47ae:	4bae      	ldr	r3, [pc, #696]	; (4a68 <main+0xa0c>)
    47b0:	4aad      	ldr	r2, [pc, #692]	; (4a68 <main+0xa0c>)
    47b2:	f8d3 35f0 	ldr.w	r3, [r3, #1520]	; 0x5f0
    47b6:	f8d2 25ec 	ldr.w	r2, [r2, #1516]	; 0x5ec
    47ba:	eb03 2300 	add.w	r3, r3, r0, lsl #8
    47be:	48aa      	ldr	r0, [pc, #680]	; (4a68 <main+0xa0c>)
    47c0:	2107      	movs	r1, #7
    47c2:	f8c0 35f0 	str.w	r3, [r0, #1520]	; 0x5f0
    47c6:	f8c0 15e8 	str.w	r1, [r0, #1512]	; 0x5e8
    47ca:	2a00      	cmp	r2, #0
    47cc:	f43f af51 	beq.w	4672 <main+0x616>
    47d0:	e60e      	b.n	43f0 <main+0x394>
    47d2:	4649      	mov	r1, r9
    47d4:	1d08      	adds	r0, r1, #4
    47d6:	1dca      	adds	r2, r1, #7
    47d8:	9f05      	ldr	r7, [sp, #20]
    47da:	1d03      	adds	r3, r0, #4
    47dc:	1d4e      	adds	r6, r1, #5
    47de:	1d8d      	adds	r5, r1, #6
    47e0:	9205      	str	r2, [sp, #20]
    47e2:	f109 0901 	add.w	r9, r9, #1
    47e6:	f101 0c02 	add.w	r12, r1, #2
    47ea:	f101 0e03 	add.w	lr, r1, #3
    47ee:	f89a 4020 	ldrb.w	r4, [r10, #32]
    47f2:	2200      	movs	r2, #0
    47f4:	f808 4001 	strb.w	r4, [r8, r1]
    47f8:	f8da 1020 	ldr.w	r1, [r10, #32]
    47fc:	0a09      	lsrs	r1, r1, #8
    47fe:	f808 1009 	strb.w	r1, [r8, r9]
    4802:	f8ba 1022 	ldrh.w	r1, [r10, #34]	; 0x22
    4806:	f808 100c 	strb.w	r1, [r8, r12]
    480a:	f89a 1023 	ldrb.w	r1, [r10, #35]	; 0x23
    480e:	f808 100e 	strb.w	r1, [r8, lr]
    4812:	f89a 1024 	ldrb.w	r1, [r10, #36]	; 0x24
    4816:	f808 1000 	strb.w	r1, [r8, r0]
    481a:	9905      	ldr	r1, [sp, #20]
    481c:	f808 2006 	strb.w	r2, [r8, r6]
    4820:	f808 2005 	strb.w	r2, [r8, r5]
    4824:	f808 2001 	strb.w	r2, [r8, r1]
    4828:	f89a 1024 	ldrb.w	r1, [r10, #36]	; 0x24
    482c:	b1b1      	cbz	r1, 485c <main+0x800>
    482e:	eb08 0003 	add.w	r0, r8, r3
    4832:	f8da 102c 	ldr.w	r1, [r10, #44]	; 0x2c
    4836:	1c54      	adds	r4, r2, #1
    4838:	f851 1022 	ldr.w	r1, [r1, r2, lsl #2]
    483c:	b2e2      	uxtb	r2, r4
    483e:	f808 1003 	strb.w	r1, [r8, r3]
    4842:	0a0d      	lsrs	r5, r1, #8
    4844:	0c0c      	lsrs	r4, r1, #16
    4846:	0e09      	lsrs	r1, r1, #24
    4848:	7045      	strb	r5, [r0, #1]
    484a:	7084      	strb	r4, [r0, #2]
    484c:	70c1      	strb	r1, [r0, #3]
    484e:	f89a 1024 	ldrb.w	r1, [r10, #36]	; 0x24
    4852:	3304      	adds	r3, #4
    4854:	4291      	cmp	r1, r2
    4856:	f100 0004 	add.w	r0, r0, #4
    485a:	d8ea      	bhi.n	4832 <main+0x7d6>
    485c:	b2dd      	uxtb	r5, r3
    485e:	f3c3 2107 	ubfx	r1, r3, #8, #8
    4862:	1868      	adds	r0, r5, r1
    4864:	43c0      	mvns	r0, r0
    4866:	9e04      	ldr	r6, [sp, #16]
    4868:	b29b      	uxth	r3, r3
    486a:	f887 0324 	strb.w	r0, [r7, #804]	; 0x324
    486e:	20ff      	movs	r0, #255	; 0xff
    4870:	f207 3425 	addw	r4, r7, #805	; 0x325
    4874:	f887 5322 	strb.w	r5, [r7, #802]	; 0x322
    4878:	f887 1323 	strb.w	r1, [r7, #803]	; 0x323
    487c:	f203 3526 	addw	r5, r3, #806	; 0x326
    4880:	21fe      	movs	r1, #254	; 0xfe
    4882:	f887 0320 	strb.w	r0, [r7, #800]	; 0x320
    4886:	b2f0      	uxtb	r0, r6
    4888:	f346 2607 	sbfx	r6, r6, #8, #8
    488c:	f887 1321 	strb.w	r1, [r7, #801]	; 0x321
    4890:	4622      	mov	r2, r4
    4892:	443d      	add	r5, r7
    4894:	f887 0325 	strb.w	r0, [r7, #805]	; 0x325
    4898:	f887 6326 	strb.w	r6, [r7, #806]	; 0x326
    489c:	2100      	movs	r1, #0
    489e:	e001      	b.n	48a4 <main+0x848>
    48a0:	f812 0f01 	ldrb.w	r0, [r2, #1]!
    48a4:	42aa      	cmp	r2, r5
    48a6:	4401      	add	r1, r0
    48a8:	d1fa      	bne.n	48a0 <main+0x844>
    48aa:	43c9      	mvns	r1, r1
    48ac:	1dda      	adds	r2, r3, #7
    48ae:	3308      	adds	r3, #8
    48b0:	b292      	uxth	r2, r2
    48b2:	b29b      	uxth	r3, r3
    48b4:	443a      	add	r2, r7
    48b6:	f5b3 7f00 	cmp.w	r3, #512	; 0x200
    48ba:	f882 1320 	strb.w	r1, [r2, #800]	; 0x320
    48be:	d87a      	bhi.n	49b6 <main+0x95a>
    48c0:	f507 7448 	add.w	r4, r7, #800	; 0x320
    48c4:	2b00      	cmp	r3, #0
    48c6:	f43f ad79 	beq.w	43bc <main+0x360>
    48ca:	3b01      	subs	r3, #1
    48cc:	f107 0544 	add.w	r5, r7, #68	; 0x44
    48d0:	441c      	add	r4, r3
    48d2:	f207 371f 	addw	r7, r7, #799	; 0x31f
    48d6:	f817 1f01 	ldrb.w	r1, [r7, #1]!
    48da:	4628      	mov	r0, r5
    48dc:	f002 ff92 	bl	7804 <mbed::Stream::putc(int)>
    48e0:	42a7      	cmp	r7, r4
    48e2:	d1f8      	bne.n	48d6 <main+0x87a>
    48e4:	e56a      	b.n	43bc <main+0x360>
    48e6:	f7fc fe31 	bl	154c <DxResetTorque()>
    48ea:	e463      	b.n	41b4 <main+0x158>
    48ec:	3a01      	subs	r2, #1
    48ee:	f062 02ff 	orn	r2, r2, #255	; 0xff
    48f2:	3201      	adds	r2, #1
    48f4:	e747      	b.n	4786 <main+0x72a>
    48f6:	240a      	movs	r4, #10
    48f8:	25ff      	movs	r5, #255	; 0xff
    48fa:	4b5d      	ldr	r3, [pc, #372]	; (4a70 <main+0xa14>)
    48fc:	2000      	movs	r0, #0
    48fe:	4621      	mov	r1, r4
    4900:	26fe      	movs	r6, #254	; 0xfe
    4902:	f88b 4325 	strb.w	r4, [r11, #805]	; 0x325
    4906:	f88b 5320 	strb.w	r5, [r11, #800]	; 0x320
    490a:	24f7      	movs	r4, #247	; 0xf7
    490c:	2508      	movs	r5, #8
    490e:	4602      	mov	r2, r0
    4910:	f88b 0327 	strb.w	r0, [r11, #807]	; 0x327
    4914:	f88b 0328 	strb.w	r0, [r11, #808]	; 0x328
    4918:	f88b 0329 	strb.w	r0, [r11, #809]	; 0x329
    491c:	f88b 032a 	strb.w	r0, [r11, #810]	; 0x32a
    4920:	f88b 032b 	strb.w	r0, [r11, #811]	; 0x32b
    4924:	f88b 032c 	strb.w	r0, [r11, #812]	; 0x32c
    4928:	f88b 032d 	strb.w	r0, [r11, #813]	; 0x32d
    492c:	f88b 032e 	strb.w	r0, [r11, #814]	; 0x32e
    4930:	f88b 0323 	strb.w	r0, [r11, #803]	; 0x323
    4934:	f88b 0326 	strb.w	r0, [r11, #806]	; 0x326
    4938:	f88b 6321 	strb.w	r6, [r11, #801]	; 0x321
    493c:	f103 0009 	add.w	r0, r3, #9
    4940:	f88b 5322 	strb.w	r5, [r11, #802]	; 0x322
    4944:	f88b 4324 	strb.w	r4, [r11, #804]	; 0x324
    4948:	e001      	b.n	494e <main+0x8f2>
    494a:	f813 1f01 	ldrb.w	r1, [r3, #1]!
    494e:	4298      	cmp	r0, r3
    4950:	440a      	add	r2, r1
    4952:	d1fa      	bne.n	494a <main+0x8ee>
    4954:	43d2      	mvns	r2, r2
    4956:	9907      	ldr	r1, [sp, #28]
    4958:	460c      	mov	r4, r1
    495a:	73ca      	strb	r2, [r1, #15]
    495c:	f101 050f 	add.w	r5, r1, #15
    4960:	21ff      	movs	r1, #255	; 0xff
    4962:	e001      	b.n	4968 <main+0x90c>
    4964:	f814 1f01 	ldrb.w	r1, [r4, #1]!
    4968:	4e3f      	ldr	r6, [pc, #252]	; (4a68 <main+0xa0c>)
    496a:	f106 0044 	add.w	r0, r6, #68	; 0x44
    496e:	f002 ff49 	bl	7804 <mbed::Stream::putc(int)>
    4972:	42a5      	cmp	r5, r4
    4974:	d1f6      	bne.n	4964 <main+0x908>
    4976:	f506 7082 	add.w	r0, r6, #260	; 0x104
    497a:	f002 ff7d 	bl	7878 <mbed::Timer::read_ms()>
    497e:	f8c6 9600 	str.w	r9, [r6, #1536]	; 0x600
    4982:	f8c6 0114 	str.w	r0, [r6, #276]	; 0x114
    4986:	e546      	b.n	4416 <main+0x3ba>
    4988:	3a01      	subs	r2, #1
    498a:	f062 02ff 	orn	r2, r2, #255	; 0xff
    498e:	3201      	adds	r2, #1
    4990:	e585      	b.n	449e <main+0x442>
    4992:	230b      	movs	r3, #11
    4994:	9305      	str	r3, [sp, #20]
    4996:	2008      	movs	r0, #8
    4998:	f04f 0e07 	mov.w	lr, #7
    499c:	f04f 0c06 	mov.w	r12, #6
    49a0:	f04f 0905 	mov.w	r9, #5
    49a4:	2104      	movs	r1, #4
    49a6:	230c      	movs	r3, #12
    49a8:	250a      	movs	r5, #10
    49aa:	2609      	movs	r6, #9
    49ac:	e71f      	b.n	47ee <main+0x792>
    49ae:	2300      	movs	r3, #0
    49b0:	f88b 35fc 	strb.w	r3, [r11, #1532]	; 0x5fc
    49b4:	e51c      	b.n	43f0 <main+0x394>
    49b6:	4b2f      	ldr	r3, [pc, #188]	; (4a74 <main+0xa18>)
    49b8:	2203      	movs	r2, #3
    49ba:	930b      	str	r3, [sp, #44]	; 0x2c
    49bc:	4b2e      	ldr	r3, [pc, #184]	; (4a78 <main+0xa1c>)
    49be:	f88d 2030 	strb.w	r2, [sp, #48]	; 0x30
    49c2:	930d      	str	r3, [sp, #52]	; 0x34
    49c4:	683b      	ldr	r3, [r7, #0]
    49c6:	492d      	ldr	r1, [pc, #180]	; (4a7c <main+0xa20>)
    49c8:	681b      	ldr	r3, [r3, #0]
    49ca:	428b      	cmp	r3, r1
    49cc:	f040 83e0 	bne.w	5190 <main+0x1134>
    49d0:	2338      	movs	r3, #56	; 0x38
    49d2:	930a      	str	r3, [sp, #40]	; 0x28
    49d4:	980a      	ldr	r0, [sp, #40]	; 0x28
    49d6:	4d28      	ldr	r5, [pc, #160]	; (4a78 <main+0xa1c>)
    49d8:	f887 2327 	strb.w	r2, [r7, #807]	; 0x327
    49dc:	f8c7 0328 	str.w	r0, [r7, #808]	; 0x328
    49e0:	f105 0c30 	add.w	r12, r5, #48	; 0x30
    49e4:	f507 764b 	add.w	r6, r7, #812	; 0x32c
    49e8:	46ae      	mov	lr, r5
    49ea:	e8be 000f 	ldmia.w	lr!, {r0, r1, r2, r3}
    49ee:	45e6      	cmp	lr, r12
    49f0:	6030      	str	r0, [r6, #0]
    49f2:	6071      	str	r1, [r6, #4]
    49f4:	60b2      	str	r2, [r6, #8]
    49f6:	60f3      	str	r3, [r6, #12]
    49f8:	f105 0510 	add.w	r5, r5, #16
    49fc:	f106 0610 	add.w	r6, r6, #16
    4a00:	d1f2      	bne.n	49e8 <main+0x98c>
    4a02:	cd03      	ldmia	r5!, {r0, r1}
    4a04:	6030      	str	r0, [r6, #0]
    4a06:	6071      	str	r1, [r6, #4]
    4a08:	20ff      	movs	r0, #255	; 0xff
    4a0a:	21fe      	movs	r1, #254	; 0xfe
    4a0c:	f04f 0e00 	mov.w	lr, #0
    4a10:	2507      	movs	r5, #7
    4a12:	f887 0320 	strb.w	r0, [r7, #800]	; 0x320
    4a16:	f887 1321 	strb.w	r1, [r7, #801]	; 0x321
    4a1a:	203d      	movs	r0, #61	; 0x3d
    4a1c:	21c2      	movs	r1, #194	; 0xc2
    4a1e:	f887 1324 	strb.w	r1, [r7, #804]	; 0x324
    4a22:	4673      	mov	r3, lr
    4a24:	462a      	mov	r2, r5
    4a26:	f887 e323 	strb.w	lr, [r7, #803]	; 0x323
    4a2a:	f887 e326 	strb.w	lr, [r7, #806]	; 0x326
    4a2e:	f887 5325 	strb.w	r5, [r7, #805]	; 0x325
    4a32:	f887 0322 	strb.w	r0, [r7, #802]	; 0x322
    4a36:	f207 3163 	addw	r1, r7, #867	; 0x363
    4a3a:	e001      	b.n	4a40 <main+0x9e4>
    4a3c:	f814 2f01 	ldrb.w	r2, [r4, #1]!
    4a40:	42a1      	cmp	r1, r4
    4a42:	4413      	add	r3, r2
    4a44:	d1fa      	bne.n	4a3c <main+0x9e0>
    4a46:	43db      	mvns	r3, r3
    4a48:	f107 0544 	add.w	r5, r7, #68	; 0x44
    4a4c:	f887 3364 	strb.w	r3, [r7, #868]	; 0x364
    4a50:	f207 341f 	addw	r4, r7, #799	; 0x31f
    4a54:	f507 7759 	add.w	r7, r7, #868	; 0x364
    4a58:	f814 1f01 	ldrb.w	r1, [r4, #1]!
    4a5c:	4628      	mov	r0, r5
    4a5e:	f002 fed1 	bl	7804 <mbed::Stream::putc(int)>
    4a62:	42bc      	cmp	r4, r7
    4a64:	d1f8      	bne.n	4a58 <main+0x9fc>
    4a66:	e4a9      	b.n	43bc <main+0x360>
    4a68:	10000250 	.word	0x10000250
    4a6c:	800000ff 	.word	0x800000ff
    4a70:	10000575 	.word	0x10000575
    4a74:	0000ad84 	.word	0x0000ad84
    4a78:	0000b00c 	.word	0x0000b00c
    4a7c:	000010d5 	.word	0x000010d5
    4a80:	f89b 4120 	ldrb.w	r4, [r11, #288]	; 0x120
    4a84:	f89b 3614 	ldrb.w	r3, [r11, #1556]	; 0x614
    4a88:	42a3      	cmp	r3, r4
    4a8a:	d206      	bcs.n	4a9a <main+0xa3e>
    4a8c:	00a1      	lsls	r1, r4, #2
    4a8e:	f8db 061c 	ldr.w	r0, [r11, #1564]	; 0x61c
    4a92:	f001 fa93 	bl	5fbc <__wrap_realloc>
    4a96:	f8cb 061c 	str.w	r0, [r11, #1564]	; 0x61c
    4a9a:	4b91      	ldr	r3, [pc, #580]	; (4ce0 <main+0xc84>)
    4a9c:	f883 4614 	strb.w	r4, [r3, #1556]	; 0x614
    4aa0:	2c00      	cmp	r4, #0
    4aa2:	f000 8369 	beq.w	5178 <main+0x111c>
    4aa6:	461d      	mov	r5, r3
    4aa8:	2604      	movs	r6, #4
    4aaa:	2400      	movs	r4, #0
    4aac:	f895 3126 	ldrb.w	r3, [r5, #294]	; 0x126
    4ab0:	f895 1125 	ldrb.w	r1, [r5, #293]	; 0x125
    4ab4:	f895 2124 	ldrb.w	r2, [r5, #292]	; 0x124
    4ab8:	041b      	lsls	r3, r3, #16
    4aba:	ea43 2301 	orr.w	r3, r3, r1, lsl #8
    4abe:	f895 1127 	ldrb.w	r1, [r5, #295]	; 0x127
    4ac2:	4313      	orrs	r3, r2
    4ac4:	4a86      	ldr	r2, [pc, #536]	; (4ce0 <main+0xc84>)
    4ac6:	ea43 6301 	orr.w	r3, r3, r1, lsl #24
    4aca:	f8c2 3618 	str.w	r3, [r2, #1560]	; 0x618
    4ace:	f8d2 0618 	ldr.w	r0, [r2, #1560]	; 0x618
    4ad2:	f8d2 361c 	ldr.w	r3, [r2, #1564]	; 0x61c
    4ad6:	3604      	adds	r6, #4
    4ad8:	f843 0024 	str.w	r0, [r3, r4, lsl #2]
    4adc:	f892 3614 	ldrb.w	r3, [r2, #1556]	; 0x614
    4ae0:	3401      	adds	r4, #1
    4ae2:	b2e4      	uxtb	r4, r4
    4ae4:	42a3      	cmp	r3, r4
    4ae6:	f105 0504 	add.w	r5, r5, #4
    4aea:	d8df      	bhi.n	4aac <main+0xa50>
    4aec:	1d35      	adds	r5, r6, #4
    4aee:	462c      	mov	r4, r5
    4af0:	4b7b      	ldr	r3, [pc, #492]	; (4ce0 <main+0xc84>)
    4af2:	441e      	add	r6, r3
    4af4:	f896 6120 	ldrb.w	r6, [r6, #288]	; 0x120
    4af8:	f893 3620 	ldrb.w	r3, [r3, #1568]	; 0x620
    4afc:	42b3      	cmp	r3, r6
    4afe:	d206      	bcs.n	4b0e <main+0xab2>
    4b00:	00b1      	lsls	r1, r6, #2
    4b02:	f8db 0628 	ldr.w	r0, [r11, #1576]	; 0x628
    4b06:	f001 fa59 	bl	5fbc <__wrap_realloc>
    4b0a:	f8cb 0628 	str.w	r0, [r11, #1576]	; 0x628
    4b0e:	4b74      	ldr	r3, [pc, #464]	; (4ce0 <main+0xc84>)
    4b10:	f883 6620 	strb.w	r6, [r3, #1568]	; 0x620
    4b14:	b31e      	cbz	r6, 4b5e <main+0xb02>
    4b16:	eb0b 0604 	add.w	r6, r11, r4
    4b1a:	2500      	movs	r5, #0
    4b1c:	f896 3122 	ldrb.w	r3, [r6, #290]	; 0x122
    4b20:	f896 1121 	ldrb.w	r1, [r6, #289]	; 0x121
    4b24:	f896 2120 	ldrb.w	r2, [r6, #288]	; 0x120
    4b28:	041b      	lsls	r3, r3, #16
    4b2a:	ea43 2301 	orr.w	r3, r3, r1, lsl #8
    4b2e:	f896 1123 	ldrb.w	r1, [r6, #291]	; 0x123
    4b32:	4313      	orrs	r3, r2
    4b34:	4a6a      	ldr	r2, [pc, #424]	; (4ce0 <main+0xc84>)
    4b36:	ea43 6301 	orr.w	r3, r3, r1, lsl #24
    4b3a:	f8c2 3624 	str.w	r3, [r2, #1572]	; 0x624
    4b3e:	f8d2 0624 	ldr.w	r0, [r2, #1572]	; 0x624
    4b42:	f8d2 3628 	ldr.w	r3, [r2, #1576]	; 0x628
    4b46:	3404      	adds	r4, #4
    4b48:	f843 0025 	str.w	r0, [r3, r5, lsl #2]
    4b4c:	f892 3620 	ldrb.w	r3, [r2, #1568]	; 0x620
    4b50:	3501      	adds	r5, #1
    4b52:	b2ed      	uxtb	r5, r5
    4b54:	42ab      	cmp	r3, r5
    4b56:	f106 0604 	add.w	r6, r6, #4
    4b5a:	d8df      	bhi.n	4b1c <main+0xac0>
    4b5c:	4625      	mov	r5, r4
    4b5e:	4b60      	ldr	r3, [pc, #384]	; (4ce0 <main+0xc84>)
    4b60:	441d      	add	r5, r3
    4b62:	f895 5120 	ldrb.w	r5, [r5, #288]	; 0x120
    4b66:	f893 362c 	ldrb.w	r3, [r3, #1580]	; 0x62c
    4b6a:	42ab      	cmp	r3, r5
    4b6c:	d206      	bcs.n	4b7c <main+0xb20>
    4b6e:	00a9      	lsls	r1, r5, #2
    4b70:	f8db 0634 	ldr.w	r0, [r11, #1588]	; 0x634
    4b74:	f001 fa22 	bl	5fbc <__wrap_realloc>
    4b78:	f8cb 0634 	str.w	r0, [r11, #1588]	; 0x634
    4b7c:	4b58      	ldr	r3, [pc, #352]	; (4ce0 <main+0xc84>)
    4b7e:	3404      	adds	r4, #4
    4b80:	f883 562c 	strb.w	r5, [r3, #1580]	; 0x62c
    4b84:	b375      	cbz	r5, 4be4 <main+0xb88>
    4b86:	2700      	movs	r7, #0
    4b88:	46be      	mov	lr, r7
    4b8a:	f8dd c004 	ldr.w	r12, [sp, #4]
    4b8e:	4b55      	ldr	r3, [pc, #340]	; (4ce4 <main+0xc88>)
    4b90:	1d26      	adds	r6, r4, #4
    4b92:	5918      	ldr	r0, [r3, r4]
    4b94:	f8cc 0000 	str.w	r0, [r12]
    4b98:	9d0b      	ldr	r5, [sp, #44]	; 0x2c
    4b9a:	4435      	add	r5, r6
    4b9c:	42ae      	cmp	r6, r5
    4b9e:	d209      	bcs.n	4bb4 <main+0xb58>
    4ba0:	4632      	mov	r2, r6
    4ba2:	f204 1323 	addw	r3, r4, #291	; 0x123
    4ba6:	445b      	add	r3, r11
    4ba8:	7859      	ldrb	r1, [r3, #1]
    4baa:	3201      	adds	r2, #1
    4bac:	42aa      	cmp	r2, r5
    4bae:	f803 1b01 	strb.w	r1, [r3], #1
    4bb2:	d3f9      	bcc.n	4ba8 <main+0xb4c>
    4bb4:	4a4b      	ldr	r2, [pc, #300]	; (4ce4 <main+0xc88>)
    4bb6:	1e73      	subs	r3, r6, #1
    4bb8:	4413      	add	r3, r2
    4bba:	f5a2 7290 	sub.w	r2, r2, #288	; 0x120
    4bbe:	442a      	add	r2, r5
    4bc0:	f882 e11f 	strb.w	lr, [r2, #287]	; 0x11f
    4bc4:	4a46      	ldr	r2, [pc, #280]	; (4ce0 <main+0xc84>)
    4bc6:	462c      	mov	r4, r5
    4bc8:	f8c2 3630 	str.w	r3, [r2, #1584]	; 0x630
    4bcc:	f8d2 0630 	ldr.w	r0, [r2, #1584]	; 0x630
    4bd0:	f8d2 3634 	ldr.w	r3, [r2, #1588]	; 0x634
    4bd4:	f843 0027 	str.w	r0, [r3, r7, lsl #2]
    4bd8:	f892 362c 	ldrb.w	r3, [r2, #1580]	; 0x62c
    4bdc:	3701      	adds	r7, #1
    4bde:	b2ff      	uxtb	r7, r7
    4be0:	42bb      	cmp	r3, r7
    4be2:	d8d4      	bhi.n	4b8e <main+0xb32>
    4be4:	4a3e      	ldr	r2, [pc, #248]	; (4ce0 <main+0xc84>)
    4be6:	2301      	movs	r3, #1
    4be8:	f882 360c 	strb.w	r3, [r2, #1548]	; 0x60c
    4bec:	e400      	b.n	43f0 <main+0x394>
    4bee:	f505 7082 	add.w	r0, r5, #260	; 0x104
    4bf2:	f002 fe41 	bl	7878 <mbed::Timer::read_ms()>
    4bf6:	f8db 4114 	ldr.w	r4, [r11, #276]	; 0x114
    4bfa:	f8db 2120 	ldr.w	r2, [r11, #288]	; 0x120
    4bfe:	f8db 3124 	ldr.w	r3, [r11, #292]	; 0x124
    4c02:	4f39      	ldr	r7, [pc, #228]	; (4ce8 <main+0xc8c>)
    4c04:	1b04      	subs	r4, r0, r4
    4c06:	f505 7082 	add.w	r0, r5, #260	; 0x104
    4c0a:	1e56      	subs	r6, r2, #1
    4c0c:	441f      	add	r7, r3
    4c0e:	f002 fe33 	bl	7878 <mbed::Timer::read_ms()>
    4c12:	4b36      	ldr	r3, [pc, #216]	; (4cec <main+0xc90>)
    4c14:	4935      	ldr	r1, [pc, #212]	; (4cec <main+0xc90>)
    4c16:	fba3 3204 	umull	r3, r2, r3, r4
    4c1a:	fba1 1e00 	umull	r1, lr, r1, r0
    4c1e:	f44f 737a 	mov.w	r3, #1000	; 0x3e8
    4c22:	0992      	lsrs	r2, r2, #6
    4c24:	fb03 4412 	mls	r4, r3, r2, r4
    4c28:	ea4f 1e9e 	mov.w	lr, lr, lsr #6
    4c2c:	fb03 031e 	mls	r3, r3, lr, r0
    4c30:	482f      	ldr	r0, [pc, #188]	; (4cf0 <main+0xc94>)
    4c32:	4432      	add	r2, r6
    4c34:	fb00 7104 	mla	r1, r0, r4, r7
    4c38:	fb00 1313 	mls	r3, r0, r3, r1
    4c3c:	ebce 0202 	rsb	r2, lr, r2
    4c40:	f505 718e 	add.w	r1, r5, #284	; 0x11c
    4c44:	f505 708c 	add.w	r0, r5, #280	; 0x118
    4c48:	f8cb 311c 	str.w	r3, [r11, #284]	; 0x11c
    4c4c:	f8cb 2118 	str.w	r2, [r11, #280]	; 0x118
    4c50:	f001 fbd2 	bl	63f8 <ros::normalizeSecNSec(unsigned long&, unsigned long&)>
    4c54:	f505 7082 	add.w	r0, r5, #260	; 0x104
    4c58:	f002 fe0e 	bl	7878 <mbed::Timer::read_ms()>
    4c5c:	f8cb 0604 	str.w	r0, [r11, #1540]	; 0x604
    4c60:	f7ff bbc6 	b.w	43f0 <main+0x394>
    4c64:	f505 7190 	add.w	r1, r5, #288	; 0x120
    4c68:	4620      	mov	r0, r4
    4c6a:	4798      	blx	r3
    4c6c:	f7ff bbc0 	b.w	43f0 <main+0x394>
    4c70:	f885 3327 	strb.w	r3, [r5, #807]	; 0x327
    4c74:	f885 3328 	strb.w	r3, [r5, #808]	; 0x328
    4c78:	f885 3329 	strb.w	r3, [r5, #809]	; 0x329
    4c7c:	f885 332a 	strb.w	r3, [r5, #810]	; 0x32a
    4c80:	f885 332b 	strb.w	r3, [r5, #811]	; 0x32b
    4c84:	f885 332c 	strb.w	r3, [r5, #812]	; 0x32c
    4c88:	f885 332d 	strb.w	r3, [r5, #813]	; 0x32d
    4c8c:	f885 332e 	strb.w	r3, [r5, #814]	; 0x32e
    4c90:	f885 3323 	strb.w	r3, [r5, #803]	; 0x323
    4c94:	f885 3326 	strb.w	r3, [r5, #806]	; 0x326
    4c98:	4619      	mov	r1, r3
    4c9a:	23fe      	movs	r3, #254	; 0xfe
    4c9c:	240a      	movs	r4, #10
    4c9e:	f885 2320 	strb.w	r2, [r5, #800]	; 0x320
    4ca2:	f885 3321 	strb.w	r3, [r5, #801]	; 0x321
    4ca6:	2208      	movs	r2, #8
    4ca8:	23f7      	movs	r3, #247	; 0xf7
    4caa:	f885 3324 	strb.w	r3, [r5, #804]	; 0x324
    4cae:	f885 4325 	strb.w	r4, [r5, #805]	; 0x325
    4cb2:	f885 2322 	strb.w	r2, [r5, #802]	; 0x322
    4cb6:	f205 332e 	addw	r3, r5, #814	; 0x32e
    4cba:	4620      	mov	r0, r4
    4cbc:	f205 3525 	addw	r5, r5, #805	; 0x325
    4cc0:	e001      	b.n	4cc6 <main+0xc6a>
    4cc2:	f815 0f01 	ldrb.w	r0, [r5, #1]!
    4cc6:	429d      	cmp	r5, r3
    4cc8:	4401      	add	r1, r0
    4cca:	d1fa      	bne.n	4cc2 <main+0xc66>
    4ccc:	43c9      	mvns	r1, r1
    4cce:	4d09      	ldr	r5, [pc, #36]	; (4cf4 <main+0xc98>)
    4cd0:	f1a5 030f 	sub.w	r3, r5, #15
    4cd4:	73d9      	strb	r1, [r3, #15]
    4cd6:	9307      	str	r3, [sp, #28]
    4cd8:	461e      	mov	r6, r3
    4cda:	21ff      	movs	r1, #255	; 0xff
    4cdc:	e00e      	b.n	4cfc <main+0xca0>
    4cde:	bf00      	nop
    4ce0:	10000250 	.word	0x10000250
    4ce4:	10000370 	.word	0x10000370
    4ce8:	3b9aca00 	.word	0x3b9aca00
    4cec:	10624dd3 	.word	0x10624dd3
    4cf0:	000f4240 	.word	0x000f4240
    4cf4:	1000057f 	.word	0x1000057f
    4cf8:	f816 1f01 	ldrb.w	r1, [r6, #1]!
    4cfc:	4ccc      	ldr	r4, [pc, #816]	; (5030 <main+0xfd4>)
    4cfe:	f104 0044 	add.w	r0, r4, #68	; 0x44
    4d02:	f002 fd7f 	bl	7804 <mbed::Stream::putc(int)>
    4d06:	42ae      	cmp	r6, r5
    4d08:	d1f6      	bne.n	4cf8 <main+0xc9c>
    4d0a:	f504 7082 	add.w	r0, r4, #260	; 0x104
    4d0e:	f002 fdb3 	bl	7878 <mbed::Timer::read_ms()>
    4d12:	f504 7359 	add.w	r3, r4, #868	; 0x364
    4d16:	f8c4 0114 	str.w	r0, [r4, #276]	; 0x114
    4d1a:	f204 561c 	addw	r6, r4, #1308	; 0x51c
    4d1e:	9304      	str	r3, [sp, #16]
    4d20:	f856 3f04 	ldr.w	r3, [r6, #4]!
    4d24:	2b00      	cmp	r3, #0
    4d26:	f000 80af 	beq.w	4e88 <main+0xe2c>
    4d2a:	6858      	ldr	r0, [r3, #4]
    4d2c:	689a      	ldr	r2, [r3, #8]
    4d2e:	6801      	ldr	r1, [r0, #0]
    4d30:	9205      	str	r2, [sp, #20]
    4d32:	6889      	ldr	r1, [r1, #8]
    4d34:	f8d3 8000 	ldr.w	r8, [r3]
    4d38:	4788      	blx	r1
    4d3a:	6833      	ldr	r3, [r6, #0]
    4d3c:	4607      	mov	r7, r0
    4d3e:	6858      	ldr	r0, [r3, #4]
    4d40:	6803      	ldr	r3, [r0, #0]
    4d42:	68db      	ldr	r3, [r3, #12]
    4d44:	4798      	blx	r3
    4d46:	6833      	ldr	r3, [r6, #0]
    4d48:	4604      	mov	r4, r0
    4d4a:	691d      	ldr	r5, [r3, #16]
    4d4c:	9a05      	ldr	r2, [sp, #20]
    4d4e:	2d63      	cmp	r5, #99	; 0x63
    4d50:	dd05      	ble.n	4d5e <main+0xd02>
    4d52:	4bb7      	ldr	r3, [pc, #732]	; (5030 <main+0xfd4>)
    4d54:	f893 35fc 	ldrb.w	r3, [r3, #1532]	; 0x5fc
    4d58:	2b00      	cmp	r3, #0
    4d5a:	f000 8095 	beq.w	4e88 <main+0xe2c>
    4d5e:	49b4      	ldr	r1, [pc, #720]	; (5030 <main+0xfd4>)
    4d60:	f3c2 2307 	ubfx	r3, r2, #8, #8
    4d64:	f881 2327 	strb.w	r2, [r1, #807]	; 0x327
    4d68:	f881 3328 	strb.w	r3, [r1, #808]	; 0x328
    4d6c:	4640      	mov	r0, r8
    4d6e:	f005 f9fe 	bl	a16e <strlen>
    4d72:	4603      	mov	r3, r0
    4d74:	9009      	str	r0, [sp, #36]	; 0x24
    4d76:	9809      	ldr	r0, [sp, #36]	; 0x24
    4d78:	4aae      	ldr	r2, [pc, #696]	; (5034 <main+0xfd8>)
    4d7a:	4641      	mov	r1, r8
    4d7c:	6010      	str	r0, [r2, #0]
    4d7e:	461a      	mov	r2, r3
    4d80:	48ad      	ldr	r0, [pc, #692]	; (5038 <main+0xfdc>)
    4d82:	9305      	str	r3, [sp, #20]
    4d84:	f004 fa6c 	bl	9260 <memcpy>
    4d88:	4638      	mov	r0, r7
    4d8a:	f005 f9f0 	bl	a16e <strlen>
    4d8e:	9b05      	ldr	r3, [sp, #20]
    4d90:	900a      	str	r0, [sp, #40]	; 0x28
    4d92:	4680      	mov	r8, r0
    4d94:	4639      	mov	r1, r7
    4d96:	980a      	ldr	r0, [sp, #40]	; 0x28
    4d98:	4fa8      	ldr	r7, [pc, #672]	; (503c <main+0xfe0>)
    4d9a:	1d9a      	adds	r2, r3, #6
    4d9c:	50b8      	str	r0, [r7, r2]
    4d9e:	4638      	mov	r0, r7
    4da0:	330a      	adds	r3, #10
    4da2:	4642      	mov	r2, r8
    4da4:	4418      	add	r0, r3
    4da6:	9305      	str	r3, [sp, #20]
    4da8:	f004 fa5a 	bl	9260 <memcpy>
    4dac:	4620      	mov	r0, r4
    4dae:	f005 f9de 	bl	a16e <strlen>
    4db2:	4607      	mov	r7, r0
    4db4:	9a01      	ldr	r2, [sp, #4]
    4db6:	900b      	str	r0, [sp, #44]	; 0x2c
    4db8:	9b05      	ldr	r3, [sp, #20]
    4dba:	6810      	ldr	r0, [r2, #0]
    4dbc:	4a9f      	ldr	r2, [pc, #636]	; (503c <main+0xfe0>)
    4dbe:	4443      	add	r3, r8
    4dc0:	f103 0804 	add.w	r8, r3, #4
    4dc4:	50d0      	str	r0, [r2, r3]
    4dc6:	4b9d      	ldr	r3, [pc, #628]	; (503c <main+0xfe0>)
    4dc8:	4621      	mov	r1, r4
    4dca:	463a      	mov	r2, r7
    4dcc:	eb03 0008 	add.w	r0, r3, r8
    4dd0:	f004 fa46 	bl	9260 <memcpy>
    4dd4:	4996      	ldr	r1, [pc, #600]	; (5030 <main+0xfd4>)
    4dd6:	eb07 0308 	add.w	r3, r7, r8
    4dda:	1d1c      	adds	r4, r3, #4
    4ddc:	2000      	movs	r0, #0
    4dde:	440b      	add	r3, r1
    4de0:	f3c4 2707 	ubfx	r7, r4, #8, #8
    4de4:	fa5f f884 	uxtb.w	r8, r4
    4de8:	f04f 0c02 	mov.w	r12, #2
    4dec:	f883 c328 	strb.w	r12, [r3, #808]	; 0x328
    4df0:	f883 0327 	strb.w	r0, [r3, #807]	; 0x327
    4df4:	f883 0329 	strb.w	r0, [r3, #809]	; 0x329
    4df8:	f883 032a 	strb.w	r0, [r3, #810]	; 0x32a
    4dfc:	eb08 0e07 	add.w	lr, r8, r7
    4e00:	460b      	mov	r3, r1
    4e02:	ea6f 0e0e 	mvn.w	lr, lr
    4e06:	f883 7323 	strb.w	r7, [r3, #803]	; 0x323
    4e0a:	b2a4      	uxth	r4, r4
    4e0c:	f203 3325 	addw	r3, r3, #805	; 0x325
    4e10:	f46f 7749 	mvn.w	r7, #804	; 0x324
    4e14:	19df      	adds	r7, r3, r7
    4e16:	f881 e324 	strb.w	lr, [r1, #804]	; 0x324
    4e1a:	4602      	mov	r2, r0
    4e1c:	f04f 0cff 	mov.w	r12, #255	; 0xff
    4e20:	f204 3026 	addw	r0, r4, #806	; 0x326
    4e24:	f04f 0efe 	mov.w	lr, #254	; 0xfe
    4e28:	f881 8322 	strb.w	r8, [r1, #802]	; 0x322
    4e2c:	b2e9      	uxtb	r1, r5
    4e2e:	f345 2507 	sbfx	r5, r5, #8, #8
    4e32:	4438      	add	r0, r7
    4e34:	f887 c320 	strb.w	r12, [r7, #800]	; 0x320
    4e38:	f887 e321 	strb.w	lr, [r7, #801]	; 0x321
    4e3c:	f887 1325 	strb.w	r1, [r7, #805]	; 0x325
    4e40:	f887 5326 	strb.w	r5, [r7, #806]	; 0x326
    4e44:	e001      	b.n	4e4a <main+0xdee>
    4e46:	f813 1f01 	ldrb.w	r1, [r3, #1]!
    4e4a:	4283      	cmp	r3, r0
    4e4c:	440a      	add	r2, r1
    4e4e:	d1fa      	bne.n	4e46 <main+0xdea>
    4e50:	43d2      	mvns	r2, r2
    4e52:	1de1      	adds	r1, r4, #7
    4e54:	f104 0308 	add.w	r3, r4, #8
    4e58:	4875      	ldr	r0, [pc, #468]	; (5030 <main+0xfd4>)
    4e5a:	b289      	uxth	r1, r1
    4e5c:	b29b      	uxth	r3, r3
    4e5e:	4401      	add	r1, r0
    4e60:	f5b3 7f00 	cmp.w	r3, #512	; 0x200
    4e64:	f881 2320 	strb.w	r2, [r1, #800]	; 0x320
    4e68:	f200 80fa 	bhi.w	5060 <main+0x1004>
    4e6c:	b163      	cbz	r3, 4e88 <main+0xe2c>
    4e6e:	f203 331f 	addw	r3, r3, #799	; 0x31f
    4e72:	f200 341f 	addw	r4, r0, #799	; 0x31f
    4e76:	eb0b 0503 	add.w	r5, r11, r3
    4e7a:	f814 1f01 	ldrb.w	r1, [r4, #1]!
    4e7e:	4870      	ldr	r0, [pc, #448]	; (5040 <main+0xfe4>)
    4e80:	f002 fcc0 	bl	7804 <mbed::Stream::putc(int)>
    4e84:	42a5      	cmp	r5, r4
    4e86:	d1f8      	bne.n	4e7a <main+0xe1e>
    4e88:	4b6e      	ldr	r3, [pc, #440]	; (5044 <main+0xfe8>)
    4e8a:	429e      	cmp	r6, r3
    4e8c:	f47f af48 	bne.w	4d20 <main+0xcc4>
    4e90:	461e      	mov	r6, r3
    4e92:	f856 0f04 	ldr.w	r0, [r6, #4]!
    4e96:	2800      	cmp	r0, #0
    4e98:	f000 80ae 	beq.w	4ff8 <main+0xf9c>
    4e9c:	e890 0108 	ldmia.w	r0, {r3, r8}
    4ea0:	4969      	ldr	r1, [pc, #420]	; (5048 <main+0xfec>)
    4ea2:	689a      	ldr	r2, [r3, #8]
    4ea4:	6887      	ldr	r7, [r0, #8]
    4ea6:	428a      	cmp	r2, r1
    4ea8:	f040 80bc 	bne.w	5024 <main+0xfc8>
    4eac:	4d67      	ldr	r5, [pc, #412]	; (504c <main+0xff0>)
    4eae:	68da      	ldr	r2, [r3, #12]
    4eb0:	4967      	ldr	r1, [pc, #412]	; (5050 <main+0xff4>)
    4eb2:	428a      	cmp	r2, r1
    4eb4:	f040 80b1 	bne.w	501a <main+0xfbe>
    4eb8:	4c66      	ldr	r4, [pc, #408]	; (5054 <main+0xff8>)
    4eba:	685b      	ldr	r3, [r3, #4]
    4ebc:	4a66      	ldr	r2, [pc, #408]	; (5058 <main+0xffc>)
    4ebe:	4293      	cmp	r3, r2
    4ec0:	f040 80a8 	bne.w	5014 <main+0xfb8>
    4ec4:	6bc3      	ldr	r3, [r0, #60]	; 0x3c
    4ec6:	2b63      	cmp	r3, #99	; 0x63
    4ec8:	dd05      	ble.n	4ed6 <main+0xe7a>
    4eca:	4a59      	ldr	r2, [pc, #356]	; (5030 <main+0xfd4>)
    4ecc:	f892 25fc 	ldrb.w	r2, [r2, #1532]	; 0x5fc
    4ed0:	2a00      	cmp	r2, #0
    4ed2:	f000 8091 	beq.w	4ff8 <main+0xf9c>
    4ed6:	9304      	str	r3, [sp, #16]
    4ed8:	4b55      	ldr	r3, [pc, #340]	; (5030 <main+0xfd4>)
    4eda:	f3c8 2207 	ubfx	r2, r8, #8, #8
    4ede:	f883 8327 	strb.w	r8, [r3, #807]	; 0x327
    4ee2:	f883 2328 	strb.w	r2, [r3, #808]	; 0x328
    4ee6:	4638      	mov	r0, r7
    4ee8:	f005 f941 	bl	a16e <strlen>
    4eec:	4680      	mov	r8, r0
    4eee:	9009      	str	r0, [sp, #36]	; 0x24
    4ef0:	4b50      	ldr	r3, [pc, #320]	; (5034 <main+0xfd8>)
    4ef2:	9809      	ldr	r0, [sp, #36]	; 0x24
    4ef4:	4639      	mov	r1, r7
    4ef6:	6018      	str	r0, [r3, #0]
    4ef8:	4642      	mov	r2, r8
    4efa:	1d18      	adds	r0, r3, #4
    4efc:	f004 f9b0 	bl	9260 <memcpy>
    4f00:	4628      	mov	r0, r5
    4f02:	f005 f934 	bl	a16e <strlen>
    4f06:	4607      	mov	r7, r0
    4f08:	900a      	str	r0, [sp, #40]	; 0x28
    4f0a:	4b4c      	ldr	r3, [pc, #304]	; (503c <main+0xfe0>)
    4f0c:	980a      	ldr	r0, [sp, #40]	; 0x28
    4f0e:	f108 0206 	add.w	r2, r8, #6
    4f12:	f108 080a 	add.w	r8, r8, #10
    4f16:	5098      	str	r0, [r3, r2]
    4f18:	4629      	mov	r1, r5
    4f1a:	463a      	mov	r2, r7
    4f1c:	eb03 0008 	add.w	r0, r3, r8
    4f20:	f004 f99e 	bl	9260 <memcpy>
    4f24:	4620      	mov	r0, r4
    4f26:	f005 f922 	bl	a16e <strlen>
    4f2a:	4605      	mov	r5, r0
    4f2c:	9b01      	ldr	r3, [sp, #4]
    4f2e:	900b      	str	r0, [sp, #44]	; 0x2c
    4f30:	6818      	ldr	r0, [r3, #0]
    4f32:	44b8      	add	r8, r7
    4f34:	4b41      	ldr	r3, [pc, #260]	; (503c <main+0xfe0>)
    4f36:	f108 0704 	add.w	r7, r8, #4
    4f3a:	4621      	mov	r1, r4
    4f3c:	f843 0008 	str.w	r0, [r3, r8]
    4f40:	462a      	mov	r2, r5
    4f42:	19d8      	adds	r0, r3, r7
    4f44:	f004 f98c 	bl	9260 <memcpy>
    4f48:	19e9      	adds	r1, r5, r7
    4f4a:	1d0c      	adds	r4, r1, #4
    4f4c:	fa5f fc84 	uxtb.w	r12, r4
    4f50:	f3c4 2507 	ubfx	r5, r4, #8, #8
    4f54:	eb0c 0705 	add.w	r7, r12, r5
    4f58:	43ff      	mvns	r7, r7
    4f5a:	4b35      	ldr	r3, [pc, #212]	; (5030 <main+0xfd4>)
    4f5c:	2000      	movs	r0, #0
    4f5e:	4419      	add	r1, r3
    4f60:	f04f 0e02 	mov.w	lr, #2
    4f64:	f881 e328 	strb.w	lr, [r1, #808]	; 0x328
    4f68:	f881 0327 	strb.w	r0, [r1, #807]	; 0x327
    4f6c:	f881 0329 	strb.w	r0, [r1, #809]	; 0x329
    4f70:	f881 032a 	strb.w	r0, [r1, #810]	; 0x32a
    4f74:	f883 7324 	strb.w	r7, [r3, #804]	; 0x324
    4f78:	f883 c322 	strb.w	r12, [r3, #802]	; 0x322
    4f7c:	9b04      	ldr	r3, [sp, #16]
    4f7e:	b2a4      	uxth	r4, r4
    4f80:	b2d9      	uxtb	r1, r3
    4f82:	f343 2c07 	sbfx	r12, r3, #8, #8
    4f86:	4b2a      	ldr	r3, [pc, #168]	; (5030 <main+0xfd4>)
    4f88:	4602      	mov	r2, r0
    4f8a:	f883 5323 	strb.w	r5, [r3, #803]	; 0x323
    4f8e:	f203 3325 	addw	r3, r3, #805	; 0x325
    4f92:	f46f 7549 	mvn.w	r5, #804	; 0x324
    4f96:	195d      	adds	r5, r3, r5
    4f98:	f204 3026 	addw	r0, r4, #806	; 0x326
    4f9c:	f04f 0eff 	mov.w	lr, #255	; 0xff
    4fa0:	27fe      	movs	r7, #254	; 0xfe
    4fa2:	4428      	add	r0, r5
    4fa4:	f885 e320 	strb.w	lr, [r5, #800]	; 0x320
    4fa8:	f885 7321 	strb.w	r7, [r5, #801]	; 0x321
    4fac:	f885 1325 	strb.w	r1, [r5, #805]	; 0x325
    4fb0:	f885 c326 	strb.w	r12, [r5, #806]	; 0x326
    4fb4:	e001      	b.n	4fba <main+0xf5e>
    4fb6:	f813 1f01 	ldrb.w	r1, [r3, #1]!
    4fba:	4283      	cmp	r3, r0
    4fbc:	440a      	add	r2, r1
    4fbe:	d1fa      	bne.n	4fb6 <main+0xf5a>
    4fc0:	43d2      	mvns	r2, r2
    4fc2:	1de1      	adds	r1, r4, #7
    4fc4:	f104 0308 	add.w	r3, r4, #8
    4fc8:	4819      	ldr	r0, [pc, #100]	; (5030 <main+0xfd4>)
    4fca:	b289      	uxth	r1, r1
    4fcc:	b29b      	uxth	r3, r3
    4fce:	4401      	add	r1, r0
    4fd0:	f5b3 7f00 	cmp.w	r3, #512	; 0x200
    4fd4:	f881 2320 	strb.w	r2, [r1, #800]	; 0x320
    4fd8:	f200 8088 	bhi.w	50ec <main+0x1090>
    4fdc:	b163      	cbz	r3, 4ff8 <main+0xf9c>
    4fde:	f203 331f 	addw	r3, r3, #799	; 0x31f
    4fe2:	f200 341f 	addw	r4, r0, #799	; 0x31f
    4fe6:	eb0b 0503 	add.w	r5, r11, r3
    4fea:	f814 1f01 	ldrb.w	r1, [r4, #1]!
    4fee:	4814      	ldr	r0, [pc, #80]	; (5040 <main+0xfe4>)
    4ff0:	f002 fc08 	bl	7804 <mbed::Stream::putc(int)>
    4ff4:	42ac      	cmp	r4, r5
    4ff6:	d1f8      	bne.n	4fea <main+0xf8e>
    4ff8:	4b18      	ldr	r3, [pc, #96]	; (505c <main+0x1000>)
    4ffa:	429e      	cmp	r6, r3
    4ffc:	f47f af49 	bne.w	4e92 <main+0xe36>
    5000:	4a0b      	ldr	r2, [pc, #44]	; (5030 <main+0xfd4>)
    5002:	2301      	movs	r3, #1
    5004:	f8c2 9600 	str.w	r9, [r2, #1536]	; 0x600
    5008:	f8c2 9604 	str.w	r9, [r2, #1540]	; 0x604
    500c:	f882 35fc 	strb.w	r3, [r2, #1532]	; 0x5fc
    5010:	f7ff ba01 	b.w	4416 <main+0x3ba>
    5014:	4798      	blx	r3
    5016:	4603      	mov	r3, r0
    5018:	e755      	b.n	4ec6 <main+0xe6a>
    501a:	4790      	blx	r2
    501c:	4604      	mov	r4, r0
    501e:	6830      	ldr	r0, [r6, #0]
    5020:	6803      	ldr	r3, [r0, #0]
    5022:	e74a      	b.n	4eba <main+0xe5e>
    5024:	4790      	blx	r2
    5026:	4605      	mov	r5, r0
    5028:	6830      	ldr	r0, [r6, #0]
    502a:	6803      	ldr	r3, [r0, #0]
    502c:	e73f      	b.n	4eae <main+0xe52>
    502e:	bf00      	nop
    5030:	10000250 	.word	0x10000250
    5034:	10000579 	.word	0x10000579
    5038:	1000057d 	.word	0x1000057d
    503c:	10000577 	.word	0x10000577
    5040:	10000294 	.word	0x10000294
    5044:	100007d0 	.word	0x100007d0
    5048:	000002a1 	.word	0x000002a1
    504c:	0000af8c 	.word	0x0000af8c
    5050:	000002a9 	.word	0x000002a9
    5054:	0000afa8 	.word	0x0000afa8
    5058:	0000029d 	.word	0x0000029d
    505c:	10000834 	.word	0x10000834
    5060:	4d4e      	ldr	r5, [pc, #312]	; (519c <main+0x1140>)
    5062:	4c4f      	ldr	r4, [pc, #316]	; (51a0 <main+0x1144>)
    5064:	cd0f      	ldmia	r5!, {r0, r1, r2, r3}
    5066:	c40f      	stmia	r4!, {r0, r1, r2, r3}
    5068:	cd0f      	ldmia	r5!, {r0, r1, r2, r3}
    506a:	c40f      	stmia	r4!, {r0, r1, r2, r3}
    506c:	cd0f      	ldmia	r5!, {r0, r1, r2, r3}
    506e:	c40f      	stmia	r4!, {r0, r1, r2, r3}
    5070:	e895 0003 	ldmia.w	r5, {r0, r1}
    5074:	2303      	movs	r3, #3
    5076:	f88b 3327 	strb.w	r3, [r11, #807]	; 0x327
    507a:	2338      	movs	r3, #56	; 0x38
    507c:	f8cb 3328 	str.w	r3, [r11, #808]	; 0x328
    5080:	23ff      	movs	r3, #255	; 0xff
    5082:	e884 0003 	stmia.w	r4, {r0, r1}
    5086:	f88b 3320 	strb.w	r3, [r11, #800]	; 0x320
    508a:	23fe      	movs	r3, #254	; 0xfe
    508c:	f88b 3321 	strb.w	r3, [r11, #801]	; 0x321
    5090:	233d      	movs	r3, #61	; 0x3d
    5092:	f88b 3322 	strb.w	r3, [r11, #802]	; 0x322
    5096:	f04f 0e00 	mov.w	lr, #0
    509a:	f04f 0c07 	mov.w	r12, #7
    509e:	23c2      	movs	r3, #194	; 0xc2
    50a0:	eb04 020c 	add.w	r2, r4, r12
    50a4:	4677      	mov	r7, lr
    50a6:	46e0      	mov	r8, r12
    50a8:	3c37      	subs	r4, #55	; 0x37
    50aa:	f88b e323 	strb.w	lr, [r11, #803]	; 0x323
    50ae:	f88b e326 	strb.w	lr, [r11, #806]	; 0x326
    50b2:	f88b c325 	strb.w	r12, [r11, #805]	; 0x325
    50b6:	f88b 3324 	strb.w	r3, [r11, #804]	; 0x324
    50ba:	e001      	b.n	50c0 <main+0x1064>
    50bc:	f814 8f01 	ldrb.w	r8, [r4, #1]!
    50c0:	4294      	cmp	r4, r2
    50c2:	4447      	add	r7, r8
    50c4:	d1fa      	bne.n	50bc <main+0x1060>
    50c6:	43ff      	mvns	r7, r7
    50c8:	4c36      	ldr	r4, [pc, #216]	; (51a4 <main+0x1148>)
    50ca:	21ff      	movs	r1, #255	; 0xff
    50cc:	f884 7044 	strb.w	r7, [r4, #68]	; 0x44
    50d0:	e001      	b.n	50d6 <main+0x107a>
    50d2:	f814 1f01 	ldrb.w	r1, [r4, #1]!
    50d6:	4834      	ldr	r0, [pc, #208]	; (51a8 <main+0x114c>)
    50d8:	f002 fb94 	bl	7804 <mbed::Stream::putc(int)>
    50dc:	9b04      	ldr	r3, [sp, #16]
    50de:	429c      	cmp	r4, r3
    50e0:	d1f7      	bne.n	50d2 <main+0x1076>
    50e2:	4b32      	ldr	r3, [pc, #200]	; (51ac <main+0x1150>)
    50e4:	429e      	cmp	r6, r3
    50e6:	f47f ae1b 	bne.w	4d20 <main+0xcc4>
    50ea:	e6d1      	b.n	4e90 <main+0xe34>
    50ec:	4d2b      	ldr	r5, [pc, #172]	; (519c <main+0x1140>)
    50ee:	4c2c      	ldr	r4, [pc, #176]	; (51a0 <main+0x1144>)
    50f0:	cd0f      	ldmia	r5!, {r0, r1, r2, r3}
    50f2:	c40f      	stmia	r4!, {r0, r1, r2, r3}
    50f4:	cd0f      	ldmia	r5!, {r0, r1, r2, r3}
    50f6:	c40f      	stmia	r4!, {r0, r1, r2, r3}
    50f8:	cd0f      	ldmia	r5!, {r0, r1, r2, r3}
    50fa:	c40f      	stmia	r4!, {r0, r1, r2, r3}
    50fc:	e895 0003 	ldmia.w	r5, {r0, r1}
    5100:	2303      	movs	r3, #3
    5102:	f88b 3327 	strb.w	r3, [r11, #807]	; 0x327
    5106:	2338      	movs	r3, #56	; 0x38
    5108:	f8cb 3328 	str.w	r3, [r11, #808]	; 0x328
    510c:	23ff      	movs	r3, #255	; 0xff
    510e:	e884 0003 	stmia.w	r4, {r0, r1}
    5112:	f88b 3320 	strb.w	r3, [r11, #800]	; 0x320
    5116:	23fe      	movs	r3, #254	; 0xfe
    5118:	f88b 3321 	strb.w	r3, [r11, #801]	; 0x321
    511c:	233d      	movs	r3, #61	; 0x3d
    511e:	f88b 3322 	strb.w	r3, [r11, #802]	; 0x322
    5122:	f04f 0e00 	mov.w	lr, #0
    5126:	f04f 0c07 	mov.w	r12, #7
    512a:	23c2      	movs	r3, #194	; 0xc2
    512c:	eb04 020c 	add.w	r2, r4, r12
    5130:	4677      	mov	r7, lr
    5132:	46e0      	mov	r8, r12
    5134:	3c37      	subs	r4, #55	; 0x37
    5136:	f88b e323 	strb.w	lr, [r11, #803]	; 0x323
    513a:	f88b e326 	strb.w	lr, [r11, #806]	; 0x326
    513e:	f88b c325 	strb.w	r12, [r11, #805]	; 0x325
    5142:	f88b 3324 	strb.w	r3, [r11, #804]	; 0x324
    5146:	e001      	b.n	514c <main+0x10f0>
    5148:	f814 8f01 	ldrb.w	r8, [r4, #1]!
    514c:	42a2      	cmp	r2, r4
    514e:	4447      	add	r7, r8
    5150:	d1fa      	bne.n	5148 <main+0x10ec>
    5152:	43ff      	mvns	r7, r7
    5154:	4c13      	ldr	r4, [pc, #76]	; (51a4 <main+0x1148>)
    5156:	21ff      	movs	r1, #255	; 0xff
    5158:	f884 7044 	strb.w	r7, [r4, #68]	; 0x44
    515c:	e001      	b.n	5162 <main+0x1106>
    515e:	f814 1f01 	ldrb.w	r1, [r4, #1]!
    5162:	4811      	ldr	r0, [pc, #68]	; (51a8 <main+0x114c>)
    5164:	f002 fb4e 	bl	7804 <mbed::Stream::putc(int)>
    5168:	4b11      	ldr	r3, [pc, #68]	; (51b0 <main+0x1154>)
    516a:	429c      	cmp	r4, r3
    516c:	d1f7      	bne.n	515e <main+0x1102>
    516e:	4b11      	ldr	r3, [pc, #68]	; (51b4 <main+0x1158>)
    5170:	429e      	cmp	r6, r3
    5172:	f47f ae8e 	bne.w	4e92 <main+0xe36>
    5176:	e743      	b.n	5000 <main+0xfa4>
    5178:	2508      	movs	r5, #8
    517a:	462c      	mov	r4, r5
    517c:	2604      	movs	r6, #4
    517e:	e4b7      	b.n	4af0 <main+0xa94>
    5180:	2208      	movs	r2, #8
    5182:	2107      	movs	r1, #7
    5184:	2006      	movs	r0, #6
    5186:	2705      	movs	r7, #5
    5188:	2504      	movs	r5, #4
    518a:	260c      	movs	r6, #12
    518c:	f7ff ba1e 	b.w	45cc <main+0x570>
    5190:	4638      	mov	r0, r7
    5192:	9a01      	ldr	r2, [sp, #4]
    5194:	2107      	movs	r1, #7
    5196:	4798      	blx	r3
    5198:	f7ff b910 	b.w	43bc <main+0x360>
    519c:	0000b00c 	.word	0x0000b00c
    51a0:	1000057c 	.word	0x1000057c
    51a4:	10000570 	.word	0x10000570
    51a8:	10000294 	.word	0x10000294
    51ac:	100007d0 	.word	0x100007d0
    51b0:	100005b4 	.word	0x100005b4
    51b4:	10000834 	.word	0x10000834

000051b8 <mbed::Serial::~Serial()>:
    51b8:	b510      	push	{r4, lr}
    51ba:	4604      	mov	r4, r0
    51bc:	4b07      	ldr	r3, [pc, #28]	; (51dc <mbed::Serial::~Serial()+0x24>)
    51be:	3040      	adds	r0, #64	; 0x40
    51c0:	f103 0118 	add.w	r1, r3, #24
    51c4:	f103 024c 	add.w	r2, r3, #76	; 0x4c
    51c8:	6023      	str	r3, [r4, #0]
    51ca:	6421      	str	r1, [r4, #64]	; 0x40
    51cc:	6462      	str	r2, [r4, #68]	; 0x44
    51ce:	f002 fb07 	bl	77e0 <mbed::Stream::~Stream()>
    51d2:	4620      	mov	r0, r4
    51d4:	f002 fcfb 	bl	7bce <operator delete(void*)>
    51d8:	4620      	mov	r0, r4
    51da:	bd10      	pop	{r4, pc}
    51dc:	0000b410 	.word	0x0000b410

000051e0 <non-virtual thunk to mbed::Serial::~Serial()>:
    51e0:	f1a0 0040 	sub.w	r0, r0, #64	; 0x40
    51e4:	e7e8      	b.n	51b8 <mbed::Serial::~Serial()>
    51e6:	bf00      	nop

000051e8 <non-virtual thunk to mbed::Serial::~Serial()>:
    51e8:	f1a0 0044 	sub.w	r0, r0, #68	; 0x44
    51ec:	e7e4      	b.n	51b8 <mbed::Serial::~Serial()>
    51ee:	bf00      	nop

000051f0 <_GLOBAL__sub_I_servos>:
    51f0:	b5f8      	push	{r3, r4, r5, r6, r7, lr}
    51f2:	4b76      	ldr	r3, [pc, #472]	; (53cc <_GLOBAL__sub_I_servos+0x1dc>)
    51f4:	2500      	movs	r5, #0
    51f6:	4618      	mov	r0, r3
    51f8:	4a75      	ldr	r2, [pc, #468]	; (53d0 <_GLOBAL__sub_I_servos+0x1e0>)
    51fa:	4976      	ldr	r1, [pc, #472]	; (53d4 <_GLOBAL__sub_I_servos+0x1e4>)
    51fc:	601d      	str	r5, [r3, #0]
    51fe:	605d      	str	r5, [r3, #4]
    5200:	609d      	str	r5, [r3, #8]
    5202:	f002 fcdf 	bl	7bc4 <__aeabi_atexit>
    5206:	2064      	movs	r0, #100	; 0x64
    5208:	f002 fce3 	bl	7bd2 <operator new(unsigned int)>
    520c:	4604      	mov	r4, r0
    520e:	4a72      	ldr	r2, [pc, #456]	; (53d8 <_GLOBAL__sub_I_servos+0x1e8>)
    5210:	4972      	ldr	r1, [pc, #456]	; (53dc <_GLOBAL__sub_I_servos+0x1ec>)
    5212:	2301      	movs	r3, #1
    5214:	f000 fc20 	bl	5a58 <MX106::MX106(PinName, PinName, int)>
    5218:	4b71      	ldr	r3, [pc, #452]	; (53e0 <_GLOBAL__sub_I_servos+0x1f0>)
    521a:	2064      	movs	r0, #100	; 0x64
    521c:	601c      	str	r4, [r3, #0]
    521e:	f002 fcd8 	bl	7bd2 <operator new(unsigned int)>
    5222:	4604      	mov	r4, r0
    5224:	4a6c      	ldr	r2, [pc, #432]	; (53d8 <_GLOBAL__sub_I_servos+0x1e8>)
    5226:	496d      	ldr	r1, [pc, #436]	; (53dc <_GLOBAL__sub_I_servos+0x1ec>)
    5228:	2302      	movs	r3, #2
    522a:	f000 fc15 	bl	5a58 <MX106::MX106(PinName, PinName, int)>
    522e:	4b6d      	ldr	r3, [pc, #436]	; (53e4 <_GLOBAL__sub_I_servos+0x1f4>)
    5230:	2064      	movs	r0, #100	; 0x64
    5232:	601c      	str	r4, [r3, #0]
    5234:	f002 fccd 	bl	7bd2 <operator new(unsigned int)>
    5238:	4604      	mov	r4, r0
    523a:	4a67      	ldr	r2, [pc, #412]	; (53d8 <_GLOBAL__sub_I_servos+0x1e8>)
    523c:	4967      	ldr	r1, [pc, #412]	; (53dc <_GLOBAL__sub_I_servos+0x1ec>)
    523e:	2303      	movs	r3, #3
    5240:	f000 fc0a 	bl	5a58 <MX106::MX106(PinName, PinName, int)>
    5244:	4b68      	ldr	r3, [pc, #416]	; (53e8 <_GLOBAL__sub_I_servos+0x1f8>)
    5246:	2064      	movs	r0, #100	; 0x64
    5248:	601c      	str	r4, [r3, #0]
    524a:	f002 fcc2 	bl	7bd2 <operator new(unsigned int)>
    524e:	4604      	mov	r4, r0
    5250:	4a61      	ldr	r2, [pc, #388]	; (53d8 <_GLOBAL__sub_I_servos+0x1e8>)
    5252:	4962      	ldr	r1, [pc, #392]	; (53dc <_GLOBAL__sub_I_servos+0x1ec>)
    5254:	2304      	movs	r3, #4
    5256:	f000 fbff 	bl	5a58 <MX106::MX106(PinName, PinName, int)>
    525a:	4b64      	ldr	r3, [pc, #400]	; (53ec <_GLOBAL__sub_I_servos+0x1fc>)
    525c:	2064      	movs	r0, #100	; 0x64
    525e:	601c      	str	r4, [r3, #0]
    5260:	f002 fcb7 	bl	7bd2 <operator new(unsigned int)>
    5264:	4607      	mov	r7, r0
    5266:	2305      	movs	r3, #5
    5268:	4a5b      	ldr	r2, [pc, #364]	; (53d8 <_GLOBAL__sub_I_servos+0x1e8>)
    526a:	495c      	ldr	r1, [pc, #368]	; (53dc <_GLOBAL__sub_I_servos+0x1ec>)
    526c:	4e60      	ldr	r6, [pc, #384]	; (53f0 <_GLOBAL__sub_I_servos+0x200>)
    526e:	4c61      	ldr	r4, [pc, #388]	; (53f4 <_GLOBAL__sub_I_servos+0x204>)
    5270:	f000 fe6e 	bl	5f50 <MX28::MX28(PinName, PinName, int)>
    5274:	462b      	mov	r3, r5
    5276:	4a60      	ldr	r2, [pc, #384]	; (53f8 <_GLOBAL__sub_I_servos+0x208>)
    5278:	4960      	ldr	r1, [pc, #384]	; (53fc <_GLOBAL__sub_I_servos+0x20c>)
    527a:	4861      	ldr	r0, [pc, #388]	; (5400 <_GLOBAL__sub_I_servos+0x210>)
    527c:	6037      	str	r7, [r6, #0]
    527e:	f002 f9f7 	bl	7670 <mbed::Serial::Serial(PinName, PinName, char const*)>
    5282:	4a53      	ldr	r2, [pc, #332]	; (53d0 <_GLOBAL__sub_I_servos+0x1e0>)
    5284:	495f      	ldr	r1, [pc, #380]	; (5404 <_GLOBAL__sub_I_servos+0x214>)
    5286:	485e      	ldr	r0, [pc, #376]	; (5400 <_GLOBAL__sub_I_servos+0x210>)
    5288:	f002 fc9c 	bl	7bc4 <__aeabi_atexit>
    528c:	4620      	mov	r0, r4
    528e:	4a5e      	ldr	r2, [pc, #376]	; (5408 <_GLOBAL__sub_I_servos+0x218>)
    5290:	495a      	ldr	r1, [pc, #360]	; (53fc <_GLOBAL__sub_I_servos+0x20c>)
    5292:	462b      	mov	r3, r5
    5294:	f840 2b04 	str.w	r2, [r0], #4
    5298:	4a57      	ldr	r2, [pc, #348]	; (53f8 <_GLOBAL__sub_I_servos+0x208>)
    529a:	f000 fffb 	bl	6294 <AjK::MODSERIAL::MODSERIAL(PinName, PinName, char const*)>
    529e:	f504 7082 	add.w	r0, r4, #260	; 0x104
    52a2:	f002 facd 	bl	7840 <mbed::Timer::Timer()>
    52a6:	f44f 4361 	mov.w	r3, #57600	; 0xe100
    52aa:	f8c4 3100 	str.w	r3, [r4, #256]	; 0x100
    52ae:	f504 7082 	add.w	r0, r4, #260	; 0x104
    52b2:	f002 fad5 	bl	7860 <mbed::Timer::start()>
    52b6:	4629      	mov	r1, r5
    52b8:	4b54      	ldr	r3, [pc, #336]	; (540c <_GLOBAL__sub_I_servos+0x21c>)
    52ba:	f884 55fc 	strb.w	r5, [r4, #1532]	; 0x5fc
    52be:	f8c4 3610 	str.w	r3, [r4, #1552]	; 0x610
    52c2:	f884 5614 	strb.w	r5, [r4, #1556]	; 0x614
    52c6:	f8c4 561c 	str.w	r5, [r4, #1564]	; 0x61c
    52ca:	f884 5620 	strb.w	r5, [r4, #1568]	; 0x620
    52ce:	f8c4 5628 	str.w	r5, [r4, #1576]	; 0x628
    52d2:	f884 562c 	strb.w	r5, [r4, #1580]	; 0x62c
    52d6:	f8c4 5634 	str.w	r5, [r4, #1588]	; 0x634
    52da:	f204 521c 	addw	r2, r4, #1308	; 0x51c
    52de:	f504 63b0 	add.w	r3, r4, #1408	; 0x580
    52e2:	f842 1f04 	str.w	r1, [r2, #4]!
    52e6:	4293      	cmp	r3, r2
    52e8:	d1fb      	bne.n	52e2 <_GLOBAL__sub_I_servos+0xf2>
    52ea:	4949      	ldr	r1, [pc, #292]	; (5410 <_GLOBAL__sub_I_servos+0x220>)
    52ec:	2200      	movs	r2, #0
    52ee:	f843 2f04 	str.w	r2, [r3, #4]!
    52f2:	4299      	cmp	r1, r3
    52f4:	d1fb      	bne.n	52ee <_GLOBAL__sub_I_servos+0xfe>
    52f6:	4a47      	ldr	r2, [pc, #284]	; (5414 <_GLOBAL__sub_I_servos+0x224>)
    52f8:	2100      	movs	r1, #0
    52fa:	f502 7300 	add.w	r3, r2, #512	; 0x200
    52fe:	f802 1f01 	strb.w	r1, [r2, #1]!
    5302:	4293      	cmp	r3, r2
    5304:	d1fb      	bne.n	52fe <_GLOBAL__sub_I_servos+0x10e>
    5306:	4944      	ldr	r1, [pc, #272]	; (5418 <_GLOBAL__sub_I_servos+0x228>)
    5308:	2200      	movs	r2, #0
    530a:	f803 2f01 	strb.w	r2, [r3, #1]!
    530e:	428b      	cmp	r3, r1
    5310:	f04f 0400 	mov.w	r4, #0
    5314:	d1f9      	bne.n	530a <_GLOBAL__sub_I_servos+0x11a>
    5316:	4a2e      	ldr	r2, [pc, #184]	; (53d0 <_GLOBAL__sub_I_servos+0x1e0>)
    5318:	4940      	ldr	r1, [pc, #256]	; (541c <_GLOBAL__sub_I_servos+0x22c>)
    531a:	4836      	ldr	r0, [pc, #216]	; (53f4 <_GLOBAL__sub_I_servos+0x204>)
    531c:	f002 fc52 	bl	7bc4 <__aeabi_atexit>
    5320:	4e3f      	ldr	r6, [pc, #252]	; (5420 <_GLOBAL__sub_I_servos+0x230>)
    5322:	4b40      	ldr	r3, [pc, #256]	; (5424 <_GLOBAL__sub_I_servos+0x234>)
    5324:	4940      	ldr	r1, [pc, #256]	; (5428 <_GLOBAL__sub_I_servos+0x238>)
    5326:	4a41      	ldr	r2, [pc, #260]	; (542c <_GLOBAL__sub_I_servos+0x23c>)
    5328:	4f41      	ldr	r7, [pc, #260]	; (5430 <_GLOBAL__sub_I_servos+0x240>)
    532a:	639e      	str	r6, [r3, #56]	; 0x38
    532c:	2601      	movs	r6, #1
    532e:	4d41      	ldr	r5, [pc, #260]	; (5434 <_GLOBAL__sub_I_servos+0x244>)
    5330:	4841      	ldr	r0, [pc, #260]	; (5438 <_GLOBAL__sub_I_servos+0x248>)
    5332:	6019      	str	r1, [r3, #0]
    5334:	60da      	str	r2, [r3, #12]
    5336:	4941      	ldr	r1, [pc, #260]	; (543c <_GLOBAL__sub_I_servos+0x24c>)
    5338:	4a41      	ldr	r2, [pc, #260]	; (5440 <_GLOBAL__sub_I_servos+0x250>)
    533a:	63de      	str	r6, [r3, #60]	; 0x3c
    533c:	609f      	str	r7, [r3, #8]
    533e:	4e41      	ldr	r6, [pc, #260]	; (5444 <_GLOBAL__sub_I_servos+0x254>)
    5340:	4f41      	ldr	r7, [pc, #260]	; (5448 <_GLOBAL__sub_I_servos+0x258>)
    5342:	f8df e11c 	ldr.w	lr, [pc, #284]	; 5460 <_GLOBAL__sub_I_servos+0x270>
    5346:	6055      	str	r5, [r2, #4]
    5348:	7214      	strb	r4, [r2, #8]
    534a:	6016      	str	r6, [r2, #0]
    534c:	607a      	str	r2, [r7, #4]
    534e:	f8c7 e000 	str.w	lr, [r7]
    5352:	60d0      	str	r0, [r2, #12]
    5354:	6111      	str	r1, [r2, #16]
    5356:	6154      	str	r4, [r2, #20]
    5358:	6194      	str	r4, [r2, #24]
    535a:	61d4      	str	r4, [r2, #28]
    535c:	6214      	str	r4, [r2, #32]
    535e:	f882 4024 	strb.w	r4, [r2, #36]	; 0x24
    5362:	62d4      	str	r4, [r2, #44]	; 0x2c
    5364:	613c      	str	r4, [r7, #16]
    5366:	4a39      	ldr	r2, [pc, #228]	; (544c <_GLOBAL__sub_I_servos+0x25c>)
    5368:	4f39      	ldr	r7, [pc, #228]	; (5450 <_GLOBAL__sub_I_servos+0x260>)
    536a:	f8df e0f8 	ldr.w	lr, [pc, #248]	; 5464 <_GLOBAL__sub_I_servos+0x274>
    536e:	751c      	strb	r4, [r3, #20]
    5370:	621c      	str	r4, [r3, #32]
    5372:	625c      	str	r4, [r3, #36]	; 0x24
    5374:	629c      	str	r4, [r3, #40]	; 0x28
    5376:	62dc      	str	r4, [r3, #44]	; 0x2c
    5378:	f883 4030 	strb.w	r4, [r3, #48]	; 0x30
    537c:	635c      	str	r4, [r3, #52]	; 0x34
    537e:	611d      	str	r5, [r3, #16]
    5380:	6198      	str	r0, [r3, #24]
    5382:	61d9      	str	r1, [r3, #28]
    5384:	4b33      	ldr	r3, [pc, #204]	; (5454 <_GLOBAL__sub_I_servos+0x264>)
    5386:	6016      	str	r6, [r2, #0]
    5388:	6055      	str	r5, [r2, #4]
    538a:	7214      	strb	r4, [r2, #8]
    538c:	60d0      	str	r0, [r2, #12]
    538e:	6111      	str	r1, [r2, #16]
    5390:	607a      	str	r2, [r7, #4]
    5392:	6154      	str	r4, [r2, #20]
    5394:	6194      	str	r4, [r2, #24]
    5396:	61d4      	str	r4, [r2, #28]
    5398:	6214      	str	r4, [r2, #32]
    539a:	f882 4024 	strb.w	r4, [r2, #36]	; 0x24
    539e:	62d4      	str	r4, [r2, #44]	; 0x2c
    53a0:	613c      	str	r4, [r7, #16]
    53a2:	4a2d      	ldr	r2, [pc, #180]	; (5458 <_GLOBAL__sub_I_servos+0x268>)
    53a4:	f8c7 e000 	str.w	lr, [r7]
    53a8:	4f2c      	ldr	r7, [pc, #176]	; (545c <_GLOBAL__sub_I_servos+0x26c>)
    53aa:	721c      	strb	r4, [r3, #8]
    53ac:	f883 4024 	strb.w	r4, [r3, #36]	; 0x24
    53b0:	601e      	str	r6, [r3, #0]
    53b2:	605d      	str	r5, [r3, #4]
    53b4:	60d8      	str	r0, [r3, #12]
    53b6:	6119      	str	r1, [r3, #16]
    53b8:	615c      	str	r4, [r3, #20]
    53ba:	619c      	str	r4, [r3, #24]
    53bc:	61dc      	str	r4, [r3, #28]
    53be:	621c      	str	r4, [r3, #32]
    53c0:	62dc      	str	r4, [r3, #44]	; 0x2c
    53c2:	6053      	str	r3, [r2, #4]
    53c4:	6114      	str	r4, [r2, #16]
    53c6:	6017      	str	r7, [r2, #0]
    53c8:	bdf8      	pop	{r3, r4, r5, r6, r7, pc}
    53ca:	bf00      	nop
    53cc:	100001f8 	.word	0x100001f8
    53d0:	100000c8 	.word	0x100000c8
    53d4:	00000795 	.word	0x00000795
    53d8:	2009c010 	.word	0x2009c010
    53dc:	2009c00f 	.word	0x2009c00f
    53e0:	1000094c 	.word	0x1000094c
    53e4:	1000099c 	.word	0x1000099c
    53e8:	10000204 	.word	0x10000204
    53ec:	10000950 	.word	0x10000950
    53f0:	1000089c 	.word	0x1000089c
    53f4:	10000250 	.word	0x10000250
    53f8:	2009c003 	.word	0x2009c003
    53fc:	2009c002 	.word	0x2009c002
    5400:	100008a0 	.word	0x100008a0
    5404:	000007a5 	.word	0x000007a5
    5408:	0000ae14 	.word	0x0000ae14
    540c:	0000ad9c 	.word	0x0000ad9c
    5410:	10000834 	.word	0x10000834
    5414:	1000036f 	.word	0x1000036f
    5418:	1000076f 	.word	0x1000076f
    541c:	00005469 	.word	0x00005469
    5420:	00000265 	.word	0x00000265
    5424:	100008f8 	.word	0x100008f8
    5428:	0000ae28 	.word	0x0000ae28
    542c:	0000ade4 	.word	0x0000ade4
    5430:	0000b048 	.word	0x0000b048
    5434:	0000adcc 	.word	0x0000adcc
    5438:	0000adb4 	.word	0x0000adb4
    543c:	0000b044 	.word	0x0000b044
    5440:	100001c8 	.word	0x100001c8
    5444:	0000adfc 	.word	0x0000adfc
    5448:	10000208 	.word	0x10000208
    544c:	10000958 	.word	0x10000958
    5450:	10000938 	.word	0x10000938
    5454:	1000021c 	.word	0x1000021c
    5458:	10000988 	.word	0x10000988
    545c:	0000b06c 	.word	0x0000b06c
    5460:	0000b054 	.word	0x0000b054
    5464:	0000b060 	.word	0x0000b060

00005468 <ros::NodeHandle_<MbedHardware, 25, 25, 512, 512>::~NodeHandle_()>:
    5468:	b510      	push	{r4, lr}
    546a:	4604      	mov	r4, r0
    546c:	4b03      	ldr	r3, [pc, #12]	; (547c <ros::NodeHandle_<MbedHardware, 25, 25, 512, 512>::~NodeHandle_()+0x14>)
    546e:	f840 3b04 	str.w	r3, [r0], #4
    5472:	f000 feb1 	bl	61d8 <AjK::MODSERIAL::~MODSERIAL()>
    5476:	4620      	mov	r0, r4
    5478:	bd10      	pop	{r4, pc}
    547a:	bf00      	nop
    547c:	0000ae14 	.word	0x0000ae14

00005480 <mbed::SerialHalfDuplex::_putc(int)>:
    5480:	b538      	push	{r3, r4, r5, lr}
    5482:	4604      	mov	r4, r0
    5484:	460d      	mov	r5, r1
    5486:	b672      	cpsid	i
    5488:	6d80      	ldr	r0, [r0, #88]	; 0x58
    548a:	f001 fe21 	bl	70d0 <serial_pinout_tx>
    548e:	4629      	mov	r1, r5
    5490:	4620      	mov	r0, r4
    5492:	f002 f8e7 	bl	7664 <mbed::Serial::_putc(int)>
    5496:	f104 0040 	add.w	r0, r4, #64	; 0x40
    549a:	f002 f9bf 	bl	781c <mbed::Stream::getc()>
    549e:	2100      	movs	r1, #0
    54a0:	4605      	mov	r5, r0
    54a2:	6da0      	ldr	r0, [r4, #88]	; 0x58
    54a4:	f001 fb30 	bl	6b08 <pin_function>
    54a8:	b662      	cpsie	i
    54aa:	4628      	mov	r0, r5
    54ac:	bd38      	pop	{r3, r4, r5, pc}
    54ae:	bf00      	nop

000054b0 <non-virtual thunk to mbed::SerialHalfDuplex::_putc(int)>:
    54b0:	f1a0 0040 	sub.w	r0, r0, #64	; 0x40
    54b4:	f7ff bfe4 	b.w	5480 <mbed::SerialHalfDuplex::_putc(int)>

000054b8 <mbed::SerialHalfDuplex::_getc()>:
    54b8:	f002 b8ce 	b.w	7658 <mbed::Serial::_getc()>

000054bc <non-virtual thunk to mbed::SerialHalfDuplex::_getc()>:
    54bc:	f1a0 0040 	sub.w	r0, r0, #64	; 0x40
    54c0:	f7ff bffa 	b.w	54b8 <mbed::SerialHalfDuplex::_getc()>

000054c4 <mbed::SerialHalfDuplex::~SerialHalfDuplex()>:
    54c4:	b510      	push	{r4, lr}
    54c6:	4604      	mov	r4, r0
    54c8:	4b06      	ldr	r3, [pc, #24]	; (54e4 <mbed::SerialHalfDuplex::~SerialHalfDuplex()+0x20>)
    54ca:	3040      	adds	r0, #64	; 0x40
    54cc:	f103 0118 	add.w	r1, r3, #24
    54d0:	f103 024c 	add.w	r2, r3, #76	; 0x4c
    54d4:	6023      	str	r3, [r4, #0]
    54d6:	6421      	str	r1, [r4, #64]	; 0x40
    54d8:	6462      	str	r2, [r4, #68]	; 0x44
    54da:	f002 f981 	bl	77e0 <mbed::Stream::~Stream()>
    54de:	4620      	mov	r0, r4
    54e0:	bd10      	pop	{r4, pc}
    54e2:	bf00      	nop
    54e4:	0000b410 	.word	0x0000b410

000054e8 <non-virtual thunk to mbed::SerialHalfDuplex::~SerialHalfDuplex()>:
    54e8:	f1a0 0040 	sub.w	r0, r0, #64	; 0x40
    54ec:	e7ea      	b.n	54c4 <mbed::SerialHalfDuplex::~SerialHalfDuplex()>
    54ee:	bf00      	nop

000054f0 <non-virtual thunk to mbed::SerialHalfDuplex::~SerialHalfDuplex()>:
    54f0:	f1a0 0044 	sub.w	r0, r0, #68	; 0x44
    54f4:	e7e6      	b.n	54c4 <mbed::SerialHalfDuplex::~SerialHalfDuplex()>
    54f6:	bf00      	nop

000054f8 <mbed::SerialHalfDuplex::~SerialHalfDuplex()>:
    54f8:	b510      	push	{r4, lr}
    54fa:	4604      	mov	r4, r0
    54fc:	4b07      	ldr	r3, [pc, #28]	; (551c <mbed::SerialHalfDuplex::~SerialHalfDuplex()+0x24>)
    54fe:	3040      	adds	r0, #64	; 0x40
    5500:	f103 0118 	add.w	r1, r3, #24
    5504:	f103 024c 	add.w	r2, r3, #76	; 0x4c
    5508:	6023      	str	r3, [r4, #0]
    550a:	6421      	str	r1, [r4, #64]	; 0x40
    550c:	6462      	str	r2, [r4, #68]	; 0x44
    550e:	f002 f967 	bl	77e0 <mbed::Stream::~Stream()>
    5512:	4620      	mov	r0, r4
    5514:	f002 fb5b 	bl	7bce <operator delete(void*)>
    5518:	4620      	mov	r0, r4
    551a:	bd10      	pop	{r4, pc}
    551c:	0000b410 	.word	0x0000b410

00005520 <non-virtual thunk to mbed::SerialHalfDuplex::~SerialHalfDuplex()>:
    5520:	f1a0 0040 	sub.w	r0, r0, #64	; 0x40
    5524:	e7e8      	b.n	54f8 <mbed::SerialHalfDuplex::~SerialHalfDuplex()>
    5526:	bf00      	nop

00005528 <non-virtual thunk to mbed::SerialHalfDuplex::~SerialHalfDuplex()>:
    5528:	f1a0 0044 	sub.w	r0, r0, #68	; 0x44
    552c:	e7e4      	b.n	54f8 <mbed::SerialHalfDuplex::~SerialHalfDuplex()>
    552e:	bf00      	nop

00005530 <mbed::SerialHalfDuplex::SerialHalfDuplex(PinName, PinName, char const*)>:
    5530:	b538      	push	{r3, r4, r5, lr}
    5532:	4604      	mov	r4, r0
    5534:	460d      	mov	r5, r1
    5536:	f002 f89b 	bl	7670 <mbed::Serial::Serial(PinName, PinName, char const*)>
    553a:	4b0b      	ldr	r3, [pc, #44]	; (5568 <mbed::SerialHalfDuplex::SerialHalfDuplex(PinName, PinName, char const*)+0x38>)
    553c:	65a5      	str	r5, [r4, #88]	; 0x58
    553e:	f103 0220 	add.w	r2, r3, #32
    5542:	f103 0108 	add.w	r1, r3, #8
    5546:	3354      	adds	r3, #84	; 0x54
    5548:	6422      	str	r2, [r4, #64]	; 0x40
    554a:	6463      	str	r3, [r4, #68]	; 0x44
    554c:	6021      	str	r1, [r4, #0]
    554e:	4628      	mov	r0, r5
    5550:	f001 fa9c 	bl	6a8c <gpio_set>
    5554:	6da0      	ldr	r0, [r4, #88]	; 0x58
    5556:	2102      	movs	r1, #2
    5558:	f001 faf2 	bl	6b40 <pin_mode>
    555c:	6da0      	ldr	r0, [r4, #88]	; 0x58
    555e:	2100      	movs	r1, #0
    5560:	f001 fad2 	bl	6b08 <pin_function>
    5564:	4620      	mov	r0, r4
    5566:	bd38      	pop	{r3, r4, r5, pc}
    5568:	0000b098 	.word	0x0000b098
    556c:	00000000 	.word	0x00000000

00005570 <MX106::SetCRSpeed(float)>:
    5570:	b570      	push	{r4, r5, r6, lr}
    5572:	f021 4300 	bic.w	r3, r1, #2147483648	; 0x80000000
    5576:	b084      	sub	sp, #16
    5578:	4604      	mov	r4, r0
    557a:	4618      	mov	r0, r3
    557c:	460e      	mov	r6, r1
    557e:	f002 fca5 	bl	7ecc <__aeabi_f2d>
    5582:	a311      	add	r3, pc, #68	; (adr r3, 55c8 <MX106::SetCRSpeed(float)+0x58>)
    5584:	e9d3 2300 	ldrd	r2, r3, [r3]
    5588:	f002 fcf4 	bl	7f74 <__aeabi_dmul>
    558c:	f002 ff04 	bl	8398 <__aeabi_d2iz>
    5590:	2100      	movs	r1, #0
    5592:	4605      	mov	r5, r0
    5594:	4630      	mov	r0, r6
    5596:	f003 fa23 	bl	89e0 <__aeabi_fcmplt>
    559a:	b108      	cbz	r0, 55a0 <MX106::SetCRSpeed(float)+0x30>
    559c:	f445 6580 	orr.w	r5, r5, #1024	; 0x400
    55a0:	a803      	add	r0, sp, #12
    55a2:	2600      	movs	r6, #0
    55a4:	6823      	ldr	r3, [r4, #0]
    55a6:	6861      	ldr	r1, [r4, #4]
    55a8:	e88d 0041 	stmia.w	sp, {r0, r6}
    55ac:	122a      	asrs	r2, r5, #8
    55ae:	f88d 500c 	strb.w	r5, [sp, #12]
    55b2:	f88d 200d 	strb.w	r2, [sp, #13]
    55b6:	6c1d      	ldr	r5, [r3, #64]	; 0x40
    55b8:	4620      	mov	r0, r4
    55ba:	2302      	movs	r3, #2
    55bc:	2220      	movs	r2, #32
    55be:	47a8      	blx	r5
    55c0:	b004      	add	sp, #16
    55c2:	bd70      	pop	{r4, r5, r6, pc}
    55c4:	f3af 8000 	nop.w
    55c8:	00000000 	.word	0x00000000
    55cc:	408ff800 	.word	0x408ff800

000055d0 <MX106::SetCWLimit(int)>:
    55d0:	b570      	push	{r4, r5, r6, lr}
    55d2:	4b0e      	ldr	r3, [pc, #56]	; (560c <MX106::SetCWLimit(int)+0x3c>)
    55d4:	ebc1 3101 	rsb	r1, r1, r1, lsl #12
    55d8:	fb83 3201 	smull	r3, r2, r3, r1
    55dc:	b084      	sub	sp, #16
    55de:	17cb      	asrs	r3, r1, #31
    55e0:	2600      	movs	r6, #0
    55e2:	4411      	add	r1, r2
    55e4:	ad03      	add	r5, sp, #12
    55e6:	ebc3 2321 	rsb	r3, r3, r1, asr #8
    55ea:	6802      	ldr	r2, [r0, #0]
    55ec:	6841      	ldr	r1, [r0, #4]
    55ee:	e88d 0060 	stmia.w	sp, {r5, r6}
    55f2:	f343 2407 	sbfx	r4, r3, #8, #8
    55f6:	f88d 300c 	strb.w	r3, [sp, #12]
    55fa:	f88d 400d 	strb.w	r4, [sp, #13]
    55fe:	2302      	movs	r3, #2
    5600:	6c14      	ldr	r4, [r2, #64]	; 0x40
    5602:	2206      	movs	r2, #6
    5604:	47a0      	blx	r4
    5606:	b004      	add	sp, #16
    5608:	bd70      	pop	{r4, r5, r6, pc}
    560a:	bf00      	nop
    560c:	b60b60b7 	.word	0xb60b60b7

00005610 <MX106::SetCCWLimit(int)>:
    5610:	b570      	push	{r4, r5, r6, lr}
    5612:	4b0e      	ldr	r3, [pc, #56]	; (564c <MX106::SetCCWLimit(int)+0x3c>)
    5614:	ebc1 3101 	rsb	r1, r1, r1, lsl #12
    5618:	fb83 3201 	smull	r3, r2, r3, r1
    561c:	b084      	sub	sp, #16
    561e:	17cb      	asrs	r3, r1, #31
    5620:	2600      	movs	r6, #0
    5622:	4411      	add	r1, r2
    5624:	ad03      	add	r5, sp, #12
    5626:	ebc3 2321 	rsb	r3, r3, r1, asr #8
    562a:	6802      	ldr	r2, [r0, #0]
    562c:	6841      	ldr	r1, [r0, #4]
    562e:	e88d 0060 	stmia.w	sp, {r5, r6}
    5632:	f343 2407 	sbfx	r4, r3, #8, #8
    5636:	f88d 300c 	strb.w	r3, [sp, #12]
    563a:	f88d 400d 	strb.w	r4, [sp, #13]
    563e:	2302      	movs	r3, #2
    5640:	6c14      	ldr	r4, [r2, #64]	; 0x40
    5642:	2208      	movs	r2, #8
    5644:	47a0      	blx	r4
    5646:	b004      	add	sp, #16
    5648:	bd70      	pop	{r4, r5, r6, pc}
    564a:	bf00      	nop
    564c:	b60b60b7 	.word	0xb60b60b7

00005650 <MX106::SetID(int, int)>:
    5650:	b510      	push	{r4, lr}
    5652:	b084      	sub	sp, #16
    5654:	ab04      	add	r3, sp, #16
    5656:	f803 2d04 	strb.w	r2, [r3, #-4]!
    565a:	6804      	ldr	r4, [r0, #0]
    565c:	2200      	movs	r2, #0
    565e:	9300      	str	r3, [sp, #0]
    5660:	9201      	str	r2, [sp, #4]
    5662:	6c24      	ldr	r4, [r4, #64]	; 0x40
    5664:	2301      	movs	r3, #1
    5666:	2203      	movs	r2, #3
    5668:	47a0      	blx	r4
    566a:	b004      	add	sp, #16
    566c:	bd10      	pop	{r4, pc}
    566e:	bf00      	nop

00005670 <MX106::isMoving()>:
    5670:	b510      	push	{r4, lr}
    5672:	b084      	sub	sp, #16
    5674:	6803      	ldr	r3, [r0, #0]
    5676:	aa03      	add	r2, sp, #12
    5678:	6841      	ldr	r1, [r0, #4]
    567a:	9200      	str	r2, [sp, #0]
    567c:	6bdc      	ldr	r4, [r3, #60]	; 0x3c
    567e:	222e      	movs	r2, #46	; 0x2e
    5680:	2301      	movs	r3, #1
    5682:	47a0      	blx	r4
    5684:	f89d 000c 	ldrb.w	r0, [sp, #12]
    5688:	b004      	add	sp, #16
    568a:	bd10      	pop	{r4, pc}

0000568c <MX106::GetPosition()>:
    568c:	b510      	push	{r4, lr}
    568e:	b084      	sub	sp, #16
    5690:	6803      	ldr	r3, [r0, #0]
    5692:	aa03      	add	r2, sp, #12
    5694:	6841      	ldr	r1, [r0, #4]
    5696:	9200      	str	r2, [sp, #0]
    5698:	6bdc      	ldr	r4, [r3, #60]	; 0x3c
    569a:	2224      	movs	r2, #36	; 0x24
    569c:	2302      	movs	r3, #2
    569e:	47a0      	blx	r4
    56a0:	f89d 000d 	ldrb.w	r0, [sp, #13]
    56a4:	f89d 300c 	ldrb.w	r3, [sp, #12]
    56a8:	f44f 72b4 	mov.w	r2, #360	; 0x168
    56ac:	eb03 2300 	add.w	r3, r3, r0, lsl #8
    56b0:	b21b      	sxth	r3, r3
    56b2:	fb02 f303 	mul.w	r3, r2, r3
    56b6:	4a05      	ldr	r2, [pc, #20]	; (56cc <MX106::GetPosition()+0x40>)
    56b8:	17d8      	asrs	r0, r3, #31
    56ba:	fb82 1203 	smull	r1, r2, r2, r3
    56be:	4413      	add	r3, r2
    56c0:	ebc0 20e3 	rsb	r0, r0, r3, asr #11
    56c4:	f002 ff9a 	bl	85fc <__aeabi_i2f>
    56c8:	b004      	add	sp, #16
    56ca:	bd10      	pop	{r4, pc}
    56cc:	80080081 	.word	0x80080081

000056d0 <MX106::GetTemp()>:
    56d0:	b510      	push	{r4, lr}
    56d2:	b084      	sub	sp, #16
    56d4:	6803      	ldr	r3, [r0, #0]
    56d6:	aa03      	add	r2, sp, #12
    56d8:	6841      	ldr	r1, [r0, #4]
    56da:	9200      	str	r2, [sp, #0]
    56dc:	6bdc      	ldr	r4, [r3, #60]	; 0x3c
    56de:	222b      	movs	r2, #43	; 0x2b
    56e0:	2301      	movs	r3, #1
    56e2:	47a0      	blx	r4
    56e4:	f89d 000c 	ldrb.w	r0, [sp, #12]
    56e8:	f002 ff84 	bl	85f4 <__aeabi_ui2f>
    56ec:	b004      	add	sp, #16
    56ee:	bd10      	pop	{r4, pc}

000056f0 <MX106::GetVolts()>:
    56f0:	b510      	push	{r4, lr}
    56f2:	b084      	sub	sp, #16
    56f4:	6803      	ldr	r3, [r0, #0]
    56f6:	aa03      	add	r2, sp, #12
    56f8:	6841      	ldr	r1, [r0, #4]
    56fa:	9200      	str	r2, [sp, #0]
    56fc:	6bdc      	ldr	r4, [r3, #60]	; 0x3c
    56fe:	222a      	movs	r2, #42	; 0x2a
    5700:	2301      	movs	r3, #1
    5702:	47a0      	blx	r4
    5704:	f89d 000c 	ldrb.w	r0, [sp, #12]
    5708:	f002 fbce 	bl	7ea8 <__aeabi_i2d>
    570c:	2200      	movs	r2, #0
    570e:	4b03      	ldr	r3, [pc, #12]	; (571c <MX106::GetVolts()+0x2c>)
    5710:	f002 fd5a 	bl	81c8 <__aeabi_ddiv>
    5714:	f002 fe68 	bl	83e8 <__aeabi_d2f>
    5718:	b004      	add	sp, #16
    571a:	bd10      	pop	{r4, pc}
    571c:	40240000 	.word	0x40240000

00005720 <MX106::GetCurrent()>:
    5720:	b510      	push	{r4, lr}
    5722:	b084      	sub	sp, #16
    5724:	6803      	ldr	r3, [r0, #0]
    5726:	aa03      	add	r2, sp, #12
    5728:	6841      	ldr	r1, [r0, #4]
    572a:	9200      	str	r2, [sp, #0]
    572c:	6bdc      	ldr	r4, [r3, #60]	; 0x3c
    572e:	2244      	movs	r2, #68	; 0x44
    5730:	2302      	movs	r3, #2
    5732:	47a0      	blx	r4
    5734:	f89d 300c 	ldrb.w	r3, [sp, #12]
    5738:	f89d 000d 	ldrb.w	r0, [sp, #13]
    573c:	eb03 2000 	add.w	r0, r3, r0, lsl #8
    5740:	f6a0 00ff 	subw	r0, r0, #2303	; 0x8ff
    5744:	f002 fbb0 	bl	7ea8 <__aeabi_i2d>
    5748:	a305      	add	r3, pc, #20	; (adr r3, 5760 <MX106::GetCurrent()+0x40>)
    574a:	e9d3 2300 	ldrd	r2, r3, [r3]
    574e:	f002 fc11 	bl	7f74 <__aeabi_dmul>
    5752:	f002 fe49 	bl	83e8 <__aeabi_d2f>
    5756:	b004      	add	sp, #16
    5758:	bd10      	pop	{r4, pc}
    575a:	bf00      	nop
    575c:	f3af 8000 	nop.w
    5760:	8d4fdf3b 	.word	0x8d4fdf3b
    5764:	3f726e97 	.word	0x3f726e97

00005768 <MX106::TorqueEnable(int)>:
    5768:	b510      	push	{r4, lr}
    576a:	b084      	sub	sp, #16
    576c:	ab04      	add	r3, sp, #16
    576e:	f803 1d04 	strb.w	r1, [r3, #-4]!
    5772:	6804      	ldr	r4, [r0, #0]
    5774:	2200      	movs	r2, #0
    5776:	6841      	ldr	r1, [r0, #4]
    5778:	9300      	str	r3, [sp, #0]
    577a:	9201      	str	r2, [sp, #4]
    577c:	6c24      	ldr	r4, [r4, #64]	; 0x40
    577e:	2301      	movs	r3, #1
    5780:	2218      	movs	r2, #24
    5782:	47a0      	blx	r4
    5784:	b004      	add	sp, #16
    5786:	bd10      	pop	{r4, pc}

00005788 <MX106::SetTorqueLimit(float)>:
    5788:	460b      	mov	r3, r1
    578a:	b570      	push	{r4, r5, r6, lr}
    578c:	490d      	ldr	r1, [pc, #52]	; (57c4 <MX106::SetTorqueLimit(float)+0x3c>)
    578e:	b084      	sub	sp, #16
    5790:	4604      	mov	r4, r0
    5792:	4618      	mov	r0, r3
    5794:	f002 ff86 	bl	86a4 <__aeabi_fmul>
    5798:	f003 f94a 	bl	8a30 <__aeabi_f2iz>
    579c:	2600      	movs	r6, #0
    579e:	ad03      	add	r5, sp, #12
    57a0:	6861      	ldr	r1, [r4, #4]
    57a2:	6823      	ldr	r3, [r4, #0]
    57a4:	e88d 0060 	stmia.w	sp, {r5, r6}
    57a8:	b280      	uxth	r0, r0
    57aa:	f340 2207 	sbfx	r2, r0, #8, #8
    57ae:	f88d 000c 	strb.w	r0, [sp, #12]
    57b2:	f88d 200d 	strb.w	r2, [sp, #13]
    57b6:	4620      	mov	r0, r4
    57b8:	2222      	movs	r2, #34	; 0x22
    57ba:	6c1c      	ldr	r4, [r3, #64]	; 0x40
    57bc:	2302      	movs	r3, #2
    57be:	47a0      	blx	r4
    57c0:	b004      	add	sp, #16
    57c2:	bd70      	pop	{r4, r5, r6, pc}
    57c4:	447fc000 	.word	0x447fc000

000057c8 <MX106::SetDriveMode(int, int)>:
    57c8:	b510      	push	{r4, lr}
    57ca:	b084      	sub	sp, #16
    57cc:	ab04      	add	r3, sp, #16
    57ce:	eb02 0241 	add.w	r2, r2, r1, lsl #1
    57d2:	f803 2d04 	strb.w	r2, [r3, #-4]!
    57d6:	2400      	movs	r4, #0
    57d8:	6802      	ldr	r2, [r0, #0]
    57da:	6841      	ldr	r1, [r0, #4]
    57dc:	e88d 0018 	stmia.w	sp, {r3, r4}
    57e0:	2301      	movs	r3, #1
    57e2:	6c14      	ldr	r4, [r2, #64]	; 0x40
    57e4:	220a      	movs	r2, #10
    57e6:	47a0      	blx	r4
    57e8:	b004      	add	sp, #16
    57ea:	bd10      	pop	{r4, pc}

000057ec <MX106::trigger()>:
    57ec:	b5f0      	push	{r4, r5, r6, r7, lr}
    57ee:	23ff      	movs	r3, #255	; 0xff
    57f0:	b085      	sub	sp, #20
    57f2:	2502      	movs	r5, #2
    57f4:	2404      	movs	r4, #4
    57f6:	27fe      	movs	r7, #254	; 0xfe
    57f8:	22fb      	movs	r2, #251	; 0xfb
    57fa:	f88d 5003 	strb.w	r5, [sp, #3]
    57fe:	f88d 4004 	strb.w	r4, [sp, #4]
    5802:	4619      	mov	r1, r3
    5804:	f100 0648 	add.w	r6, r0, #72	; 0x48
    5808:	f88d 3000 	strb.w	r3, [sp]
    580c:	f88d 3001 	strb.w	r3, [sp, #1]
    5810:	f88d 7002 	strb.w	r7, [sp, #2]
    5814:	f88d 2005 	strb.w	r2, [sp, #5]
    5818:	466c      	mov	r4, sp
    581a:	f10d 0505 	add.w	r5, sp, #5
    581e:	e001      	b.n	5824 <MX106::trigger()+0x38>
    5820:	f814 1f01 	ldrb.w	r1, [r4, #1]!
    5824:	4630      	mov	r0, r6
    5826:	f001 ffed 	bl	7804 <mbed::Stream::putc(int)>
    582a:	42ac      	cmp	r4, r5
    582c:	d1f8      	bne.n	5820 <MX106::trigger()+0x34>
    582e:	b005      	add	sp, #20
    5830:	bdf0      	pop	{r4, r5, r6, r7, pc}
    5832:	bf00      	nop

00005834 <MX106::read(int, int, int, char*)>:
    5834:	e92d 41f0 	stmdb	sp!, {r4, r5, r6, r7, r8, lr}
    5838:	b2dc      	uxtb	r4, r3
    583a:	b2d2      	uxtb	r2, r2
    583c:	461f      	mov	r7, r3
    583e:	1da3      	adds	r3, r4, #6
    5840:	b2cd      	uxtb	r5, r1
    5842:	4413      	add	r3, r2
    5844:	442b      	add	r3, r5
    5846:	4680      	mov	r8, r0
    5848:	43db      	mvns	r3, r3
    584a:	b088      	sub	sp, #32
    584c:	20ff      	movs	r0, #255	; 0xff
    584e:	f88d 5002 	strb.w	r5, [sp, #2]
    5852:	f04f 0efe 	mov.w	lr, #254	; 0xfe
    5856:	2504      	movs	r5, #4
    5858:	f88d 2005 	strb.w	r2, [sp, #5]
    585c:	2202      	movs	r2, #2
    585e:	f88d 4006 	strb.w	r4, [sp, #6]
    5862:	f88d 5003 	strb.w	r5, [sp, #3]
    5866:	4601      	mov	r1, r0
    5868:	f88d 3007 	strb.w	r3, [sp, #7]
    586c:	f108 0648 	add.w	r6, r8, #72	; 0x48
    5870:	f88d 0000 	strb.w	r0, [sp]
    5874:	f88d 0001 	strb.w	r0, [sp, #1]
    5878:	f88d e014 	strb.w	lr, [sp, #20]
    587c:	f88d 2004 	strb.w	r2, [sp, #4]
    5880:	466c      	mov	r4, sp
    5882:	f10d 0507 	add.w	r5, sp, #7
    5886:	e001      	b.n	588c <MX106::read(int, int, int, char*)+0x58>
    5888:	f814 1f01 	ldrb.w	r1, [r4, #1]!
    588c:	4630      	mov	r0, r6
    588e:	f001 ffb9 	bl	7804 <mbed::Stream::putc(int)>
    5892:	42ac      	cmp	r4, r5
    5894:	d1f8      	bne.n	5888 <MX106::read(int, int, int, char*)+0x54>
    5896:	4815      	ldr	r0, [pc, #84]	; (58ec <MX106::read(int, int, int, char*)+0xb8>)
    5898:	f001 f86c 	bl	6974 <wait>
    589c:	f8d8 0004 	ldr.w	r0, [r8, #4]
    58a0:	28fe      	cmp	r0, #254	; 0xfe
    58a2:	d01e      	beq.n	58e2 <MX106::read(int, int, int, char*)+0xae>
    58a4:	3705      	adds	r7, #5
    58a6:	d41f      	bmi.n	58e8 <MX106::read(int, int, int, char*)+0xb4>
    58a8:	f10d 050f 	add.w	r5, sp, #15
    58ac:	2400      	movs	r4, #0
    58ae:	4630      	mov	r0, r6
    58b0:	f001 ffb4 	bl	781c <mbed::Stream::getc()>
    58b4:	3401      	adds	r4, #1
    58b6:	42bc      	cmp	r4, r7
    58b8:	f805 0f01 	strb.w	r0, [r5, #1]!
    58bc:	ddf7      	ble.n	58ae <MX106::read(int, int, int, char*)+0x7a>
    58be:	f89d 0014 	ldrb.w	r0, [sp, #20]
    58c2:	f89d 4013 	ldrb.w	r4, [sp, #19]
    58c6:	2c02      	cmp	r4, #2
    58c8:	dd0b      	ble.n	58e2 <MX106::read(int, int, int, char*)+0xae>
    58ca:	ab08      	add	r3, sp, #32
    58cc:	9a0e      	ldr	r2, [sp, #56]	; 0x38
    58ce:	441c      	add	r4, r3
    58d0:	3c0e      	subs	r4, #14
    58d2:	ab05      	add	r3, sp, #20
    58d4:	3a01      	subs	r2, #1
    58d6:	f813 1f01 	ldrb.w	r1, [r3, #1]!
    58da:	429c      	cmp	r4, r3
    58dc:	f802 1f01 	strb.w	r1, [r2, #1]!
    58e0:	d1f9      	bne.n	58d6 <MX106::read(int, int, int, char*)+0xa2>
    58e2:	b008      	add	sp, #32
    58e4:	e8bd 81f0 	ldmia.w	sp!, {r4, r5, r6, r7, r8, pc}
    58e8:	20fe      	movs	r0, #254	; 0xfe
    58ea:	e7ea      	b.n	58c2 <MX106::read(int, int, int, char*)+0x8e>
    58ec:	37a7c5ac 	.word	0x37a7c5ac

000058f0 <MX106::write(int, int, int, char*, int)>:
    58f0:	e92d 41f0 	stmdb	sp!, {r4, r5, r6, r7, r8, lr}
    58f4:	1cde      	adds	r6, r3, #3
    58f6:	b086      	sub	sp, #24
    58f8:	b2c9      	uxtb	r1, r1
    58fa:	b2f6      	uxtb	r6, r6
    58fc:	9f0d      	ldr	r7, [sp, #52]	; 0x34
    58fe:	198c      	adds	r4, r1, r6
    5900:	2f01      	cmp	r7, #1
    5902:	b2e4      	uxtb	r4, r4
    5904:	f88d 100a 	strb.w	r1, [sp, #10]
    5908:	bf0c      	ite	eq
    590a:	1d21      	addeq	r1, r4, #4
    590c:	1ce1      	addne	r1, r4, #3
    590e:	b2d2      	uxtb	r2, r2
    5910:	b2c9      	uxtb	r1, r1
    5912:	f04f 0eff 	mov.w	lr, #255	; 0xff
    5916:	4605      	mov	r5, r0
    5918:	4411      	add	r1, r2
    591a:	bf0c      	ite	eq
    591c:	2004      	moveq	r0, #4
    591e:	2003      	movne	r0, #3
    5920:	2b00      	cmp	r3, #0
    5922:	f88d 600b 	strb.w	r6, [sp, #11]
    5926:	f88d e008 	strb.w	lr, [sp, #8]
    592a:	f88d e009 	strb.w	lr, [sp, #9]
    592e:	9e0c      	ldr	r6, [sp, #48]	; 0x30
    5930:	f88d 000c 	strb.w	r0, [sp, #12]
    5934:	b2c9      	uxtb	r1, r1
    5936:	f88d 200d 	strb.w	r2, [sp, #13]
    593a:	dd0d      	ble.n	5958 <MX106::write(int, int, int, char*, int)+0x68>
    593c:	2000      	movs	r0, #0
    593e:	4602      	mov	r2, r0
    5940:	5cb4      	ldrb	r4, [r6, r2]
    5942:	3201      	adds	r2, #1
    5944:	b2d2      	uxtb	r2, r2
    5946:	af06      	add	r7, sp, #24
    5948:	4438      	add	r0, r7
    594a:	4421      	add	r1, r4
    594c:	4293      	cmp	r3, r2
    594e:	f800 4c0a 	strb.w	r4, [r0, #-10]
    5952:	b2c9      	uxtb	r1, r1
    5954:	4610      	mov	r0, r2
    5956:	dcf3      	bgt.n	5940 <MX106::write(int, int, int, char*, int)+0x50>
    5958:	43c9      	mvns	r1, r1
    595a:	1d9e      	adds	r6, r3, #6
    595c:	ab06      	add	r3, sp, #24
    595e:	4433      	add	r3, r6
    5960:	2e00      	cmp	r6, #0
    5962:	f803 1c10 	strb.w	r1, [r3, #-16]
    5966:	db0c      	blt.n	5982 <MX106::write(int, int, int, char*, int)+0x92>
    5968:	f105 0848 	add.w	r8, r5, #72	; 0x48
    596c:	f10d 0707 	add.w	r7, sp, #7
    5970:	2400      	movs	r4, #0
    5972:	3401      	adds	r4, #1
    5974:	f817 1f01 	ldrb.w	r1, [r7, #1]!
    5978:	4640      	mov	r0, r8
    597a:	f001 ff43 	bl	7804 <mbed::Stream::putc(int)>
    597e:	42a6      	cmp	r6, r4
    5980:	daf7      	bge.n	5972 <MX106::write(int, int, int, char*, int)+0x82>
    5982:	480c      	ldr	r0, [pc, #48]	; (59b4 <MX106::write(int, int, int, char*, int)+0xc4>)
    5984:	f000 fff6 	bl	6974 <wait>
    5988:	686b      	ldr	r3, [r5, #4]
    598a:	2000      	movs	r0, #0
    598c:	2bfe      	cmp	r3, #254	; 0xfe
    598e:	f88d 0004 	strb.w	r0, [sp, #4]
    5992:	d00c      	beq.n	59ae <MX106::write(int, int, int, char*, int)+0xbe>
    5994:	466c      	mov	r4, sp
    5996:	3548      	adds	r5, #72	; 0x48
    5998:	f10d 0606 	add.w	r6, sp, #6
    599c:	4628      	mov	r0, r5
    599e:	f001 ff3d 	bl	781c <mbed::Stream::getc()>
    59a2:	f804 0b01 	strb.w	r0, [r4], #1
    59a6:	42a6      	cmp	r6, r4
    59a8:	d1f8      	bne.n	599c <MX106::write(int, int, int, char*, int)+0xac>
    59aa:	f89d 0004 	ldrb.w	r0, [sp, #4]
    59ae:	b006      	add	sp, #24
    59b0:	e8bd 81f0 	ldmia.w	sp!, {r4, r5, r6, r7, r8, pc}
    59b4:	37a7c5ac 	.word	0x37a7c5ac

000059b8 <MX106::SetGoal(int, int)>:
    59b8:	b5f0      	push	{r4, r5, r6, r7, lr}
    59ba:	f1a2 0702 	sub.w	r7, r2, #2
    59be:	fab7 f787 	clz	r7, r7
    59c2:	4b17      	ldr	r3, [pc, #92]	; (5a20 <MX106::SetGoal(int, int)+0x68>)
    59c4:	ebc1 3101 	rsb	r1, r1, r1, lsl #12
    59c8:	4615      	mov	r5, r2
    59ca:	fb83 3201 	smull	r3, r2, r3, r1
    59ce:	b085      	sub	sp, #20
    59d0:	17cb      	asrs	r3, r1, #31
    59d2:	ae03      	add	r6, sp, #12
    59d4:	4411      	add	r1, r2
    59d6:	097f      	lsrs	r7, r7, #5
    59d8:	ebc3 2321 	rsb	r3, r3, r1, asr #8
    59dc:	6802      	ldr	r2, [r0, #0]
    59de:	6841      	ldr	r1, [r0, #4]
    59e0:	e88d 00c0 	stmia.w	sp, {r6, r7}
    59e4:	f343 2607 	sbfx	r6, r3, #8, #8
    59e8:	f88d 300c 	strb.w	r3, [sp, #12]
    59ec:	f88d 600d 	strb.w	r6, [sp, #13]
    59f0:	2302      	movs	r3, #2
    59f2:	6c16      	ldr	r6, [r2, #64]	; 0x40
    59f4:	221e      	movs	r2, #30
    59f6:	4604      	mov	r4, r0
    59f8:	47b0      	blx	r6
    59fa:	2d01      	cmp	r5, #1
    59fc:	4606      	mov	r6, r0
    59fe:	d002      	beq.n	5a06 <MX106::SetGoal(int, int)+0x4e>
    5a00:	4630      	mov	r0, r6
    5a02:	b005      	add	sp, #20
    5a04:	bdf0      	pop	{r4, r5, r6, r7, pc}
    5a06:	6823      	ldr	r3, [r4, #0]
    5a08:	4620      	mov	r0, r4
    5a0a:	699b      	ldr	r3, [r3, #24]
    5a0c:	4798      	blx	r3
    5a0e:	2800      	cmp	r0, #0
    5a10:	d0f6      	beq.n	5a00 <MX106::SetGoal(int, int)+0x48>
    5a12:	6823      	ldr	r3, [r4, #0]
    5a14:	4620      	mov	r0, r4
    5a16:	699b      	ldr	r3, [r3, #24]
    5a18:	4798      	blx	r3
    5a1a:	2800      	cmp	r0, #0
    5a1c:	d1f3      	bne.n	5a06 <MX106::SetGoal(int, int)+0x4e>
    5a1e:	e7ef      	b.n	5a00 <MX106::SetGoal(int, int)+0x48>
    5a20:	b60b60b7 	.word	0xb60b60b7

00005a24 <MX106::SetMode(int)>:
    5a24:	6803      	ldr	r3, [r0, #0]
    5a26:	2901      	cmp	r1, #1
    5a28:	b510      	push	{r4, lr}
    5a2a:	f04f 0100 	mov.w	r1, #0
    5a2e:	4604      	mov	r4, r0
    5a30:	68db      	ldr	r3, [r3, #12]
    5a32:	d00d      	beq.n	5a50 <MX106::SetMode(int)+0x2c>
    5a34:	4798      	blx	r3
    5a36:	6823      	ldr	r3, [r4, #0]
    5a38:	f44f 71b4 	mov.w	r1, #360	; 0x168
    5a3c:	691b      	ldr	r3, [r3, #16]
    5a3e:	4620      	mov	r0, r4
    5a40:	4798      	blx	r3
    5a42:	6823      	ldr	r3, [r4, #0]
    5a44:	4620      	mov	r0, r4
    5a46:	689b      	ldr	r3, [r3, #8]
    5a48:	2100      	movs	r1, #0
    5a4a:	4798      	blx	r3
    5a4c:	2000      	movs	r0, #0
    5a4e:	bd10      	pop	{r4, pc}
    5a50:	4798      	blx	r3
    5a52:	6823      	ldr	r3, [r4, #0]
    5a54:	2100      	movs	r1, #0
    5a56:	e7f1      	b.n	5a3c <MX106::SetMode(int)+0x18>

00005a58 <MX106::MX106(PinName, PinName, int)>:
    5a58:	b570      	push	{r4, r5, r6, lr}
    5a5a:	4604      	mov	r4, r0
    5a5c:	4605      	mov	r5, r0
    5a5e:	461e      	mov	r6, r3
    5a60:	4806      	ldr	r0, [pc, #24]	; (5a7c <MX106::MX106(PinName, PinName, int)+0x24>)
    5a62:	2300      	movs	r3, #0
    5a64:	f844 0b08 	str.w	r0, [r4], #8
    5a68:	4620      	mov	r0, r4
    5a6a:	f7ff fd61 	bl	5530 <mbed::SerialHalfDuplex::SerialHalfDuplex(PinName, PinName, char const*)>
    5a6e:	4620      	mov	r0, r4
    5a70:	4903      	ldr	r1, [pc, #12]	; (5a80 <MX106::MX106(PinName, PinName, int)+0x28>)
    5a72:	f001 fe4d 	bl	7710 <mbed::SerialBase::baud(int)>
    5a76:	606e      	str	r6, [r5, #4]
    5a78:	4628      	mov	r0, r5
    5a7a:	bd70      	pop	{r4, r5, r6, pc}
    5a7c:	0000b0fc 	.word	0x0000b0fc
    5a80:	000f4240 	.word	0x000f4240
    5a84:	00000000 	.word	0x00000000

00005a88 <MX28::SetCRSpeed(float)>:
    5a88:	b570      	push	{r4, r5, r6, lr}
    5a8a:	f021 4300 	bic.w	r3, r1, #2147483648	; 0x80000000
    5a8e:	b084      	sub	sp, #16
    5a90:	4604      	mov	r4, r0
    5a92:	4618      	mov	r0, r3
    5a94:	460e      	mov	r6, r1
    5a96:	f002 fa19 	bl	7ecc <__aeabi_f2d>
    5a9a:	a311      	add	r3, pc, #68	; (adr r3, 5ae0 <MX28::SetCRSpeed(float)+0x58>)
    5a9c:	e9d3 2300 	ldrd	r2, r3, [r3]
    5aa0:	f002 fa68 	bl	7f74 <__aeabi_dmul>
    5aa4:	f002 fc78 	bl	8398 <__aeabi_d2iz>
    5aa8:	2100      	movs	r1, #0
    5aaa:	4605      	mov	r5, r0
    5aac:	4630      	mov	r0, r6
    5aae:	f002 ff97 	bl	89e0 <__aeabi_fcmplt>
    5ab2:	b108      	cbz	r0, 5ab8 <MX28::SetCRSpeed(float)+0x30>
    5ab4:	f445 6580 	orr.w	r5, r5, #1024	; 0x400
    5ab8:	a803      	add	r0, sp, #12
    5aba:	2600      	movs	r6, #0
    5abc:	6823      	ldr	r3, [r4, #0]
    5abe:	6861      	ldr	r1, [r4, #4]
    5ac0:	e88d 0041 	stmia.w	sp, {r0, r6}
    5ac4:	122a      	asrs	r2, r5, #8
    5ac6:	f88d 500c 	strb.w	r5, [sp, #12]
    5aca:	f88d 200d 	strb.w	r2, [sp, #13]
    5ace:	6c1d      	ldr	r5, [r3, #64]	; 0x40
    5ad0:	4620      	mov	r0, r4
    5ad2:	2302      	movs	r3, #2
    5ad4:	2220      	movs	r2, #32
    5ad6:	47a8      	blx	r5
    5ad8:	b004      	add	sp, #16
    5ada:	bd70      	pop	{r4, r5, r6, pc}
    5adc:	f3af 8000 	nop.w
    5ae0:	00000000 	.word	0x00000000
    5ae4:	408ff800 	.word	0x408ff800

00005ae8 <MX28::SetCWLimit(int)>:
    5ae8:	b570      	push	{r4, r5, r6, lr}
    5aea:	4b0e      	ldr	r3, [pc, #56]	; (5b24 <MX28::SetCWLimit(int)+0x3c>)
    5aec:	ebc1 3101 	rsb	r1, r1, r1, lsl #12
    5af0:	fb83 3201 	smull	r3, r2, r3, r1
    5af4:	b084      	sub	sp, #16
    5af6:	17cb      	asrs	r3, r1, #31
    5af8:	2600      	movs	r6, #0
    5afa:	4411      	add	r1, r2
    5afc:	ad03      	add	r5, sp, #12
    5afe:	ebc3 2321 	rsb	r3, r3, r1, asr #8
    5b02:	6802      	ldr	r2, [r0, #0]
    5b04:	6841      	ldr	r1, [r0, #4]
    5b06:	e88d 0060 	stmia.w	sp, {r5, r6}
    5b0a:	f343 2407 	sbfx	r4, r3, #8, #8
    5b0e:	f88d 300c 	strb.w	r3, [sp, #12]
    5b12:	f88d 400d 	strb.w	r4, [sp, #13]
    5b16:	2302      	movs	r3, #2
    5b18:	6c14      	ldr	r4, [r2, #64]	; 0x40
    5b1a:	2206      	movs	r2, #6
    5b1c:	47a0      	blx	r4
    5b1e:	b004      	add	sp, #16
    5b20:	bd70      	pop	{r4, r5, r6, pc}
    5b22:	bf00      	nop
    5b24:	b60b60b7 	.word	0xb60b60b7

00005b28 <MX28::SetCCWLimit(int)>:
    5b28:	b570      	push	{r4, r5, r6, lr}
    5b2a:	4b0e      	ldr	r3, [pc, #56]	; (5b64 <MX28::SetCCWLimit(int)+0x3c>)
    5b2c:	ebc1 3101 	rsb	r1, r1, r1, lsl #12
    5b30:	fb83 3201 	smull	r3, r2, r3, r1
    5b34:	b084      	sub	sp, #16
    5b36:	17cb      	asrs	r3, r1, #31
    5b38:	2600      	movs	r6, #0
    5b3a:	4411      	add	r1, r2
    5b3c:	ad03      	add	r5, sp, #12
    5b3e:	ebc3 2321 	rsb	r3, r3, r1, asr #8
    5b42:	6802      	ldr	r2, [r0, #0]
    5b44:	6841      	ldr	r1, [r0, #4]
    5b46:	e88d 0060 	stmia.w	sp, {r5, r6}
    5b4a:	f343 2407 	sbfx	r4, r3, #8, #8
    5b4e:	f88d 300c 	strb.w	r3, [sp, #12]
    5b52:	f88d 400d 	strb.w	r4, [sp, #13]
    5b56:	2302      	movs	r3, #2
    5b58:	6c14      	ldr	r4, [r2, #64]	; 0x40
    5b5a:	2208      	movs	r2, #8
    5b5c:	47a0      	blx	r4
    5b5e:	b004      	add	sp, #16
    5b60:	bd70      	pop	{r4, r5, r6, pc}
    5b62:	bf00      	nop
    5b64:	b60b60b7 	.word	0xb60b60b7

00005b68 <MX28::SetID(int, int)>:
    5b68:	b510      	push	{r4, lr}
    5b6a:	b084      	sub	sp, #16
    5b6c:	ab04      	add	r3, sp, #16
    5b6e:	f803 2d04 	strb.w	r2, [r3, #-4]!
    5b72:	6804      	ldr	r4, [r0, #0]
    5b74:	2200      	movs	r2, #0
    5b76:	9300      	str	r3, [sp, #0]
    5b78:	9201      	str	r2, [sp, #4]
    5b7a:	6c24      	ldr	r4, [r4, #64]	; 0x40
    5b7c:	2301      	movs	r3, #1
    5b7e:	2203      	movs	r2, #3
    5b80:	47a0      	blx	r4
    5b82:	b004      	add	sp, #16
    5b84:	bd10      	pop	{r4, pc}
    5b86:	bf00      	nop

00005b88 <MX28::isMoving()>:
    5b88:	b510      	push	{r4, lr}
    5b8a:	b084      	sub	sp, #16
    5b8c:	6803      	ldr	r3, [r0, #0]
    5b8e:	aa03      	add	r2, sp, #12
    5b90:	6841      	ldr	r1, [r0, #4]
    5b92:	9200      	str	r2, [sp, #0]
    5b94:	6bdc      	ldr	r4, [r3, #60]	; 0x3c
    5b96:	222e      	movs	r2, #46	; 0x2e
    5b98:	2301      	movs	r3, #1
    5b9a:	47a0      	blx	r4
    5b9c:	f89d 000c 	ldrb.w	r0, [sp, #12]
    5ba0:	b004      	add	sp, #16
    5ba2:	bd10      	pop	{r4, pc}

00005ba4 <MX28::GetPosition()>:
    5ba4:	b510      	push	{r4, lr}
    5ba6:	b084      	sub	sp, #16
    5ba8:	6803      	ldr	r3, [r0, #0]
    5baa:	aa03      	add	r2, sp, #12
    5bac:	6841      	ldr	r1, [r0, #4]
    5bae:	9200      	str	r2, [sp, #0]
    5bb0:	6bdc      	ldr	r4, [r3, #60]	; 0x3c
    5bb2:	2224      	movs	r2, #36	; 0x24
    5bb4:	2302      	movs	r3, #2
    5bb6:	47a0      	blx	r4
    5bb8:	f89d 000d 	ldrb.w	r0, [sp, #13]
    5bbc:	f89d 300c 	ldrb.w	r3, [sp, #12]
    5bc0:	f44f 72b4 	mov.w	r2, #360	; 0x168
    5bc4:	eb03 2300 	add.w	r3, r3, r0, lsl #8
    5bc8:	b21b      	sxth	r3, r3
    5bca:	fb02 f303 	mul.w	r3, r2, r3
    5bce:	4a05      	ldr	r2, [pc, #20]	; (5be4 <MX28::GetPosition()+0x40>)
    5bd0:	17d8      	asrs	r0, r3, #31
    5bd2:	fb82 1203 	smull	r1, r2, r2, r3
    5bd6:	4413      	add	r3, r2
    5bd8:	ebc0 20e3 	rsb	r0, r0, r3, asr #11
    5bdc:	f002 fd0e 	bl	85fc <__aeabi_i2f>
    5be0:	b004      	add	sp, #16
    5be2:	bd10      	pop	{r4, pc}
    5be4:	80080081 	.word	0x80080081

00005be8 <MX28::GetTemp()>:
    5be8:	b510      	push	{r4, lr}
    5bea:	b084      	sub	sp, #16
    5bec:	6803      	ldr	r3, [r0, #0]
    5bee:	aa03      	add	r2, sp, #12
    5bf0:	6841      	ldr	r1, [r0, #4]
    5bf2:	9200      	str	r2, [sp, #0]
    5bf4:	6bdc      	ldr	r4, [r3, #60]	; 0x3c
    5bf6:	222b      	movs	r2, #43	; 0x2b
    5bf8:	2301      	movs	r3, #1
    5bfa:	47a0      	blx	r4
    5bfc:	f89d 000c 	ldrb.w	r0, [sp, #12]
    5c00:	f002 fcf8 	bl	85f4 <__aeabi_ui2f>
    5c04:	b004      	add	sp, #16
    5c06:	bd10      	pop	{r4, pc}

00005c08 <MX28::GetVolts()>:
    5c08:	b510      	push	{r4, lr}
    5c0a:	b084      	sub	sp, #16
    5c0c:	6803      	ldr	r3, [r0, #0]
    5c0e:	aa03      	add	r2, sp, #12
    5c10:	6841      	ldr	r1, [r0, #4]
    5c12:	9200      	str	r2, [sp, #0]
    5c14:	6bdc      	ldr	r4, [r3, #60]	; 0x3c
    5c16:	222a      	movs	r2, #42	; 0x2a
    5c18:	2301      	movs	r3, #1
    5c1a:	47a0      	blx	r4
    5c1c:	f89d 000c 	ldrb.w	r0, [sp, #12]
    5c20:	f002 f942 	bl	7ea8 <__aeabi_i2d>
    5c24:	2200      	movs	r2, #0
    5c26:	4b03      	ldr	r3, [pc, #12]	; (5c34 <MX28::GetVolts()+0x2c>)
    5c28:	f002 face 	bl	81c8 <__aeabi_ddiv>
    5c2c:	f002 fbdc 	bl	83e8 <__aeabi_d2f>
    5c30:	b004      	add	sp, #16
    5c32:	bd10      	pop	{r4, pc}
    5c34:	40240000 	.word	0x40240000

00005c38 <MX28::GetCurrent()>:
    5c38:	b510      	push	{r4, lr}
    5c3a:	b084      	sub	sp, #16
    5c3c:	6803      	ldr	r3, [r0, #0]
    5c3e:	aa03      	add	r2, sp, #12
    5c40:	6841      	ldr	r1, [r0, #4]
    5c42:	9200      	str	r2, [sp, #0]
    5c44:	6bdc      	ldr	r4, [r3, #60]	; 0x3c
    5c46:	2244      	movs	r2, #68	; 0x44
    5c48:	2302      	movs	r3, #2
    5c4a:	47a0      	blx	r4
    5c4c:	f89d 300c 	ldrb.w	r3, [sp, #12]
    5c50:	f89d 000d 	ldrb.w	r0, [sp, #13]
    5c54:	eb03 2000 	add.w	r0, r3, r0, lsl #8
    5c58:	f6a0 00ff 	subw	r0, r0, #2303	; 0x8ff
    5c5c:	f002 f924 	bl	7ea8 <__aeabi_i2d>
    5c60:	a305      	add	r3, pc, #20	; (adr r3, 5c78 <MX28::GetCurrent()+0x40>)
    5c62:	e9d3 2300 	ldrd	r2, r3, [r3]
    5c66:	f002 f985 	bl	7f74 <__aeabi_dmul>
    5c6a:	f002 fbbd 	bl	83e8 <__aeabi_d2f>
    5c6e:	b004      	add	sp, #16
    5c70:	bd10      	pop	{r4, pc}
    5c72:	bf00      	nop
    5c74:	f3af 8000 	nop.w
    5c78:	8d4fdf3b 	.word	0x8d4fdf3b
    5c7c:	3f726e97 	.word	0x3f726e97

00005c80 <MX28::TorqueEnable(int)>:
    5c80:	b510      	push	{r4, lr}
    5c82:	b084      	sub	sp, #16
    5c84:	ab04      	add	r3, sp, #16
    5c86:	f803 1d04 	strb.w	r1, [r3, #-4]!
    5c8a:	6804      	ldr	r4, [r0, #0]
    5c8c:	2200      	movs	r2, #0
    5c8e:	6841      	ldr	r1, [r0, #4]
    5c90:	9300      	str	r3, [sp, #0]
    5c92:	9201      	str	r2, [sp, #4]
    5c94:	6c24      	ldr	r4, [r4, #64]	; 0x40
    5c96:	2301      	movs	r3, #1
    5c98:	2218      	movs	r2, #24
    5c9a:	47a0      	blx	r4
    5c9c:	b004      	add	sp, #16
    5c9e:	bd10      	pop	{r4, pc}

00005ca0 <MX28::SetTorqueLimit(float)>:
    5ca0:	460b      	mov	r3, r1
    5ca2:	b570      	push	{r4, r5, r6, lr}
    5ca4:	490d      	ldr	r1, [pc, #52]	; (5cdc <MX28::SetTorqueLimit(float)+0x3c>)
    5ca6:	b084      	sub	sp, #16
    5ca8:	4604      	mov	r4, r0
    5caa:	4618      	mov	r0, r3
    5cac:	f002 fcfa 	bl	86a4 <__aeabi_fmul>
    5cb0:	f002 febe 	bl	8a30 <__aeabi_f2iz>
    5cb4:	2600      	movs	r6, #0
    5cb6:	ad03      	add	r5, sp, #12
    5cb8:	6861      	ldr	r1, [r4, #4]
    5cba:	6823      	ldr	r3, [r4, #0]
    5cbc:	e88d 0060 	stmia.w	sp, {r5, r6}
    5cc0:	b280      	uxth	r0, r0
    5cc2:	f340 2207 	sbfx	r2, r0, #8, #8
    5cc6:	f88d 000c 	strb.w	r0, [sp, #12]
    5cca:	f88d 200d 	strb.w	r2, [sp, #13]
    5cce:	4620      	mov	r0, r4
    5cd0:	2222      	movs	r2, #34	; 0x22
    5cd2:	6c1c      	ldr	r4, [r3, #64]	; 0x40
    5cd4:	2302      	movs	r3, #2
    5cd6:	47a0      	blx	r4
    5cd8:	b004      	add	sp, #16
    5cda:	bd70      	pop	{r4, r5, r6, pc}
    5cdc:	447fc000 	.word	0x447fc000

00005ce0 <MX28::SetDriveMode(int, int)>:
    5ce0:	2000      	movs	r0, #0
    5ce2:	4770      	bx	lr

00005ce4 <MX28::trigger()>:
    5ce4:	b5f0      	push	{r4, r5, r6, r7, lr}
    5ce6:	23ff      	movs	r3, #255	; 0xff
    5ce8:	b085      	sub	sp, #20
    5cea:	2502      	movs	r5, #2
    5cec:	2404      	movs	r4, #4
    5cee:	27fe      	movs	r7, #254	; 0xfe
    5cf0:	22fb      	movs	r2, #251	; 0xfb
    5cf2:	f88d 5003 	strb.w	r5, [sp, #3]
    5cf6:	f88d 4004 	strb.w	r4, [sp, #4]
    5cfa:	4619      	mov	r1, r3
    5cfc:	f100 0648 	add.w	r6, r0, #72	; 0x48
    5d00:	f88d 3000 	strb.w	r3, [sp]
    5d04:	f88d 3001 	strb.w	r3, [sp, #1]
    5d08:	f88d 7002 	strb.w	r7, [sp, #2]
    5d0c:	f88d 2005 	strb.w	r2, [sp, #5]
    5d10:	466c      	mov	r4, sp
    5d12:	f10d 0505 	add.w	r5, sp, #5
    5d16:	e001      	b.n	5d1c <MX28::trigger()+0x38>
    5d18:	f814 1f01 	ldrb.w	r1, [r4, #1]!
    5d1c:	4630      	mov	r0, r6
    5d1e:	f001 fd71 	bl	7804 <mbed::Stream::putc(int)>
    5d22:	42ac      	cmp	r4, r5
    5d24:	d1f8      	bne.n	5d18 <MX28::trigger()+0x34>
    5d26:	b005      	add	sp, #20
    5d28:	bdf0      	pop	{r4, r5, r6, r7, pc}
    5d2a:	bf00      	nop

00005d2c <MX28::read(int, int, int, char*)>:
    5d2c:	e92d 41f0 	stmdb	sp!, {r4, r5, r6, r7, r8, lr}
    5d30:	b2dc      	uxtb	r4, r3
    5d32:	b2d2      	uxtb	r2, r2
    5d34:	461f      	mov	r7, r3
    5d36:	1da3      	adds	r3, r4, #6
    5d38:	b2cd      	uxtb	r5, r1
    5d3a:	4413      	add	r3, r2
    5d3c:	442b      	add	r3, r5
    5d3e:	4680      	mov	r8, r0
    5d40:	43db      	mvns	r3, r3
    5d42:	b088      	sub	sp, #32
    5d44:	20ff      	movs	r0, #255	; 0xff
    5d46:	f88d 5002 	strb.w	r5, [sp, #2]
    5d4a:	f04f 0efe 	mov.w	lr, #254	; 0xfe
    5d4e:	2504      	movs	r5, #4
    5d50:	f88d 2005 	strb.w	r2, [sp, #5]
    5d54:	2202      	movs	r2, #2
    5d56:	f88d 4006 	strb.w	r4, [sp, #6]
    5d5a:	f88d 5003 	strb.w	r5, [sp, #3]
    5d5e:	4601      	mov	r1, r0
    5d60:	f88d 3007 	strb.w	r3, [sp, #7]
    5d64:	f108 0648 	add.w	r6, r8, #72	; 0x48
    5d68:	f88d 0000 	strb.w	r0, [sp]
    5d6c:	f88d 0001 	strb.w	r0, [sp, #1]
    5d70:	f88d e014 	strb.w	lr, [sp, #20]
    5d74:	f88d 2004 	strb.w	r2, [sp, #4]
    5d78:	466c      	mov	r4, sp
    5d7a:	f10d 0507 	add.w	r5, sp, #7
    5d7e:	e001      	b.n	5d84 <MX28::read(int, int, int, char*)+0x58>
    5d80:	f814 1f01 	ldrb.w	r1, [r4, #1]!
    5d84:	4630      	mov	r0, r6
    5d86:	f001 fd3d 	bl	7804 <mbed::Stream::putc(int)>
    5d8a:	42ac      	cmp	r4, r5
    5d8c:	d1f8      	bne.n	5d80 <MX28::read(int, int, int, char*)+0x54>
    5d8e:	4815      	ldr	r0, [pc, #84]	; (5de4 <MX28::read(int, int, int, char*)+0xb8>)
    5d90:	f000 fdf0 	bl	6974 <wait>
    5d94:	f8d8 0004 	ldr.w	r0, [r8, #4]
    5d98:	28fe      	cmp	r0, #254	; 0xfe
    5d9a:	d01e      	beq.n	5dda <MX28::read(int, int, int, char*)+0xae>
    5d9c:	3705      	adds	r7, #5
    5d9e:	d41f      	bmi.n	5de0 <MX28::read(int, int, int, char*)+0xb4>
    5da0:	f10d 050f 	add.w	r5, sp, #15
    5da4:	2400      	movs	r4, #0
    5da6:	4630      	mov	r0, r6
    5da8:	f001 fd38 	bl	781c <mbed::Stream::getc()>
    5dac:	3401      	adds	r4, #1
    5dae:	42bc      	cmp	r4, r7
    5db0:	f805 0f01 	strb.w	r0, [r5, #1]!
    5db4:	ddf7      	ble.n	5da6 <MX28::read(int, int, int, char*)+0x7a>
    5db6:	f89d 0014 	ldrb.w	r0, [sp, #20]
    5dba:	f89d 4013 	ldrb.w	r4, [sp, #19]
    5dbe:	2c02      	cmp	r4, #2
    5dc0:	dd0b      	ble.n	5dda <MX28::read(int, int, int, char*)+0xae>
    5dc2:	ab08      	add	r3, sp, #32
    5dc4:	9a0e      	ldr	r2, [sp, #56]	; 0x38
    5dc6:	441c      	add	r4, r3
    5dc8:	3c0e      	subs	r4, #14
    5dca:	ab05      	add	r3, sp, #20
    5dcc:	3a01      	subs	r2, #1
    5dce:	f813 1f01 	ldrb.w	r1, [r3, #1]!
    5dd2:	429c      	cmp	r4, r3
    5dd4:	f802 1f01 	strb.w	r1, [r2, #1]!
    5dd8:	d1f9      	bne.n	5dce <MX28::read(int, int, int, char*)+0xa2>
    5dda:	b008      	add	sp, #32
    5ddc:	e8bd 81f0 	ldmia.w	sp!, {r4, r5, r6, r7, r8, pc}
    5de0:	20fe      	movs	r0, #254	; 0xfe
    5de2:	e7ea      	b.n	5dba <MX28::read(int, int, int, char*)+0x8e>
    5de4:	37a7c5ac 	.word	0x37a7c5ac

00005de8 <MX28::write(int, int, int, char*, int)>:
    5de8:	e92d 41f0 	stmdb	sp!, {r4, r5, r6, r7, r8, lr}
    5dec:	1cde      	adds	r6, r3, #3
    5dee:	b086      	sub	sp, #24
    5df0:	b2c9      	uxtb	r1, r1
    5df2:	b2f6      	uxtb	r6, r6
    5df4:	9f0d      	ldr	r7, [sp, #52]	; 0x34
    5df6:	198c      	adds	r4, r1, r6
    5df8:	2f01      	cmp	r7, #1
    5dfa:	b2e4      	uxtb	r4, r4
    5dfc:	f88d 100a 	strb.w	r1, [sp, #10]
    5e00:	bf0c      	ite	eq
    5e02:	1d21      	addeq	r1, r4, #4
    5e04:	1ce1      	addne	r1, r4, #3
    5e06:	b2d2      	uxtb	r2, r2
    5e08:	b2c9      	uxtb	r1, r1
    5e0a:	f04f 0eff 	mov.w	lr, #255	; 0xff
    5e0e:	4605      	mov	r5, r0
    5e10:	4411      	add	r1, r2
    5e12:	bf0c      	ite	eq
    5e14:	2004      	moveq	r0, #4
    5e16:	2003      	movne	r0, #3
    5e18:	2b00      	cmp	r3, #0
    5e1a:	f88d 600b 	strb.w	r6, [sp, #11]
    5e1e:	f88d e008 	strb.w	lr, [sp, #8]
    5e22:	f88d e009 	strb.w	lr, [sp, #9]
    5e26:	9e0c      	ldr	r6, [sp, #48]	; 0x30
    5e28:	f88d 000c 	strb.w	r0, [sp, #12]
    5e2c:	b2c9      	uxtb	r1, r1
    5e2e:	f88d 200d 	strb.w	r2, [sp, #13]
    5e32:	dd0d      	ble.n	5e50 <MX28::write(int, int, int, char*, int)+0x68>
    5e34:	2000      	movs	r0, #0
    5e36:	4602      	mov	r2, r0
    5e38:	5cb4      	ldrb	r4, [r6, r2]
    5e3a:	3201      	adds	r2, #1
    5e3c:	b2d2      	uxtb	r2, r2
    5e3e:	af06      	add	r7, sp, #24
    5e40:	4438      	add	r0, r7
    5e42:	4421      	add	r1, r4
    5e44:	4293      	cmp	r3, r2
    5e46:	f800 4c0a 	strb.w	r4, [r0, #-10]
    5e4a:	b2c9      	uxtb	r1, r1
    5e4c:	4610      	mov	r0, r2
    5e4e:	dcf3      	bgt.n	5e38 <MX28::write(int, int, int, char*, int)+0x50>
    5e50:	43c9      	mvns	r1, r1
    5e52:	1d9e      	adds	r6, r3, #6
    5e54:	ab06      	add	r3, sp, #24
    5e56:	4433      	add	r3, r6
    5e58:	2e00      	cmp	r6, #0
    5e5a:	f803 1c10 	strb.w	r1, [r3, #-16]
    5e5e:	db0c      	blt.n	5e7a <MX28::write(int, int, int, char*, int)+0x92>
    5e60:	f105 0848 	add.w	r8, r5, #72	; 0x48
    5e64:	f10d 0707 	add.w	r7, sp, #7
    5e68:	2400      	movs	r4, #0
    5e6a:	3401      	adds	r4, #1
    5e6c:	f817 1f01 	ldrb.w	r1, [r7, #1]!
    5e70:	4640      	mov	r0, r8
    5e72:	f001 fcc7 	bl	7804 <mbed::Stream::putc(int)>
    5e76:	42a6      	cmp	r6, r4
    5e78:	daf7      	bge.n	5e6a <MX28::write(int, int, int, char*, int)+0x82>
    5e7a:	480c      	ldr	r0, [pc, #48]	; (5eac <MX28::write(int, int, int, char*, int)+0xc4>)
    5e7c:	f000 fd7a 	bl	6974 <wait>
    5e80:	686b      	ldr	r3, [r5, #4]
    5e82:	2000      	movs	r0, #0
    5e84:	2bfe      	cmp	r3, #254	; 0xfe
    5e86:	f88d 0004 	strb.w	r0, [sp, #4]
    5e8a:	d00c      	beq.n	5ea6 <MX28::write(int, int, int, char*, int)+0xbe>
    5e8c:	466c      	mov	r4, sp
    5e8e:	3548      	adds	r5, #72	; 0x48
    5e90:	f10d 0606 	add.w	r6, sp, #6
    5e94:	4628      	mov	r0, r5
    5e96:	f001 fcc1 	bl	781c <mbed::Stream::getc()>
    5e9a:	f804 0b01 	strb.w	r0, [r4], #1
    5e9e:	42a6      	cmp	r6, r4
    5ea0:	d1f8      	bne.n	5e94 <MX28::write(int, int, int, char*, int)+0xac>
    5ea2:	f89d 0004 	ldrb.w	r0, [sp, #4]
    5ea6:	b006      	add	sp, #24
    5ea8:	e8bd 81f0 	ldmia.w	sp!, {r4, r5, r6, r7, r8, pc}
    5eac:	37a7c5ac 	.word	0x37a7c5ac

00005eb0 <MX28::SetGoal(int, int)>:
    5eb0:	b5f0      	push	{r4, r5, r6, r7, lr}
    5eb2:	f1a2 0702 	sub.w	r7, r2, #2
    5eb6:	fab7 f787 	clz	r7, r7
    5eba:	4b17      	ldr	r3, [pc, #92]	; (5f18 <MX28::SetGoal(int, int)+0x68>)
    5ebc:	ebc1 3101 	rsb	r1, r1, r1, lsl #12
    5ec0:	4615      	mov	r5, r2
    5ec2:	fb83 3201 	smull	r3, r2, r3, r1
    5ec6:	b085      	sub	sp, #20
    5ec8:	17cb      	asrs	r3, r1, #31
    5eca:	ae03      	add	r6, sp, #12
    5ecc:	4411      	add	r1, r2
    5ece:	097f      	lsrs	r7, r7, #5
    5ed0:	ebc3 2321 	rsb	r3, r3, r1, asr #8
    5ed4:	6802      	ldr	r2, [r0, #0]
    5ed6:	6841      	ldr	r1, [r0, #4]
    5ed8:	e88d 00c0 	stmia.w	sp, {r6, r7}
    5edc:	f343 2607 	sbfx	r6, r3, #8, #8
    5ee0:	f88d 300c 	strb.w	r3, [sp, #12]
    5ee4:	f88d 600d 	strb.w	r6, [sp, #13]
    5ee8:	2302      	movs	r3, #2
    5eea:	6c16      	ldr	r6, [r2, #64]	; 0x40
    5eec:	221e      	movs	r2, #30
    5eee:	4604      	mov	r4, r0
    5ef0:	47b0      	blx	r6
    5ef2:	2d01      	cmp	r5, #1
    5ef4:	4606      	mov	r6, r0
    5ef6:	d002      	beq.n	5efe <MX28::SetGoal(int, int)+0x4e>
    5ef8:	4630      	mov	r0, r6
    5efa:	b005      	add	sp, #20
    5efc:	bdf0      	pop	{r4, r5, r6, r7, pc}
    5efe:	6823      	ldr	r3, [r4, #0]
    5f00:	4620      	mov	r0, r4
    5f02:	699b      	ldr	r3, [r3, #24]
    5f04:	4798      	blx	r3
    5f06:	2800      	cmp	r0, #0
    5f08:	d0f6      	beq.n	5ef8 <MX28::SetGoal(int, int)+0x48>
    5f0a:	6823      	ldr	r3, [r4, #0]
    5f0c:	4620      	mov	r0, r4
    5f0e:	699b      	ldr	r3, [r3, #24]
    5f10:	4798      	blx	r3
    5f12:	2800      	cmp	r0, #0
    5f14:	d1f3      	bne.n	5efe <MX28::SetGoal(int, int)+0x4e>
    5f16:	e7ef      	b.n	5ef8 <MX28::SetGoal(int, int)+0x48>
    5f18:	b60b60b7 	.word	0xb60b60b7

00005f1c <MX28::SetMode(int)>:
    5f1c:	6803      	ldr	r3, [r0, #0]
    5f1e:	2901      	cmp	r1, #1
    5f20:	b510      	push	{r4, lr}
    5f22:	f04f 0100 	mov.w	r1, #0
    5f26:	4604      	mov	r4, r0
    5f28:	68db      	ldr	r3, [r3, #12]
    5f2a:	d00d      	beq.n	5f48 <MX28::SetMode(int)+0x2c>
    5f2c:	4798      	blx	r3
    5f2e:	6823      	ldr	r3, [r4, #0]
    5f30:	f44f 71b4 	mov.w	r1, #360	; 0x168
    5f34:	691b      	ldr	r3, [r3, #16]
    5f36:	4620      	mov	r0, r4
    5f38:	4798      	blx	r3
    5f3a:	6823      	ldr	r3, [r4, #0]
    5f3c:	4620      	mov	r0, r4
    5f3e:	689b      	ldr	r3, [r3, #8]
    5f40:	2100      	movs	r1, #0
    5f42:	4798      	blx	r3
    5f44:	2000      	movs	r0, #0
    5f46:	bd10      	pop	{r4, pc}
    5f48:	4798      	blx	r3
    5f4a:	6823      	ldr	r3, [r4, #0]
    5f4c:	2100      	movs	r1, #0
    5f4e:	e7f1      	b.n	5f34 <MX28::SetMode(int)+0x18>

00005f50 <MX28::MX28(PinName, PinName, int)>:
    5f50:	b570      	push	{r4, r5, r6, lr}
    5f52:	4604      	mov	r4, r0
    5f54:	4605      	mov	r5, r0
    5f56:	461e      	mov	r6, r3
    5f58:	4806      	ldr	r0, [pc, #24]	; (5f74 <MX28::MX28(PinName, PinName, int)+0x24>)
    5f5a:	2300      	movs	r3, #0
    5f5c:	f844 0b08 	str.w	r0, [r4], #8
    5f60:	4620      	mov	r0, r4
    5f62:	f7ff fae5 	bl	5530 <mbed::SerialHalfDuplex::SerialHalfDuplex(PinName, PinName, char const*)>
    5f66:	4620      	mov	r0, r4
    5f68:	4903      	ldr	r1, [pc, #12]	; (5f78 <MX28::MX28(PinName, PinName, int)+0x28>)
    5f6a:	f001 fbd1 	bl	7710 <mbed::SerialBase::baud(int)>
    5f6e:	606e      	str	r6, [r5, #4]
    5f70:	4628      	mov	r0, r5
    5f72:	bd70      	pop	{r4, r5, r6, pc}
    5f74:	0000b148 	.word	0x0000b148
    5f78:	000f4240 	.word	0x000f4240

00005f7c <_start>:
    5f7c:	4a07      	ldr	r2, [pc, #28]	; (5f9c <_start+0x20>)
    5f7e:	4808      	ldr	r0, [pc, #32]	; (5fa0 <_start+0x24>)
    5f80:	b508      	push	{r3, lr}
    5f82:	2100      	movs	r1, #0
    5f84:	1a12      	subs	r2, r2, r0
    5f86:	f003 f991 	bl	92ac <memset>
    5f8a:	f3af 8000 	nop.w
    5f8e:	f003 f8d7 	bl	9140 <__libc_init_array>
    5f92:	f001 fdb7 	bl	7b04 <__wrap_main>
    5f96:	f002 fd85 	bl	8aa4 <exit>
    5f9a:	bf00      	nop
    5f9c:	10000bb0 	.word	0x10000bb0
    5fa0:	100001ac 	.word	0x100001ac

00005fa4 <__wrap__isatty>:
    5fa4:	2802      	cmp	r0, #2
    5fa6:	dc01      	bgt.n	5fac <__wrap__isatty+0x8>
    5fa8:	2001      	movs	r0, #1
    5faa:	4770      	bx	lr
    5fac:	f001 bd72 	b.w	7a94 <_isatty>

00005fb0 <__wrap_malloc>:
    5fb0:	f3ef 8305 	mrs	r3, IPSR
    5fb4:	b103      	cbz	r3, 5fb8 <__wrap_malloc+0x8>
    5fb6:	be00      	bkpt	0x0000
    5fb8:	f003 b934 	b.w	9224 <malloc>

00005fbc <__wrap_realloc>:
    5fbc:	f3ef 8305 	mrs	r3, IPSR
    5fc0:	b103      	cbz	r3, 5fc4 <__wrap_realloc+0x8>
    5fc2:	be00      	bkpt	0x0000
    5fc4:	f003 bea2 	b.w	9d0c <realloc>

00005fc8 <__wrap_free>:
    5fc8:	f3ef 8305 	mrs	r3, IPSR
    5fcc:	b103      	cbz	r3, 5fd0 <__wrap_free+0x8>
    5fce:	be00      	bkpt	0x0000
    5fd0:	f003 b930 	b.w	9234 <free>

00005fd4 <abort>:
    5fd4:	b508      	push	{r3, lr}
    5fd6:	2001      	movs	r0, #1
    5fd8:	f002 fd64 	bl	8aa4 <exit>

00005fdc <__cxa_pure_virtual>:
    5fdc:	b508      	push	{r3, lr}
    5fde:	f7ff fff9 	bl	5fd4 <abort>
    5fe2:	bf00      	nop

00005fe4 <AjK::MODSERIAL::__getc(bool)>:
    5fe4:	6fc3      	ldr	r3, [r0, #124]	; 0x7c
    5fe6:	b570      	push	{r4, r5, r6, lr}
    5fe8:	2b00      	cmp	r3, #0
    5fea:	d02d      	beq.n	6048 <AjK::MODSERIAL::__getc(bool)+0x64>
    5fec:	6e42      	ldr	r2, [r0, #100]	; 0x64
    5fee:	2a00      	cmp	r2, #0
    5ff0:	d02a      	beq.n	6048 <AjK::MODSERIAL::__getc(bool)+0x64>
    5ff2:	2900      	cmp	r1, #0
    5ff4:	d02f      	beq.n	6056 <AjK::MODSERIAL::__getc(bool)+0x72>
    5ff6:	f8d0 3084 	ldr.w	r3, [r0, #132]	; 0x84
    5ffa:	2b00      	cmp	r3, #0
    5ffc:	d0fb      	beq.n	5ff6 <AjK::MODSERIAL::__getc(bool)+0x12>
    5ffe:	6f43      	ldr	r3, [r0, #116]	; 0x74
    6000:	4604      	mov	r4, r0
    6002:	5cd5      	ldrb	r5, [r2, r3]
    6004:	6f43      	ldr	r3, [r0, #116]	; 0x74
    6006:	b2ed      	uxtb	r5, r5
    6008:	3301      	adds	r3, #1
    600a:	6743      	str	r3, [r0, #116]	; 0x74
    600c:	6f42      	ldr	r2, [r0, #116]	; 0x74
    600e:	6fc3      	ldr	r3, [r0, #124]	; 0x7c
    6010:	429a      	cmp	r2, r3
    6012:	bfa4      	itt	ge
    6014:	2300      	movge	r3, #0
    6016:	6743      	strge	r3, [r0, #116]	; 0x74
    6018:	f8d0 2084 	ldr.w	r2, [r0, #132]	; 0x84
    601c:	6fc3      	ldr	r3, [r0, #124]	; 0x7c
    601e:	429a      	cmp	r2, r3
    6020:	d009      	beq.n	6036 <AjK::MODSERIAL::__getc(bool)+0x52>
    6022:	6dc3      	ldr	r3, [r0, #92]	; 0x5c
    6024:	685e      	ldr	r6, [r3, #4]
    6026:	685a      	ldr	r2, [r3, #4]
    6028:	f022 0201 	bic.w	r2, r2, #1
    602c:	605a      	str	r2, [r3, #4]
    602e:	f000 f819 	bl	6064 <AjK::MODSERIAL::isr_rx()>
    6032:	6de3      	ldr	r3, [r4, #92]	; 0x5c
    6034:	605e      	str	r6, [r3, #4]
    6036:	b672      	cpsid	i
    6038:	f8d4 3084 	ldr.w	r3, [r4, #132]	; 0x84
    603c:	3b01      	subs	r3, #1
    603e:	f8c4 3084 	str.w	r3, [r4, #132]	; 0x84
    6042:	b662      	cpsie	i
    6044:	4628      	mov	r0, r5
    6046:	bd70      	pop	{r4, r5, r6, pc}
    6048:	6dc2      	ldr	r2, [r0, #92]	; 0x5c
    604a:	7d13      	ldrb	r3, [r2, #20]
    604c:	07db      	lsls	r3, r3, #31
    604e:	d5fc      	bpl.n	604a <AjK::MODSERIAL::__getc(bool)+0x66>
    6050:	7810      	ldrb	r0, [r2, #0]
    6052:	b2c0      	uxtb	r0, r0
    6054:	bd70      	pop	{r4, r5, r6, pc}
    6056:	f8d0 3084 	ldr.w	r3, [r0, #132]	; 0x84
    605a:	2b00      	cmp	r3, #0
    605c:	d1cf      	bne.n	5ffe <AjK::MODSERIAL::__getc(bool)+0x1a>
    605e:	f04f 30ff 	mov.w	r0, #4294967295
    6062:	bd70      	pop	{r4, r5, r6, pc}

00006064 <AjK::MODSERIAL::isr_rx()>:
    6064:	6dc3      	ldr	r3, [r0, #92]	; 0x5c
    6066:	b570      	push	{r4, r5, r6, lr}
    6068:	2b00      	cmp	r3, #0
    606a:	d04e      	beq.n	610a <AjK::MODSERIAL::isr_rx()+0xa6>
    606c:	6fc2      	ldr	r2, [r0, #124]	; 0x7c
    606e:	2a00      	cmp	r2, #0
    6070:	d04b      	beq.n	610a <AjK::MODSERIAL::isr_rx()+0xa6>
    6072:	6e42      	ldr	r2, [r0, #100]	; 0x64
    6074:	2a00      	cmp	r2, #0
    6076:	d048      	beq.n	610a <AjK::MODSERIAL::isr_rx()+0xa6>
    6078:	4604      	mov	r4, r0
    607a:	f100 0558 	add.w	r5, r0, #88	; 0x58
    607e:	2600      	movs	r6, #0
    6080:	e020      	b.n	60c4 <AjK::MODSERIAL::isr_rx()+0x60>
    6082:	6e62      	ldr	r2, [r4, #100]	; 0x64
    6084:	b18a      	cbz	r2, 60aa <AjK::MODSERIAL::isr_rx()+0x46>
    6086:	6ee1      	ldr	r1, [r4, #108]	; 0x6c
    6088:	f894 3061 	ldrb.w	r3, [r4, #97]	; 0x61
    608c:	b2db      	uxtb	r3, r3
    608e:	5453      	strb	r3, [r2, r1]
    6090:	f8d4 3084 	ldr.w	r3, [r4, #132]	; 0x84
    6094:	3301      	adds	r3, #1
    6096:	f8c4 3084 	str.w	r3, [r4, #132]	; 0x84
    609a:	6ee3      	ldr	r3, [r4, #108]	; 0x6c
    609c:	3301      	adds	r3, #1
    609e:	66e3      	str	r3, [r4, #108]	; 0x6c
    60a0:	6ee2      	ldr	r2, [r4, #108]	; 0x6c
    60a2:	6fe3      	ldr	r3, [r4, #124]	; 0x7c
    60a4:	429a      	cmp	r2, r3
    60a6:	bfa8      	it	ge
    60a8:	66e6      	strge	r6, [r4, #108]	; 0x6c
    60aa:	f8d4 3098 	ldr.w	r3, [r4, #152]	; 0x98
    60ae:	2b00      	cmp	r3, #0
    60b0:	d034      	beq.n	611c <AjK::MODSERIAL::isr_rx()+0xb8>
    60b2:	4628      	mov	r0, r5
    60b4:	4798      	blx	r3
    60b6:	f894 2094 	ldrb.w	r2, [r4, #148]	; 0x94
    60ba:	f894 3061 	ldrb.w	r3, [r4, #97]	; 0x61
    60be:	429a      	cmp	r2, r3
    60c0:	d01c      	beq.n	60fc <AjK::MODSERIAL::isr_rx()+0x98>
    60c2:	6de3      	ldr	r3, [r4, #92]	; 0x5c
    60c4:	7d1a      	ldrb	r2, [r3, #20]
    60c6:	07d0      	lsls	r0, r2, #31
    60c8:	d538      	bpl.n	613c <AjK::MODSERIAL::isr_rx()+0xd8>
    60ca:	781b      	ldrb	r3, [r3, #0]
    60cc:	b2db      	uxtb	r3, r3
    60ce:	f884 3061 	strb.w	r3, [r4, #97]	; 0x61
    60d2:	f8d4 2084 	ldr.w	r2, [r4, #132]	; 0x84
    60d6:	6fe3      	ldr	r3, [r4, #124]	; 0x7c
    60d8:	429a      	cmp	r2, r3
    60da:	d1d2      	bne.n	6082 <AjK::MODSERIAL::isr_rx()+0x1e>
    60dc:	f894 3061 	ldrb.w	r3, [r4, #97]	; 0x61
    60e0:	f8d4 20b8 	ldr.w	r2, [r4, #184]	; 0xb8
    60e4:	b2db      	uxtb	r3, r3
    60e6:	f8c4 308c 	str.w	r3, [r4, #140]	; 0x8c
    60ea:	b37a      	cbz	r2, 614c <AjK::MODSERIAL::isr_rx()+0xe8>
    60ec:	4628      	mov	r0, r5
    60ee:	4790      	blx	r2
    60f0:	f894 2094 	ldrb.w	r2, [r4, #148]	; 0x94
    60f4:	f894 3061 	ldrb.w	r3, [r4, #97]	; 0x61
    60f8:	429a      	cmp	r2, r3
    60fa:	d1e2      	bne.n	60c2 <AjK::MODSERIAL::isr_rx()+0x5e>
    60fc:	f8d4 30e8 	ldr.w	r3, [r4, #232]	; 0xe8
    6100:	2b00      	cmp	r3, #0
    6102:	d048      	beq.n	6196 <AjK::MODSERIAL::isr_rx()+0x132>
    6104:	4628      	mov	r0, r5
    6106:	4798      	blx	r3
    6108:	e7db      	b.n	60c2 <AjK::MODSERIAL::isr_rx()+0x5e>
    610a:	f8d0 3098 	ldr.w	r3, [r0, #152]	; 0x98
    610e:	f100 0158 	add.w	r1, r0, #88	; 0x58
    6112:	b383      	cbz	r3, 6176 <AjK::MODSERIAL::isr_rx()+0x112>
    6114:	e8bd 4070 	ldmia.w	sp!, {r4, r5, r6, lr}
    6118:	4608      	mov	r0, r1
    611a:	4718      	bx	r3
    611c:	f8d4 009c 	ldr.w	r0, [r4, #156]	; 0x9c
    6120:	2800      	cmp	r0, #0
    6122:	d0c8      	beq.n	60b6 <AjK::MODSERIAL::isr_rx()+0x52>
    6124:	f8d4 20a0 	ldr.w	r2, [r4, #160]	; 0xa0
    6128:	f8d4 30a4 	ldr.w	r3, [r4, #164]	; 0xa4
    612c:	b13a      	cbz	r2, 613e <AjK::MODSERIAL::isr_rx()+0xda>
    612e:	07d9      	lsls	r1, r3, #31
    6130:	d407      	bmi.n	6142 <AjK::MODSERIAL::isr_rx()+0xde>
    6132:	eb00 0063 	add.w	r0, r0, r3, asr #1
    6136:	4629      	mov	r1, r5
    6138:	4790      	blx	r2
    613a:	e7bc      	b.n	60b6 <AjK::MODSERIAL::isr_rx()+0x52>
    613c:	bd70      	pop	{r4, r5, r6, pc}
    613e:	07d9      	lsls	r1, r3, #31
    6140:	d5b9      	bpl.n	60b6 <AjK::MODSERIAL::isr_rx()+0x52>
    6142:	105b      	asrs	r3, r3, #1
    6144:	58c1      	ldr	r1, [r0, r3]
    6146:	4418      	add	r0, r3
    6148:	588a      	ldr	r2, [r1, r2]
    614a:	e7f4      	b.n	6136 <AjK::MODSERIAL::isr_rx()+0xd2>
    614c:	f8d4 30bc 	ldr.w	r3, [r4, #188]	; 0xbc
    6150:	2b00      	cmp	r3, #0
    6152:	d0b0      	beq.n	60b6 <AjK::MODSERIAL::isr_rx()+0x52>
    6154:	f8d4 20c0 	ldr.w	r2, [r4, #192]	; 0xc0
    6158:	f8d4 00c4 	ldr.w	r0, [r4, #196]	; 0xc4
    615c:	b122      	cbz	r2, 6168 <AjK::MODSERIAL::isr_rx()+0x104>
    615e:	07c1      	lsls	r1, r0, #31
    6160:	d404      	bmi.n	616c <AjK::MODSERIAL::isr_rx()+0x108>
    6162:	eb03 0060 	add.w	r0, r3, r0, asr #1
    6166:	e7e6      	b.n	6136 <AjK::MODSERIAL::isr_rx()+0xd2>
    6168:	07c1      	lsls	r1, r0, #31
    616a:	d5a4      	bpl.n	60b6 <AjK::MODSERIAL::isr_rx()+0x52>
    616c:	1040      	asrs	r0, r0, #1
    616e:	5819      	ldr	r1, [r3, r0]
    6170:	4418      	add	r0, r3
    6172:	588a      	ldr	r2, [r1, r2]
    6174:	e7df      	b.n	6136 <AjK::MODSERIAL::isr_rx()+0xd2>
    6176:	f8d0 309c 	ldr.w	r3, [r0, #156]	; 0x9c
    617a:	2b00      	cmp	r3, #0
    617c:	d0de      	beq.n	613c <AjK::MODSERIAL::isr_rx()+0xd8>
    617e:	f8d0 20a0 	ldr.w	r2, [r0, #160]	; 0xa0
    6182:	f8d0 00a4 	ldr.w	r0, [r0, #164]	; 0xa4
    6186:	b31a      	cbz	r2, 61d0 <AjK::MODSERIAL::isr_rx()+0x16c>
    6188:	07c4      	lsls	r4, r0, #31
    618a:	d414      	bmi.n	61b6 <AjK::MODSERIAL::isr_rx()+0x152>
    618c:	eb03 0060 	add.w	r0, r3, r0, asr #1
    6190:	e8bd 4070 	ldmia.w	sp!, {r4, r5, r6, lr}
    6194:	4710      	bx	r2
    6196:	f8d4 00ec 	ldr.w	r0, [r4, #236]	; 0xec
    619a:	2800      	cmp	r0, #0
    619c:	d091      	beq.n	60c2 <AjK::MODSERIAL::isr_rx()+0x5e>
    619e:	f8d4 20f0 	ldr.w	r2, [r4, #240]	; 0xf0
    61a2:	f8d4 30f4 	ldr.w	r3, [r4, #244]	; 0xf4
    61a6:	b15a      	cbz	r2, 61c0 <AjK::MODSERIAL::isr_rx()+0x15c>
    61a8:	07d9      	lsls	r1, r3, #31
    61aa:	d40c      	bmi.n	61c6 <AjK::MODSERIAL::isr_rx()+0x162>
    61ac:	eb00 0063 	add.w	r0, r0, r3, asr #1
    61b0:	4629      	mov	r1, r5
    61b2:	4790      	blx	r2
    61b4:	e785      	b.n	60c2 <AjK::MODSERIAL::isr_rx()+0x5e>
    61b6:	1040      	asrs	r0, r0, #1
    61b8:	581c      	ldr	r4, [r3, r0]
    61ba:	4418      	add	r0, r3
    61bc:	58a2      	ldr	r2, [r4, r2]
    61be:	e7e7      	b.n	6190 <AjK::MODSERIAL::isr_rx()+0x12c>
    61c0:	07d9      	lsls	r1, r3, #31
    61c2:	f57f af7e 	bpl.w	60c2 <AjK::MODSERIAL::isr_rx()+0x5e>
    61c6:	105b      	asrs	r3, r3, #1
    61c8:	58c1      	ldr	r1, [r0, r3]
    61ca:	4418      	add	r0, r3
    61cc:	588a      	ldr	r2, [r1, r2]
    61ce:	e7ef      	b.n	61b0 <AjK::MODSERIAL::isr_rx()+0x14c>
    61d0:	07c5      	lsls	r5, r0, #31
    61d2:	d4f0      	bmi.n	61b6 <AjK::MODSERIAL::isr_rx()+0x152>
    61d4:	bd70      	pop	{r4, r5, r6, pc}
    61d6:	bf00      	nop

000061d8 <AjK::MODSERIAL::~MODSERIAL()>:
    61d8:	b5f8      	push	{r3, r4, r5, r6, r7, lr}
    61da:	4604      	mov	r4, r0
    61dc:	f890 20f8 	ldrb.w	r2, [r0, #248]	; 0xf8
    61e0:	4d14      	ldr	r5, [pc, #80]	; (6234 <AjK::MODSERIAL::~MODSERIAL()+0x5c>)
    61e2:	b253      	sxtb	r3, r2
    61e4:	6e40      	ldr	r0, [r0, #100]	; 0x64
    61e6:	2101      	movs	r1, #1
    61e8:	095b      	lsrs	r3, r3, #5
    61ea:	f002 021f 	and.w	r2, r2, #31
    61ee:	4e12      	ldr	r6, [pc, #72]	; (6238 <AjK::MODSERIAL::~MODSERIAL()+0x60>)
    61f0:	fa01 f202 	lsl.w	r2, r1, r2
    61f4:	f105 0718 	add.w	r7, r5, #24
    61f8:	3320      	adds	r3, #32
    61fa:	f105 014c 	add.w	r1, r5, #76	; 0x4c
    61fe:	6025      	str	r5, [r4, #0]
    6200:	6427      	str	r7, [r4, #64]	; 0x40
    6202:	6461      	str	r1, [r4, #68]	; 0x44
    6204:	f846 2023 	str.w	r2, [r6, r3, lsl #2]
    6208:	b108      	cbz	r0, 620e <AjK::MODSERIAL::~MODSERIAL()+0x36>
    620a:	f7ff fedd 	bl	5fc8 <__wrap_free>
    620e:	6ea0      	ldr	r0, [r4, #104]	; 0x68
    6210:	b108      	cbz	r0, 6216 <AjK::MODSERIAL::~MODSERIAL()+0x3e>
    6212:	f7ff fed9 	bl	5fc8 <__wrap_free>
    6216:	4b09      	ldr	r3, [pc, #36]	; (623c <AjK::MODSERIAL::~MODSERIAL()+0x64>)
    6218:	f104 0040 	add.w	r0, r4, #64	; 0x40
    621c:	f103 0118 	add.w	r1, r3, #24
    6220:	f103 024c 	add.w	r2, r3, #76	; 0x4c
    6224:	6023      	str	r3, [r4, #0]
    6226:	6421      	str	r1, [r4, #64]	; 0x40
    6228:	6462      	str	r2, [r4, #68]	; 0x44
    622a:	f001 fad9 	bl	77e0 <mbed::Stream::~Stream()>
    622e:	4620      	mov	r0, r4
    6230:	bdf8      	pop	{r3, r4, r5, r6, r7, pc}
    6232:	bf00      	nop
    6234:	0000b194 	.word	0x0000b194
    6238:	e000e100 	.word	0xe000e100
    623c:	0000b410 	.word	0x0000b410

00006240 <non-virtual thunk to AjK::MODSERIAL::~MODSERIAL()>:
    6240:	f1a0 0040 	sub.w	r0, r0, #64	; 0x40
    6244:	f7ff bfc8 	b.w	61d8 <AjK::MODSERIAL::~MODSERIAL()>

00006248 <non-virtual thunk to AjK::MODSERIAL::~MODSERIAL()>:
    6248:	f1a0 0044 	sub.w	r0, r0, #68	; 0x44
    624c:	f7ff bfc4 	b.w	61d8 <AjK::MODSERIAL::~MODSERIAL()>

00006250 <AjK::MODSERIAL::~MODSERIAL()>:
    6250:	b510      	push	{r4, lr}
    6252:	4604      	mov	r4, r0
    6254:	f7ff ffc0 	bl	61d8 <AjK::MODSERIAL::~MODSERIAL()>
    6258:	4620      	mov	r0, r4
    625a:	f001 fcb8 	bl	7bce <operator delete(void*)>
    625e:	4620      	mov	r0, r4
    6260:	bd10      	pop	{r4, pc}
    6262:	bf00      	nop

00006264 <non-virtual thunk to AjK::MODSERIAL::~MODSERIAL()>:
    6264:	f1a0 0044 	sub.w	r0, r0, #68	; 0x44
    6268:	f7ff bff2 	b.w	6250 <AjK::MODSERIAL::~MODSERIAL()>

0000626c <non-virtual thunk to AjK::MODSERIAL::~MODSERIAL()>:
    626c:	f1a0 0040 	sub.w	r0, r0, #64	; 0x40
    6270:	f7ff bfee 	b.w	6250 <AjK::MODSERIAL::~MODSERIAL()>

00006274 <AjK::MODSERIAL::_getc()>:
    6274:	2101      	movs	r1, #1
    6276:	f7ff beb5 	b.w	5fe4 <AjK::MODSERIAL::__getc(bool)>
    627a:	bf00      	nop

0000627c <non-virtual thunk to AjK::MODSERIAL::_getc()>:
    627c:	f1a0 0040 	sub.w	r0, r0, #64	; 0x40
    6280:	e7f8      	b.n	6274 <AjK::MODSERIAL::_getc()>
    6282:	bf00      	nop

00006284 <AjK::MODSERIAL::_putc(int)>:
    6284:	2201      	movs	r2, #1
    6286:	f000 b835 	b.w	62f4 <AjK::MODSERIAL::__putc(int, bool)>
    628a:	bf00      	nop

0000628c <non-virtual thunk to AjK::MODSERIAL::_putc(int)>:
    628c:	f1a0 0040 	sub.w	r0, r0, #64	; 0x40
    6290:	e7f8      	b.n	6284 <AjK::MODSERIAL::_putc(int)>
    6292:	bf00      	nop

00006294 <AjK::MODSERIAL::MODSERIAL(PinName, PinName, char const*)>:
    6294:	b538      	push	{r3, r4, r5, lr}
    6296:	4604      	mov	r4, r0
    6298:	4615      	mov	r5, r2
    629a:	f001 f9e9 	bl	7670 <mbed::Serial::Serial(PinName, PinName, char const*)>
    629e:	4b11      	ldr	r3, [pc, #68]	; (62e4 <AjK::MODSERIAL::MODSERIAL(PinName, PinName, char const*)+0x50>)
    62a0:	2100      	movs	r1, #0
    62a2:	f103 0018 	add.w	r0, r3, #24
    62a6:	460a      	mov	r2, r1
    62a8:	65a1      	str	r1, [r4, #88]	; 0x58
    62aa:	f103 014c 	add.w	r1, r3, #76	; 0x4c
    62ae:	6023      	str	r3, [r4, #0]
    62b0:	6461      	str	r1, [r4, #68]	; 0x44
    62b2:	6420      	str	r0, [r4, #64]	; 0x40
    62b4:	f104 03a8 	add.w	r3, r4, #168	; 0xa8
    62b8:	f504 7184 	add.w	r1, r4, #264	; 0x108
    62bc:	f843 2c10 	str.w	r2, [r3, #-16]
    62c0:	f843 2c0c 	str.w	r2, [r3, #-12]
    62c4:	f843 2c08 	str.w	r2, [r3, #-8]
    62c8:	f843 2c04 	str.w	r2, [r3, #-4]
    62cc:	3310      	adds	r3, #16
    62ce:	428b      	cmp	r3, r1
    62d0:	d1f4      	bne.n	62bc <AjK::MODSERIAL::MODSERIAL(PinName, PinName, char const*)+0x28>
    62d2:	f44f 7280 	mov.w	r2, #256	; 0x100
    62d6:	4620      	mov	r0, r4
    62d8:	462b      	mov	r3, r5
    62da:	4611      	mov	r1, r2
    62dc:	f000 f8b2 	bl	6444 <AjK::MODSERIAL::init(int, int, PinName)>
    62e0:	4620      	mov	r0, r4
    62e2:	bd38      	pop	{r3, r4, r5, pc}
    62e4:	0000b194 	.word	0x0000b194

000062e8 <AjK::MODSERIAL::rxBufferEmpty()>:
    62e8:	f8d0 0084 	ldr.w	r0, [r0, #132]	; 0x84
    62ec:	fab0 f080 	clz	r0, r0
    62f0:	0940      	lsrs	r0, r0, #5
    62f2:	4770      	bx	lr

000062f4 <AjK::MODSERIAL::__putc(int, bool)>:
    62f4:	6e83      	ldr	r3, [r0, #104]	; 0x68
    62f6:	b570      	push	{r4, r5, r6, lr}
    62f8:	4604      	mov	r4, r0
    62fa:	b113      	cbz	r3, 6302 <AjK::MODSERIAL::__putc(int, bool)+0xe>
    62fc:	f8d0 3080 	ldr.w	r3, [r0, #128]	; 0x80
    6300:	b93b      	cbnz	r3, 6312 <AjK::MODSERIAL::__putc(int, bool)+0x1e>
    6302:	6de2      	ldr	r2, [r4, #92]	; 0x5c
    6304:	7d13      	ldrb	r3, [r2, #20]
    6306:	069e      	lsls	r6, r3, #26
    6308:	d5fc      	bpl.n	6304 <AjK::MODSERIAL::__putc(int, bool)+0x10>
    630a:	b2c9      	uxtb	r1, r1
    630c:	7011      	strb	r1, [r2, #0]
    630e:	2000      	movs	r0, #0
    6310:	bd70      	pop	{r4, r5, r6, pc}
    6312:	6dc3      	ldr	r3, [r0, #92]	; 0x5c
    6314:	7d18      	ldrb	r0, [r3, #20]
    6316:	0685      	lsls	r5, r0, #26
    6318:	d505      	bpl.n	6326 <AjK::MODSERIAL::__putc(int, bool)+0x32>
    631a:	f8d4 0088 	ldr.w	r0, [r4, #136]	; 0x88
    631e:	b910      	cbnz	r0, 6326 <AjK::MODSERIAL::__putc(int, bool)+0x32>
    6320:	b2c9      	uxtb	r1, r1
    6322:	7019      	strb	r1, [r3, #0]
    6324:	bd70      	pop	{r4, r5, r6, pc}
    6326:	460d      	mov	r5, r1
    6328:	b1c2      	cbz	r2, 635c <AjK::MODSERIAL::__putc(int, bool)+0x68>
    632a:	685e      	ldr	r6, [r3, #4]
    632c:	685a      	ldr	r2, [r3, #4]
    632e:	f022 0202 	bic.w	r2, r2, #2
    6332:	605a      	str	r2, [r3, #4]
    6334:	f8d4 2088 	ldr.w	r2, [r4, #136]	; 0x88
    6338:	f8d4 3080 	ldr.w	r3, [r4, #128]	; 0x80
    633c:	429a      	cmp	r2, r3
    633e:	d109      	bne.n	6354 <AjK::MODSERIAL::__putc(int, bool)+0x60>
    6340:	2100      	movs	r1, #0
    6342:	4620      	mov	r0, r4
    6344:	f000 f902 	bl	654c <AjK::MODSERIAL::isr_tx(bool)>
    6348:	f8d4 2088 	ldr.w	r2, [r4, #136]	; 0x88
    634c:	f8d4 3080 	ldr.w	r3, [r4, #128]	; 0x80
    6350:	429a      	cmp	r2, r3
    6352:	d0f5      	beq.n	6340 <AjK::MODSERIAL::__putc(int, bool)+0x4c>
    6354:	6de3      	ldr	r3, [r4, #92]	; 0x5c
    6356:	605e      	str	r6, [r3, #4]
    6358:	6de3      	ldr	r3, [r4, #92]	; 0x5c
    635a:	e005      	b.n	6368 <AjK::MODSERIAL::__putc(int, bool)+0x74>
    635c:	f8d4 1088 	ldr.w	r1, [r4, #136]	; 0x88
    6360:	f8d4 2080 	ldr.w	r2, [r4, #128]	; 0x80
    6364:	4291      	cmp	r1, r2
    6366:	d020      	beq.n	63aa <AjK::MODSERIAL::__putc(int, bool)+0xb6>
    6368:	685a      	ldr	r2, [r3, #4]
    636a:	b2e9      	uxtb	r1, r5
    636c:	f022 0202 	bic.w	r2, r2, #2
    6370:	605a      	str	r2, [r3, #4]
    6372:	6f23      	ldr	r3, [r4, #112]	; 0x70
    6374:	6ea2      	ldr	r2, [r4, #104]	; 0x68
    6376:	54d1      	strb	r1, [r2, r3]
    6378:	b672      	cpsid	i
    637a:	f8d4 3088 	ldr.w	r3, [r4, #136]	; 0x88
    637e:	3301      	adds	r3, #1
    6380:	f8c4 3088 	str.w	r3, [r4, #136]	; 0x88
    6384:	b662      	cpsie	i
    6386:	6f23      	ldr	r3, [r4, #112]	; 0x70
    6388:	2000      	movs	r0, #0
    638a:	3301      	adds	r3, #1
    638c:	6723      	str	r3, [r4, #112]	; 0x70
    638e:	6f22      	ldr	r2, [r4, #112]	; 0x70
    6390:	f8d4 3080 	ldr.w	r3, [r4, #128]	; 0x80
    6394:	429a      	cmp	r2, r3
    6396:	bfa8      	it	ge
    6398:	2300      	movge	r3, #0
    639a:	6de2      	ldr	r2, [r4, #92]	; 0x5c
    639c:	bfa8      	it	ge
    639e:	6723      	strge	r3, [r4, #112]	; 0x70
    63a0:	6853      	ldr	r3, [r2, #4]
    63a2:	f043 0302 	orr.w	r3, r3, #2
    63a6:	6053      	str	r3, [r2, #4]
    63a8:	bd70      	pop	{r4, r5, r6, pc}
    63aa:	f8d4 30c8 	ldr.w	r3, [r4, #200]	; 0xc8
    63ae:	f8c4 5090 	str.w	r5, [r4, #144]	; 0x90
    63b2:	f104 0058 	add.w	r0, r4, #88	; 0x58
    63b6:	b11b      	cbz	r3, 63c0 <AjK::MODSERIAL::__putc(int, bool)+0xcc>
    63b8:	4798      	blx	r3
    63ba:	f04f 30ff 	mov.w	r0, #4294967295
    63be:	bd70      	pop	{r4, r5, r6, pc}
    63c0:	f8d4 20cc 	ldr.w	r2, [r4, #204]	; 0xcc
    63c4:	b1aa      	cbz	r2, 63f2 <AjK::MODSERIAL::__putc(int, bool)+0xfe>
    63c6:	f8d4 50d0 	ldr.w	r5, [r4, #208]	; 0xd0
    63ca:	f8d4 30d4 	ldr.w	r3, [r4, #212]	; 0xd4
    63ce:	b175      	cbz	r5, 63ee <AjK::MODSERIAL::__putc(int, bool)+0xfa>
    63d0:	07d9      	lsls	r1, r3, #31
    63d2:	d407      	bmi.n	63e4 <AjK::MODSERIAL::__putc(int, bool)+0xf0>
    63d4:	eb02 0363 	add.w	r3, r2, r3, asr #1
    63d8:	4601      	mov	r1, r0
    63da:	4618      	mov	r0, r3
    63dc:	47a8      	blx	r5
    63de:	f04f 30ff 	mov.w	r0, #4294967295
    63e2:	bd70      	pop	{r4, r5, r6, pc}
    63e4:	105b      	asrs	r3, r3, #1
    63e6:	58d1      	ldr	r1, [r2, r3]
    63e8:	4413      	add	r3, r2
    63ea:	594d      	ldr	r5, [r1, r5]
    63ec:	e7f4      	b.n	63d8 <AjK::MODSERIAL::__putc(int, bool)+0xe4>
    63ee:	07dc      	lsls	r4, r3, #31
    63f0:	d4f8      	bmi.n	63e4 <AjK::MODSERIAL::__putc(int, bool)+0xf0>
    63f2:	f04f 30ff 	mov.w	r0, #4294967295
    63f6:	bd70      	pop	{r4, r5, r6, pc}

000063f8 <ros::normalizeSecNSec(unsigned long&, unsigned long&)>:
    63f8:	b410      	push	{r4}
    63fa:	680c      	ldr	r4, [r1, #0]
    63fc:	4a06      	ldr	r2, [pc, #24]	; (6418 <ros::normalizeSecNSec(unsigned long&, unsigned long&)+0x20>)
    63fe:	0a63      	lsrs	r3, r4, #9
    6400:	fba2 2303 	umull	r2, r3, r2, r3
    6404:	4a05      	ldr	r2, [pc, #20]	; (641c <ros::normalizeSecNSec(unsigned long&, unsigned long&)+0x24>)
    6406:	09db      	lsrs	r3, r3, #7
    6408:	fb02 4213 	mls	r2, r2, r3, r4
    640c:	6804      	ldr	r4, [r0, #0]
    640e:	4423      	add	r3, r4
    6410:	6003      	str	r3, [r0, #0]
    6412:	bc10      	pop	{r4}
    6414:	600a      	str	r2, [r1, #0]
    6416:	4770      	bx	lr
    6418:	00044b83 	.word	0x00044b83
    641c:	3b9aca00 	.word	0x3b9aca00

00006420 <void mbed::FunctionPointerArg1<void, void>::membercaller<AjK::MODSERIAL>(void*, unsigned int*)>:
    6420:	684b      	ldr	r3, [r1, #4]
    6422:	07da      	lsls	r2, r3, #31
    6424:	d505      	bpl.n	6432 <void mbed::FunctionPointerArg1<void, void>::membercaller<AjK::MODSERIAL>(void*, unsigned int*)+0x12>
    6426:	105b      	asrs	r3, r3, #1
    6428:	680a      	ldr	r2, [r1, #0]
    642a:	58c1      	ldr	r1, [r0, r3]
    642c:	4418      	add	r0, r3
    642e:	588a      	ldr	r2, [r1, r2]
    6430:	4710      	bx	r2
    6432:	680a      	ldr	r2, [r1, #0]
    6434:	eb00 0063 	add.w	r0, r0, r3, asr #1
    6438:	4710      	bx	r2
    643a:	bf00      	nop

0000643c <AjK::MODSERIAL::isr_tx()>:
    643c:	2101      	movs	r1, #1
    643e:	f000 b885 	b.w	654c <AjK::MODSERIAL::isr_tx(bool)>
    6442:	bf00      	nop

00006444 <AjK::MODSERIAL::init(int, int, PinName)>:
    6444:	b5f8      	push	{r3, r4, r5, r6, r7, lr}
    6446:	4604      	mov	r4, r0
    6448:	f890 50f8 	ldrb.w	r5, [r0, #248]	; 0xf8
    644c:	2601      	movs	r6, #1
    644e:	b26b      	sxtb	r3, r5
    6450:	095b      	lsrs	r3, r3, #5
    6452:	f005 051f 	and.w	r5, r5, #31
    6456:	4f38      	ldr	r7, [pc, #224]	; (6538 <AjK::MODSERIAL::init(int, int, PinName)+0xf4>)
    6458:	3320      	adds	r3, #32
    645a:	fa06 f505 	lsl.w	r5, r6, r5
    645e:	f847 5023 	str.w	r5, [r7, r3, lsl #2]
    6462:	4616      	mov	r6, r2
    6464:	460d      	mov	r5, r1
    6466:	f000 f90d 	bl	6684 <AjK::MODSERIAL::setBase()>
    646a:	6de3      	ldr	r3, [r4, #92]	; 0x5c
    646c:	65a4      	str	r4, [r4, #88]	; 0x58
    646e:	2b00      	cmp	r3, #0
    6470:	d05e      	beq.n	6530 <AjK::MODSERIAL::init(int, int, PinName)+0xec>
    6472:	2e00      	cmp	r6, #0
    6474:	67e6      	str	r6, [r4, #124]	; 0x7c
    6476:	dd47      	ble.n	6508 <AjK::MODSERIAL::init(int, int, PinName)+0xc4>
    6478:	6fe0      	ldr	r0, [r4, #124]	; 0x7c
    647a:	f7ff fd99 	bl	5fb0 <__wrap_malloc>
    647e:	2100      	movs	r1, #0
    6480:	66e1      	str	r1, [r4, #108]	; 0x6c
    6482:	6660      	str	r0, [r4, #100]	; 0x64
    6484:	6761      	str	r1, [r4, #116]	; 0x74
    6486:	f8c4 1084 	str.w	r1, [r4, #132]	; 0x84
    648a:	f8c4 108c 	str.w	r1, [r4, #140]	; 0x8c
    648e:	2c00      	cmp	r4, #0
    6490:	d042      	beq.n	6518 <AjK::MODSERIAL::init(int, int, PinName)+0xd4>
    6492:	4a2a      	ldr	r2, [pc, #168]	; (653c <AjK::MODSERIAL::init(int, int, PinName)+0xf8>)
    6494:	4b2a      	ldr	r3, [pc, #168]	; (6540 <AjK::MODSERIAL::init(int, int, PinName)+0xfc>)
    6496:	1d26      	adds	r6, r4, #4
    6498:	6122      	str	r2, [r4, #16]
    649a:	60e4      	str	r4, [r4, #12]
    649c:	6161      	str	r1, [r4, #20]
    649e:	6223      	str	r3, [r4, #32]
    64a0:	4630      	mov	r0, r6
    64a2:	2201      	movs	r2, #1
    64a4:	f000 fda0 	bl	6fe8 <serial_irq_set>
    64a8:	2d00      	cmp	r5, #0
    64aa:	f8c4 5080 	str.w	r5, [r4, #128]	; 0x80
    64ae:	dd3d      	ble.n	652c <AjK::MODSERIAL::init(int, int, PinName)+0xe8>
    64b0:	f8d4 0080 	ldr.w	r0, [r4, #128]	; 0x80
    64b4:	f7ff fd7c 	bl	5fb0 <__wrap_malloc>
    64b8:	4922      	ldr	r1, [pc, #136]	; (6544 <AjK::MODSERIAL::init(int, int, PinName)+0x100>)
    64ba:	2300      	movs	r3, #0
    64bc:	6723      	str	r3, [r4, #112]	; 0x70
    64be:	66a0      	str	r0, [r4, #104]	; 0x68
    64c0:	67a3      	str	r3, [r4, #120]	; 0x78
    64c2:	f8c4 3088 	str.w	r3, [r4, #136]	; 0x88
    64c6:	f8c4 3090 	str.w	r3, [r4, #144]	; 0x90
    64ca:	b1f9      	cbz	r1, 650c <AjK::MODSERIAL::init(int, int, PinName)+0xc8>
    64cc:	b1f4      	cbz	r4, 650c <AjK::MODSERIAL::init(int, int, PinName)+0xc8>
    64ce:	4d1c      	ldr	r5, [pc, #112]	; (6540 <AjK::MODSERIAL::init(int, int, PinName)+0xfc>)
    64d0:	2201      	movs	r2, #1
    64d2:	62a1      	str	r1, [r4, #40]	; 0x28
    64d4:	6264      	str	r4, [r4, #36]	; 0x24
    64d6:	62e3      	str	r3, [r4, #44]	; 0x2c
    64d8:	4630      	mov	r0, r6
    64da:	63a5      	str	r5, [r4, #56]	; 0x38
    64dc:	4611      	mov	r1, r2
    64de:	f000 fd83 	bl	6fe8 <serial_irq_set>
    64e2:	4620      	mov	r0, r4
    64e4:	f000 f8fa 	bl	66dc <AjK::MODSERIAL::initDevice()>
    64e8:	f894 30f8 	ldrb.w	r3, [r4, #248]	; 0xf8
    64ec:	2101      	movs	r1, #1
    64ee:	b25a      	sxtb	r2, r3
    64f0:	f003 031f 	and.w	r3, r3, #31
    64f4:	fa01 f303 	lsl.w	r3, r1, r3
    64f8:	480f      	ldr	r0, [pc, #60]	; (6538 <AjK::MODSERIAL::init(int, int, PinName)+0xf4>)
    64fa:	2100      	movs	r1, #0
    64fc:	0952      	lsrs	r2, r2, #5
    64fe:	f884 1094 	strb.w	r1, [r4, #148]	; 0x94
    6502:	f840 3022 	str.w	r3, [r0, r2, lsl #2]
    6506:	bdf8      	pop	{r3, r4, r5, r6, r7, pc}
    6508:	2000      	movs	r0, #0
    650a:	e7b8      	b.n	647e <AjK::MODSERIAL::init(int, int, PinName)+0x3a>
    650c:	4630      	mov	r0, r6
    650e:	2200      	movs	r2, #0
    6510:	2101      	movs	r1, #1
    6512:	f000 fd69 	bl	6fe8 <serial_irq_set>
    6516:	e7e4      	b.n	64e2 <AjK::MODSERIAL::init(int, int, PinName)+0x9e>
    6518:	2604      	movs	r6, #4
    651a:	4630      	mov	r0, r6
    651c:	4622      	mov	r2, r4
    651e:	4621      	mov	r1, r4
    6520:	f000 fd62 	bl	6fe8 <serial_irq_set>
    6524:	2d00      	cmp	r5, #0
    6526:	f8c4 5080 	str.w	r5, [r4, #128]	; 0x80
    652a:	dcc1      	bgt.n	64b0 <AjK::MODSERIAL::init(int, int, PinName)+0x6c>
    652c:	2000      	movs	r0, #0
    652e:	e7c3      	b.n	64b8 <AjK::MODSERIAL::init(int, int, PinName)+0x74>
    6530:	4805      	ldr	r0, [pc, #20]	; (6548 <AjK::MODSERIAL::init(int, int, PinName)+0x104>)
    6532:	f000 f911 	bl	6758 <error>
    6536:	e7d4      	b.n	64e2 <AjK::MODSERIAL::init(int, int, PinName)+0x9e>
    6538:	e000e100 	.word	0xe000e100
    653c:	00006065 	.word	0x00006065
    6540:	00006421 	.word	0x00006421
    6544:	0000643d 	.word	0x0000643d
    6548:	0000b1e8 	.word	0x0000b1e8

0000654c <AjK::MODSERIAL::isr_tx(bool)>:
    654c:	6dc3      	ldr	r3, [r0, #92]	; 0x5c
    654e:	e92d 41f0 	stmdb	sp!, {r4, r5, r6, r7, r8, lr}
    6552:	b313      	cbz	r3, 659a <AjK::MODSERIAL::isr_tx(bool)+0x4e>
    6554:	f8d0 3080 	ldr.w	r3, [r0, #128]	; 0x80
    6558:	b1fb      	cbz	r3, 659a <AjK::MODSERIAL::isr_tx(bool)+0x4e>
    655a:	6e83      	ldr	r3, [r0, #104]	; 0x68
    655c:	b1eb      	cbz	r3, 659a <AjK::MODSERIAL::isr_tx(bool)+0x4e>
    655e:	460e      	mov	r6, r1
    6560:	4604      	mov	r4, r0
    6562:	2700      	movs	r7, #0
    6564:	f100 0558 	add.w	r5, r0, #88	; 0x58
    6568:	f8d4 3088 	ldr.w	r3, [r4, #136]	; 0x88
    656c:	b11b      	cbz	r3, 6576 <AjK::MODSERIAL::isr_tx(bool)+0x2a>
    656e:	6de2      	ldr	r2, [r4, #92]	; 0x5c
    6570:	7d13      	ldrb	r3, [r2, #20]
    6572:	0698      	lsls	r0, r3, #26
    6574:	d41a      	bmi.n	65ac <AjK::MODSERIAL::isr_tx(bool)+0x60>
    6576:	f8d4 3088 	ldr.w	r3, [r4, #136]	; 0x88
    657a:	2b00      	cmp	r3, #0
    657c:	d133      	bne.n	65e6 <AjK::MODSERIAL::isr_tx(bool)+0x9a>
    657e:	6de2      	ldr	r2, [r4, #92]	; 0x5c
    6580:	f104 0058 	add.w	r0, r4, #88	; 0x58
    6584:	6853      	ldr	r3, [r2, #4]
    6586:	f023 0302 	bic.w	r3, r3, #2
    658a:	6053      	str	r3, [r2, #4]
    658c:	f8d4 30d8 	ldr.w	r3, [r4, #216]	; 0xd8
    6590:	2b00      	cmp	r3, #0
    6592:	d04b      	beq.n	662c <AjK::MODSERIAL::isr_tx(bool)+0xe0>
    6594:	e8bd 41f0 	ldmia.w	sp!, {r4, r5, r6, r7, r8, lr}
    6598:	4718      	bx	r3
    659a:	f8d0 30a8 	ldr.w	r3, [r0, #168]	; 0xa8
    659e:	f100 0158 	add.w	r1, r0, #88	; 0x58
    65a2:	b313      	cbz	r3, 65ea <AjK::MODSERIAL::isr_tx(bool)+0x9e>
    65a4:	e8bd 41f0 	ldmia.w	sp!, {r4, r5, r6, r7, r8, lr}
    65a8:	4608      	mov	r0, r1
    65aa:	4718      	bx	r3
    65ac:	6fa3      	ldr	r3, [r4, #120]	; 0x78
    65ae:	6ea1      	ldr	r1, [r4, #104]	; 0x68
    65b0:	5ccb      	ldrb	r3, [r1, r3]
    65b2:	b2db      	uxtb	r3, r3
    65b4:	f884 3060 	strb.w	r3, [r4, #96]	; 0x60
    65b8:	7013      	strb	r3, [r2, #0]
    65ba:	f8d4 3088 	ldr.w	r3, [r4, #136]	; 0x88
    65be:	3b01      	subs	r3, #1
    65c0:	f8c4 3088 	str.w	r3, [r4, #136]	; 0x88
    65c4:	6fa3      	ldr	r3, [r4, #120]	; 0x78
    65c6:	3301      	adds	r3, #1
    65c8:	67a3      	str	r3, [r4, #120]	; 0x78
    65ca:	6fa2      	ldr	r2, [r4, #120]	; 0x78
    65cc:	f8d4 3080 	ldr.w	r3, [r4, #128]	; 0x80
    65d0:	429a      	cmp	r2, r3
    65d2:	db00      	blt.n	65d6 <AjK::MODSERIAL::isr_tx(bool)+0x8a>
    65d4:	67a7      	str	r7, [r4, #120]	; 0x78
    65d6:	2e00      	cmp	r6, #0
    65d8:	d0c6      	beq.n	6568 <AjK::MODSERIAL::isr_tx(bool)+0x1c>
    65da:	f8d4 30a8 	ldr.w	r3, [r4, #168]	; 0xa8
    65de:	b1ab      	cbz	r3, 660c <AjK::MODSERIAL::isr_tx(bool)+0xc0>
    65e0:	4628      	mov	r0, r5
    65e2:	4798      	blx	r3
    65e4:	e7c0      	b.n	6568 <AjK::MODSERIAL::isr_tx(bool)+0x1c>
    65e6:	e8bd 81f0 	ldmia.w	sp!, {r4, r5, r6, r7, r8, pc}
    65ea:	f8d0 30ac 	ldr.w	r3, [r0, #172]	; 0xac
    65ee:	2b00      	cmp	r3, #0
    65f0:	d0f9      	beq.n	65e6 <AjK::MODSERIAL::isr_tx(bool)+0x9a>
    65f2:	f8d0 20b0 	ldr.w	r2, [r0, #176]	; 0xb0
    65f6:	f8d0 00b4 	ldr.w	r0, [r0, #180]	; 0xb4
    65fa:	2a00      	cmp	r2, #0
    65fc:	d03a      	beq.n	6674 <AjK::MODSERIAL::isr_tx(bool)+0x128>
    65fe:	07c4      	lsls	r4, r0, #31
    6600:	d427      	bmi.n	6652 <AjK::MODSERIAL::isr_tx(bool)+0x106>
    6602:	eb03 0060 	add.w	r0, r3, r0, asr #1
    6606:	e8bd 41f0 	ldmia.w	sp!, {r4, r5, r6, r7, r8, lr}
    660a:	4710      	bx	r2
    660c:	f8d4 00ac 	ldr.w	r0, [r4, #172]	; 0xac
    6610:	2800      	cmp	r0, #0
    6612:	d0a9      	beq.n	6568 <AjK::MODSERIAL::isr_tx(bool)+0x1c>
    6614:	f8d4 20b0 	ldr.w	r2, [r4, #176]	; 0xb0
    6618:	f8d4 30b4 	ldr.w	r3, [r4, #180]	; 0xb4
    661c:	b1f2      	cbz	r2, 665c <AjK::MODSERIAL::isr_tx(bool)+0x110>
    661e:	07d9      	lsls	r1, r3, #31
    6620:	d41e      	bmi.n	6660 <AjK::MODSERIAL::isr_tx(bool)+0x114>
    6622:	eb00 0063 	add.w	r0, r0, r3, asr #1
    6626:	4629      	mov	r1, r5
    6628:	4790      	blx	r2
    662a:	e79d      	b.n	6568 <AjK::MODSERIAL::isr_tx(bool)+0x1c>
    662c:	f8d4 30dc 	ldr.w	r3, [r4, #220]	; 0xdc
    6630:	2b00      	cmp	r3, #0
    6632:	d0d8      	beq.n	65e6 <AjK::MODSERIAL::isr_tx(bool)+0x9a>
    6634:	f8d4 50e0 	ldr.w	r5, [r4, #224]	; 0xe0
    6638:	f8d4 20e4 	ldr.w	r2, [r4, #228]	; 0xe4
    663c:	b1f5      	cbz	r5, 667c <AjK::MODSERIAL::isr_tx(bool)+0x130>
    663e:	07d1      	lsls	r1, r2, #31
    6640:	d413      	bmi.n	666a <AjK::MODSERIAL::isr_tx(bool)+0x11e>
    6642:	eb03 0362 	add.w	r3, r3, r2, asr #1
    6646:	4601      	mov	r1, r0
    6648:	4618      	mov	r0, r3
    664a:	462b      	mov	r3, r5
    664c:	e8bd 41f0 	ldmia.w	sp!, {r4, r5, r6, r7, r8, lr}
    6650:	4718      	bx	r3
    6652:	1040      	asrs	r0, r0, #1
    6654:	581c      	ldr	r4, [r3, r0]
    6656:	4418      	add	r0, r3
    6658:	58a2      	ldr	r2, [r4, r2]
    665a:	e7d4      	b.n	6606 <AjK::MODSERIAL::isr_tx(bool)+0xba>
    665c:	07d9      	lsls	r1, r3, #31
    665e:	d583      	bpl.n	6568 <AjK::MODSERIAL::isr_tx(bool)+0x1c>
    6660:	105b      	asrs	r3, r3, #1
    6662:	58c1      	ldr	r1, [r0, r3]
    6664:	4418      	add	r0, r3
    6666:	588a      	ldr	r2, [r1, r2]
    6668:	e7dd      	b.n	6626 <AjK::MODSERIAL::isr_tx(bool)+0xda>
    666a:	1052      	asrs	r2, r2, #1
    666c:	5899      	ldr	r1, [r3, r2]
    666e:	4413      	add	r3, r2
    6670:	594d      	ldr	r5, [r1, r5]
    6672:	e7e8      	b.n	6646 <AjK::MODSERIAL::isr_tx(bool)+0xfa>
    6674:	07c5      	lsls	r5, r0, #31
    6676:	d4ec      	bmi.n	6652 <AjK::MODSERIAL::isr_tx(bool)+0x106>
    6678:	e8bd 81f0 	ldmia.w	sp!, {r4, r5, r6, r7, r8, pc}
    667c:	07d4      	lsls	r4, r2, #31
    667e:	d4f4      	bmi.n	666a <AjK::MODSERIAL::isr_tx(bool)+0x11e>
    6680:	e8bd 81f0 	ldmia.w	sp!, {r4, r5, r6, r7, r8, pc}

00006684 <AjK::MODSERIAL::setBase()>:
    6684:	6883      	ldr	r3, [r0, #8]
    6686:	2b03      	cmp	r3, #3
    6688:	d81b      	bhi.n	66c2 <AjK::MODSERIAL::setBase()+0x3e>
    668a:	e8df f003 	tbb	[pc, r3]
    668e:	0e14      	.short	0x0e14
    6690:	0208      	.short	0x0208
    6692:	4a0e      	ldr	r2, [pc, #56]	; (66cc <AjK::MODSERIAL::setBase()+0x48>)
    6694:	2308      	movs	r3, #8
    6696:	65c2      	str	r2, [r0, #92]	; 0x5c
    6698:	f880 30f8 	strb.w	r3, [r0, #248]	; 0xf8
    669c:	4770      	bx	lr
    669e:	4a0c      	ldr	r2, [pc, #48]	; (66d0 <AjK::MODSERIAL::setBase()+0x4c>)
    66a0:	2307      	movs	r3, #7
    66a2:	65c2      	str	r2, [r0, #92]	; 0x5c
    66a4:	f880 30f8 	strb.w	r3, [r0, #248]	; 0xf8
    66a8:	4770      	bx	lr
    66aa:	4a0a      	ldr	r2, [pc, #40]	; (66d4 <AjK::MODSERIAL::setBase()+0x50>)
    66ac:	2306      	movs	r3, #6
    66ae:	65c2      	str	r2, [r0, #92]	; 0x5c
    66b0:	f880 30f8 	strb.w	r3, [r0, #248]	; 0xf8
    66b4:	4770      	bx	lr
    66b6:	4a08      	ldr	r2, [pc, #32]	; (66d8 <AjK::MODSERIAL::setBase()+0x54>)
    66b8:	2305      	movs	r3, #5
    66ba:	65c2      	str	r2, [r0, #92]	; 0x5c
    66bc:	f880 30f8 	strb.w	r3, [r0, #248]	; 0xf8
    66c0:	4770      	bx	lr
    66c2:	2300      	movs	r3, #0
    66c4:	65c3      	str	r3, [r0, #92]	; 0x5c
    66c6:	f880 30f8 	strb.w	r3, [r0, #248]	; 0xf8
    66ca:	4770      	bx	lr
    66cc:	4009c000 	.word	0x4009c000
    66d0:	40098000 	.word	0x40098000
    66d4:	40010000 	.word	0x40010000
    66d8:	4000c000 	.word	0x4000c000

000066dc <AjK::MODSERIAL::initDevice()>:
    66dc:	6dc3      	ldr	r3, [r0, #92]	; 0x5c
    66de:	2207      	movs	r2, #7
    66e0:	721a      	strb	r2, [r3, #8]
    66e2:	4770      	bx	lr

000066e4 <mbed_die>:
    66e4:	b500      	push	{lr}
    66e6:	b099      	sub	sp, #100	; 0x64
    66e8:	b672      	cpsid	i
    66ea:	4917      	ldr	r1, [pc, #92]	; (6748 <mbed_die+0x64>)
    66ec:	4668      	mov	r0, sp
    66ee:	f000 f857 	bl	67a0 <gpio_init_out>
    66f2:	a806      	add	r0, sp, #24
    66f4:	4915      	ldr	r1, [pc, #84]	; (674c <mbed_die+0x68>)
    66f6:	f000 f853 	bl	67a0 <gpio_init_out>
    66fa:	a80c      	add	r0, sp, #48	; 0x30
    66fc:	4914      	ldr	r1, [pc, #80]	; (6750 <mbed_die+0x6c>)
    66fe:	f000 f84f 	bl	67a0 <gpio_init_out>
    6702:	a812      	add	r0, sp, #72	; 0x48
    6704:	4913      	ldr	r1, [pc, #76]	; (6754 <mbed_die+0x70>)
    6706:	f000 f84b 	bl	67a0 <gpio_init_out>
    670a:	9a03      	ldr	r2, [sp, #12]
    670c:	9901      	ldr	r1, [sp, #4]
    670e:	9b0a      	ldr	r3, [sp, #40]	; 0x28
    6710:	6011      	str	r1, [r2, #0]
    6712:	9907      	ldr	r1, [sp, #28]
    6714:	9a10      	ldr	r2, [sp, #64]	; 0x40
    6716:	6019      	str	r1, [r3, #0]
    6718:	990d      	ldr	r1, [sp, #52]	; 0x34
    671a:	9b15      	ldr	r3, [sp, #84]	; 0x54
    671c:	6011      	str	r1, [r2, #0]
    671e:	9a13      	ldr	r2, [sp, #76]	; 0x4c
    6720:	2096      	movs	r0, #150	; 0x96
    6722:	601a      	str	r2, [r3, #0]
    6724:	f000 f932 	bl	698c <wait_ms>
    6728:	9a04      	ldr	r2, [sp, #16]
    672a:	9901      	ldr	r1, [sp, #4]
    672c:	9b09      	ldr	r3, [sp, #36]	; 0x24
    672e:	6011      	str	r1, [r2, #0]
    6730:	9907      	ldr	r1, [sp, #28]
    6732:	9a0f      	ldr	r2, [sp, #60]	; 0x3c
    6734:	6019      	str	r1, [r3, #0]
    6736:	990d      	ldr	r1, [sp, #52]	; 0x34
    6738:	9b16      	ldr	r3, [sp, #88]	; 0x58
    673a:	6011      	str	r1, [r2, #0]
    673c:	9a13      	ldr	r2, [sp, #76]	; 0x4c
    673e:	2096      	movs	r0, #150	; 0x96
    6740:	601a      	str	r2, [r3, #0]
    6742:	f000 f923 	bl	698c <wait_ms>
    6746:	e7e0      	b.n	670a <mbed_die+0x26>
    6748:	2009c032 	.word	0x2009c032
    674c:	2009c034 	.word	0x2009c034
    6750:	2009c035 	.word	0x2009c035
    6754:	2009c037 	.word	0x2009c037

00006758 <error>:
    6758:	b40f      	push	{r0, r1, r2, r3}
    675a:	b500      	push	{lr}
    675c:	4a06      	ldr	r2, [pc, #24]	; (6778 <error+0x20>)
    675e:	b083      	sub	sp, #12
    6760:	ab04      	add	r3, sp, #16
    6762:	f853 1b04 	ldr.w	r1, [r3], #4
    6766:	6810      	ldr	r0, [r2, #0]
    6768:	461a      	mov	r2, r3
    676a:	68c0      	ldr	r0, [r0, #12]
    676c:	9301      	str	r3, [sp, #4]
    676e:	f002 ff81 	bl	9674 <vfiprintf>
    6772:	2001      	movs	r0, #1
    6774:	f002 f996 	bl	8aa4 <exit>
    6778:	10000198 	.word	0x10000198

0000677c <gpio_init_in>:
    677c:	b538      	push	{r3, r4, r5, lr}
    677e:	460d      	mov	r5, r1
    6780:	4604      	mov	r4, r0
    6782:	f000 f98d 	bl	6aa0 <gpio_init>
    6786:	3501      	adds	r5, #1
    6788:	d009      	beq.n	679e <gpio_init_in+0x22>
    678a:	4620      	mov	r0, r4
    678c:	2100      	movs	r1, #0
    678e:	f000 f9a9 	bl	6ae4 <gpio_dir>
    6792:	4620      	mov	r0, r4
    6794:	e8bd 4038 	ldmia.w	sp!, {r3, r4, r5, lr}
    6798:	2103      	movs	r1, #3
    679a:	f000 b99f 	b.w	6adc <gpio_mode>
    679e:	bd38      	pop	{r3, r4, r5, pc}

000067a0 <gpio_init_out>:
    67a0:	b538      	push	{r3, r4, r5, lr}
    67a2:	460d      	mov	r5, r1
    67a4:	4604      	mov	r4, r0
    67a6:	f000 f97b 	bl	6aa0 <gpio_init>
    67aa:	3501      	adds	r5, #1
    67ac:	d00c      	beq.n	67c8 <gpio_init_out+0x28>
    67ae:	6923      	ldr	r3, [r4, #16]
    67b0:	6862      	ldr	r2, [r4, #4]
    67b2:	4620      	mov	r0, r4
    67b4:	2101      	movs	r1, #1
    67b6:	601a      	str	r2, [r3, #0]
    67b8:	f000 f994 	bl	6ae4 <gpio_dir>
    67bc:	4620      	mov	r0, r4
    67be:	e8bd 4038 	ldmia.w	sp!, {r3, r4, r5, lr}
    67c2:	2102      	movs	r1, #2
    67c4:	f000 b98a 	b.w	6adc <gpio_mode>
    67c8:	bd38      	pop	{r3, r4, r5, pc}
    67ca:	bf00      	nop

000067cc <gpio_init_out_ex>:
    67cc:	b570      	push	{r4, r5, r6, lr}
    67ce:	460d      	mov	r5, r1
    67d0:	4616      	mov	r6, r2
    67d2:	4604      	mov	r4, r0
    67d4:	f000 f964 	bl	6aa0 <gpio_init>
    67d8:	3501      	adds	r5, #1
    67da:	d011      	beq.n	6800 <gpio_init_out_ex+0x34>
    67dc:	b966      	cbnz	r6, 67f8 <gpio_init_out_ex+0x2c>
    67de:	6923      	ldr	r3, [r4, #16]
    67e0:	6862      	ldr	r2, [r4, #4]
    67e2:	601a      	str	r2, [r3, #0]
    67e4:	4620      	mov	r0, r4
    67e6:	2101      	movs	r1, #1
    67e8:	f000 f97c 	bl	6ae4 <gpio_dir>
    67ec:	4620      	mov	r0, r4
    67ee:	e8bd 4070 	ldmia.w	sp!, {r4, r5, r6, lr}
    67f2:	2102      	movs	r1, #2
    67f4:	f000 b972 	b.w	6adc <gpio_mode>
    67f8:	68e3      	ldr	r3, [r4, #12]
    67fa:	6862      	ldr	r2, [r4, #4]
    67fc:	601a      	str	r2, [r3, #0]
    67fe:	e7f1      	b.n	67e4 <gpio_init_out_ex+0x18>
    6800:	bd70      	pop	{r4, r5, r6, pc}
    6802:	bf00      	nop

00006804 <mbed_interface_connected>:
    6804:	f000 b86e 	b.w	68e4 <semihost_connected>

00006808 <pinmap_pinout>:
    6808:	1c43      	adds	r3, r0, #1
    680a:	d01c      	beq.n	6846 <pinmap_pinout+0x3e>
    680c:	680b      	ldr	r3, [r1, #0]
    680e:	1c5a      	adds	r2, r3, #1
    6810:	d01a      	beq.n	6848 <pinmap_pinout+0x40>
    6812:	4298      	cmp	r0, r3
    6814:	b510      	push	{r4, lr}
    6816:	4604      	mov	r4, r0
    6818:	d102      	bne.n	6820 <pinmap_pinout+0x18>
    681a:	e00a      	b.n	6832 <pinmap_pinout+0x2a>
    681c:	429c      	cmp	r4, r3
    681e:	d008      	beq.n	6832 <pinmap_pinout+0x2a>
    6820:	f851 3f0c 	ldr.w	r3, [r1, #12]!
    6824:	1c5a      	adds	r2, r3, #1
    6826:	d1f9      	bne.n	681c <pinmap_pinout+0x14>
    6828:	4809      	ldr	r0, [pc, #36]	; (6850 <pinmap_pinout+0x48>)
    682a:	e8bd 4010 	ldmia.w	sp!, {r4, lr}
    682e:	f7ff bf93 	b.w	6758 <error>
    6832:	4620      	mov	r0, r4
    6834:	6889      	ldr	r1, [r1, #8]
    6836:	f000 f967 	bl	6b08 <pin_function>
    683a:	4620      	mov	r0, r4
    683c:	e8bd 4010 	ldmia.w	sp!, {r4, lr}
    6840:	2102      	movs	r1, #2
    6842:	f000 b97d 	b.w	6b40 <pin_mode>
    6846:	4770      	bx	lr
    6848:	4801      	ldr	r0, [pc, #4]	; (6850 <pinmap_pinout+0x48>)
    684a:	f7ff bf85 	b.w	6758 <error>
    684e:	bf00      	nop
    6850:	0000b218 	.word	0x0000b218

00006854 <pinmap_merge>:
    6854:	4288      	cmp	r0, r1
    6856:	d00a      	beq.n	686e <pinmap_merge+0x1a>
    6858:	1c42      	adds	r2, r0, #1
    685a:	d009      	beq.n	6870 <pinmap_merge+0x1c>
    685c:	3101      	adds	r1, #1
    685e:	d006      	beq.n	686e <pinmap_merge+0x1a>
    6860:	b508      	push	{r3, lr}
    6862:	4804      	ldr	r0, [pc, #16]	; (6874 <pinmap_merge+0x20>)
    6864:	f7ff ff78 	bl	6758 <error>
    6868:	f04f 30ff 	mov.w	r0, #4294967295
    686c:	bd08      	pop	{r3, pc}
    686e:	4770      	bx	lr
    6870:	4608      	mov	r0, r1
    6872:	4770      	bx	lr
    6874:	0000b22c 	.word	0x0000b22c

00006878 <pinmap_find_peripheral>:
    6878:	680b      	ldr	r3, [r1, #0]
    687a:	1c5a      	adds	r2, r3, #1
    687c:	d008      	beq.n	6890 <pinmap_find_peripheral+0x18>
    687e:	4298      	cmp	r0, r3
    6880:	d102      	bne.n	6888 <pinmap_find_peripheral+0x10>
    6882:	e007      	b.n	6894 <pinmap_find_peripheral+0x1c>
    6884:	4283      	cmp	r3, r0
    6886:	d005      	beq.n	6894 <pinmap_find_peripheral+0x1c>
    6888:	f851 3f0c 	ldr.w	r3, [r1, #12]!
    688c:	1c5a      	adds	r2, r3, #1
    688e:	d1f9      	bne.n	6884 <pinmap_find_peripheral+0xc>
    6890:	4618      	mov	r0, r3
    6892:	4770      	bx	lr
    6894:	6848      	ldr	r0, [r1, #4]
    6896:	4770      	bx	lr

00006898 <pinmap_peripheral>:
    6898:	1c42      	adds	r2, r0, #1
    689a:	d00e      	beq.n	68ba <pinmap_peripheral+0x22>
    689c:	b508      	push	{r3, lr}
    689e:	680b      	ldr	r3, [r1, #0]
    68a0:	1c5a      	adds	r2, r3, #1
    68a2:	d104      	bne.n	68ae <pinmap_peripheral+0x16>
    68a4:	e00a      	b.n	68bc <pinmap_peripheral+0x24>
    68a6:	f851 3f0c 	ldr.w	r3, [r1, #12]!
    68aa:	1c5a      	adds	r2, r3, #1
    68ac:	d006      	beq.n	68bc <pinmap_peripheral+0x24>
    68ae:	4298      	cmp	r0, r3
    68b0:	d1f9      	bne.n	68a6 <pinmap_peripheral+0xe>
    68b2:	6848      	ldr	r0, [r1, #4]
    68b4:	1c41      	adds	r1, r0, #1
    68b6:	d001      	beq.n	68bc <pinmap_peripheral+0x24>
    68b8:	bd08      	pop	{r3, pc}
    68ba:	4770      	bx	lr
    68bc:	4802      	ldr	r0, [pc, #8]	; (68c8 <pinmap_peripheral+0x30>)
    68be:	f7ff ff4b 	bl	6758 <error>
    68c2:	f04f 30ff 	mov.w	r0, #4294967295
    68c6:	bd08      	pop	{r3, pc}
    68c8:	0000b240 	.word	0x0000b240

000068cc <semihost_exit>:
    68cc:	b530      	push	{r4, r5, lr}
    68ce:	b085      	sub	sp, #20
    68d0:	2418      	movs	r4, #24
    68d2:	466d      	mov	r5, sp
    68d4:	4620      	mov	r0, r4
    68d6:	4629      	mov	r1, r5
    68d8:	beab      	bkpt	0x00ab
    68da:	4604      	mov	r4, r0
    68dc:	4620      	mov	r0, r4
    68de:	b005      	add	sp, #20
    68e0:	bd30      	pop	{r4, r5, pc}
    68e2:	bf00      	nop

000068e4 <semihost_connected>:
    68e4:	4b02      	ldr	r3, [pc, #8]	; (68f0 <semihost_connected+0xc>)
    68e6:	6818      	ldr	r0, [r3, #0]
    68e8:	f000 0001 	and.w	r0, r0, #1
    68ec:	4770      	bx	lr
    68ee:	bf00      	nop
    68f0:	e000edf0 	.word	0xe000edf0

000068f4 <ticker_irq_handler>:
    68f4:	6803      	ldr	r3, [r0, #0]
    68f6:	b570      	push	{r4, r5, r6, lr}
    68f8:	68db      	ldr	r3, [r3, #12]
    68fa:	4605      	mov	r5, r0
    68fc:	4798      	blx	r3
    68fe:	686b      	ldr	r3, [r5, #4]
    6900:	685b      	ldr	r3, [r3, #4]
    6902:	b183      	cbz	r3, 6926 <ticker_irq_handler+0x32>
    6904:	682a      	ldr	r2, [r5, #0]
    6906:	681c      	ldr	r4, [r3, #0]
    6908:	6853      	ldr	r3, [r2, #4]
    690a:	4798      	blx	r3
    690c:	1a20      	subs	r0, r4, r0
    690e:	2800      	cmp	r0, #0
    6910:	686a      	ldr	r2, [r5, #4]
    6912:	dc0d      	bgt.n	6930 <ticker_irq_handler+0x3c>
    6914:	6850      	ldr	r0, [r2, #4]
    6916:	6811      	ldr	r1, [r2, #0]
    6918:	6883      	ldr	r3, [r0, #8]
    691a:	6053      	str	r3, [r2, #4]
    691c:	2900      	cmp	r1, #0
    691e:	d0f0      	beq.n	6902 <ticker_irq_handler+0xe>
    6920:	6840      	ldr	r0, [r0, #4]
    6922:	4788      	blx	r1
    6924:	e7eb      	b.n	68fe <ticker_irq_handler+0xa>
    6926:	682b      	ldr	r3, [r5, #0]
    6928:	e8bd 4070 	ldmia.w	sp!, {r4, r5, r6, lr}
    692c:	689b      	ldr	r3, [r3, #8]
    692e:	4718      	bx	r3
    6930:	682b      	ldr	r3, [r5, #0]
    6932:	6852      	ldr	r2, [r2, #4]
    6934:	691b      	ldr	r3, [r3, #16]
    6936:	6810      	ldr	r0, [r2, #0]
    6938:	e8bd 4070 	ldmia.w	sp!, {r4, r5, r6, lr}
    693c:	4718      	bx	r3
    693e:	bf00      	nop

00006940 <ticker_read>:
    6940:	6803      	ldr	r3, [r0, #0]
    6942:	685b      	ldr	r3, [r3, #4]
    6944:	4718      	bx	r3
    6946:	bf00      	nop

00006948 <get_us_ticker_data>:
    6948:	4800      	ldr	r0, [pc, #0]	; (694c <get_us_ticker_data+0x4>)
    694a:	4770      	bx	lr
    694c:	0000b294 	.word	0x0000b294

00006950 <us_ticker_irq_handler>:
    6950:	4801      	ldr	r0, [pc, #4]	; (6958 <us_ticker_irq_handler+0x8>)
    6952:	f7ff bfcf 	b.w	68f4 <ticker_irq_handler>
    6956:	bf00      	nop
    6958:	0000b294 	.word	0x0000b294

0000695c <wait_us>:
    695c:	b538      	push	{r3, r4, r5, lr}
    695e:	4605      	mov	r5, r0
    6960:	f000 fd52 	bl	7408 <us_ticker_read>
    6964:	4604      	mov	r4, r0
    6966:	f000 fd4f 	bl	7408 <us_ticker_read>
    696a:	1b00      	subs	r0, r0, r4
    696c:	42a8      	cmp	r0, r5
    696e:	d3fa      	bcc.n	6966 <wait_us+0xa>
    6970:	bd38      	pop	{r3, r4, r5, pc}
    6972:	bf00      	nop

00006974 <wait>:
    6974:	b508      	push	{r3, lr}
    6976:	4904      	ldr	r1, [pc, #16]	; (6988 <wait+0x14>)
    6978:	f001 fe94 	bl	86a4 <__aeabi_fmul>
    697c:	f002 f858 	bl	8a30 <__aeabi_f2iz>
    6980:	e8bd 4008 	ldmia.w	sp!, {r3, lr}
    6984:	f7ff bfea 	b.w	695c <wait_us>
    6988:	49742400 	.word	0x49742400

0000698c <wait_ms>:
    698c:	f44f 737a 	mov.w	r3, #1000	; 0x3e8
    6990:	fb03 f000 	mul.w	r0, r3, r0
    6994:	f7ff bfe2 	b.w	695c <wait_us>

00006998 <NVIC_SetVector>:
    6998:	4b0c      	ldr	r3, [pc, #48]	; (69cc <NVIC_SetVector+0x34>)
    699a:	b430      	push	{r4, r5}
    699c:	689d      	ldr	r5, [r3, #8]
    699e:	689a      	ldr	r2, [r3, #8]
    69a0:	462b      	mov	r3, r5
    69a2:	f1b2 5f80 	cmp.w	r2, #268435456	; 0x10000000
    69a6:	d20c      	bcs.n	69c2 <NVIC_SetVector+0x2a>
    69a8:	4a09      	ldr	r2, [pc, #36]	; (69d0 <NVIC_SetVector+0x38>)
    69aa:	35c4      	adds	r5, #196	; 0xc4
    69ac:	f853 4b04 	ldr.w	r4, [r3], #4
    69b0:	42ab      	cmp	r3, r5
    69b2:	f842 4f04 	str.w	r4, [r2, #4]!
    69b6:	d1f9      	bne.n	69ac <NVIC_SetVector+0x14>
    69b8:	f04f 5280 	mov.w	r2, #268435456	; 0x10000000
    69bc:	4613      	mov	r3, r2
    69be:	4c03      	ldr	r4, [pc, #12]	; (69cc <NVIC_SetVector+0x34>)
    69c0:	60a2      	str	r2, [r4, #8]
    69c2:	3010      	adds	r0, #16
    69c4:	f843 1020 	str.w	r1, [r3, r0, lsl #2]
    69c8:	bc30      	pop	{r4, r5}
    69ca:	4770      	bx	lr
    69cc:	e000ed00 	.word	0xe000ed00
    69d0:	0ffffffc 	.word	0x0ffffffc

000069d4 <SystemInit>:
    69d4:	4a2b      	ldr	r2, [pc, #172]	; (6a84 <SystemInit+0xb0>)
    69d6:	2320      	movs	r3, #32
    69d8:	b4f0      	push	{r4, r5, r6, r7}
    69da:	f8c2 31a0 	str.w	r3, [r2, #416]	; 0x1a0
    69de:	f8d2 31a0 	ldr.w	r3, [r2, #416]	; 0x1a0
    69e2:	0698      	lsls	r0, r3, #26
    69e4:	d445      	bmi.n	6a72 <SystemInit+0x9e>
    69e6:	4b27      	ldr	r3, [pc, #156]	; (6a84 <SystemInit+0xb0>)
    69e8:	2500      	movs	r5, #0
    69ea:	4619      	mov	r1, r3
    69ec:	2401      	movs	r4, #1
    69ee:	20aa      	movs	r0, #170	; 0xaa
    69f0:	2255      	movs	r2, #85	; 0x55
    69f2:	2702      	movs	r7, #2
    69f4:	260b      	movs	r6, #11
    69f6:	f8c3 7104 	str.w	r7, [r3, #260]	; 0x104
    69fa:	f8c3 51a8 	str.w	r5, [r3, #424]	; 0x1a8
    69fe:	f8c3 51ac 	str.w	r5, [r3, #428]	; 0x1ac
    6a02:	f8c3 410c 	str.w	r4, [r3, #268]	; 0x10c
    6a06:	f8c3 6084 	str.w	r6, [r3, #132]	; 0x84
    6a0a:	f8c3 008c 	str.w	r0, [r3, #140]	; 0x8c
    6a0e:	f8c3 208c 	str.w	r2, [r3, #140]	; 0x8c
    6a12:	f8c3 4080 	str.w	r4, [r3, #128]	; 0x80
    6a16:	f8c3 008c 	str.w	r0, [r3, #140]	; 0x8c
    6a1a:	f8c3 208c 	str.w	r2, [r3, #140]	; 0x8c
    6a1e:	f8d1 3088 	ldr.w	r3, [r1, #136]	; 0x88
    6a22:	4a18      	ldr	r2, [pc, #96]	; (6a84 <SystemInit+0xb0>)
    6a24:	015b      	lsls	r3, r3, #5
    6a26:	d5fa      	bpl.n	6a1e <SystemInit+0x4a>
    6a28:	4611      	mov	r1, r2
    6a2a:	2403      	movs	r4, #3
    6a2c:	20aa      	movs	r0, #170	; 0xaa
    6a2e:	2355      	movs	r3, #85	; 0x55
    6a30:	f8c2 4080 	str.w	r4, [r2, #128]	; 0x80
    6a34:	f8c2 008c 	str.w	r0, [r2, #140]	; 0x8c
    6a38:	f8c2 308c 	str.w	r3, [r2, #140]	; 0x8c
    6a3c:	f8d1 3088 	ldr.w	r3, [r1, #136]	; 0x88
    6a40:	4a10      	ldr	r2, [pc, #64]	; (6a84 <SystemInit+0xb0>)
    6a42:	f013 7f40 	tst.w	r3, #50331648	; 0x3000000
    6a46:	d0f9      	beq.n	6a3c <SystemInit+0x68>
    6a48:	490f      	ldr	r1, [pc, #60]	; (6a88 <SystemInit+0xb4>)
    6a4a:	2300      	movs	r3, #0
    6a4c:	2005      	movs	r0, #5
    6a4e:	f8c2 0108 	str.w	r0, [r2, #264]	; 0x108
    6a52:	f8c2 10c4 	str.w	r1, [r2, #196]	; 0xc4
    6a56:	f8c2 31c8 	str.w	r3, [r2, #456]	; 0x1c8
    6a5a:	6813      	ldr	r3, [r2, #0]
    6a5c:	bcf0      	pop	{r4, r5, r6, r7}
    6a5e:	f423 4370 	bic.w	r3, r3, #61440	; 0xf000
    6a62:	f023 033a 	bic.w	r3, r3, #58	; 0x3a
    6a66:	f443 5340 	orr.w	r3, r3, #12288	; 0x3000
    6a6a:	f043 033a 	orr.w	r3, r3, #58	; 0x3a
    6a6e:	6013      	str	r3, [r2, #0]
    6a70:	4770      	bx	lr
    6a72:	f8d2 31a0 	ldr.w	r3, [r2, #416]	; 0x1a0
    6a76:	0659      	lsls	r1, r3, #25
    6a78:	d4b5      	bmi.n	69e6 <SystemInit+0x12>
    6a7a:	f8d2 31a0 	ldr.w	r3, [r2, #416]	; 0x1a0
    6a7e:	0659      	lsls	r1, r3, #25
    6a80:	d5f7      	bpl.n	6a72 <SystemInit+0x9e>
    6a82:	e7b0      	b.n	69e6 <SystemInit+0x12>
    6a84:	400fc000 	.word	0x400fc000
    6a88:	042887de 	.word	0x042887de

00006a8c <gpio_set>:
    6a8c:	b510      	push	{r4, lr}
    6a8e:	4604      	mov	r4, r0
    6a90:	2100      	movs	r1, #0
    6a92:	f000 f839 	bl	6b08 <pin_function>
    6a96:	f004 041f 	and.w	r4, r4, #31
    6a9a:	2001      	movs	r0, #1
    6a9c:	40a0      	lsls	r0, r4
    6a9e:	bd10      	pop	{r4, pc}

00006aa0 <gpio_init>:
    6aa0:	1c4a      	adds	r2, r1, #1
    6aa2:	6001      	str	r1, [r0, #0]
    6aa4:	d018      	beq.n	6ad8 <gpio_init+0x38>
    6aa6:	b538      	push	{r3, r4, r5, lr}
    6aa8:	460c      	mov	r4, r1
    6aaa:	4605      	mov	r5, r0
    6aac:	2100      	movs	r1, #0
    6aae:	4620      	mov	r0, r4
    6ab0:	f000 f82a 	bl	6b08 <pin_function>
    6ab4:	f024 011f 	bic.w	r1, r4, #31
    6ab8:	f004 021f 	and.w	r2, r4, #31
    6abc:	2301      	movs	r3, #1
    6abe:	4093      	lsls	r3, r2
    6ac0:	f101 0418 	add.w	r4, r1, #24
    6ac4:	f101 001c 	add.w	r0, r1, #28
    6ac8:	f101 0214 	add.w	r2, r1, #20
    6acc:	60a9      	str	r1, [r5, #8]
    6ace:	606b      	str	r3, [r5, #4]
    6ad0:	60ec      	str	r4, [r5, #12]
    6ad2:	6128      	str	r0, [r5, #16]
    6ad4:	616a      	str	r2, [r5, #20]
    6ad6:	bd38      	pop	{r3, r4, r5, pc}
    6ad8:	4770      	bx	lr
    6ada:	bf00      	nop

00006adc <gpio_mode>:
    6adc:	6800      	ldr	r0, [r0, #0]
    6ade:	f000 b82f 	b.w	6b40 <pin_mode>
    6ae2:	bf00      	nop

00006ae4 <gpio_dir>:
    6ae4:	b141      	cbz	r1, 6af8 <gpio_dir+0x14>
    6ae6:	2901      	cmp	r1, #1
    6ae8:	d105      	bne.n	6af6 <gpio_dir+0x12>
    6aea:	6882      	ldr	r2, [r0, #8]
    6aec:	6843      	ldr	r3, [r0, #4]
    6aee:	6811      	ldr	r1, [r2, #0]
    6af0:	430b      	orrs	r3, r1
    6af2:	6013      	str	r3, [r2, #0]
    6af4:	4770      	bx	lr
    6af6:	4770      	bx	lr
    6af8:	6882      	ldr	r2, [r0, #8]
    6afa:	6841      	ldr	r1, [r0, #4]
    6afc:	6813      	ldr	r3, [r2, #0]
    6afe:	ea23 0301 	bic.w	r3, r3, r1
    6b02:	6013      	str	r3, [r2, #0]
    6b04:	4770      	bx	lr
    6b06:	bf00      	nop

00006b08 <pin_function>:
    6b08:	f100 4060 	add.w	r0, r0, #3758096384	; 0xe0000000
    6b0c:	f5a0 201c 	sub.w	r0, r0, #638976	; 0x9c000
    6b10:	0903      	lsrs	r3, r0, #4
    6b12:	009b      	lsls	r3, r3, #2
    6b14:	f103 4380 	add.w	r3, r3, #1073741824	; 0x40000000
    6b18:	f503 3330 	add.w	r3, r3, #180224	; 0x2c000
    6b1c:	0040      	lsls	r0, r0, #1
    6b1e:	b410      	push	{r4}
    6b20:	f000 001e 	and.w	r0, r0, #30
    6b24:	681c      	ldr	r4, [r3, #0]
    6b26:	2203      	movs	r2, #3
    6b28:	4082      	lsls	r2, r0
    6b2a:	ea24 0202 	bic.w	r2, r4, r2
    6b2e:	601a      	str	r2, [r3, #0]
    6b30:	681a      	ldr	r2, [r3, #0]
    6b32:	4081      	lsls	r1, r0
    6b34:	ea41 0002 	orr.w	r0, r1, r2
    6b38:	6018      	str	r0, [r3, #0]
    6b3a:	bc10      	pop	{r4}
    6b3c:	4770      	bx	lr
    6b3e:	bf00      	nop

00006b40 <pin_mode>:
    6b40:	f100 4060 	add.w	r0, r0, #3758096384	; 0xe0000000
    6b44:	f5a0 201c 	sub.w	r0, r0, #638976	; 0x9c000
    6b48:	0943      	lsrs	r3, r0, #5
    6b4a:	009b      	lsls	r3, r3, #2
    6b4c:	f103 4380 	add.w	r3, r3, #1073741824	; 0x40000000
    6b50:	f503 3330 	add.w	r3, r3, #180224	; 0x2c000
    6b54:	b430      	push	{r4, r5}
    6b56:	f000 021f 	and.w	r2, r0, #31
    6b5a:	6e9c      	ldr	r4, [r3, #104]	; 0x68
    6b5c:	f3c1 0580 	ubfx	r5, r1, #2, #1
    6b60:	fa05 f202 	lsl.w	r2, r5, r2
    6b64:	ea24 0402 	bic.w	r4, r4, r2
    6b68:	669c      	str	r4, [r3, #104]	; 0x68
    6b6a:	6e9c      	ldr	r4, [r3, #104]	; 0x68
    6b6c:	4322      	orrs	r2, r4
    6b6e:	669a      	str	r2, [r3, #104]	; 0x68
    6b70:	b99d      	cbnz	r5, 6b9a <pin_mode+0x5a>
    6b72:	0903      	lsrs	r3, r0, #4
    6b74:	009b      	lsls	r3, r3, #2
    6b76:	f103 4380 	add.w	r3, r3, #1073741824	; 0x40000000
    6b7a:	f503 3330 	add.w	r3, r3, #180224	; 0x2c000
    6b7e:	0040      	lsls	r0, r0, #1
    6b80:	6c1c      	ldr	r4, [r3, #64]	; 0x40
    6b82:	f000 001e 	and.w	r0, r0, #30
    6b86:	2203      	movs	r2, #3
    6b88:	4082      	lsls	r2, r0
    6b8a:	ea24 0202 	bic.w	r2, r4, r2
    6b8e:	641a      	str	r2, [r3, #64]	; 0x40
    6b90:	6c1a      	ldr	r2, [r3, #64]	; 0x40
    6b92:	fa01 f000 	lsl.w	r0, r1, r0
    6b96:	4310      	orrs	r0, r2
    6b98:	6418      	str	r0, [r3, #64]	; 0x40
    6b9a:	bc30      	pop	{r4, r5}
    6b9c:	4770      	bx	lr
    6b9e:	bf00      	nop

00006ba0 <uart2_irq>:
    6ba0:	4b15      	ldr	r3, [pc, #84]	; (6bf8 <uart2_irq+0x58>)
    6ba2:	6899      	ldr	r1, [r3, #8]
    6ba4:	f3c1 0142 	ubfx	r1, r1, #1, #3
    6ba8:	2901      	cmp	r1, #1
    6baa:	d018      	beq.n	6bde <uart2_irq+0x3e>
    6bac:	2902      	cmp	r1, #2
    6bae:	d114      	bne.n	6bda <uart2_irq+0x3a>
    6bb0:	4a12      	ldr	r2, [pc, #72]	; (6bfc <uart2_irq+0x5c>)
    6bb2:	6f51      	ldr	r1, [r2, #116]	; 0x74
    6bb4:	3101      	adds	r1, #1
    6bb6:	d006      	beq.n	6bc6 <uart2_irq+0x26>
    6bb8:	f8d2 1080 	ldr.w	r1, [r2, #128]	; 0x80
    6bbc:	6f90      	ldr	r0, [r2, #120]	; 0x78
    6bbe:	6008      	str	r0, [r1, #0]
    6bc0:	f892 10a6 	ldrb.w	r1, [r2, #166]	; 0xa6
    6bc4:	b189      	cbz	r1, 6bea <uart2_irq+0x4a>
    6bc6:	6f10      	ldr	r0, [r2, #112]	; 0x70
    6bc8:	4b0c      	ldr	r3, [pc, #48]	; (6bfc <uart2_irq+0x5c>)
    6bca:	b138      	cbz	r0, 6bdc <uart2_irq+0x3c>
    6bcc:	f893 30a6 	ldrb.w	r3, [r3, #166]	; 0xa6
    6bd0:	b123      	cbz	r3, 6bdc <uart2_irq+0x3c>
    6bd2:	4b0b      	ldr	r3, [pc, #44]	; (6c00 <uart2_irq+0x60>)
    6bd4:	2100      	movs	r1, #0
    6bd6:	681b      	ldr	r3, [r3, #0]
    6bd8:	4718      	bx	r3
    6bda:	4770      	bx	lr
    6bdc:	4770      	bx	lr
    6bde:	4b07      	ldr	r3, [pc, #28]	; (6bfc <uart2_irq+0x5c>)
    6be0:	6f18      	ldr	r0, [r3, #112]	; 0x70
    6be2:	b138      	cbz	r0, 6bf4 <uart2_irq+0x54>
    6be4:	4b06      	ldr	r3, [pc, #24]	; (6c00 <uart2_irq+0x60>)
    6be6:	681b      	ldr	r3, [r3, #0]
    6be8:	4718      	bx	r3
    6bea:	6859      	ldr	r1, [r3, #4]
    6bec:	f021 0101 	bic.w	r1, r1, #1
    6bf0:	6059      	str	r1, [r3, #4]
    6bf2:	e7e8      	b.n	6bc6 <uart2_irq+0x26>
    6bf4:	4770      	bx	lr
    6bf6:	bf00      	nop
    6bf8:	40098000 	.word	0x40098000
    6bfc:	100009b0 	.word	0x100009b0
    6c00:	100009ac 	.word	0x100009ac

00006c04 <serial_irq_set_internal>:
    6c04:	b5f8      	push	{r3, r4, r5, r6, r7, lr}
    6c06:	4c29      	ldr	r4, [pc, #164]	; (6cac <serial_irq_set_internal+0xa8>)
    6c08:	6803      	ldr	r3, [r0, #0]
    6c0a:	42a3      	cmp	r3, r4
    6c0c:	d047      	beq.n	6c9e <serial_irq_set_internal+0x9a>
    6c0e:	dd3f      	ble.n	6c90 <serial_irq_set_internal+0x8c>
    6c10:	4c27      	ldr	r4, [pc, #156]	; (6cb0 <serial_irq_set_internal+0xac>)
    6c12:	42a3      	cmp	r3, r4
    6c14:	d029      	beq.n	6c6a <serial_irq_set_internal+0x66>
    6c16:	f504 4480 	add.w	r4, r4, #16384	; 0x4000
    6c1a:	42a3      	cmp	r3, r4
    6c1c:	d142      	bne.n	6ca4 <serial_irq_set_internal+0xa0>
    6c1e:	4d25      	ldr	r5, [pc, #148]	; (6cb4 <serial_irq_set_internal+0xb0>)
    6c20:	2608      	movs	r6, #8
    6c22:	bb32      	cbnz	r2, 6c72 <serial_irq_set_internal+0x6e>
    6c24:	2901      	cmp	r1, #1
    6c26:	d00b      	beq.n	6c40 <serial_irq_set_internal+0x3c>
    6c28:	6842      	ldr	r2, [r0, #4]
    6c2a:	4c23      	ldr	r4, [pc, #140]	; (6cb8 <serial_irq_set_internal+0xb4>)
    6c2c:	ebc2 02c2 	rsb	r2, r2, r2, lsl #3
    6c30:	eb04 02c2 	add.w	r2, r4, r2, lsl #3
    6c34:	f892 4036 	ldrb.w	r4, [r2, #54]	; 0x36
    6c38:	f892 2035 	ldrb.w	r2, [r2, #53]	; 0x35
    6c3c:	42d4      	cmn	r4, r2
    6c3e:	d113      	bne.n	6c68 <serial_irq_set_internal+0x64>
    6c40:	fab1 f281 	clz	r2, r1
    6c44:	685d      	ldr	r5, [r3, #4]
    6c46:	2401      	movs	r4, #1
    6c48:	fa04 f101 	lsl.w	r1, r4, r1
    6c4c:	ea25 0101 	bic.w	r1, r5, r1
    6c50:	6059      	str	r1, [r3, #4]
    6c52:	6803      	ldr	r3, [r0, #0]
    6c54:	0952      	lsrs	r2, r2, #5
    6c56:	685b      	ldr	r3, [r3, #4]
    6c58:	fa04 f202 	lsl.w	r2, r4, r2
    6c5c:	421a      	tst	r2, r3
    6c5e:	d103      	bne.n	6c68 <serial_irq_set_internal+0x64>
    6c60:	4b16      	ldr	r3, [pc, #88]	; (6cbc <serial_irq_set_internal+0xb8>)
    6c62:	40b4      	lsls	r4, r6
    6c64:	f8c3 4080 	str.w	r4, [r3, #128]	; 0x80
    6c68:	bdf8      	pop	{r3, r4, r5, r6, r7, pc}
    6c6a:	4d15      	ldr	r5, [pc, #84]	; (6cc0 <serial_irq_set_internal+0xbc>)
    6c6c:	2607      	movs	r6, #7
    6c6e:	2a00      	cmp	r2, #0
    6c70:	d0d8      	beq.n	6c24 <serial_irq_set_internal+0x20>
    6c72:	6858      	ldr	r0, [r3, #4]
    6c74:	2701      	movs	r7, #1
    6c76:	fa07 f201 	lsl.w	r2, r7, r1
    6c7a:	4302      	orrs	r2, r0
    6c7c:	b274      	sxtb	r4, r6
    6c7e:	605a      	str	r2, [r3, #4]
    6c80:	4629      	mov	r1, r5
    6c82:	4620      	mov	r0, r4
    6c84:	f7ff fe88 	bl	6998 <NVIC_SetVector>
    6c88:	4b0c      	ldr	r3, [pc, #48]	; (6cbc <serial_irq_set_internal+0xb8>)
    6c8a:	40a7      	lsls	r7, r4
    6c8c:	601f      	str	r7, [r3, #0]
    6c8e:	bdf8      	pop	{r3, r4, r5, r6, r7, pc}
    6c90:	f5a4 4480 	sub.w	r4, r4, #16384	; 0x4000
    6c94:	42a3      	cmp	r3, r4
    6c96:	d105      	bne.n	6ca4 <serial_irq_set_internal+0xa0>
    6c98:	4d0a      	ldr	r5, [pc, #40]	; (6cc4 <serial_irq_set_internal+0xc0>)
    6c9a:	2605      	movs	r6, #5
    6c9c:	e7c1      	b.n	6c22 <serial_irq_set_internal+0x1e>
    6c9e:	4d0a      	ldr	r5, [pc, #40]	; (6cc8 <serial_irq_set_internal+0xc4>)
    6ca0:	2606      	movs	r6, #6
    6ca2:	e7be      	b.n	6c22 <serial_irq_set_internal+0x1e>
    6ca4:	2500      	movs	r5, #0
    6ca6:	462e      	mov	r6, r5
    6ca8:	e7bb      	b.n	6c22 <serial_irq_set_internal+0x1e>
    6caa:	bf00      	nop
    6cac:	40010000 	.word	0x40010000
    6cb0:	40098000 	.word	0x40098000
    6cb4:	00006ccd 	.word	0x00006ccd
    6cb8:	100009b0 	.word	0x100009b0
    6cbc:	e000e100 	.word	0xe000e100
    6cc0:	00006ba1 	.word	0x00006ba1
    6cc4:	00006d39 	.word	0x00006d39
    6cc8:	00006d99 	.word	0x00006d99

00006ccc <uart3_irq>:
    6ccc:	4b17      	ldr	r3, [pc, #92]	; (6d2c <uart3_irq+0x60>)
    6cce:	6899      	ldr	r1, [r3, #8]
    6cd0:	f3c1 0142 	ubfx	r1, r1, #1, #3
    6cd4:	2901      	cmp	r1, #1
    6cd6:	d01b      	beq.n	6d10 <uart3_irq+0x44>
    6cd8:	2902      	cmp	r1, #2
    6cda:	d117      	bne.n	6d0c <uart3_irq+0x40>
    6cdc:	4a14      	ldr	r2, [pc, #80]	; (6d30 <uart3_irq+0x64>)
    6cde:	f8d2 10ac 	ldr.w	r1, [r2, #172]	; 0xac
    6ce2:	3101      	adds	r1, #1
    6ce4:	d007      	beq.n	6cf6 <uart3_irq+0x2a>
    6ce6:	f8d2 10b8 	ldr.w	r1, [r2, #184]	; 0xb8
    6cea:	f8d2 00b0 	ldr.w	r0, [r2, #176]	; 0xb0
    6cee:	6008      	str	r0, [r1, #0]
    6cf0:	f892 10de 	ldrb.w	r1, [r2, #222]	; 0xde
    6cf4:	b199      	cbz	r1, 6d1e <uart3_irq+0x52>
    6cf6:	f8d2 00a8 	ldr.w	r0, [r2, #168]	; 0xa8
    6cfa:	4b0d      	ldr	r3, [pc, #52]	; (6d30 <uart3_irq+0x64>)
    6cfc:	b138      	cbz	r0, 6d0e <uart3_irq+0x42>
    6cfe:	f893 30de 	ldrb.w	r3, [r3, #222]	; 0xde
    6d02:	b123      	cbz	r3, 6d0e <uart3_irq+0x42>
    6d04:	4b0b      	ldr	r3, [pc, #44]	; (6d34 <uart3_irq+0x68>)
    6d06:	2100      	movs	r1, #0
    6d08:	681b      	ldr	r3, [r3, #0]
    6d0a:	4718      	bx	r3
    6d0c:	4770      	bx	lr
    6d0e:	4770      	bx	lr
    6d10:	4b07      	ldr	r3, [pc, #28]	; (6d30 <uart3_irq+0x64>)
    6d12:	f8d3 00a8 	ldr.w	r0, [r3, #168]	; 0xa8
    6d16:	b138      	cbz	r0, 6d28 <uart3_irq+0x5c>
    6d18:	4b06      	ldr	r3, [pc, #24]	; (6d34 <uart3_irq+0x68>)
    6d1a:	681b      	ldr	r3, [r3, #0]
    6d1c:	4718      	bx	r3
    6d1e:	6859      	ldr	r1, [r3, #4]
    6d20:	f021 0101 	bic.w	r1, r1, #1
    6d24:	6059      	str	r1, [r3, #4]
    6d26:	e7e6      	b.n	6cf6 <uart3_irq+0x2a>
    6d28:	4770      	bx	lr
    6d2a:	bf00      	nop
    6d2c:	4009c000 	.word	0x4009c000
    6d30:	100009b0 	.word	0x100009b0
    6d34:	100009ac 	.word	0x100009ac

00006d38 <uart0_irq>:
    6d38:	4b14      	ldr	r3, [pc, #80]	; (6d8c <uart0_irq+0x54>)
    6d3a:	6899      	ldr	r1, [r3, #8]
    6d3c:	f3c1 0142 	ubfx	r1, r1, #1, #3
    6d40:	2901      	cmp	r1, #1
    6d42:	d017      	beq.n	6d74 <uart0_irq+0x3c>
    6d44:	2902      	cmp	r1, #2
    6d46:	d113      	bne.n	6d70 <uart0_irq+0x38>
    6d48:	4a11      	ldr	r2, [pc, #68]	; (6d90 <uart0_irq+0x58>)
    6d4a:	6851      	ldr	r1, [r2, #4]
    6d4c:	3101      	adds	r1, #1
    6d4e:	d005      	beq.n	6d5c <uart0_irq+0x24>
    6d50:	6911      	ldr	r1, [r2, #16]
    6d52:	6890      	ldr	r0, [r2, #8]
    6d54:	6008      	str	r0, [r1, #0]
    6d56:	f892 1036 	ldrb.w	r1, [r2, #54]	; 0x36
    6d5a:	b189      	cbz	r1, 6d80 <uart0_irq+0x48>
    6d5c:	6810      	ldr	r0, [r2, #0]
    6d5e:	4b0c      	ldr	r3, [pc, #48]	; (6d90 <uart0_irq+0x58>)
    6d60:	b138      	cbz	r0, 6d72 <uart0_irq+0x3a>
    6d62:	f893 3036 	ldrb.w	r3, [r3, #54]	; 0x36
    6d66:	b123      	cbz	r3, 6d72 <uart0_irq+0x3a>
    6d68:	4b0a      	ldr	r3, [pc, #40]	; (6d94 <uart0_irq+0x5c>)
    6d6a:	2100      	movs	r1, #0
    6d6c:	681b      	ldr	r3, [r3, #0]
    6d6e:	4718      	bx	r3
    6d70:	4770      	bx	lr
    6d72:	4770      	bx	lr
    6d74:	4b06      	ldr	r3, [pc, #24]	; (6d90 <uart0_irq+0x58>)
    6d76:	6818      	ldr	r0, [r3, #0]
    6d78:	b138      	cbz	r0, 6d8a <uart0_irq+0x52>
    6d7a:	4b06      	ldr	r3, [pc, #24]	; (6d94 <uart0_irq+0x5c>)
    6d7c:	681b      	ldr	r3, [r3, #0]
    6d7e:	4718      	bx	r3
    6d80:	6859      	ldr	r1, [r3, #4]
    6d82:	f021 0101 	bic.w	r1, r1, #1
    6d86:	6059      	str	r1, [r3, #4]
    6d88:	e7e8      	b.n	6d5c <uart0_irq+0x24>
    6d8a:	4770      	bx	lr
    6d8c:	4000c000 	.word	0x4000c000
    6d90:	100009b0 	.word	0x100009b0
    6d94:	100009ac 	.word	0x100009ac

00006d98 <uart1_irq>:
    6d98:	4b14      	ldr	r3, [pc, #80]	; (6dec <uart1_irq+0x54>)
    6d9a:	6899      	ldr	r1, [r3, #8]
    6d9c:	f3c1 0142 	ubfx	r1, r1, #1, #3
    6da0:	2901      	cmp	r1, #1
    6da2:	d017      	beq.n	6dd4 <uart1_irq+0x3c>
    6da4:	2902      	cmp	r1, #2
    6da6:	d113      	bne.n	6dd0 <uart1_irq+0x38>
    6da8:	4a11      	ldr	r2, [pc, #68]	; (6df0 <uart1_irq+0x58>)
    6daa:	6bd1      	ldr	r1, [r2, #60]	; 0x3c
    6dac:	3101      	adds	r1, #1
    6dae:	d005      	beq.n	6dbc <uart1_irq+0x24>
    6db0:	6c91      	ldr	r1, [r2, #72]	; 0x48
    6db2:	6c10      	ldr	r0, [r2, #64]	; 0x40
    6db4:	6008      	str	r0, [r1, #0]
    6db6:	f892 106e 	ldrb.w	r1, [r2, #110]	; 0x6e
    6dba:	b189      	cbz	r1, 6de0 <uart1_irq+0x48>
    6dbc:	6b90      	ldr	r0, [r2, #56]	; 0x38
    6dbe:	4b0c      	ldr	r3, [pc, #48]	; (6df0 <uart1_irq+0x58>)
    6dc0:	b138      	cbz	r0, 6dd2 <uart1_irq+0x3a>
    6dc2:	f893 306e 	ldrb.w	r3, [r3, #110]	; 0x6e
    6dc6:	b123      	cbz	r3, 6dd2 <uart1_irq+0x3a>
    6dc8:	4b0a      	ldr	r3, [pc, #40]	; (6df4 <uart1_irq+0x5c>)
    6dca:	2100      	movs	r1, #0
    6dcc:	681b      	ldr	r3, [r3, #0]
    6dce:	4718      	bx	r3
    6dd0:	4770      	bx	lr
    6dd2:	4770      	bx	lr
    6dd4:	4b06      	ldr	r3, [pc, #24]	; (6df0 <uart1_irq+0x58>)
    6dd6:	6b98      	ldr	r0, [r3, #56]	; 0x38
    6dd8:	b138      	cbz	r0, 6dea <uart1_irq+0x52>
    6dda:	4b06      	ldr	r3, [pc, #24]	; (6df4 <uart1_irq+0x5c>)
    6ddc:	681b      	ldr	r3, [r3, #0]
    6dde:	4718      	bx	r3
    6de0:	6859      	ldr	r1, [r3, #4]
    6de2:	f021 0101 	bic.w	r1, r1, #1
    6de6:	6059      	str	r1, [r3, #4]
    6de8:	e7e8      	b.n	6dbc <uart1_irq+0x24>
    6dea:	4770      	bx	lr
    6dec:	40010000 	.word	0x40010000
    6df0:	100009b0 	.word	0x100009b0
    6df4:	100009ac 	.word	0x100009ac

00006df8 <serial_baud>:
    6df8:	e92d 4ff0 	stmdb	sp!, {r4, r5, r6, r7, r8, r9, r10, r11, lr}
    6dfc:	6802      	ldr	r2, [r0, #0]
    6dfe:	4b6e      	ldr	r3, [pc, #440]	; (6fb8 <serial_baud+0x1c0>)
    6e00:	b089      	sub	sp, #36	; 0x24
    6e02:	429a      	cmp	r2, r3
    6e04:	9007      	str	r0, [sp, #28]
    6e06:	9206      	str	r2, [sp, #24]
    6e08:	f000 80c8 	beq.w	6f9c <serial_baud+0x1a4>
    6e0c:	f340 80b4 	ble.w	6f78 <serial_baud+0x180>
    6e10:	4b6a      	ldr	r3, [pc, #424]	; (6fbc <serial_baud+0x1c4>)
    6e12:	9806      	ldr	r0, [sp, #24]
    6e14:	4298      	cmp	r0, r3
    6e16:	d072      	beq.n	6efe <serial_baud+0x106>
    6e18:	f503 4380 	add.w	r3, r3, #16384	; 0x4000
    6e1c:	4298      	cmp	r0, r3
    6e1e:	f040 809d 	bne.w	6f5c <serial_baud+0x164>
    6e22:	4b67      	ldr	r3, [pc, #412]	; (6fc0 <serial_baud+0x1c8>)
    6e24:	f8d3 21ac 	ldr.w	r2, [r3, #428]	; 0x1ac
    6e28:	f422 2240 	bic.w	r2, r2, #786432	; 0xc0000
    6e2c:	f8c3 21ac 	str.w	r2, [r3, #428]	; 0x1ac
    6e30:	f8d3 21ac 	ldr.w	r2, [r3, #428]	; 0x1ac
    6e34:	f442 2280 	orr.w	r2, r2, #262144	; 0x40000
    6e38:	f8c3 21ac 	str.w	r2, [r3, #428]	; 0x1ac
    6e3c:	4a61      	ldr	r2, [pc, #388]	; (6fc4 <serial_baud+0x1cc>)
    6e3e:	010b      	lsls	r3, r1, #4
    6e40:	6812      	ldr	r2, [r2, #0]
    6e42:	fbb2 f0f3 	udiv	r0, r2, r3
    6e46:	fb03 2310 	mls	r3, r3, r0, r2
    6e4a:	9203      	str	r2, [sp, #12]
    6e4c:	b280      	uxth	r0, r0
    6e4e:	2b00      	cmp	r3, #0
    6e50:	f000 8090 	beq.w	6f74 <serial_baud+0x17c>
    6e54:	9b03      	ldr	r3, [sp, #12]
    6e56:	f04f 0801 	mov.w	r8, #1
    6e5a:	005a      	lsls	r2, r3, #1
    6e5c:	009c      	lsls	r4, r3, #2
    6e5e:	4694      	mov	r12, r2
    6e60:	46a2      	mov	r10, r4
    6e62:	46c3      	mov	r11, r8
    6e64:	468e      	mov	lr, r1
    6e66:	4699      	mov	r9, r3
    6e68:	2300      	movs	r3, #0
    6e6a:	9205      	str	r2, [sp, #20]
    6e6c:	9404      	str	r4, [sp, #16]
    6e6e:	9000      	str	r0, [sp, #0]
    6e70:	9102      	str	r1, [sp, #8]
    6e72:	9301      	str	r3, [sp, #4]
    6e74:	2400      	movs	r4, #0
    6e76:	4625      	mov	r5, r4
    6e78:	9e02      	ldr	r6, [sp, #8]
    6e7a:	fa5f f788 	uxtb.w	r7, r8
    6e7e:	f1bc 0f00 	cmp.w	r12, #0
    6e82:	bfb5      	itete	lt
    6e84:	fbbc f0f6 	udivlt	r0, r12, r6
    6e88:	fbba f0f6 	udivge	r0, r10, r6
    6e8c:	0900      	lsrlt	r0, r0, #4
    6e8e:	0940      	lsrge	r0, r0, #5
    6e90:	3001      	adds	r0, #1
    6e92:	f3c0 004f 	ubfx	r0, r0, #1, #16
    6e96:	eb08 0204 	add.w	r2, r8, r4
    6e9a:	2800      	cmp	r0, #0
    6e9c:	d03d      	beq.n	6f1a <serial_baud+0x122>
    6e9e:	b10c      	cbz	r4, 6ea4 <serial_baud+0xac>
    6ea0:	2801      	cmp	r0, #1
    6ea2:	d03b      	beq.n	6f1c <serial_baud+0x124>
    6ea4:	4603      	mov	r3, r0
    6ea6:	fb03 f302 	mul.w	r3, r3, r2
    6eaa:	00db      	lsls	r3, r3, #3
    6eac:	fbb9 f3f3 	udiv	r3, r9, r3
    6eb0:	3301      	adds	r3, #1
    6eb2:	ebc1 0353 	rsb	r3, r1, r3, lsr #1
    6eb6:	2b00      	cmp	r3, #0
    6eb8:	bfb8      	it	lt
    6eba:	425b      	neglt	r3, r3
    6ebc:	4573      	cmp	r3, lr
    6ebe:	da05      	bge.n	6ecc <serial_baud+0xd4>
    6ec0:	4299      	cmp	r1, r3
    6ec2:	d030      	beq.n	6f26 <serial_baud+0x12e>
    6ec4:	469e      	mov	lr, r3
    6ec6:	46bb      	mov	r11, r7
    6ec8:	e88d 0021 	stmia.w	sp, {r0, r5}
    6ecc:	3401      	adds	r4, #1
    6ece:	b2e5      	uxtb	r5, r4
    6ed0:	42af      	cmp	r7, r5
    6ed2:	440e      	add	r6, r1
    6ed4:	d8d3      	bhi.n	6e7e <serial_baud+0x86>
    6ed6:	9b03      	ldr	r3, [sp, #12]
    6ed8:	f108 0801 	add.w	r8, r8, #1
    6edc:	4499      	add	r9, r3
    6ede:	9b05      	ldr	r3, [sp, #20]
    6ee0:	f1b8 0f10 	cmp.w	r8, #16
    6ee4:	449c      	add	r12, r3
    6ee6:	9b04      	ldr	r3, [sp, #16]
    6ee8:	449a      	add	r10, r3
    6eea:	9b02      	ldr	r3, [sp, #8]
    6eec:	440b      	add	r3, r1
    6eee:	9302      	str	r3, [sp, #8]
    6ef0:	d1c0      	bne.n	6e74 <serial_baud+0x7c>
    6ef2:	9b01      	ldr	r3, [sp, #4]
    6ef4:	9800      	ldr	r0, [sp, #0]
    6ef6:	ea43 150b 	orr.w	r5, r3, r11, lsl #4
    6efa:	b2ed      	uxtb	r5, r5
    6efc:	e016      	b.n	6f2c <serial_baud+0x134>
    6efe:	4b30      	ldr	r3, [pc, #192]	; (6fc0 <serial_baud+0x1c8>)
    6f00:	f8d3 21ac 	ldr.w	r2, [r3, #428]	; 0x1ac
    6f04:	f422 3240 	bic.w	r2, r2, #196608	; 0x30000
    6f08:	f8c3 21ac 	str.w	r2, [r3, #428]	; 0x1ac
    6f0c:	f8d3 21ac 	ldr.w	r2, [r3, #428]	; 0x1ac
    6f10:	f442 3280 	orr.w	r2, r2, #65536	; 0x10000
    6f14:	f8c3 21ac 	str.w	r2, [r3, #428]	; 0x1ac
    6f18:	e790      	b.n	6e3c <serial_baud+0x44>
    6f1a:	b114      	cbz	r4, 6f22 <serial_baud+0x12a>
    6f1c:	2002      	movs	r0, #2
    6f1e:	4603      	mov	r3, r0
    6f20:	e7c1      	b.n	6ea6 <serial_baud+0xae>
    6f22:	2001      	movs	r0, #1
    6f24:	e7be      	b.n	6ea4 <serial_baud+0xac>
    6f26:	ea45 1507 	orr.w	r5, r5, r7, lsl #4
    6f2a:	b2ed      	uxtb	r5, r5
    6f2c:	9906      	ldr	r1, [sp, #24]
    6f2e:	f3c0 2207 	ubfx	r2, r0, #8, #8
    6f32:	7b0b      	ldrb	r3, [r1, #12]
    6f34:	b2c0      	uxtb	r0, r0
    6f36:	f043 0380 	orr.w	r3, r3, #128	; 0x80
    6f3a:	730b      	strb	r3, [r1, #12]
    6f3c:	9907      	ldr	r1, [sp, #28]
    6f3e:	680b      	ldr	r3, [r1, #0]
    6f40:	711a      	strb	r2, [r3, #4]
    6f42:	680b      	ldr	r3, [r1, #0]
    6f44:	7018      	strb	r0, [r3, #0]
    6f46:	680b      	ldr	r3, [r1, #0]
    6f48:	f883 5028 	strb.w	r5, [r3, #40]	; 0x28
    6f4c:	680a      	ldr	r2, [r1, #0]
    6f4e:	7b13      	ldrb	r3, [r2, #12]
    6f50:	f003 037f 	and.w	r3, r3, #127	; 0x7f
    6f54:	7313      	strb	r3, [r2, #12]
    6f56:	b009      	add	sp, #36	; 0x24
    6f58:	e8bd 8ff0 	ldmia.w	sp!, {r4, r5, r6, r7, r8, r9, r10, r11, pc}
    6f5c:	4a19      	ldr	r2, [pc, #100]	; (6fc4 <serial_baud+0x1cc>)
    6f5e:	010b      	lsls	r3, r1, #4
    6f60:	6812      	ldr	r2, [r2, #0]
    6f62:	fbb2 f0f3 	udiv	r0, r2, r3
    6f66:	fb03 2310 	mls	r3, r3, r0, r2
    6f6a:	9203      	str	r2, [sp, #12]
    6f6c:	b280      	uxth	r0, r0
    6f6e:	2b00      	cmp	r3, #0
    6f70:	f47f af70 	bne.w	6e54 <serial_baud+0x5c>
    6f74:	2510      	movs	r5, #16
    6f76:	e7d9      	b.n	6f2c <serial_baud+0x134>
    6f78:	f5a3 4380 	sub.w	r3, r3, #16384	; 0x4000
    6f7c:	429a      	cmp	r2, r3
    6f7e:	d1ed      	bne.n	6f5c <serial_baud+0x164>
    6f80:	4b0f      	ldr	r3, [pc, #60]	; (6fc0 <serial_baud+0x1c8>)
    6f82:	f8d3 21a8 	ldr.w	r2, [r3, #424]	; 0x1a8
    6f86:	f022 02c0 	bic.w	r2, r2, #192	; 0xc0
    6f8a:	f8c3 21a8 	str.w	r2, [r3, #424]	; 0x1a8
    6f8e:	f8d3 21a8 	ldr.w	r2, [r3, #424]	; 0x1a8
    6f92:	f042 0240 	orr.w	r2, r2, #64	; 0x40
    6f96:	f8c3 21a8 	str.w	r2, [r3, #424]	; 0x1a8
    6f9a:	e74f      	b.n	6e3c <serial_baud+0x44>
    6f9c:	4b08      	ldr	r3, [pc, #32]	; (6fc0 <serial_baud+0x1c8>)
    6f9e:	f8d3 21a8 	ldr.w	r2, [r3, #424]	; 0x1a8
    6fa2:	f422 7240 	bic.w	r2, r2, #768	; 0x300
    6fa6:	f8c3 21a8 	str.w	r2, [r3, #424]	; 0x1a8
    6faa:	f8d3 21a8 	ldr.w	r2, [r3, #424]	; 0x1a8
    6fae:	f442 7280 	orr.w	r2, r2, #256	; 0x100
    6fb2:	f8c3 21a8 	str.w	r2, [r3, #424]	; 0x1a8
    6fb6:	e741      	b.n	6e3c <serial_baud+0x44>
    6fb8:	40010000 	.word	0x40010000
    6fbc:	40098000 	.word	0x40098000
    6fc0:	400fc000 	.word	0x400fc000
    6fc4:	10000130 	.word	0x10000130

00006fc8 <serial_irq_handler>:
    6fc8:	6843      	ldr	r3, [r0, #4]
    6fca:	b410      	push	{r4}
    6fcc:	4804      	ldr	r0, [pc, #16]	; (6fe0 <serial_irq_handler+0x18>)
    6fce:	4c05      	ldr	r4, [pc, #20]	; (6fe4 <serial_irq_handler+0x1c>)
    6fd0:	ebc3 03c3 	rsb	r3, r3, r3, lsl #3
    6fd4:	f844 2033 	str.w	r2, [r4, r3, lsl #3]
    6fd8:	6001      	str	r1, [r0, #0]
    6fda:	bc10      	pop	{r4}
    6fdc:	4770      	bx	lr
    6fde:	bf00      	nop
    6fe0:	100009ac 	.word	0x100009ac
    6fe4:	100009b0 	.word	0x100009b0

00006fe8 <serial_irq_set>:
    6fe8:	b959      	cbnz	r1, 7002 <serial_irq_set+0x1a>
    6fea:	6843      	ldr	r3, [r0, #4]
    6fec:	b410      	push	{r4}
    6fee:	4c06      	ldr	r4, [pc, #24]	; (7008 <serial_irq_set+0x20>)
    6ff0:	ebc3 03c3 	rsb	r3, r3, r3, lsl #3
    6ff4:	eb04 03c3 	add.w	r3, r4, r3, lsl #3
    6ff8:	f883 2036 	strb.w	r2, [r3, #54]	; 0x36
    6ffc:	bc10      	pop	{r4}
    6ffe:	f7ff be01 	b.w	6c04 <serial_irq_set_internal>
    7002:	f7ff bdff 	b.w	6c04 <serial_irq_set_internal>
    7006:	bf00      	nop
    7008:	100009b0 	.word	0x100009b0

0000700c <serial_getc>:
    700c:	6802      	ldr	r2, [r0, #0]
    700e:	7d13      	ldrb	r3, [r2, #20]
    7010:	07db      	lsls	r3, r3, #31
    7012:	d5fc      	bpl.n	700e <serial_getc+0x2>
    7014:	6843      	ldr	r3, [r0, #4]
    7016:	4909      	ldr	r1, [pc, #36]	; (703c <serial_getc+0x30>)
    7018:	ebc3 03c3 	rsb	r3, r3, r3, lsl #3
    701c:	eb01 03c3 	add.w	r3, r1, r3, lsl #3
    7020:	6859      	ldr	r1, [r3, #4]
    7022:	7810      	ldrb	r0, [r2, #0]
    7024:	3101      	adds	r1, #1
    7026:	b2c0      	uxtb	r0, r0
    7028:	d006      	beq.n	7038 <serial_getc+0x2c>
    702a:	6959      	ldr	r1, [r3, #20]
    702c:	689b      	ldr	r3, [r3, #8]
    702e:	600b      	str	r3, [r1, #0]
    7030:	6853      	ldr	r3, [r2, #4]
    7032:	f043 0301 	orr.w	r3, r3, #1
    7036:	6053      	str	r3, [r2, #4]
    7038:	4770      	bx	lr
    703a:	bf00      	nop
    703c:	100009b0 	.word	0x100009b0

00007040 <serial_writable>:
    7040:	6843      	ldr	r3, [r0, #4]
    7042:	4a15      	ldr	r2, [pc, #84]	; (7098 <serial_writable+0x58>)
    7044:	ebc3 03c3 	rsb	r3, r3, r3, lsl #3
    7048:	00db      	lsls	r3, r3, #3
    704a:	18d1      	adds	r1, r2, r3
    704c:	b410      	push	{r4}
    704e:	69cc      	ldr	r4, [r1, #28]
    7050:	3401      	adds	r4, #1
    7052:	d00f      	beq.n	7074 <serial_writable+0x34>
    7054:	460b      	mov	r3, r1
    7056:	6b0a      	ldr	r2, [r1, #48]	; 0x30
    7058:	331c      	adds	r3, #28
    705a:	685b      	ldr	r3, [r3, #4]
    705c:	6812      	ldr	r2, [r2, #0]
    705e:	421a      	tst	r2, r3
    7060:	d105      	bne.n	706e <serial_writable+0x2e>
    7062:	6803      	ldr	r3, [r0, #0]
    7064:	bc10      	pop	{r4}
    7066:	7d18      	ldrb	r0, [r3, #20]
    7068:	f3c0 1080 	ubfx	r0, r0, #6, #1
    706c:	4770      	bx	lr
    706e:	2000      	movs	r0, #0
    7070:	bc10      	pop	{r4}
    7072:	4770      	bx	lr
    7074:	6803      	ldr	r3, [r0, #0]
    7076:	7d1b      	ldrb	r3, [r3, #20]
    7078:	069b      	lsls	r3, r3, #26
    707a:	d407      	bmi.n	708c <serial_writable+0x4c>
    707c:	f891 0034 	ldrb.w	r0, [r1, #52]	; 0x34
    7080:	bc10      	pop	{r4}
    7082:	280f      	cmp	r0, #15
    7084:	bf8c      	ite	hi
    7086:	2000      	movhi	r0, #0
    7088:	2001      	movls	r0, #1
    708a:	4770      	bx	lr
    708c:	2300      	movs	r3, #0
    708e:	f881 3034 	strb.w	r3, [r1, #52]	; 0x34
    7092:	2001      	movs	r0, #1
    7094:	bc10      	pop	{r4}
    7096:	4770      	bx	lr
    7098:	100009b0 	.word	0x100009b0

0000709c <serial_putc>:
    709c:	b538      	push	{r3, r4, r5, lr}
    709e:	4604      	mov	r4, r0
    70a0:	460d      	mov	r5, r1
    70a2:	4620      	mov	r0, r4
    70a4:	f7ff ffcc 	bl	7040 <serial_writable>
    70a8:	2800      	cmp	r0, #0
    70aa:	d0fa      	beq.n	70a2 <serial_putc+0x6>
    70ac:	6823      	ldr	r3, [r4, #0]
    70ae:	b2ed      	uxtb	r5, r5
    70b0:	701d      	strb	r5, [r3, #0]
    70b2:	6863      	ldr	r3, [r4, #4]
    70b4:	4a05      	ldr	r2, [pc, #20]	; (70cc <serial_putc+0x30>)
    70b6:	ebc3 03c3 	rsb	r3, r3, r3, lsl #3
    70ba:	eb02 03c3 	add.w	r3, r2, r3, lsl #3
    70be:	f893 2034 	ldrb.w	r2, [r3, #52]	; 0x34
    70c2:	3201      	adds	r2, #1
    70c4:	f883 2034 	strb.w	r2, [r3, #52]	; 0x34
    70c8:	bd38      	pop	{r3, r4, r5, pc}
    70ca:	bf00      	nop
    70cc:	100009b0 	.word	0x100009b0

000070d0 <serial_pinout_tx>:
    70d0:	4901      	ldr	r1, [pc, #4]	; (70d8 <serial_pinout_tx+0x8>)
    70d2:	f7ff bb99 	b.w	6808 <pinmap_pinout>
    70d6:	bf00      	nop
    70d8:	0000b32c 	.word	0x0000b32c

000070dc <serial_set_flow_control>:
    70dc:	e92d 4ff0 	stmdb	sp!, {r4, r5, r6, r7, r8, r9, r10, r11, lr}
    70e0:	4605      	mov	r5, r0
    70e2:	4844      	ldr	r0, [pc, #272]	; (71f4 <serial_set_flow_control+0x118>)
    70e4:	682c      	ldr	r4, [r5, #0]
    70e6:	b083      	sub	sp, #12
    70e8:	4284      	cmp	r4, r0
    70ea:	460f      	mov	r7, r1
    70ec:	4691      	mov	r9, r2
    70ee:	469a      	mov	r10, r3
    70f0:	d01d      	beq.n	712e <serial_set_flow_control+0x52>
    70f2:	686e      	ldr	r6, [r5, #4]
    70f4:	2400      	movs	r4, #0
    70f6:	4632      	mov	r2, r6
    70f8:	f8df b104 	ldr.w	r11, [pc, #260]	; 7200 <serial_set_flow_control+0x124>
    70fc:	ea4f 08c6 	mov.w	r8, r6, lsl #3
    7100:	ebc2 01c2 	rsb	r1, r2, r2, lsl #3
    7104:	ebc6 0008 	rsb	r0, r6, r8
    7108:	eb0b 00c0 	add.w	r0, r11, r0, lsl #3
    710c:	2200      	movs	r2, #0
    710e:	eb0b 01c1 	add.w	r1, r11, r1, lsl #3
    7112:	f04f 33ff 	mov.w	r3, #4294967295
    7116:	f881 2035 	strb.w	r2, [r1, #53]	; 0x35
    711a:	61c3      	str	r3, [r0, #28]
    711c:	6043      	str	r3, [r0, #4]
    711e:	4611      	mov	r1, r2
    7120:	4628      	mov	r0, r5
    7122:	f7ff fd6f 	bl	6c04 <serial_irq_set_internal>
    7126:	b94f      	cbnz	r7, 713c <serial_set_flow_control+0x60>
    7128:	b003      	add	sp, #12
    712a:	e8bd 8ff0 	ldmia.w	sp!, {r4, r5, r6, r7, r8, r9, r10, r11, pc}
    712e:	7c23      	ldrb	r3, [r4, #16]
    7130:	686e      	ldr	r6, [r5, #4]
    7132:	f003 033f 	and.w	r3, r3, #63	; 0x3f
    7136:	7423      	strb	r3, [r4, #16]
    7138:	686a      	ldr	r2, [r5, #4]
    713a:	e7dd      	b.n	70f8 <serial_set_flow_control+0x1c>
    713c:	492e      	ldr	r1, [pc, #184]	; (71f8 <serial_set_flow_control+0x11c>)
    713e:	4648      	mov	r0, r9
    7140:	f7ff fb9a 	bl	6878 <pinmap_find_peripheral>
    7144:	492d      	ldr	r1, [pc, #180]	; (71fc <serial_set_flow_control+0x120>)
    7146:	9001      	str	r0, [sp, #4]
    7148:	4650      	mov	r0, r10
    714a:	f7ff fb95 	bl	6878 <pinmap_find_peripheral>
    714e:	1eba      	subs	r2, r7, #2
    7150:	2a01      	cmp	r2, #1
    7152:	d930      	bls.n	71b6 <serial_set_flow_control+0xda>
    7154:	2f01      	cmp	r7, #1
    7156:	d1e7      	bne.n	7128 <serial_set_flow_control+0x4c>
    7158:	f1b9 3fff 	cmp.w	r9, #4294967295
    715c:	d0e4      	beq.n	7128 <serial_set_flow_control+0x4c>
    715e:	4a25      	ldr	r2, [pc, #148]	; (71f4 <serial_set_flow_control+0x118>)
    7160:	9b01      	ldr	r3, [sp, #4]
    7162:	6829      	ldr	r1, [r5, #0]
    7164:	2007      	movs	r0, #7
    7166:	4293      	cmp	r3, r2
    7168:	7208      	strb	r0, [r1, #8]
    716a:	d10b      	bne.n	7184 <serial_set_flow_control+0xa8>
    716c:	b154      	cbz	r4, 7184 <serial_set_flow_control+0xa8>
    716e:	4648      	mov	r0, r9
    7170:	7c23      	ldrb	r3, [r4, #16]
    7172:	4921      	ldr	r1, [pc, #132]	; (71f8 <serial_set_flow_control+0x11c>)
    7174:	f043 0340 	orr.w	r3, r3, #64	; 0x40
    7178:	7423      	strb	r3, [r4, #16]
    717a:	b003      	add	sp, #12
    717c:	e8bd 4ff0 	ldmia.w	sp!, {r4, r5, r6, r7, r8, r9, r10, r11, lr}
    7180:	f7ff bb42 	b.w	6808 <pinmap_pinout>
    7184:	ebc6 0608 	rsb	r6, r6, r8
    7188:	eb0b 00c6 	add.w	r0, r11, r6, lsl #3
    718c:	4649      	mov	r1, r9
    718e:	3004      	adds	r0, #4
    7190:	2200      	movs	r2, #0
    7192:	f7ff fb1b 	bl	67cc <gpio_init_out_ex>
    7196:	686a      	ldr	r2, [r5, #4]
    7198:	2401      	movs	r4, #1
    719a:	ebc2 02c2 	rsb	r2, r2, r2, lsl #3
    719e:	eb0b 03c2 	add.w	r3, r11, r2, lsl #3
    71a2:	4628      	mov	r0, r5
    71a4:	4622      	mov	r2, r4
    71a6:	2100      	movs	r1, #0
    71a8:	f883 4035 	strb.w	r4, [r3, #53]	; 0x35
    71ac:	b003      	add	sp, #12
    71ae:	e8bd 4ff0 	ldmia.w	sp!, {r4, r5, r6, r7, r8, r9, r10, r11, lr}
    71b2:	f7ff bd27 	b.w	6c04 <serial_irq_set_internal>
    71b6:	f1ba 3fff 	cmp.w	r10, #4294967295
    71ba:	d00a      	beq.n	71d2 <serial_set_flow_control+0xf6>
    71bc:	4a0d      	ldr	r2, [pc, #52]	; (71f4 <serial_set_flow_control+0x118>)
    71be:	4290      	cmp	r0, r2
    71c0:	d00d      	beq.n	71de <serial_set_flow_control+0x102>
    71c2:	ebc6 0008 	rsb	r0, r6, r8
    71c6:	eb0b 00c0 	add.w	r0, r11, r0, lsl #3
    71ca:	4651      	mov	r1, r10
    71cc:	301c      	adds	r0, #28
    71ce:	f7ff fad5 	bl	677c <gpio_init_in>
    71d2:	2f03      	cmp	r7, #3
    71d4:	d1a8      	bne.n	7128 <serial_set_flow_control+0x4c>
    71d6:	f1b9 3fff 	cmp.w	r9, #4294967295
    71da:	d1c0      	bne.n	715e <serial_set_flow_control+0x82>
    71dc:	e7a4      	b.n	7128 <serial_set_flow_control+0x4c>
    71de:	2c00      	cmp	r4, #0
    71e0:	d0ef      	beq.n	71c2 <serial_set_flow_control+0xe6>
    71e2:	7c22      	ldrb	r2, [r4, #16]
    71e4:	4650      	mov	r0, r10
    71e6:	f042 0280 	orr.w	r2, r2, #128	; 0x80
    71ea:	7422      	strb	r2, [r4, #16]
    71ec:	4903      	ldr	r1, [pc, #12]	; (71fc <serial_set_flow_control+0x120>)
    71ee:	f7ff fb0b 	bl	6808 <pinmap_pinout>
    71f2:	e7ee      	b.n	71d2 <serial_set_flow_control+0xf6>
    71f4:	40010000 	.word	0x40010000
    71f8:	0000b29c 	.word	0x0000b29c
    71fc:	0000b398 	.word	0x0000b398
    7200:	100009b0 	.word	0x100009b0

00007204 <serial_init>:
    7204:	e92d 41f0 	stmdb	sp!, {r4, r5, r6, r7, r8, lr}
    7208:	460f      	mov	r7, r1
    720a:	4605      	mov	r5, r0
    720c:	4959      	ldr	r1, [pc, #356]	; (7374 <serial_init+0x170>)
    720e:	4638      	mov	r0, r7
    7210:	4616      	mov	r6, r2
    7212:	f7ff fb41 	bl	6898 <pinmap_peripheral>
    7216:	4958      	ldr	r1, [pc, #352]	; (7378 <serial_init+0x174>)
    7218:	4604      	mov	r4, r0
    721a:	4630      	mov	r0, r6
    721c:	f7ff fb3c 	bl	6898 <pinmap_peripheral>
    7220:	4601      	mov	r1, r0
    7222:	4620      	mov	r0, r4
    7224:	f7ff fb16 	bl	6854 <pinmap_merge>
    7228:	4b54      	ldr	r3, [pc, #336]	; (737c <serial_init+0x178>)
    722a:	4604      	mov	r4, r0
    722c:	4298      	cmp	r0, r3
    722e:	6028      	str	r0, [r5, #0]
    7230:	d07f      	beq.n	7332 <serial_init+0x12e>
    7232:	d96f      	bls.n	7314 <serial_init+0x110>
    7234:	4b52      	ldr	r3, [pc, #328]	; (7380 <serial_init+0x17c>)
    7236:	4298      	cmp	r0, r3
    7238:	d04b      	beq.n	72d2 <serial_init+0xce>
    723a:	f503 4380 	add.w	r3, r3, #16384	; 0x4000
    723e:	4298      	cmp	r0, r3
    7240:	d106      	bne.n	7250 <serial_init+0x4c>
    7242:	4a50      	ldr	r2, [pc, #320]	; (7384 <serial_init+0x180>)
    7244:	f8d2 30c4 	ldr.w	r3, [r2, #196]	; 0xc4
    7248:	f043 7300 	orr.w	r3, r3, #33554432	; 0x2000000
    724c:	f8c2 30c4 	str.w	r3, [r2, #196]	; 0xc4
    7250:	2301      	movs	r3, #1
    7252:	7223      	strb	r3, [r4, #8]
    7254:	682b      	ldr	r3, [r5, #0]
    7256:	f04f 0800 	mov.w	r8, #0
    725a:	f8c3 8004 	str.w	r8, [r3, #4]
    725e:	f44f 5116 	mov.w	r1, #9600	; 0x2580
    7262:	4628      	mov	r0, r5
    7264:	f7ff fdc8 	bl	6df8 <serial_baud>
    7268:	682b      	ldr	r3, [r5, #0]
    726a:	2203      	movs	r2, #3
    726c:	731a      	strb	r2, [r3, #12]
    726e:	4941      	ldr	r1, [pc, #260]	; (7374 <serial_init+0x170>)
    7270:	4638      	mov	r0, r7
    7272:	f7ff fac9 	bl	6808 <pinmap_pinout>
    7276:	4940      	ldr	r1, [pc, #256]	; (7378 <serial_init+0x174>)
    7278:	4630      	mov	r0, r6
    727a:	f7ff fac5 	bl	6808 <pinmap_pinout>
    727e:	1c7a      	adds	r2, r7, #1
    7280:	d003      	beq.n	728a <serial_init+0x86>
    7282:	4641      	mov	r1, r8
    7284:	4638      	mov	r0, r7
    7286:	f7ff fc5b 	bl	6b40 <pin_mode>
    728a:	1c73      	adds	r3, r6, #1
    728c:	d003      	beq.n	7296 <serial_init+0x92>
    728e:	4630      	mov	r0, r6
    7290:	2100      	movs	r1, #0
    7292:	f7ff fc55 	bl	6b40 <pin_mode>
    7296:	4b39      	ldr	r3, [pc, #228]	; (737c <serial_init+0x178>)
    7298:	429c      	cmp	r4, r3
    729a:	d047      	beq.n	732c <serial_init+0x128>
    729c:	d921      	bls.n	72e2 <serial_init+0xde>
    729e:	4b38      	ldr	r3, [pc, #224]	; (7380 <serial_init+0x17c>)
    72a0:	429c      	cmp	r4, r3
    72a2:	d063      	beq.n	736c <serial_init+0x168>
    72a4:	f503 4380 	add.w	r3, r3, #16384	; 0x4000
    72a8:	429c      	cmp	r4, r3
    72aa:	d14a      	bne.n	7342 <serial_init+0x13e>
    72ac:	2303      	movs	r3, #3
    72ae:	606b      	str	r3, [r5, #4]
    72b0:	4c35      	ldr	r4, [pc, #212]	; (7388 <serial_init+0x184>)
    72b2:	ebc3 03c3 	rsb	r3, r3, r3, lsl #3
    72b6:	f04f 36ff 	mov.w	r6, #4294967295
    72ba:	eb04 04c3 	add.w	r4, r4, r3, lsl #3
    72be:	4628      	mov	r0, r5
    72c0:	4633      	mov	r3, r6
    72c2:	4632      	mov	r2, r6
    72c4:	6066      	str	r6, [r4, #4]
    72c6:	61e6      	str	r6, [r4, #28]
    72c8:	2100      	movs	r1, #0
    72ca:	e8bd 41f0 	ldmia.w	sp!, {r4, r5, r6, r7, r8, lr}
    72ce:	f7ff bf05 	b.w	70dc <serial_set_flow_control>
    72d2:	4a2c      	ldr	r2, [pc, #176]	; (7384 <serial_init+0x180>)
    72d4:	f8d2 30c4 	ldr.w	r3, [r2, #196]	; 0xc4
    72d8:	f043 7380 	orr.w	r3, r3, #16777216	; 0x1000000
    72dc:	f8c2 30c4 	str.w	r3, [r2, #196]	; 0xc4
    72e0:	e7b6      	b.n	7250 <serial_init+0x4c>
    72e2:	f5a3 4380 	sub.w	r3, r3, #16384	; 0x4000
    72e6:	429c      	cmp	r4, r3
    72e8:	d12b      	bne.n	7342 <serial_init+0x13e>
    72ea:	4e27      	ldr	r6, [pc, #156]	; (7388 <serial_init+0x184>)
    72ec:	f04f 34ff 	mov.w	r4, #4294967295
    72f0:	2100      	movs	r1, #0
    72f2:	6069      	str	r1, [r5, #4]
    72f4:	4623      	mov	r3, r4
    72f6:	4622      	mov	r2, r4
    72f8:	4628      	mov	r0, r5
    72fa:	6074      	str	r4, [r6, #4]
    72fc:	61f4      	str	r4, [r6, #28]
    72fe:	f7ff feed 	bl	70dc <serial_set_flow_control>
    7302:	4b22      	ldr	r3, [pc, #136]	; (738c <serial_init+0x188>)
    7304:	2201      	movs	r2, #1
    7306:	601a      	str	r2, [r3, #0]
    7308:	6828      	ldr	r0, [r5, #0]
    730a:	6869      	ldr	r1, [r5, #4]
    730c:	4b20      	ldr	r3, [pc, #128]	; (7390 <serial_init+0x18c>)
    730e:	c303      	stmia	r3!, {r0, r1}
    7310:	e8bd 81f0 	ldmia.w	sp!, {r4, r5, r6, r7, r8, pc}
    7314:	f5a3 4380 	sub.w	r3, r3, #16384	; 0x4000
    7318:	4298      	cmp	r0, r3
    731a:	d199      	bne.n	7250 <serial_init+0x4c>
    731c:	4a19      	ldr	r2, [pc, #100]	; (7384 <serial_init+0x180>)
    731e:	f8d2 30c4 	ldr.w	r3, [r2, #196]	; 0xc4
    7322:	f043 0308 	orr.w	r3, r3, #8
    7326:	f8c2 30c4 	str.w	r3, [r2, #196]	; 0xc4
    732a:	e791      	b.n	7250 <serial_init+0x4c>
    732c:	2301      	movs	r3, #1
    732e:	606b      	str	r3, [r5, #4]
    7330:	e7be      	b.n	72b0 <serial_init+0xac>
    7332:	4a14      	ldr	r2, [pc, #80]	; (7384 <serial_init+0x180>)
    7334:	f8d2 30c4 	ldr.w	r3, [r2, #196]	; 0xc4
    7338:	f043 0310 	orr.w	r3, r3, #16
    733c:	f8c2 30c4 	str.w	r3, [r2, #196]	; 0xc4
    7340:	e786      	b.n	7250 <serial_init+0x4c>
    7342:	686e      	ldr	r6, [r5, #4]
    7344:	4b10      	ldr	r3, [pc, #64]	; (7388 <serial_init+0x184>)
    7346:	ebc6 06c6 	rsb	r6, r6, r6, lsl #3
    734a:	f04f 37ff 	mov.w	r7, #4294967295
    734e:	eb03 06c6 	add.w	r6, r3, r6, lsl #3
    7352:	463a      	mov	r2, r7
    7354:	463b      	mov	r3, r7
    7356:	2100      	movs	r1, #0
    7358:	4628      	mov	r0, r5
    735a:	6077      	str	r7, [r6, #4]
    735c:	61f7      	str	r7, [r6, #28]
    735e:	f7ff febd 	bl	70dc <serial_set_flow_control>
    7362:	4b0c      	ldr	r3, [pc, #48]	; (7394 <serial_init+0x190>)
    7364:	429c      	cmp	r4, r3
    7366:	d0cc      	beq.n	7302 <serial_init+0xfe>
    7368:	e8bd 81f0 	ldmia.w	sp!, {r4, r5, r6, r7, r8, pc}
    736c:	2302      	movs	r3, #2
    736e:	606b      	str	r3, [r5, #4]
    7370:	e79e      	b.n	72b0 <serial_init+0xac>
    7372:	bf00      	nop
    7374:	0000b32c 	.word	0x0000b32c
    7378:	0000b2c0 	.word	0x0000b2c0
    737c:	40010000 	.word	0x40010000
    7380:	40098000 	.word	0x40098000
    7384:	400fc000 	.word	0x400fc000
    7388:	100009b0 	.word	0x100009b0
    738c:	100009a8 	.word	0x100009a8
    7390:	10000ba4 	.word	0x10000ba4
    7394:	4000c000 	.word	0x4000c000

00007398 <us_ticker_init.part.0>:
    7398:	b538      	push	{r3, r4, r5, lr}
    739a:	4910      	ldr	r1, [pc, #64]	; (73dc <us_ticker_init.part.0+0x44>)
    739c:	4b10      	ldr	r3, [pc, #64]	; (73e0 <us_ticker_init.part.0+0x48>)
    739e:	2401      	movs	r4, #1
    73a0:	601c      	str	r4, [r3, #0]
    73a2:	f8d1 30c4 	ldr.w	r3, [r1, #196]	; 0xc4
    73a6:	4a0f      	ldr	r2, [pc, #60]	; (73e4 <us_ticker_init.part.0+0x4c>)
    73a8:	f443 0300 	orr.w	r3, r3, #8388608	; 0x800000
    73ac:	480e      	ldr	r0, [pc, #56]	; (73e8 <us_ticker_init.part.0+0x50>)
    73ae:	2500      	movs	r5, #0
    73b0:	f8c1 30c4 	str.w	r3, [r1, #196]	; 0xc4
    73b4:	6715      	str	r5, [r2, #112]	; 0x70
    73b6:	6803      	ldr	r3, [r0, #0]
    73b8:	480c      	ldr	r0, [pc, #48]	; (73ec <us_ticker_init.part.0+0x54>)
    73ba:	2102      	movs	r1, #2
    73bc:	fba0 0303 	umull	r0, r3, r0, r3
    73c0:	0d1b      	lsrs	r3, r3, #20
    73c2:	3b01      	subs	r3, #1
    73c4:	6051      	str	r1, [r2, #4]
    73c6:	2004      	movs	r0, #4
    73c8:	60d3      	str	r3, [r2, #12]
    73ca:	4909      	ldr	r1, [pc, #36]	; (73f0 <us_ticker_init.part.0+0x58>)
    73cc:	6054      	str	r4, [r2, #4]
    73ce:	f7ff fae3 	bl	6998 <NVIC_SetVector>
    73d2:	4b08      	ldr	r3, [pc, #32]	; (73f4 <us_ticker_init.part.0+0x5c>)
    73d4:	2210      	movs	r2, #16
    73d6:	601a      	str	r2, [r3, #0]
    73d8:	bd38      	pop	{r3, r4, r5, pc}
    73da:	bf00      	nop
    73dc:	400fc000 	.word	0x400fc000
    73e0:	10000a90 	.word	0x10000a90
    73e4:	40094000 	.word	0x40094000
    73e8:	10000130 	.word	0x10000130
    73ec:	431bde83 	.word	0x431bde83
    73f0:	00006951 	.word	0x00006951
    73f4:	e000e100 	.word	0xe000e100

000073f8 <us_ticker_init>:
    73f8:	4b02      	ldr	r3, [pc, #8]	; (7404 <us_ticker_init+0xc>)
    73fa:	681b      	ldr	r3, [r3, #0]
    73fc:	b103      	cbz	r3, 7400 <us_ticker_init+0x8>
    73fe:	4770      	bx	lr
    7400:	f7ff bfca 	b.w	7398 <us_ticker_init.part.0>
    7404:	10000a90 	.word	0x10000a90

00007408 <us_ticker_read>:
    7408:	b508      	push	{r3, lr}
    740a:	4b04      	ldr	r3, [pc, #16]	; (741c <us_ticker_read+0x14>)
    740c:	681b      	ldr	r3, [r3, #0]
    740e:	b90b      	cbnz	r3, 7414 <us_ticker_read+0xc>
    7410:	f7ff ffc2 	bl	7398 <us_ticker_init.part.0>
    7414:	4b02      	ldr	r3, [pc, #8]	; (7420 <us_ticker_read+0x18>)
    7416:	6898      	ldr	r0, [r3, #8]
    7418:	bd08      	pop	{r3, pc}
    741a:	bf00      	nop
    741c:	10000a90 	.word	0x10000a90
    7420:	40094000 	.word	0x40094000

00007424 <us_ticker_set_interrupt>:
    7424:	4b03      	ldr	r3, [pc, #12]	; (7434 <us_ticker_set_interrupt+0x10>)
    7426:	6198      	str	r0, [r3, #24]
    7428:	695a      	ldr	r2, [r3, #20]
    742a:	f042 0201 	orr.w	r2, r2, #1
    742e:	615a      	str	r2, [r3, #20]
    7430:	4770      	bx	lr
    7432:	bf00      	nop
    7434:	40094000 	.word	0x40094000

00007438 <us_ticker_disable_interrupt>:
    7438:	4a02      	ldr	r2, [pc, #8]	; (7444 <us_ticker_disable_interrupt+0xc>)
    743a:	6953      	ldr	r3, [r2, #20]
    743c:	f023 0301 	bic.w	r3, r3, #1
    7440:	6153      	str	r3, [r2, #20]
    7442:	4770      	bx	lr
    7444:	40094000 	.word	0x40094000

00007448 <us_ticker_clear_interrupt>:
    7448:	4b01      	ldr	r3, [pc, #4]	; (7450 <us_ticker_clear_interrupt+0x8>)
    744a:	2201      	movs	r2, #1
    744c:	601a      	str	r2, [r3, #0]
    744e:	4770      	bx	lr
    7450:	40094000 	.word	0x40094000

00007454 <mbed::FileBase::~FileBase()>:
    7454:	4a09      	ldr	r2, [pc, #36]	; (747c <mbed::FileBase::~FileBase()+0x28>)
    7456:	6883      	ldr	r3, [r0, #8]
    7458:	6002      	str	r2, [r0, #0]
    745a:	b153      	cbz	r3, 7472 <mbed::FileBase::~FileBase()+0x1e>
    745c:	4b08      	ldr	r3, [pc, #32]	; (7480 <mbed::FileBase::~FileBase()+0x2c>)
    745e:	681a      	ldr	r2, [r3, #0]
    7460:	4290      	cmp	r0, r2
    7462:	d101      	bne.n	7468 <mbed::FileBase::~FileBase()+0x14>
    7464:	e006      	b.n	7474 <mbed::FileBase::~FileBase()+0x20>
    7466:	461a      	mov	r2, r3
    7468:	6853      	ldr	r3, [r2, #4]
    746a:	4298      	cmp	r0, r3
    746c:	d1fb      	bne.n	7466 <mbed::FileBase::~FileBase()+0x12>
    746e:	6843      	ldr	r3, [r0, #4]
    7470:	6053      	str	r3, [r2, #4]
    7472:	4770      	bx	lr
    7474:	6842      	ldr	r2, [r0, #4]
    7476:	601a      	str	r2, [r3, #0]
    7478:	4770      	bx	lr
    747a:	bf00      	nop
    747c:	0000b3c4 	.word	0x0000b3c4
    7480:	10000a94 	.word	0x10000a94

00007484 <mbed::FileBase::~FileBase()>:
    7484:	4a0c      	ldr	r2, [pc, #48]	; (74b8 <mbed::FileBase::~FileBase()+0x34>)
    7486:	6883      	ldr	r3, [r0, #8]
    7488:	b510      	push	{r4, lr}
    748a:	4604      	mov	r4, r0
    748c:	6002      	str	r2, [r0, #0]
    748e:	b153      	cbz	r3, 74a6 <mbed::FileBase::~FileBase()+0x22>
    7490:	4b0a      	ldr	r3, [pc, #40]	; (74bc <mbed::FileBase::~FileBase()+0x38>)
    7492:	681a      	ldr	r2, [r3, #0]
    7494:	4290      	cmp	r0, r2
    7496:	d101      	bne.n	749c <mbed::FileBase::~FileBase()+0x18>
    7498:	e00a      	b.n	74b0 <mbed::FileBase::~FileBase()+0x2c>
    749a:	461a      	mov	r2, r3
    749c:	6853      	ldr	r3, [r2, #4]
    749e:	429c      	cmp	r4, r3
    74a0:	d1fb      	bne.n	749a <mbed::FileBase::~FileBase()+0x16>
    74a2:	6863      	ldr	r3, [r4, #4]
    74a4:	6053      	str	r3, [r2, #4]
    74a6:	4620      	mov	r0, r4
    74a8:	f000 fb91 	bl	7bce <operator delete(void*)>
    74ac:	4620      	mov	r0, r4
    74ae:	bd10      	pop	{r4, pc}
    74b0:	6842      	ldr	r2, [r0, #4]
    74b2:	601a      	str	r2, [r3, #0]
    74b4:	e7f7      	b.n	74a6 <mbed::FileBase::~FileBase()+0x22>
    74b6:	bf00      	nop
    74b8:	0000b3c4 	.word	0x0000b3c4
    74bc:	10000a94 	.word	0x10000a94

000074c0 <mbed::FileBase::FileBase(char const*, mbed::PathType)>:
    74c0:	b410      	push	{r4}
    74c2:	4c06      	ldr	r4, [pc, #24]	; (74dc <mbed::FileBase::FileBase(char const*, mbed::PathType)+0x1c>)
    74c4:	2300      	movs	r3, #0
    74c6:	7302      	strb	r2, [r0, #12]
    74c8:	6081      	str	r1, [r0, #8]
    74ca:	6004      	str	r4, [r0, #0]
    74cc:	6043      	str	r3, [r0, #4]
    74ce:	b119      	cbz	r1, 74d8 <mbed::FileBase::FileBase(char const*, mbed::PathType)+0x18>
    74d0:	4b03      	ldr	r3, [pc, #12]	; (74e0 <mbed::FileBase::FileBase(char const*, mbed::PathType)+0x20>)
    74d2:	681a      	ldr	r2, [r3, #0]
    74d4:	6018      	str	r0, [r3, #0]
    74d6:	6042      	str	r2, [r0, #4]
    74d8:	bc10      	pop	{r4}
    74da:	4770      	bx	lr
    74dc:	0000b3c4 	.word	0x0000b3c4
    74e0:	10000a94 	.word	0x10000a94

000074e4 <mbed::FileBase::lookup(char const*, unsigned int)>:
    74e4:	b5f8      	push	{r3, r4, r5, r6, r7, lr}
    74e6:	4b0b      	ldr	r3, [pc, #44]	; (7514 <mbed::FileBase::lookup(char const*, unsigned int)+0x30>)
    74e8:	681c      	ldr	r4, [r3, #0]
    74ea:	b18c      	cbz	r4, 7510 <mbed::FileBase::lookup(char const*, unsigned int)+0x2c>
    74ec:	4607      	mov	r7, r0
    74ee:	460e      	mov	r6, r1
    74f0:	68a5      	ldr	r5, [r4, #8]
    74f2:	b155      	cbz	r5, 750a <mbed::FileBase::lookup(char const*, unsigned int)+0x26>
    74f4:	4632      	mov	r2, r6
    74f6:	4639      	mov	r1, r7
    74f8:	4628      	mov	r0, r5
    74fa:	f002 fe40 	bl	a17e <strncmp>
    74fe:	b920      	cbnz	r0, 750a <mbed::FileBase::lookup(char const*, unsigned int)+0x26>
    7500:	4628      	mov	r0, r5
    7502:	f002 fe34 	bl	a16e <strlen>
    7506:	4286      	cmp	r6, r0
    7508:	d002      	beq.n	7510 <mbed::FileBase::lookup(char const*, unsigned int)+0x2c>
    750a:	6864      	ldr	r4, [r4, #4]
    750c:	2c00      	cmp	r4, #0
    750e:	d1ef      	bne.n	74f0 <mbed::FileBase::lookup(char const*, unsigned int)+0xc>
    7510:	4620      	mov	r0, r4
    7512:	bdf8      	pop	{r3, r4, r5, r6, r7, pc}
    7514:	10000a94 	.word	0x10000a94

00007518 <mbed::FileBase::getPathType()>:
    7518:	7b00      	ldrb	r0, [r0, #12]
    751a:	4770      	bx	lr

0000751c <mbed::FileHandle::flen()>:
    751c:	6803      	ldr	r3, [r0, #0]
    751e:	b570      	push	{r4, r5, r6, lr}
    7520:	2201      	movs	r2, #1
    7522:	691b      	ldr	r3, [r3, #16]
    7524:	2100      	movs	r1, #0
    7526:	4604      	mov	r4, r0
    7528:	4798      	blx	r3
    752a:	4606      	mov	r6, r0
    752c:	3001      	adds	r0, #1
    752e:	d00e      	beq.n	754e <mbed::FileHandle::flen()+0x32>
    7530:	6823      	ldr	r3, [r4, #0]
    7532:	2202      	movs	r2, #2
    7534:	691b      	ldr	r3, [r3, #16]
    7536:	2100      	movs	r1, #0
    7538:	4620      	mov	r0, r4
    753a:	4798      	blx	r3
    753c:	4605      	mov	r5, r0
    753e:	6823      	ldr	r3, [r4, #0]
    7540:	4631      	mov	r1, r6
    7542:	691b      	ldr	r3, [r3, #16]
    7544:	4620      	mov	r0, r4
    7546:	2200      	movs	r2, #0
    7548:	4798      	blx	r3
    754a:	4628      	mov	r0, r5
    754c:	bd70      	pop	{r4, r5, r6, pc}
    754e:	4630      	mov	r0, r6
    7550:	bd70      	pop	{r4, r5, r6, pc}
    7552:	bf00      	nop

00007554 <mbed::FileLike::FileLike(char const*)>:
    7554:	b510      	push	{r4, lr}
    7556:	4604      	mov	r4, r0
    7558:	4b06      	ldr	r3, [pc, #24]	; (7574 <mbed::FileLike::FileLike(char const*)+0x20>)
    755a:	2200      	movs	r2, #0
    755c:	f840 3b04 	str.w	r3, [r0], #4
    7560:	f7ff ffae 	bl	74c0 <mbed::FileBase::FileBase(char const*, mbed::PathType)>
    7564:	4b04      	ldr	r3, [pc, #16]	; (7578 <mbed::FileLike::FileLike(char const*)+0x24>)
    7566:	4620      	mov	r0, r4
    7568:	f103 0208 	add.w	r2, r3, #8
    756c:	3334      	adds	r3, #52	; 0x34
    756e:	e884 000c 	stmia.w	r4, {r2, r3}
    7572:	bd10      	pop	{r4, pc}
    7574:	0000b4e0 	.word	0x0000b4e0
    7578:	0000b3cc 	.word	0x0000b3cc

0000757c <mbed::FileLike::~FileLike()>:
    757c:	b510      	push	{r4, lr}
    757e:	4604      	mov	r4, r0
    7580:	4b06      	ldr	r3, [pc, #24]	; (759c <mbed::FileLike::~FileLike()+0x20>)
    7582:	f103 0208 	add.w	r2, r3, #8
    7586:	3334      	adds	r3, #52	; 0x34
    7588:	6002      	str	r2, [r0, #0]
    758a:	f840 3f04 	str.w	r3, [r0, #4]!
    758e:	f7ff ff61 	bl	7454 <mbed::FileBase::~FileBase()>
    7592:	4620      	mov	r0, r4
    7594:	f000 f98e 	bl	78b4 <mbed::FileHandle::~FileHandle()>
    7598:	4620      	mov	r0, r4
    759a:	bd10      	pop	{r4, pc}
    759c:	0000b3cc 	.word	0x0000b3cc

000075a0 <mbed::FilePath::FilePath(char const*)>:
    75a0:	b538      	push	{r3, r4, r5, lr}
    75a2:	2300      	movs	r3, #0
    75a4:	6003      	str	r3, [r0, #0]
    75a6:	6043      	str	r3, [r0, #4]
    75a8:	780a      	ldrb	r2, [r1, #0]
    75aa:	4604      	mov	r4, r0
    75ac:	2a2f      	cmp	r2, #47	; 0x2f
    75ae:	d001      	beq.n	75b4 <mbed::FilePath::FilePath(char const*)+0x14>
    75b0:	4620      	mov	r0, r4
    75b2:	bd38      	pop	{r3, r4, r5, pc}
    75b4:	784a      	ldrb	r2, [r1, #1]
    75b6:	2a00      	cmp	r2, #0
    75b8:	d0fa      	beq.n	75b0 <mbed::FilePath::FilePath(char const*)+0x10>
    75ba:	1c48      	adds	r0, r1, #1
    75bc:	6020      	str	r0, [r4, #0]
    75be:	784d      	ldrb	r5, [r1, #1]
    75c0:	2d2f      	cmp	r5, #47	; 0x2f
    75c2:	d013      	beq.n	75ec <mbed::FilePath::FilePath(char const*)+0x4c>
    75c4:	b185      	cbz	r5, 75e8 <mbed::FilePath::FilePath(char const*)+0x48>
    75c6:	4603      	mov	r3, r0
    75c8:	e000      	b.n	75cc <mbed::FilePath::FilePath(char const*)+0x2c>
    75ca:	b16a      	cbz	r2, 75e8 <mbed::FilePath::FilePath(char const*)+0x48>
    75cc:	1a5d      	subs	r5, r3, r1
    75ce:	3301      	adds	r3, #1
    75d0:	6023      	str	r3, [r4, #0]
    75d2:	781a      	ldrb	r2, [r3, #0]
    75d4:	2a2f      	cmp	r2, #47	; 0x2f
    75d6:	d1f8      	bne.n	75ca <mbed::FilePath::FilePath(char const*)+0x2a>
    75d8:	4629      	mov	r1, r5
    75da:	3301      	adds	r3, #1
    75dc:	6023      	str	r3, [r4, #0]
    75de:	f7ff ff81 	bl	74e4 <mbed::FileBase::lookup(char const*, unsigned int)>
    75e2:	6060      	str	r0, [r4, #4]
    75e4:	4620      	mov	r0, r4
    75e6:	bd38      	pop	{r3, r4, r5, pc}
    75e8:	4629      	mov	r1, r5
    75ea:	e7f8      	b.n	75de <mbed::FilePath::FilePath(char const*)+0x3e>
    75ec:	4619      	mov	r1, r3
    75ee:	4603      	mov	r3, r0
    75f0:	e7f3      	b.n	75da <mbed::FilePath::FilePath(char const*)+0x3a>
    75f2:	bf00      	nop

000075f4 <mbed::FilePath::fileName()>:
    75f4:	6800      	ldr	r0, [r0, #0]
    75f6:	4770      	bx	lr

000075f8 <mbed::FilePath::fileSystem()>:
    75f8:	6843      	ldr	r3, [r0, #4]
    75fa:	b143      	cbz	r3, 760e <mbed::FilePath::fileSystem()+0x16>
    75fc:	b510      	push	{r4, lr}
    75fe:	4604      	mov	r4, r0
    7600:	4618      	mov	r0, r3
    7602:	f7ff ff89 	bl	7518 <mbed::FileBase::getPathType()>
    7606:	2801      	cmp	r0, #1
    7608:	d103      	bne.n	7612 <mbed::FilePath::fileSystem()+0x1a>
    760a:	6860      	ldr	r0, [r4, #4]
    760c:	bd10      	pop	{r4, pc}
    760e:	2000      	movs	r0, #0
    7610:	4770      	bx	lr
    7612:	2000      	movs	r0, #0
    7614:	bd10      	pop	{r4, pc}
    7616:	bf00      	nop

00007618 <mbed::FilePath::isFile()>:
    7618:	6840      	ldr	r0, [r0, #4]
    761a:	b130      	cbz	r0, 762a <mbed::FilePath::isFile()+0x12>
    761c:	b508      	push	{r3, lr}
    761e:	f7ff ff7b 	bl	7518 <mbed::FileBase::getPathType()>
    7622:	fab0 f080 	clz	r0, r0
    7626:	0940      	lsrs	r0, r0, #5
    7628:	bd08      	pop	{r3, pc}
    762a:	4770      	bx	lr

0000762c <mbed::FilePath::file()>:
    762c:	6843      	ldr	r3, [r0, #4]
    762e:	b14b      	cbz	r3, 7644 <mbed::FilePath::file()+0x18>
    7630:	b510      	push	{r4, lr}
    7632:	4604      	mov	r4, r0
    7634:	4618      	mov	r0, r3
    7636:	f7ff ff6f 	bl	7518 <mbed::FileBase::getPathType()>
    763a:	b928      	cbnz	r0, 7648 <mbed::FilePath::file()+0x1c>
    763c:	6860      	ldr	r0, [r4, #4]
    763e:	b118      	cbz	r0, 7648 <mbed::FilePath::file()+0x1c>
    7640:	3804      	subs	r0, #4
    7642:	bd10      	pop	{r4, pc}
    7644:	2000      	movs	r0, #0
    7646:	4770      	bx	lr
    7648:	2000      	movs	r0, #0
    764a:	bd10      	pop	{r4, pc}

0000764c <mbed::FilePath::exists()>:
    764c:	6840      	ldr	r0, [r0, #4]
    764e:	3000      	adds	r0, #0
    7650:	bf18      	it	ne
    7652:	2001      	movne	r0, #1
    7654:	4770      	bx	lr
    7656:	bf00      	nop

00007658 <mbed::Serial::_getc()>:
    7658:	f000 b862 	b.w	7720 <mbed::SerialBase::_base_getc()>

0000765c <non-virtual thunk to mbed::Serial::_getc()>:
    765c:	f1a0 0040 	sub.w	r0, r0, #64	; 0x40
    7660:	f7ff bffa 	b.w	7658 <mbed::Serial::_getc()>

00007664 <mbed::Serial::_putc(int)>:
    7664:	f000 b860 	b.w	7728 <mbed::SerialBase::_base_putc(int)>

00007668 <non-virtual thunk to mbed::Serial::_putc(int)>:
    7668:	f1a0 0040 	sub.w	r0, r0, #64	; 0x40
    766c:	f7ff bffa 	b.w	7664 <mbed::Serial::_putc(int)>

00007670 <mbed::Serial::Serial(PinName, PinName, char const*)>:
    7670:	b538      	push	{r3, r4, r5, lr}
    7672:	4604      	mov	r4, r0
    7674:	461d      	mov	r5, r3
    7676:	f000 f82d 	bl	76d4 <mbed::SerialBase::SerialBase(PinName, PinName)>
    767a:	4629      	mov	r1, r5
    767c:	f104 0040 	add.w	r0, r4, #64	; 0x40
    7680:	f000 f88c 	bl	779c <mbed::Stream::Stream(char const*)>
    7684:	4b05      	ldr	r3, [pc, #20]	; (769c <mbed::Serial::Serial(PinName, PinName, char const*)+0x2c>)
    7686:	4620      	mov	r0, r4
    7688:	f103 0108 	add.w	r1, r3, #8
    768c:	f103 0220 	add.w	r2, r3, #32
    7690:	3354      	adds	r3, #84	; 0x54
    7692:	6021      	str	r1, [r4, #0]
    7694:	6422      	str	r2, [r4, #64]	; 0x40
    7696:	6463      	str	r3, [r4, #68]	; 0x44
    7698:	bd38      	pop	{r3, r4, r5, pc}
    769a:	bf00      	nop
    769c:	0000b408 	.word	0x0000b408

000076a0 <mbed::SerialBase::_irq_handler(unsigned long, SerialIrq)>:
    76a0:	1c4a      	adds	r2, r1, #1
    76a2:	eb02 0242 	add.w	r2, r2, r2, lsl #1
    76a6:	eb00 02c2 	add.w	r2, r0, r2, lsl #3
    76aa:	6893      	ldr	r3, [r2, #8]
    76ac:	b153      	cbz	r3, 76c4 <mbed::SerialBase::_irq_handler(unsigned long, SerialIrq)+0x24>
    76ae:	eb01 0141 	add.w	r1, r1, r1, lsl #1
    76b2:	00c9      	lsls	r1, r1, #3
    76b4:	1842      	adds	r2, r0, r1
    76b6:	68d2      	ldr	r2, [r2, #12]
    76b8:	b11a      	cbz	r2, 76c2 <mbed::SerialBase::_irq_handler(unsigned long, SerialIrq)+0x22>
    76ba:	4401      	add	r1, r0
    76bc:	3110      	adds	r1, #16
    76be:	4610      	mov	r0, r2
    76c0:	4718      	bx	r3
    76c2:	4770      	bx	lr
    76c4:	eb01 0341 	add.w	r3, r1, r1, lsl #1
    76c8:	eb00 01c3 	add.w	r1, r0, r3, lsl #3
    76cc:	68cb      	ldr	r3, [r1, #12]
    76ce:	2b00      	cmp	r3, #0
    76d0:	d0f7      	beq.n	76c2 <mbed::SerialBase::_irq_handler(unsigned long, SerialIrq)+0x22>
    76d2:	4718      	bx	r3

000076d4 <mbed::SerialBase::SerialBase(PinName, PinName)>:
    76d4:	b570      	push	{r4, r5, r6, lr}
    76d6:	4604      	mov	r4, r0
    76d8:	4e0b      	ldr	r6, [pc, #44]	; (7708 <mbed::SerialBase::SerialBase(PinName, PinName)+0x34>)
    76da:	2300      	movs	r3, #0
    76dc:	1d25      	adds	r5, r4, #4
    76de:	f44f 5016 	mov.w	r0, #9600	; 0x2580
    76e2:	63e0      	str	r0, [r4, #60]	; 0x3c
    76e4:	6063      	str	r3, [r4, #4]
    76e6:	4628      	mov	r0, r5
    76e8:	60a3      	str	r3, [r4, #8]
    76ea:	60e3      	str	r3, [r4, #12]
    76ec:	6223      	str	r3, [r4, #32]
    76ee:	6263      	str	r3, [r4, #36]	; 0x24
    76f0:	63a3      	str	r3, [r4, #56]	; 0x38
    76f2:	6026      	str	r6, [r4, #0]
    76f4:	f7ff fd86 	bl	7204 <serial_init>
    76f8:	4628      	mov	r0, r5
    76fa:	4622      	mov	r2, r4
    76fc:	4903      	ldr	r1, [pc, #12]	; (770c <mbed::SerialBase::SerialBase(PinName, PinName)+0x38>)
    76fe:	f7ff fc63 	bl	6fc8 <serial_irq_handler>
    7702:	4620      	mov	r0, r4
    7704:	bd70      	pop	{r4, r5, r6, pc}
    7706:	bf00      	nop
    7708:	0000b46c 	.word	0x0000b46c
    770c:	000076a1 	.word	0x000076a1

00007710 <mbed::SerialBase::baud(int)>:
    7710:	b538      	push	{r3, r4, r5, lr}
    7712:	4604      	mov	r4, r0
    7714:	460d      	mov	r5, r1
    7716:	3004      	adds	r0, #4
    7718:	f7ff fb6e 	bl	6df8 <serial_baud>
    771c:	63e5      	str	r5, [r4, #60]	; 0x3c
    771e:	bd38      	pop	{r3, r4, r5, pc}

00007720 <mbed::SerialBase::_base_getc()>:
    7720:	3004      	adds	r0, #4
    7722:	f7ff bc73 	b.w	700c <serial_getc>
    7726:	bf00      	nop

00007728 <mbed::SerialBase::_base_putc(int)>:
    7728:	b510      	push	{r4, lr}
    772a:	460c      	mov	r4, r1
    772c:	3004      	adds	r0, #4
    772e:	f7ff fcb5 	bl	709c <serial_putc>
    7732:	4620      	mov	r0, r4
    7734:	bd10      	pop	{r4, pc}
    7736:	bf00      	nop

00007738 <mbed::Stream::write(void const*, unsigned int)>:
    7738:	b5f8      	push	{r3, r4, r5, r6, r7, lr}
    773a:	188e      	adds	r6, r1, r2
    773c:	42b1      	cmp	r1, r6
    773e:	460f      	mov	r7, r1
    7740:	d00e      	beq.n	7760 <mbed::Stream::write(void const*, unsigned int)+0x28>
    7742:	4605      	mov	r5, r0
    7744:	460c      	mov	r4, r1
    7746:	e001      	b.n	774c <mbed::Stream::write(void const*, unsigned int)+0x14>
    7748:	42a6      	cmp	r6, r4
    774a:	d007      	beq.n	775c <mbed::Stream::write(void const*, unsigned int)+0x24>
    774c:	682b      	ldr	r3, [r5, #0]
    774e:	f814 1b01 	ldrb.w	r1, [r4], #1
    7752:	6a5b      	ldr	r3, [r3, #36]	; 0x24
    7754:	4628      	mov	r0, r5
    7756:	4798      	blx	r3
    7758:	3001      	adds	r0, #1
    775a:	d1f5      	bne.n	7748 <mbed::Stream::write(void const*, unsigned int)+0x10>
    775c:	1be0      	subs	r0, r4, r7
    775e:	bdf8      	pop	{r3, r4, r5, r6, r7, pc}
    7760:	460c      	mov	r4, r1
    7762:	e7fb      	b.n	775c <mbed::Stream::write(void const*, unsigned int)+0x24>

00007764 <mbed::Stream::read(void*, unsigned int)>:
    7764:	b5f8      	push	{r3, r4, r5, r6, r7, lr}
    7766:	188e      	adds	r6, r1, r2
    7768:	42b1      	cmp	r1, r6
    776a:	460f      	mov	r7, r1
    776c:	d00e      	beq.n	778c <mbed::Stream::read(void*, unsigned int)+0x28>
    776e:	4605      	mov	r5, r0
    7770:	460c      	mov	r4, r1
    7772:	e003      	b.n	777c <mbed::Stream::read(void*, unsigned int)+0x18>
    7774:	f804 0b01 	strb.w	r0, [r4], #1
    7778:	42a6      	cmp	r6, r4
    777a:	d005      	beq.n	7788 <mbed::Stream::read(void*, unsigned int)+0x24>
    777c:	682b      	ldr	r3, [r5, #0]
    777e:	4628      	mov	r0, r5
    7780:	6a9b      	ldr	r3, [r3, #40]	; 0x28
    7782:	4798      	blx	r3
    7784:	1c43      	adds	r3, r0, #1
    7786:	d1f5      	bne.n	7774 <mbed::Stream::read(void*, unsigned int)+0x10>
    7788:	1be0      	subs	r0, r4, r7
    778a:	bdf8      	pop	{r3, r4, r5, r6, r7, pc}
    778c:	460c      	mov	r4, r1
    778e:	e7fb      	b.n	7788 <mbed::Stream::read(void*, unsigned int)+0x24>

00007790 <mbed::Stream::lseek(long, int)>:
    7790:	2000      	movs	r0, #0
    7792:	4770      	bx	lr

00007794 <mbed::Stream::close()>:
    7794:	2000      	movs	r0, #0
    7796:	4770      	bx	lr

00007798 <mbed::Stream::flen()>:
    7798:	2000      	movs	r0, #0
    779a:	4770      	bx	lr

0000779c <mbed::Stream::Stream(char const*)>:
    779c:	b510      	push	{r4, lr}
    779e:	4604      	mov	r4, r0
    77a0:	b084      	sub	sp, #16
    77a2:	f7ff fed7 	bl	7554 <mbed::FileLike::FileLike(char const*)>
    77a6:	4b0b      	ldr	r3, [pc, #44]	; (77d4 <mbed::Stream::Stream(char const*)+0x38>)
    77a8:	2200      	movs	r2, #0
    77aa:	f103 0108 	add.w	r1, r3, #8
    77ae:	333c      	adds	r3, #60	; 0x3c
    77b0:	e884 000a 	stmia.w	r4, {r1, r3}
    77b4:	6162      	str	r2, [r4, #20]
    77b6:	a801      	add	r0, sp, #4
    77b8:	4622      	mov	r2, r4
    77ba:	4907      	ldr	r1, [pc, #28]	; (77d8 <mbed::Stream::Stream(char const*)+0x3c>)
    77bc:	f002 fc3a 	bl	a034 <siprintf>
    77c0:	4906      	ldr	r1, [pc, #24]	; (77dc <mbed::Stream::Stream(char const*)+0x40>)
    77c2:	a801      	add	r0, sp, #4
    77c4:	f001 fbc0 	bl	8f48 <fopen>
    77c8:	6160      	str	r0, [r4, #20]
    77ca:	f000 f9d3 	bl	7b74 <mbed::mbed_set_unbuffered_stream(__sFILE*)>
    77ce:	4620      	mov	r0, r4
    77d0:	b004      	add	sp, #16
    77d2:	bd10      	pop	{r4, pc}
    77d4:	0000b474 	.word	0x0000b474
    77d8:	0000b4b8 	.word	0x0000b4b8
    77dc:	0000b4bc 	.word	0x0000b4bc

000077e0 <mbed::Stream::~Stream()>:
    77e0:	b510      	push	{r4, lr}
    77e2:	4604      	mov	r4, r0
    77e4:	4b06      	ldr	r3, [pc, #24]	; (7800 <mbed::Stream::~Stream()+0x20>)
    77e6:	6940      	ldr	r0, [r0, #20]
    77e8:	f103 0208 	add.w	r2, r3, #8
    77ec:	333c      	adds	r3, #60	; 0x3c
    77ee:	e884 000c 	stmia.w	r4, {r2, r3}
    77f2:	f001 f9bd 	bl	8b70 <fclose>
    77f6:	4620      	mov	r0, r4
    77f8:	f7ff fec0 	bl	757c <mbed::FileLike::~FileLike()>
    77fc:	4620      	mov	r0, r4
    77fe:	bd10      	pop	{r4, pc}
    7800:	0000b474 	.word	0x0000b474

00007804 <mbed::Stream::putc(int)>:
    7804:	b538      	push	{r3, r4, r5, lr}
    7806:	460d      	mov	r5, r1
    7808:	4604      	mov	r4, r0
    780a:	6940      	ldr	r0, [r0, #20]
    780c:	f001 fa68 	bl	8ce0 <fflush>
    7810:	6961      	ldr	r1, [r4, #20]
    7812:	4628      	mov	r0, r5
    7814:	e8bd 4038 	ldmia.w	sp!, {r3, r4, r5, lr}
    7818:	f001 bbc2 	b.w	8fa0 <fputc>

0000781c <mbed::Stream::getc()>:
    781c:	b510      	push	{r4, lr}
    781e:	4604      	mov	r4, r0
    7820:	6940      	ldr	r0, [r0, #20]
    7822:	f001 fa5d 	bl	8ce0 <fflush>
    7826:	6960      	ldr	r0, [r4, #20]
    7828:	e8bd 4010 	ldmia.w	sp!, {r4, lr}
    782c:	f000 b9a6 	b.w	7b7c <mbed::mbed_getc(__sFILE*)>

00007830 <mbed::Timer::slicetime() [clone .part.0]>:
    7830:	b510      	push	{r4, lr}
    7832:	4604      	mov	r4, r0
    7834:	68c0      	ldr	r0, [r0, #12]
    7836:	f7ff f883 	bl	6940 <ticker_read>
    783a:	6863      	ldr	r3, [r4, #4]
    783c:	1ac0      	subs	r0, r0, r3
    783e:	bd10      	pop	{r4, pc}

00007840 <mbed::Timer::Timer()>:
    7840:	b538      	push	{r3, r4, r5, lr}
    7842:	2500      	movs	r5, #0
    7844:	6005      	str	r5, [r0, #0]
    7846:	6045      	str	r5, [r0, #4]
    7848:	6085      	str	r5, [r0, #8]
    784a:	4604      	mov	r4, r0
    784c:	f7ff f87c 	bl	6948 <get_us_ticker_data>
    7850:	60e0      	str	r0, [r4, #12]
    7852:	f7ff f875 	bl	6940 <ticker_read>
    7856:	60a5      	str	r5, [r4, #8]
    7858:	6060      	str	r0, [r4, #4]
    785a:	4620      	mov	r0, r4
    785c:	bd38      	pop	{r3, r4, r5, pc}
    785e:	bf00      	nop

00007860 <mbed::Timer::start()>:
    7860:	6803      	ldr	r3, [r0, #0]
    7862:	b103      	cbz	r3, 7866 <mbed::Timer::start()+0x6>
    7864:	4770      	bx	lr
    7866:	b510      	push	{r4, lr}
    7868:	4604      	mov	r4, r0
    786a:	68c0      	ldr	r0, [r0, #12]
    786c:	f7ff f868 	bl	6940 <ticker_read>
    7870:	2301      	movs	r3, #1
    7872:	6060      	str	r0, [r4, #4]
    7874:	6023      	str	r3, [r4, #0]
    7876:	bd10      	pop	{r4, pc}

00007878 <mbed::Timer::read_ms()>:
    7878:	6803      	ldr	r3, [r0, #0]
    787a:	b510      	push	{r4, lr}
    787c:	6884      	ldr	r4, [r0, #8]
    787e:	b113      	cbz	r3, 7886 <mbed::Timer::read_ms()+0xe>
    7880:	f7ff ffd6 	bl	7830 <mbed::Timer::slicetime() [clone .part.0]>
    7884:	4603      	mov	r3, r0
    7886:	4804      	ldr	r0, [pc, #16]	; (7898 <mbed::Timer::read_ms()+0x20>)
    7888:	4423      	add	r3, r4
    788a:	fb80 2003 	smull	r2, r0, r0, r3
    788e:	17db      	asrs	r3, r3, #31
    7890:	ebc3 10a0 	rsb	r0, r3, r0, asr #6
    7894:	bd10      	pop	{r4, pc}
    7896:	bf00      	nop
    7898:	10624dd3 	.word	0x10624dd3

0000789c <init_serial() [clone .part.0]>:
    789c:	4a02      	ldr	r2, [pc, #8]	; (78a8 <init_serial() [clone .part.0]+0xc>)
    789e:	4903      	ldr	r1, [pc, #12]	; (78ac <init_serial() [clone .part.0]+0x10>)
    78a0:	4803      	ldr	r0, [pc, #12]	; (78b0 <init_serial() [clone .part.0]+0x14>)
    78a2:	f7ff bcaf 	b.w	7204 <serial_init>
    78a6:	bf00      	nop
    78a8:	2009c003 	.word	0x2009c003
    78ac:	2009c002 	.word	0x2009c002
    78b0:	10000ba4 	.word	0x10000ba4

000078b4 <mbed::FileHandle::~FileHandle()>:
    78b4:	4a07      	ldr	r2, [pc, #28]	; (78d4 <mbed::FileHandle::~FileHandle()+0x20>)
    78b6:	4b08      	ldr	r3, [pc, #32]	; (78d8 <mbed::FileHandle::~FileHandle()+0x24>)
    78b8:	b410      	push	{r4}
    78ba:	6002      	str	r2, [r0, #0]
    78bc:	f503 7180 	add.w	r1, r3, #256	; 0x100
    78c0:	2400      	movs	r4, #0
    78c2:	f853 2f04 	ldr.w	r2, [r3, #4]!
    78c6:	4290      	cmp	r0, r2
    78c8:	bf08      	it	eq
    78ca:	601c      	streq	r4, [r3, #0]
    78cc:	428b      	cmp	r3, r1
    78ce:	d1f8      	bne.n	78c2 <mbed::FileHandle::~FileHandle()+0xe>
    78d0:	bc10      	pop	{r4}
    78d2:	4770      	bx	lr
    78d4:	0000b4e0 	.word	0x0000b4e0
    78d8:	10000a94 	.word	0x10000a94

000078dc <_open>:
    78dc:	b5f0      	push	{r4, r5, r6, r7, lr}
    78de:	460e      	mov	r6, r1
    78e0:	b085      	sub	sp, #20
    78e2:	4937      	ldr	r1, [pc, #220]	; (79c0 <_open+0xe4>)
    78e4:	4605      	mov	r5, r0
    78e6:	f002 fc38 	bl	a15a <strcmp>
    78ea:	b928      	cbnz	r0, 78f8 <_open+0x1c>
    78ec:	4b35      	ldr	r3, [pc, #212]	; (79c4 <_open+0xe8>)
    78ee:	681b      	ldr	r3, [r3, #0]
    78f0:	2b00      	cmp	r3, #0
    78f2:	d042      	beq.n	797a <_open+0x9e>
    78f4:	b005      	add	sp, #20
    78f6:	bdf0      	pop	{r4, r5, r6, r7, pc}
    78f8:	4933      	ldr	r1, [pc, #204]	; (79c8 <_open+0xec>)
    78fa:	4628      	mov	r0, r5
    78fc:	f002 fc2d 	bl	a15a <strcmp>
    7900:	b930      	cbnz	r0, 7910 <_open+0x34>
    7902:	4b30      	ldr	r3, [pc, #192]	; (79c4 <_open+0xe8>)
    7904:	681b      	ldr	r3, [r3, #0]
    7906:	2b00      	cmp	r3, #0
    7908:	d042      	beq.n	7990 <_open+0xb4>
    790a:	2001      	movs	r0, #1
    790c:	b005      	add	sp, #20
    790e:	bdf0      	pop	{r4, r5, r6, r7, pc}
    7910:	492e      	ldr	r1, [pc, #184]	; (79cc <_open+0xf0>)
    7912:	4628      	mov	r0, r5
    7914:	f002 fc21 	bl	a15a <strcmp>
    7918:	2800      	cmp	r0, #0
    791a:	d034      	beq.n	7986 <_open+0xaa>
    791c:	4b2c      	ldr	r3, [pc, #176]	; (79d0 <_open+0xf4>)
    791e:	2400      	movs	r4, #0
    7920:	e002      	b.n	7928 <_open+0x4c>
    7922:	3401      	adds	r4, #1
    7924:	2c40      	cmp	r4, #64	; 0x40
    7926:	d03c      	beq.n	79a2 <_open+0xc6>
    7928:	f853 2f04 	ldr.w	r2, [r3, #4]!
    792c:	2a00      	cmp	r2, #0
    792e:	d1f8      	bne.n	7922 <_open+0x46>
    7930:	782b      	ldrb	r3, [r5, #0]
    7932:	2b3a      	cmp	r3, #58	; 0x3a
    7934:	d03c      	beq.n	79b0 <_open+0xd4>
    7936:	4629      	mov	r1, r5
    7938:	a802      	add	r0, sp, #8
    793a:	f7ff fe31 	bl	75a0 <mbed::FilePath::FilePath(char const*)>
    793e:	a802      	add	r0, sp, #8
    7940:	f7ff fe84 	bl	764c <mbed::FilePath::exists()>
    7944:	b368      	cbz	r0, 79a2 <_open+0xc6>
    7946:	a802      	add	r0, sp, #8
    7948:	f7ff fe66 	bl	7618 <mbed::FilePath::isFile()>
    794c:	bb20      	cbnz	r0, 7998 <_open+0xbc>
    794e:	a802      	add	r0, sp, #8
    7950:	f7ff fe52 	bl	75f8 <mbed::FilePath::fileSystem()>
    7954:	4605      	mov	r5, r0
    7956:	b320      	cbz	r0, 79a2 <_open+0xc6>
    7958:	6803      	ldr	r3, [r0, #0]
    795a:	a802      	add	r0, sp, #8
    795c:	689f      	ldr	r7, [r3, #8]
    795e:	f7ff fe49 	bl	75f4 <mbed::FilePath::fileName()>
    7962:	4632      	mov	r2, r6
    7964:	4601      	mov	r1, r0
    7966:	4628      	mov	r0, r5
    7968:	47b8      	blx	r7
    796a:	4603      	mov	r3, r0
    796c:	b1cb      	cbz	r3, 79a2 <_open+0xc6>
    796e:	4a19      	ldr	r2, [pc, #100]	; (79d4 <_open+0xf8>)
    7970:	1ce0      	adds	r0, r4, #3
    7972:	f842 3024 	str.w	r3, [r2, r4, lsl #2]
    7976:	b005      	add	sp, #20
    7978:	bdf0      	pop	{r4, r5, r6, r7, pc}
    797a:	9001      	str	r0, [sp, #4]
    797c:	f7ff ff8e 	bl	789c <init_serial() [clone .part.0]>
    7980:	9801      	ldr	r0, [sp, #4]
    7982:	b005      	add	sp, #20
    7984:	bdf0      	pop	{r4, r5, r6, r7, pc}
    7986:	4b0f      	ldr	r3, [pc, #60]	; (79c4 <_open+0xe8>)
    7988:	681b      	ldr	r3, [r3, #0]
    798a:	b16b      	cbz	r3, 79a8 <_open+0xcc>
    798c:	2002      	movs	r0, #2
    798e:	e7b1      	b.n	78f4 <_open+0x18>
    7990:	f7ff ff84 	bl	789c <init_serial() [clone .part.0]>
    7994:	2001      	movs	r0, #1
    7996:	e7ad      	b.n	78f4 <_open+0x18>
    7998:	a802      	add	r0, sp, #8
    799a:	f7ff fe47 	bl	762c <mbed::FilePath::file()>
    799e:	4603      	mov	r3, r0
    79a0:	e7e4      	b.n	796c <_open+0x90>
    79a2:	f04f 30ff 	mov.w	r0, #4294967295
    79a6:	e7a5      	b.n	78f4 <_open+0x18>
    79a8:	f7ff ff78 	bl	789c <init_serial() [clone .part.0]>
    79ac:	2002      	movs	r0, #2
    79ae:	e7a1      	b.n	78f4 <_open+0x18>
    79b0:	4628      	mov	r0, r5
    79b2:	aa02      	add	r2, sp, #8
    79b4:	4908      	ldr	r1, [pc, #32]	; (79d8 <_open+0xfc>)
    79b6:	f002 fb61 	bl	a07c <siscanf>
    79ba:	9b02      	ldr	r3, [sp, #8]
    79bc:	e7d6      	b.n	796c <_open+0x90>
    79be:	bf00      	nop
    79c0:	0000b4c0 	.word	0x0000b4c0
    79c4:	100009a8 	.word	0x100009a8
    79c8:	0000b4d0 	.word	0x0000b4d0
    79cc:	0000b4c8 	.word	0x0000b4c8
    79d0:	10000a94 	.word	0x10000a94
    79d4:	10000a98 	.word	0x10000a98
    79d8:	0000b4b8 	.word	0x0000b4b8

000079dc <_close>:
    79dc:	2802      	cmp	r0, #2
    79de:	dd0a      	ble.n	79f6 <_close+0x1a>
    79e0:	4a07      	ldr	r2, [pc, #28]	; (7a00 <_close+0x24>)
    79e2:	1ec3      	subs	r3, r0, #3
    79e4:	f852 0023 	ldr.w	r0, [r2, r3, lsl #2]
    79e8:	2100      	movs	r1, #0
    79ea:	f842 1023 	str.w	r1, [r2, r3, lsl #2]
    79ee:	b120      	cbz	r0, 79fa <_close+0x1e>
    79f0:	6803      	ldr	r3, [r0, #0]
    79f2:	685b      	ldr	r3, [r3, #4]
    79f4:	4718      	bx	r3
    79f6:	2000      	movs	r0, #0
    79f8:	4770      	bx	lr
    79fa:	f04f 30ff 	mov.w	r0, #4294967295
    79fe:	4770      	bx	lr
    7a00:	10000a98 	.word	0x10000a98

00007a04 <_write>:
    7a04:	2802      	cmp	r0, #2
    7a06:	dc12      	bgt.n	7a2e <_write+0x2a>
    7a08:	4b0e      	ldr	r3, [pc, #56]	; (7a44 <_write+0x40>)
    7a0a:	b570      	push	{r4, r5, r6, lr}
    7a0c:	681b      	ldr	r3, [r3, #0]
    7a0e:	460c      	mov	r4, r1
    7a10:	4616      	mov	r6, r2
    7a12:	b90b      	cbnz	r3, 7a18 <_write+0x14>
    7a14:	f7ff ff42 	bl	789c <init_serial() [clone .part.0]>
    7a18:	19a5      	adds	r5, r4, r6
    7a1a:	b136      	cbz	r6, 7a2a <_write+0x26>
    7a1c:	f814 1b01 	ldrb.w	r1, [r4], #1
    7a20:	4809      	ldr	r0, [pc, #36]	; (7a48 <_write+0x44>)
    7a22:	f7ff fb3b 	bl	709c <serial_putc>
    7a26:	42ac      	cmp	r4, r5
    7a28:	d1f8      	bne.n	7a1c <_write+0x18>
    7a2a:	4630      	mov	r0, r6
    7a2c:	bd70      	pop	{r4, r5, r6, pc}
    7a2e:	4b07      	ldr	r3, [pc, #28]	; (7a4c <_write+0x48>)
    7a30:	3803      	subs	r0, #3
    7a32:	f853 0020 	ldr.w	r0, [r3, r0, lsl #2]
    7a36:	b110      	cbz	r0, 7a3e <_write+0x3a>
    7a38:	6803      	ldr	r3, [r0, #0]
    7a3a:	681b      	ldr	r3, [r3, #0]
    7a3c:	4718      	bx	r3
    7a3e:	f04f 30ff 	mov.w	r0, #4294967295
    7a42:	4770      	bx	lr
    7a44:	100009a8 	.word	0x100009a8
    7a48:	10000ba4 	.word	0x10000ba4
    7a4c:	10000a98 	.word	0x10000a98

00007a50 <_read>:
    7a50:	2802      	cmp	r0, #2
    7a52:	dc0d      	bgt.n	7a70 <_read+0x20>
    7a54:	4b0c      	ldr	r3, [pc, #48]	; (7a88 <_read+0x38>)
    7a56:	b510      	push	{r4, lr}
    7a58:	681b      	ldr	r3, [r3, #0]
    7a5a:	460c      	mov	r4, r1
    7a5c:	b90b      	cbnz	r3, 7a62 <_read+0x12>
    7a5e:	f7ff ff1d 	bl	789c <init_serial() [clone .part.0]>
    7a62:	480a      	ldr	r0, [pc, #40]	; (7a8c <_read+0x3c>)
    7a64:	f7ff fad2 	bl	700c <serial_getc>
    7a68:	2301      	movs	r3, #1
    7a6a:	7020      	strb	r0, [r4, #0]
    7a6c:	4618      	mov	r0, r3
    7a6e:	bd10      	pop	{r4, pc}
    7a70:	4b07      	ldr	r3, [pc, #28]	; (7a90 <_read+0x40>)
    7a72:	3803      	subs	r0, #3
    7a74:	f853 0020 	ldr.w	r0, [r3, r0, lsl #2]
    7a78:	b110      	cbz	r0, 7a80 <_read+0x30>
    7a7a:	6803      	ldr	r3, [r0, #0]
    7a7c:	689b      	ldr	r3, [r3, #8]
    7a7e:	4718      	bx	r3
    7a80:	f04f 33ff 	mov.w	r3, #4294967295
    7a84:	4618      	mov	r0, r3
    7a86:	4770      	bx	lr
    7a88:	100009a8 	.word	0x100009a8
    7a8c:	10000ba4 	.word	0x10000ba4
    7a90:	10000a98 	.word	0x10000a98

00007a94 <_isatty>:
    7a94:	2802      	cmp	r0, #2
    7a96:	dd07      	ble.n	7aa8 <_isatty+0x14>
    7a98:	4b06      	ldr	r3, [pc, #24]	; (7ab4 <_isatty+0x20>)
    7a9a:	3803      	subs	r0, #3
    7a9c:	f853 0020 	ldr.w	r0, [r3, r0, lsl #2]
    7aa0:	b120      	cbz	r0, 7aac <_isatty+0x18>
    7aa2:	6803      	ldr	r3, [r0, #0]
    7aa4:	68db      	ldr	r3, [r3, #12]
    7aa6:	4718      	bx	r3
    7aa8:	2001      	movs	r0, #1
    7aaa:	4770      	bx	lr
    7aac:	f04f 30ff 	mov.w	r0, #4294967295
    7ab0:	4770      	bx	lr
    7ab2:	bf00      	nop
    7ab4:	10000a98 	.word	0x10000a98

00007ab8 <_lseek>:
    7ab8:	2802      	cmp	r0, #2
    7aba:	dd07      	ble.n	7acc <_lseek+0x14>
    7abc:	4b06      	ldr	r3, [pc, #24]	; (7ad8 <_lseek+0x20>)
    7abe:	3803      	subs	r0, #3
    7ac0:	f853 0020 	ldr.w	r0, [r3, r0, lsl #2]
    7ac4:	b120      	cbz	r0, 7ad0 <_lseek+0x18>
    7ac6:	6803      	ldr	r3, [r0, #0]
    7ac8:	691b      	ldr	r3, [r3, #16]
    7aca:	4718      	bx	r3
    7acc:	2000      	movs	r0, #0
    7ace:	4770      	bx	lr
    7ad0:	f04f 30ff 	mov.w	r0, #4294967295
    7ad4:	4770      	bx	lr
    7ad6:	bf00      	nop
    7ad8:	10000a98 	.word	0x10000a98

00007adc <_fstat>:
    7adc:	2802      	cmp	r0, #2
    7ade:	b508      	push	{r3, lr}
    7ae0:	d804      	bhi.n	7aec <_fstat+0x10>
    7ae2:	f44f 5300 	mov.w	r3, #8192	; 0x2000
    7ae6:	604b      	str	r3, [r1, #4]
    7ae8:	2000      	movs	r0, #0
    7aea:	bd08      	pop	{r3, pc}
    7aec:	f000 ffd4 	bl	8a98 <__errno>
    7af0:	2309      	movs	r3, #9
    7af2:	6003      	str	r3, [r0, #0]
    7af4:	f04f 30ff 	mov.w	r0, #4294967295
    7af8:	bd08      	pop	{r3, pc}
    7afa:	bf00      	nop

00007afc <mbed_main>:
    7afc:	4770      	bx	lr
    7afe:	bf00      	nop

00007b00 <mbed_sdk_init>:
    7b00:	4770      	bx	lr
    7b02:	bf00      	nop

00007b04 <__wrap_main>:
    7b04:	b508      	push	{r3, lr}
    7b06:	f7ff fffb 	bl	7b00 <mbed_sdk_init>
    7b0a:	f7ff fff7 	bl	7afc <mbed_main>
    7b0e:	e8bd 4008 	ldmia.w	sp!, {r3, lr}
    7b12:	f7fc baa3 	b.w	405c <main>
    7b16:	bf00      	nop

00007b18 <_sbrk>:
    7b18:	4a07      	ldr	r2, [pc, #28]	; (7b38 <_sbrk+0x20>)
    7b1a:	6813      	ldr	r3, [r2, #0]
    7b1c:	1819      	adds	r1, r3, r0
    7b1e:	f3ef 8008 	mrs	r0, MSP
    7b22:	4281      	cmp	r1, r0
    7b24:	d202      	bcs.n	7b2c <_sbrk+0x14>
    7b26:	4618      	mov	r0, r3
    7b28:	6011      	str	r1, [r2, #0]
    7b2a:	4770      	bx	lr
    7b2c:	4b03      	ldr	r3, [pc, #12]	; (7b3c <_sbrk+0x24>)
    7b2e:	220c      	movs	r2, #12
    7b30:	601a      	str	r2, [r3, #0]
    7b32:	f04f 30ff 	mov.w	r0, #4294967295
    7b36:	4770      	bx	lr
    7b38:	10000134 	.word	0x10000134
    7b3c:	10000bac 	.word	0x10000bac

00007b40 <_exit>:
    7b40:	4c0b      	ldr	r4, [pc, #44]	; (7b70 <_exit+0x30>)
    7b42:	b508      	push	{r3, lr}
    7b44:	6823      	ldr	r3, [r4, #0]
    7b46:	4605      	mov	r5, r0
    7b48:	6898      	ldr	r0, [r3, #8]
    7b4a:	f001 f8c9 	bl	8ce0 <fflush>
    7b4e:	6823      	ldr	r3, [r4, #0]
    7b50:	68d8      	ldr	r0, [r3, #12]
    7b52:	f001 f8c5 	bl	8ce0 <fflush>
    7b56:	f7fe fe55 	bl	6804 <mbed_interface_connected>
    7b5a:	b920      	cbnz	r0, 7b66 <_exit+0x26>
    7b5c:	b905      	cbnz	r5, 7b60 <_exit+0x20>
    7b5e:	e7fe      	b.n	7b5e <_exit+0x1e>
    7b60:	f7fe fdc0 	bl	66e4 <mbed_die>
    7b64:	e7fb      	b.n	7b5e <_exit+0x1e>
    7b66:	f7fe feb1 	bl	68cc <semihost_exit>
    7b6a:	2d00      	cmp	r5, #0
    7b6c:	d0f7      	beq.n	7b5e <_exit+0x1e>
    7b6e:	e7f7      	b.n	7b60 <_exit+0x20>
    7b70:	10000198 	.word	0x10000198

00007b74 <mbed::mbed_set_unbuffered_stream(__sFILE*)>:
    7b74:	2100      	movs	r1, #0
    7b76:	f002 b9cd 	b.w	9f14 <setbuf>
    7b7a:	bf00      	nop

00007b7c <mbed::mbed_getc(__sFILE*)>:
    7b7c:	f001 b8ee 	b.w	8d5c <fgetc>

00007b80 <Reset_Handler>:
    7b80:	4906      	ldr	r1, [pc, #24]	; (7b9c <Reset_Handler+0x1c>)
    7b82:	4a07      	ldr	r2, [pc, #28]	; (7ba0 <Reset_Handler+0x20>)
    7b84:	4b07      	ldr	r3, [pc, #28]	; (7ba4 <Reset_Handler+0x24>)
    7b86:	429a      	cmp	r2, r3
    7b88:	bfbe      	ittt	lt
    7b8a:	f851 0b04 	ldrlt.w	r0, [r1], #4
    7b8e:	f842 0b04 	strlt.w	r0, [r2], #4
    7b92:	e7f8      	blt.n	7b86 <Reset_Handler+0x6>
    7b94:	4804      	ldr	r0, [pc, #16]	; (7ba8 <Reset_Handler+0x28>)
    7b96:	4780      	blx	r0
    7b98:	4804      	ldr	r0, [pc, #16]	; (7bac <Reset_Handler+0x2c>)
    7b9a:	4700      	bx	r0
    7b9c:	0000b6d8 	.word	0x0000b6d8
    7ba0:	100000c8 	.word	0x100000c8
    7ba4:	100001ac 	.word	0x100001ac
    7ba8:	000069d5 	.word	0x000069d5
    7bac:	00005f7d 	.word	0x00005f7d

00007bb0 <NMI_Handler>:
    7bb0:	e7fe      	b.n	7bb0 <NMI_Handler>

00007bb2 <HardFault_Handler>:
    7bb2:	e7fe      	b.n	7bb2 <HardFault_Handler>

00007bb4 <MemManage_Handler>:
    7bb4:	e7fe      	b.n	7bb4 <MemManage_Handler>

00007bb6 <BusFault_Handler>:
    7bb6:	e7fe      	b.n	7bb6 <BusFault_Handler>

00007bb8 <UsageFault_Handler>:
    7bb8:	e7fe      	b.n	7bb8 <UsageFault_Handler>

00007bba <SVC_Handler>:
    7bba:	e7fe      	b.n	7bba <SVC_Handler>

00007bbc <DebugMon_Handler>:
    7bbc:	e7fe      	b.n	7bbc <DebugMon_Handler>

00007bbe <PendSV_Handler>:
    7bbe:	e7fe      	b.n	7bbe <PendSV_Handler>

00007bc0 <SysTick_Handler>:
    7bc0:	e7fe      	b.n	7bc0 <SysTick_Handler>

00007bc2 <ADC_IRQHandler>:
    7bc2:	e7fe      	b.n	7bc2 <ADC_IRQHandler>

00007bc4 <__aeabi_atexit>:
    7bc4:	460b      	mov	r3, r1
    7bc6:	4601      	mov	r1, r0
    7bc8:	4618      	mov	r0, r3
    7bca:	f000 bf57 	b.w	8a7c <__cxa_atexit>

00007bce <operator delete(void*)>:
    7bce:	f7fe b9fb 	b.w	5fc8 <__wrap_free>

00007bd2 <operator new(unsigned int)>:
    7bd2:	b510      	push	{r4, lr}
    7bd4:	2800      	cmp	r0, #0
    7bd6:	bf14      	ite	ne
    7bd8:	4604      	movne	r4, r0
    7bda:	2401      	moveq	r4, #1
    7bdc:	4620      	mov	r0, r4
    7bde:	f7fe f9e7 	bl	5fb0 <__wrap_malloc>
    7be2:	b930      	cbnz	r0, 7bf2 <operator new(unsigned int)+0x20>
    7be4:	f000 f806 	bl	7bf4 <std::get_new_handler()>
    7be8:	b908      	cbnz	r0, 7bee <operator new(unsigned int)+0x1c>
    7bea:	f7fe f9f3 	bl	5fd4 <abort>
    7bee:	4780      	blx	r0
    7bf0:	e7f4      	b.n	7bdc <operator new(unsigned int)+0xa>
    7bf2:	bd10      	pop	{r4, pc}

00007bf4 <std::get_new_handler()>:
    7bf4:	4b02      	ldr	r3, [pc, #8]	; (7c00 <std::get_new_handler()+0xc>)
    7bf6:	6818      	ldr	r0, [r3, #0]
    7bf8:	f3bf 8f5f 	dmb	sy
    7bfc:	4770      	bx	lr
    7bfe:	bf00      	nop
    7c00:	10000b98 	.word	0x10000b98

00007c04 <__aeabi_drsub>:
    7c04:	f081 4100 	eor.w	r1, r1, #2147483648	; 0x80000000
    7c08:	e002      	b.n	7c10 <__adddf3>
    7c0a:	bf00      	nop

00007c0c <__aeabi_dsub>:
    7c0c:	f083 4300 	eor.w	r3, r3, #2147483648	; 0x80000000

00007c10 <__adddf3>:
    7c10:	b530      	push	{r4, r5, lr}
    7c12:	ea4f 0441 	mov.w	r4, r1, lsl #1
    7c16:	ea4f 0543 	mov.w	r5, r3, lsl #1
    7c1a:	ea94 0f05 	teq	r4, r5
    7c1e:	bf08      	it	eq
    7c20:	ea90 0f02 	teqeq	r0, r2
    7c24:	bf1f      	itttt	ne
    7c26:	ea54 0c00 	orrsne.w	r12, r4, r0
    7c2a:	ea55 0c02 	orrsne.w	r12, r5, r2
    7c2e:	ea7f 5c64 	mvnsne.w	r12, r4, asr #21
    7c32:	ea7f 5c65 	mvnsne.w	r12, r5, asr #21
    7c36:	f000 80e2 	beq.w	7dfe <__adddf3+0x1ee>
    7c3a:	ea4f 5454 	mov.w	r4, r4, lsr #21
    7c3e:	ebd4 5555 	rsbs	r5, r4, r5, lsr #21
    7c42:	bfb8      	it	lt
    7c44:	426d      	neglt	r5, r5
    7c46:	dd0c      	ble.n	7c62 <__adddf3+0x52>
    7c48:	442c      	add	r4, r5
    7c4a:	ea80 0202 	eor.w	r2, r0, r2
    7c4e:	ea81 0303 	eor.w	r3, r1, r3
    7c52:	ea82 0000 	eor.w	r0, r2, r0
    7c56:	ea83 0101 	eor.w	r1, r3, r1
    7c5a:	ea80 0202 	eor.w	r2, r0, r2
    7c5e:	ea81 0303 	eor.w	r3, r1, r3
    7c62:	2d36      	cmp	r5, #54	; 0x36
    7c64:	bf88      	it	hi
    7c66:	bd30      	pophi	{r4, r5, pc}
    7c68:	f011 4f00 	tst.w	r1, #2147483648	; 0x80000000
    7c6c:	ea4f 3101 	mov.w	r1, r1, lsl #12
    7c70:	f44f 1c80 	mov.w	r12, #1048576	; 0x100000
    7c74:	ea4c 3111 	orr.w	r1, r12, r1, lsr #12
    7c78:	d002      	beq.n	7c80 <__adddf3+0x70>
    7c7a:	4240      	negs	r0, r0
    7c7c:	eb61 0141 	sbc.w	r1, r1, r1, lsl #1
    7c80:	f013 4f00 	tst.w	r3, #2147483648	; 0x80000000
    7c84:	ea4f 3303 	mov.w	r3, r3, lsl #12
    7c88:	ea4c 3313 	orr.w	r3, r12, r3, lsr #12
    7c8c:	d002      	beq.n	7c94 <__adddf3+0x84>
    7c8e:	4252      	negs	r2, r2
    7c90:	eb63 0343 	sbc.w	r3, r3, r3, lsl #1
    7c94:	ea94 0f05 	teq	r4, r5
    7c98:	f000 80a7 	beq.w	7dea <__adddf3+0x1da>
    7c9c:	f1a4 0401 	sub.w	r4, r4, #1
    7ca0:	f1d5 0e20 	rsbs	lr, r5, #32
    7ca4:	db0d      	blt.n	7cc2 <__adddf3+0xb2>
    7ca6:	fa02 fc0e 	lsl.w	r12, r2, lr
    7caa:	fa22 f205 	lsr.w	r2, r2, r5
    7cae:	1880      	adds	r0, r0, r2
    7cb0:	f141 0100 	adc.w	r1, r1, #0
    7cb4:	fa03 f20e 	lsl.w	r2, r3, lr
    7cb8:	1880      	adds	r0, r0, r2
    7cba:	fa43 f305 	asr.w	r3, r3, r5
    7cbe:	4159      	adcs	r1, r3
    7cc0:	e00e      	b.n	7ce0 <__adddf3+0xd0>
    7cc2:	f1a5 0520 	sub.w	r5, r5, #32
    7cc6:	f10e 0e20 	add.w	lr, lr, #32
    7cca:	2a01      	cmp	r2, #1
    7ccc:	fa03 fc0e 	lsl.w	r12, r3, lr
    7cd0:	bf28      	it	cs
    7cd2:	f04c 0c02 	orrcs.w	r12, r12, #2
    7cd6:	fa43 f305 	asr.w	r3, r3, r5
    7cda:	18c0      	adds	r0, r0, r3
    7cdc:	eb51 71e3 	adcs.w	r1, r1, r3, asr #31
    7ce0:	f001 4500 	and.w	r5, r1, #2147483648	; 0x80000000
    7ce4:	d507      	bpl.n	7cf6 <__adddf3+0xe6>
    7ce6:	f04f 0e00 	mov.w	lr, #0
    7cea:	f1dc 0c00 	rsbs	r12, r12, #0
    7cee:	eb7e 0000 	sbcs.w	r0, lr, r0
    7cf2:	eb6e 0101 	sbc.w	r1, lr, r1
    7cf6:	f5b1 1f80 	cmp.w	r1, #1048576	; 0x100000
    7cfa:	d31b      	bcc.n	7d34 <__adddf3+0x124>
    7cfc:	f5b1 1f00 	cmp.w	r1, #2097152	; 0x200000
    7d00:	d30c      	bcc.n	7d1c <__adddf3+0x10c>
    7d02:	0849      	lsrs	r1, r1, #1
    7d04:	ea5f 0030 	movs.w	r0, r0, rrx
    7d08:	ea4f 0c3c 	mov.w	r12, r12, rrx
    7d0c:	f104 0401 	add.w	r4, r4, #1
    7d10:	ea4f 5244 	mov.w	r2, r4, lsl #21
    7d14:	f512 0f80 	cmn.w	r2, #4194304	; 0x400000
    7d18:	f080 809a 	bcs.w	7e50 <__adddf3+0x240>
    7d1c:	f1bc 4f00 	cmp.w	r12, #2147483648	; 0x80000000
    7d20:	bf08      	it	eq
    7d22:	ea5f 0c50 	movseq.w	r12, r0, lsr #1
    7d26:	f150 0000 	adcs.w	r0, r0, #0
    7d2a:	eb41 5104 	adc.w	r1, r1, r4, lsl #20
    7d2e:	ea41 0105 	orr.w	r1, r1, r5
    7d32:	bd30      	pop	{r4, r5, pc}
    7d34:	ea5f 0c4c 	movs.w	r12, r12, lsl #1
    7d38:	4140      	adcs	r0, r0
    7d3a:	eb41 0101 	adc.w	r1, r1, r1
    7d3e:	f411 1f80 	tst.w	r1, #1048576	; 0x100000
    7d42:	f1a4 0401 	sub.w	r4, r4, #1
    7d46:	d1e9      	bne.n	7d1c <__adddf3+0x10c>
    7d48:	f091 0f00 	teq	r1, #0
    7d4c:	bf04      	itt	eq
    7d4e:	4601      	moveq	r1, r0
    7d50:	2000      	moveq	r0, #0
    7d52:	fab1 f381 	clz	r3, r1
    7d56:	bf08      	it	eq
    7d58:	3320      	addeq	r3, #32
    7d5a:	f1a3 030b 	sub.w	r3, r3, #11
    7d5e:	f1b3 0220 	subs.w	r2, r3, #32
    7d62:	da0c      	bge.n	7d7e <__adddf3+0x16e>
    7d64:	320c      	adds	r2, #12
    7d66:	dd08      	ble.n	7d7a <__adddf3+0x16a>
    7d68:	f102 0c14 	add.w	r12, r2, #20
    7d6c:	f1c2 020c 	rsb	r2, r2, #12
    7d70:	fa01 f00c 	lsl.w	r0, r1, r12
    7d74:	fa21 f102 	lsr.w	r1, r1, r2
    7d78:	e00c      	b.n	7d94 <__adddf3+0x184>
    7d7a:	f102 0214 	add.w	r2, r2, #20
    7d7e:	bfd8      	it	le
    7d80:	f1c2 0c20 	rsble	r12, r2, #32
    7d84:	fa01 f102 	lsl.w	r1, r1, r2
    7d88:	fa20 fc0c 	lsr.w	r12, r0, r12
    7d8c:	bfdc      	itt	le
    7d8e:	ea41 010c 	orrle.w	r1, r1, r12
    7d92:	4090      	lslle	r0, r2
    7d94:	1ae4      	subs	r4, r4, r3
    7d96:	bfa2      	ittt	ge
    7d98:	eb01 5104 	addge.w	r1, r1, r4, lsl #20
    7d9c:	4329      	orrge	r1, r5
    7d9e:	bd30      	popge	{r4, r5, pc}
    7da0:	ea6f 0404 	mvn.w	r4, r4
    7da4:	3c1f      	subs	r4, #31
    7da6:	da1c      	bge.n	7de2 <__adddf3+0x1d2>
    7da8:	340c      	adds	r4, #12
    7daa:	dc0e      	bgt.n	7dca <__adddf3+0x1ba>
    7dac:	f104 0414 	add.w	r4, r4, #20
    7db0:	f1c4 0220 	rsb	r2, r4, #32
    7db4:	fa20 f004 	lsr.w	r0, r0, r4
    7db8:	fa01 f302 	lsl.w	r3, r1, r2
    7dbc:	ea40 0003 	orr.w	r0, r0, r3
    7dc0:	fa21 f304 	lsr.w	r3, r1, r4
    7dc4:	ea45 0103 	orr.w	r1, r5, r3
    7dc8:	bd30      	pop	{r4, r5, pc}
    7dca:	f1c4 040c 	rsb	r4, r4, #12
    7dce:	f1c4 0220 	rsb	r2, r4, #32
    7dd2:	fa20 f002 	lsr.w	r0, r0, r2
    7dd6:	fa01 f304 	lsl.w	r3, r1, r4
    7dda:	ea40 0003 	orr.w	r0, r0, r3
    7dde:	4629      	mov	r1, r5
    7de0:	bd30      	pop	{r4, r5, pc}
    7de2:	fa21 f004 	lsr.w	r0, r1, r4
    7de6:	4629      	mov	r1, r5
    7de8:	bd30      	pop	{r4, r5, pc}
    7dea:	f094 0f00 	teq	r4, #0
    7dee:	f483 1380 	eor.w	r3, r3, #1048576	; 0x100000
    7df2:	bf06      	itte	eq
    7df4:	f481 1180 	eoreq.w	r1, r1, #1048576	; 0x100000
    7df8:	3401      	addeq	r4, #1
    7dfa:	3d01      	subne	r5, #1
    7dfc:	e74e      	b.n	7c9c <__adddf3+0x8c>
    7dfe:	ea7f 5c64 	mvns.w	r12, r4, asr #21
    7e02:	bf18      	it	ne
    7e04:	ea7f 5c65 	mvnsne.w	r12, r5, asr #21
    7e08:	d029      	beq.n	7e5e <__adddf3+0x24e>
    7e0a:	ea94 0f05 	teq	r4, r5
    7e0e:	bf08      	it	eq
    7e10:	ea90 0f02 	teqeq	r0, r2
    7e14:	d005      	beq.n	7e22 <__adddf3+0x212>
    7e16:	ea54 0c00 	orrs.w	r12, r4, r0
    7e1a:	bf04      	itt	eq
    7e1c:	4619      	moveq	r1, r3
    7e1e:	4610      	moveq	r0, r2
    7e20:	bd30      	pop	{r4, r5, pc}
    7e22:	ea91 0f03 	teq	r1, r3
    7e26:	bf1e      	ittt	ne
    7e28:	2100      	movne	r1, #0
    7e2a:	2000      	movne	r0, #0
    7e2c:	bd30      	popne	{r4, r5, pc}
    7e2e:	ea5f 5c54 	movs.w	r12, r4, lsr #21
    7e32:	d105      	bne.n	7e40 <__adddf3+0x230>
    7e34:	0040      	lsls	r0, r0, #1
    7e36:	4149      	adcs	r1, r1
    7e38:	bf28      	it	cs
    7e3a:	f041 4100 	orrcs.w	r1, r1, #2147483648	; 0x80000000
    7e3e:	bd30      	pop	{r4, r5, pc}
    7e40:	f514 0480 	adds.w	r4, r4, #4194304	; 0x400000
    7e44:	bf3c      	itt	cc
    7e46:	f501 1180 	addcc.w	r1, r1, #1048576	; 0x100000
    7e4a:	bd30      	popcc	{r4, r5, pc}
    7e4c:	f001 4500 	and.w	r5, r1, #2147483648	; 0x80000000
    7e50:	f045 41fe 	orr.w	r1, r5, #2130706432	; 0x7f000000
    7e54:	f441 0170 	orr.w	r1, r1, #15728640	; 0xf00000
    7e58:	f04f 0000 	mov.w	r0, #0
    7e5c:	bd30      	pop	{r4, r5, pc}
    7e5e:	ea7f 5c64 	mvns.w	r12, r4, asr #21
    7e62:	bf1a      	itte	ne
    7e64:	4619      	movne	r1, r3
    7e66:	4610      	movne	r0, r2
    7e68:	ea7f 5c65 	mvnseq.w	r12, r5, asr #21
    7e6c:	bf1c      	itt	ne
    7e6e:	460b      	movne	r3, r1
    7e70:	4602      	movne	r2, r0
    7e72:	ea50 3401 	orrs.w	r4, r0, r1, lsl #12
    7e76:	bf06      	itte	eq
    7e78:	ea52 3503 	orrseq.w	r5, r2, r3, lsl #12
    7e7c:	ea91 0f03 	teqeq	r1, r3
    7e80:	f441 2100 	orrne.w	r1, r1, #524288	; 0x80000
    7e84:	bd30      	pop	{r4, r5, pc}
    7e86:	bf00      	nop

00007e88 <__aeabi_ui2d>:
    7e88:	f090 0f00 	teq	r0, #0
    7e8c:	bf04      	itt	eq
    7e8e:	2100      	moveq	r1, #0
    7e90:	4770      	bxeq	lr
    7e92:	b530      	push	{r4, r5, lr}
    7e94:	f44f 6480 	mov.w	r4, #1024	; 0x400
    7e98:	f104 0432 	add.w	r4, r4, #50	; 0x32
    7e9c:	f04f 0500 	mov.w	r5, #0
    7ea0:	f04f 0100 	mov.w	r1, #0
    7ea4:	e750      	b.n	7d48 <__adddf3+0x138>
    7ea6:	bf00      	nop

00007ea8 <__aeabi_i2d>:
    7ea8:	f090 0f00 	teq	r0, #0
    7eac:	bf04      	itt	eq
    7eae:	2100      	moveq	r1, #0
    7eb0:	4770      	bxeq	lr
    7eb2:	b530      	push	{r4, r5, lr}
    7eb4:	f44f 6480 	mov.w	r4, #1024	; 0x400
    7eb8:	f104 0432 	add.w	r4, r4, #50	; 0x32
    7ebc:	f010 4500 	ands.w	r5, r0, #2147483648	; 0x80000000
    7ec0:	bf48      	it	mi
    7ec2:	4240      	negmi	r0, r0
    7ec4:	f04f 0100 	mov.w	r1, #0
    7ec8:	e73e      	b.n	7d48 <__adddf3+0x138>
    7eca:	bf00      	nop

00007ecc <__aeabi_f2d>:
    7ecc:	0042      	lsls	r2, r0, #1
    7ece:	ea4f 01e2 	mov.w	r1, r2, asr #3
    7ed2:	ea4f 0131 	mov.w	r1, r1, rrx
    7ed6:	ea4f 7002 	mov.w	r0, r2, lsl #28
    7eda:	bf1f      	itttt	ne
    7edc:	f012 437f 	andsne.w	r3, r2, #4278190080	; 0xff000000
    7ee0:	f093 4f7f 	teqne	r3, #4278190080	; 0xff000000
    7ee4:	f081 5160 	eorne.w	r1, r1, #939524096	; 0x38000000
    7ee8:	4770      	bxne	lr
    7eea:	f092 0f00 	teq	r2, #0
    7eee:	bf14      	ite	ne
    7ef0:	f093 4f7f 	teqne	r3, #4278190080	; 0xff000000
    7ef4:	4770      	bxeq	lr
    7ef6:	b530      	push	{r4, r5, lr}
    7ef8:	f44f 7460 	mov.w	r4, #896	; 0x380
    7efc:	f001 4500 	and.w	r5, r1, #2147483648	; 0x80000000
    7f00:	f021 4100 	bic.w	r1, r1, #2147483648	; 0x80000000
    7f04:	e720      	b.n	7d48 <__adddf3+0x138>
    7f06:	bf00      	nop

00007f08 <__aeabi_ul2d>:
    7f08:	ea50 0201 	orrs.w	r2, r0, r1
    7f0c:	bf08      	it	eq
    7f0e:	4770      	bxeq	lr
    7f10:	b530      	push	{r4, r5, lr}
    7f12:	f04f 0500 	mov.w	r5, #0
    7f16:	e00a      	b.n	7f2e <__aeabi_l2d+0x16>

00007f18 <__aeabi_l2d>:
    7f18:	ea50 0201 	orrs.w	r2, r0, r1
    7f1c:	bf08      	it	eq
    7f1e:	4770      	bxeq	lr
    7f20:	b530      	push	{r4, r5, lr}
    7f22:	f011 4500 	ands.w	r5, r1, #2147483648	; 0x80000000
    7f26:	d502      	bpl.n	7f2e <__aeabi_l2d+0x16>
    7f28:	4240      	negs	r0, r0
    7f2a:	eb61 0141 	sbc.w	r1, r1, r1, lsl #1
    7f2e:	f44f 6480 	mov.w	r4, #1024	; 0x400
    7f32:	f104 0432 	add.w	r4, r4, #50	; 0x32
    7f36:	ea5f 5c91 	movs.w	r12, r1, lsr #22
    7f3a:	f43f aedc 	beq.w	7cf6 <__adddf3+0xe6>
    7f3e:	f04f 0203 	mov.w	r2, #3
    7f42:	ea5f 0cdc 	movs.w	r12, r12, lsr #3
    7f46:	bf18      	it	ne
    7f48:	3203      	addne	r2, #3
    7f4a:	ea5f 0cdc 	movs.w	r12, r12, lsr #3
    7f4e:	bf18      	it	ne
    7f50:	3203      	addne	r2, #3
    7f52:	eb02 02dc 	add.w	r2, r2, r12, lsr #3
    7f56:	f1c2 0320 	rsb	r3, r2, #32
    7f5a:	fa00 fc03 	lsl.w	r12, r0, r3
    7f5e:	fa20 f002 	lsr.w	r0, r0, r2
    7f62:	fa01 fe03 	lsl.w	lr, r1, r3
    7f66:	ea40 000e 	orr.w	r0, r0, lr
    7f6a:	fa21 f102 	lsr.w	r1, r1, r2
    7f6e:	4414      	add	r4, r2
    7f70:	e6c1      	b.n	7cf6 <__adddf3+0xe6>
    7f72:	bf00      	nop

00007f74 <__aeabi_dmul>:
    7f74:	b570      	push	{r4, r5, r6, lr}
    7f76:	f04f 0cff 	mov.w	r12, #255	; 0xff
    7f7a:	f44c 6ce0 	orr.w	r12, r12, #1792	; 0x700
    7f7e:	ea1c 5411 	ands.w	r4, r12, r1, lsr #20
    7f82:	bf1d      	ittte	ne
    7f84:	ea1c 5513 	andsne.w	r5, r12, r3, lsr #20
    7f88:	ea94 0f0c 	teqne	r4, r12
    7f8c:	ea95 0f0c 	teqne	r5, r12
    7f90:	f000 f8de 	bleq	8150 <__aeabi_dmul+0x1dc>
    7f94:	442c      	add	r4, r5
    7f96:	ea81 0603 	eor.w	r6, r1, r3
    7f9a:	ea21 514c 	bic.w	r1, r1, r12, lsl #21
    7f9e:	ea23 534c 	bic.w	r3, r3, r12, lsl #21
    7fa2:	ea50 3501 	orrs.w	r5, r0, r1, lsl #12
    7fa6:	bf18      	it	ne
    7fa8:	ea52 3503 	orrsne.w	r5, r2, r3, lsl #12
    7fac:	f441 1180 	orr.w	r1, r1, #1048576	; 0x100000
    7fb0:	f443 1380 	orr.w	r3, r3, #1048576	; 0x100000
    7fb4:	d038      	beq.n	8028 <__aeabi_dmul+0xb4>
    7fb6:	fba0 ce02 	umull	r12, lr, r0, r2
    7fba:	f04f 0500 	mov.w	r5, #0
    7fbe:	fbe1 e502 	umlal	lr, r5, r1, r2
    7fc2:	f006 4200 	and.w	r2, r6, #2147483648	; 0x80000000
    7fc6:	fbe0 e503 	umlal	lr, r5, r0, r3
    7fca:	f04f 0600 	mov.w	r6, #0
    7fce:	fbe1 5603 	umlal	r5, r6, r1, r3
    7fd2:	f09c 0f00 	teq	r12, #0
    7fd6:	bf18      	it	ne
    7fd8:	f04e 0e01 	orrne.w	lr, lr, #1
    7fdc:	f1a4 04ff 	sub.w	r4, r4, #255	; 0xff
    7fe0:	f5b6 7f00 	cmp.w	r6, #512	; 0x200
    7fe4:	f564 7440 	sbc.w	r4, r4, #768	; 0x300
    7fe8:	d204      	bcs.n	7ff4 <__aeabi_dmul+0x80>
    7fea:	ea5f 0e4e 	movs.w	lr, lr, lsl #1
    7fee:	416d      	adcs	r5, r5
    7ff0:	eb46 0606 	adc.w	r6, r6, r6
    7ff4:	ea42 21c6 	orr.w	r1, r2, r6, lsl #11
    7ff8:	ea41 5155 	orr.w	r1, r1, r5, lsr #21
    7ffc:	ea4f 20c5 	mov.w	r0, r5, lsl #11
    8000:	ea40 505e 	orr.w	r0, r0, lr, lsr #21
    8004:	ea4f 2ece 	mov.w	lr, lr, lsl #11
    8008:	f1b4 0cfd 	subs.w	r12, r4, #253	; 0xfd
    800c:	bf88      	it	hi
    800e:	f5bc 6fe0 	cmphi.w	r12, #1792	; 0x700
    8012:	d81e      	bhi.n	8052 <__aeabi_dmul+0xde>
    8014:	f1be 4f00 	cmp.w	lr, #2147483648	; 0x80000000
    8018:	bf08      	it	eq
    801a:	ea5f 0e50 	movseq.w	lr, r0, lsr #1
    801e:	f150 0000 	adcs.w	r0, r0, #0
    8022:	eb41 5104 	adc.w	r1, r1, r4, lsl #20
    8026:	bd70      	pop	{r4, r5, r6, pc}
    8028:	f006 4600 	and.w	r6, r6, #2147483648	; 0x80000000
    802c:	ea46 0101 	orr.w	r1, r6, r1
    8030:	ea40 0002 	orr.w	r0, r0, r2
    8034:	ea81 0103 	eor.w	r1, r1, r3
    8038:	ebb4 045c 	subs.w	r4, r4, r12, lsr #1
    803c:	bfc2      	ittt	gt
    803e:	ebd4 050c 	rsbsgt	r5, r4, r12
    8042:	ea41 5104 	orrgt.w	r1, r1, r4, lsl #20
    8046:	bd70      	popgt	{r4, r5, r6, pc}
    8048:	f441 1180 	orr.w	r1, r1, #1048576	; 0x100000
    804c:	f04f 0e00 	mov.w	lr, #0
    8050:	3c01      	subs	r4, #1
    8052:	f300 80ab 	bgt.w	81ac <__aeabi_dmul+0x238>
    8056:	f114 0f36 	cmn.w	r4, #54	; 0x36
    805a:	bfde      	ittt	le
    805c:	2000      	movle	r0, #0
    805e:	f001 4100 	andle.w	r1, r1, #2147483648	; 0x80000000
    8062:	bd70      	pople	{r4, r5, r6, pc}
    8064:	f1c4 0400 	rsb	r4, r4, #0
    8068:	3c20      	subs	r4, #32
    806a:	da35      	bge.n	80d8 <__aeabi_dmul+0x164>
    806c:	340c      	adds	r4, #12
    806e:	dc1b      	bgt.n	80a8 <__aeabi_dmul+0x134>
    8070:	f104 0414 	add.w	r4, r4, #20
    8074:	f1c4 0520 	rsb	r5, r4, #32
    8078:	fa00 f305 	lsl.w	r3, r0, r5
    807c:	fa20 f004 	lsr.w	r0, r0, r4
    8080:	fa01 f205 	lsl.w	r2, r1, r5
    8084:	ea40 0002 	orr.w	r0, r0, r2
    8088:	f001 4200 	and.w	r2, r1, #2147483648	; 0x80000000
    808c:	f021 4100 	bic.w	r1, r1, #2147483648	; 0x80000000
    8090:	eb10 70d3 	adds.w	r0, r0, r3, lsr #31
    8094:	fa21 f604 	lsr.w	r6, r1, r4
    8098:	eb42 0106 	adc.w	r1, r2, r6
    809c:	ea5e 0e43 	orrs.w	lr, lr, r3, lsl #1
    80a0:	bf08      	it	eq
    80a2:	ea20 70d3 	biceq.w	r0, r0, r3, lsr #31
    80a6:	bd70      	pop	{r4, r5, r6, pc}
    80a8:	f1c4 040c 	rsb	r4, r4, #12
    80ac:	f1c4 0520 	rsb	r5, r4, #32
    80b0:	fa00 f304 	lsl.w	r3, r0, r4
    80b4:	fa20 f005 	lsr.w	r0, r0, r5
    80b8:	fa01 f204 	lsl.w	r2, r1, r4
    80bc:	ea40 0002 	orr.w	r0, r0, r2
    80c0:	f001 4100 	and.w	r1, r1, #2147483648	; 0x80000000
    80c4:	eb10 70d3 	adds.w	r0, r0, r3, lsr #31
    80c8:	f141 0100 	adc.w	r1, r1, #0
    80cc:	ea5e 0e43 	orrs.w	lr, lr, r3, lsl #1
    80d0:	bf08      	it	eq
    80d2:	ea20 70d3 	biceq.w	r0, r0, r3, lsr #31
    80d6:	bd70      	pop	{r4, r5, r6, pc}
    80d8:	f1c4 0520 	rsb	r5, r4, #32
    80dc:	fa00 f205 	lsl.w	r2, r0, r5
    80e0:	ea4e 0e02 	orr.w	lr, lr, r2
    80e4:	fa20 f304 	lsr.w	r3, r0, r4
    80e8:	fa01 f205 	lsl.w	r2, r1, r5
    80ec:	ea43 0302 	orr.w	r3, r3, r2
    80f0:	fa21 f004 	lsr.w	r0, r1, r4
    80f4:	f001 4100 	and.w	r1, r1, #2147483648	; 0x80000000
    80f8:	fa21 f204 	lsr.w	r2, r1, r4
    80fc:	ea20 0002 	bic.w	r0, r0, r2
    8100:	eb00 70d3 	add.w	r0, r0, r3, lsr #31
    8104:	ea5e 0e43 	orrs.w	lr, lr, r3, lsl #1
    8108:	bf08      	it	eq
    810a:	ea20 70d3 	biceq.w	r0, r0, r3, lsr #31
    810e:	bd70      	pop	{r4, r5, r6, pc}
    8110:	f094 0f00 	teq	r4, #0
    8114:	d10f      	bne.n	8136 <__aeabi_dmul+0x1c2>
    8116:	f001 4600 	and.w	r6, r1, #2147483648	; 0x80000000
    811a:	0040      	lsls	r0, r0, #1
    811c:	eb41 0101 	adc.w	r1, r1, r1
    8120:	f411 1f80 	tst.w	r1, #1048576	; 0x100000
    8124:	bf08      	it	eq
    8126:	3c01      	subeq	r4, #1
    8128:	d0f7      	beq.n	811a <__aeabi_dmul+0x1a6>
    812a:	ea41 0106 	orr.w	r1, r1, r6
    812e:	f095 0f00 	teq	r5, #0
    8132:	bf18      	it	ne
    8134:	4770      	bxne	lr
    8136:	f003 4600 	and.w	r6, r3, #2147483648	; 0x80000000
    813a:	0052      	lsls	r2, r2, #1
    813c:	eb43 0303 	adc.w	r3, r3, r3
    8140:	f413 1f80 	tst.w	r3, #1048576	; 0x100000
    8144:	bf08      	it	eq
    8146:	3d01      	subeq	r5, #1
    8148:	d0f7      	beq.n	813a <__aeabi_dmul+0x1c6>
    814a:	ea43 0306 	orr.w	r3, r3, r6
    814e:	4770      	bx	lr
    8150:	ea94 0f0c 	teq	r4, r12
    8154:	ea0c 5513 	and.w	r5, r12, r3, lsr #20
    8158:	bf18      	it	ne
    815a:	ea95 0f0c 	teqne	r5, r12
    815e:	d00c      	beq.n	817a <__aeabi_dmul+0x206>
    8160:	ea50 0641 	orrs.w	r6, r0, r1, lsl #1
    8164:	bf18      	it	ne
    8166:	ea52 0643 	orrsne.w	r6, r2, r3, lsl #1
    816a:	d1d1      	bne.n	8110 <__aeabi_dmul+0x19c>
    816c:	ea81 0103 	eor.w	r1, r1, r3
    8170:	f001 4100 	and.w	r1, r1, #2147483648	; 0x80000000
    8174:	f04f 0000 	mov.w	r0, #0
    8178:	bd70      	pop	{r4, r5, r6, pc}
    817a:	ea50 0641 	orrs.w	r6, r0, r1, lsl #1
    817e:	bf06      	itte	eq
    8180:	4610      	moveq	r0, r2
    8182:	4619      	moveq	r1, r3
    8184:	ea52 0643 	orrsne.w	r6, r2, r3, lsl #1
    8188:	d019      	beq.n	81be <__aeabi_dmul+0x24a>
    818a:	ea94 0f0c 	teq	r4, r12
    818e:	d102      	bne.n	8196 <__aeabi_dmul+0x222>
    8190:	ea50 3601 	orrs.w	r6, r0, r1, lsl #12
    8194:	d113      	bne.n	81be <__aeabi_dmul+0x24a>
    8196:	ea95 0f0c 	teq	r5, r12
    819a:	d105      	bne.n	81a8 <__aeabi_dmul+0x234>
    819c:	ea52 3603 	orrs.w	r6, r2, r3, lsl #12
    81a0:	bf1c      	itt	ne
    81a2:	4610      	movne	r0, r2
    81a4:	4619      	movne	r1, r3
    81a6:	d10a      	bne.n	81be <__aeabi_dmul+0x24a>
    81a8:	ea81 0103 	eor.w	r1, r1, r3
    81ac:	f001 4100 	and.w	r1, r1, #2147483648	; 0x80000000
    81b0:	f041 41fe 	orr.w	r1, r1, #2130706432	; 0x7f000000
    81b4:	f441 0170 	orr.w	r1, r1, #15728640	; 0xf00000
    81b8:	f04f 0000 	mov.w	r0, #0
    81bc:	bd70      	pop	{r4, r5, r6, pc}
    81be:	f041 41fe 	orr.w	r1, r1, #2130706432	; 0x7f000000
    81c2:	f441 0178 	orr.w	r1, r1, #16252928	; 0xf80000
    81c6:	bd70      	pop	{r4, r5, r6, pc}

000081c8 <__aeabi_ddiv>:
    81c8:	b570      	push	{r4, r5, r6, lr}
    81ca:	f04f 0cff 	mov.w	r12, #255	; 0xff
    81ce:	f44c 6ce0 	orr.w	r12, r12, #1792	; 0x700
    81d2:	ea1c 5411 	ands.w	r4, r12, r1, lsr #20
    81d6:	bf1d      	ittte	ne
    81d8:	ea1c 5513 	andsne.w	r5, r12, r3, lsr #20
    81dc:	ea94 0f0c 	teqne	r4, r12
    81e0:	ea95 0f0c 	teqne	r5, r12
    81e4:	f000 f8a7 	bleq	8336 <__aeabi_ddiv+0x16e>
    81e8:	eba4 0405 	sub.w	r4, r4, r5
    81ec:	ea81 0e03 	eor.w	lr, r1, r3
    81f0:	ea52 3503 	orrs.w	r5, r2, r3, lsl #12
    81f4:	ea4f 3101 	mov.w	r1, r1, lsl #12
    81f8:	f000 8088 	beq.w	830c <__aeabi_ddiv+0x144>
    81fc:	ea4f 3303 	mov.w	r3, r3, lsl #12
    8200:	f04f 5580 	mov.w	r5, #268435456	; 0x10000000
    8204:	ea45 1313 	orr.w	r3, r5, r3, lsr #4
    8208:	ea43 6312 	orr.w	r3, r3, r2, lsr #24
    820c:	ea4f 2202 	mov.w	r2, r2, lsl #8
    8210:	ea45 1511 	orr.w	r5, r5, r1, lsr #4
    8214:	ea45 6510 	orr.w	r5, r5, r0, lsr #24
    8218:	ea4f 2600 	mov.w	r6, r0, lsl #8
    821c:	f00e 4100 	and.w	r1, lr, #2147483648	; 0x80000000
    8220:	429d      	cmp	r5, r3
    8222:	bf08      	it	eq
    8224:	4296      	cmpeq	r6, r2
    8226:	f144 04fd 	adc.w	r4, r4, #253	; 0xfd
    822a:	f504 7440 	add.w	r4, r4, #768	; 0x300
    822e:	d202      	bcs.n	8236 <__aeabi_ddiv+0x6e>
    8230:	085b      	lsrs	r3, r3, #1
    8232:	ea4f 0232 	mov.w	r2, r2, rrx
    8236:	1ab6      	subs	r6, r6, r2
    8238:	eb65 0503 	sbc.w	r5, r5, r3
    823c:	085b      	lsrs	r3, r3, #1
    823e:	ea4f 0232 	mov.w	r2, r2, rrx
    8242:	f44f 1080 	mov.w	r0, #1048576	; 0x100000
    8246:	f44f 2c00 	mov.w	r12, #524288	; 0x80000
    824a:	ebb6 0e02 	subs.w	lr, r6, r2
    824e:	eb75 0e03 	sbcs.w	lr, r5, r3
    8252:	bf22      	ittt	cs
    8254:	1ab6      	subcs	r6, r6, r2
    8256:	4675      	movcs	r5, lr
    8258:	ea40 000c 	orrcs.w	r0, r0, r12
    825c:	085b      	lsrs	r3, r3, #1
    825e:	ea4f 0232 	mov.w	r2, r2, rrx
    8262:	ebb6 0e02 	subs.w	lr, r6, r2
    8266:	eb75 0e03 	sbcs.w	lr, r5, r3
    826a:	bf22      	ittt	cs
    826c:	1ab6      	subcs	r6, r6, r2
    826e:	4675      	movcs	r5, lr
    8270:	ea40 005c 	orrcs.w	r0, r0, r12, lsr #1
    8274:	085b      	lsrs	r3, r3, #1
    8276:	ea4f 0232 	mov.w	r2, r2, rrx
    827a:	ebb6 0e02 	subs.w	lr, r6, r2
    827e:	eb75 0e03 	sbcs.w	lr, r5, r3
    8282:	bf22      	ittt	cs
    8284:	1ab6      	subcs	r6, r6, r2
    8286:	4675      	movcs	r5, lr
    8288:	ea40 009c 	orrcs.w	r0, r0, r12, lsr #2
    828c:	085b      	lsrs	r3, r3, #1
    828e:	ea4f 0232 	mov.w	r2, r2, rrx
    8292:	ebb6 0e02 	subs.w	lr, r6, r2
    8296:	eb75 0e03 	sbcs.w	lr, r5, r3
    829a:	bf22      	ittt	cs
    829c:	1ab6      	subcs	r6, r6, r2
    829e:	4675      	movcs	r5, lr
    82a0:	ea40 00dc 	orrcs.w	r0, r0, r12, lsr #3
    82a4:	ea55 0e06 	orrs.w	lr, r5, r6
    82a8:	d018      	beq.n	82dc <__aeabi_ddiv+0x114>
    82aa:	ea4f 1505 	mov.w	r5, r5, lsl #4
    82ae:	ea45 7516 	orr.w	r5, r5, r6, lsr #28
    82b2:	ea4f 1606 	mov.w	r6, r6, lsl #4
    82b6:	ea4f 03c3 	mov.w	r3, r3, lsl #3
    82ba:	ea43 7352 	orr.w	r3, r3, r2, lsr #29
    82be:	ea4f 02c2 	mov.w	r2, r2, lsl #3
    82c2:	ea5f 1c1c 	movs.w	r12, r12, lsr #4
    82c6:	d1c0      	bne.n	824a <__aeabi_ddiv+0x82>
    82c8:	f411 1f80 	tst.w	r1, #1048576	; 0x100000
    82cc:	d10b      	bne.n	82e6 <__aeabi_ddiv+0x11e>
    82ce:	ea41 0100 	orr.w	r1, r1, r0
    82d2:	f04f 0000 	mov.w	r0, #0
    82d6:	f04f 4c00 	mov.w	r12, #2147483648	; 0x80000000
    82da:	e7b6      	b.n	824a <__aeabi_ddiv+0x82>
    82dc:	f411 1f80 	tst.w	r1, #1048576	; 0x100000
    82e0:	bf04      	itt	eq
    82e2:	4301      	orreq	r1, r0
    82e4:	2000      	moveq	r0, #0
    82e6:	f1b4 0cfd 	subs.w	r12, r4, #253	; 0xfd
    82ea:	bf88      	it	hi
    82ec:	f5bc 6fe0 	cmphi.w	r12, #1792	; 0x700
    82f0:	f63f aeaf 	bhi.w	8052 <__aeabi_dmul+0xde>
    82f4:	ebb5 0c03 	subs.w	r12, r5, r3
    82f8:	bf04      	itt	eq
    82fa:	ebb6 0c02 	subseq.w	r12, r6, r2
    82fe:	ea5f 0c50 	movseq.w	r12, r0, lsr #1
    8302:	f150 0000 	adcs.w	r0, r0, #0
    8306:	eb41 5104 	adc.w	r1, r1, r4, lsl #20
    830a:	bd70      	pop	{r4, r5, r6, pc}
    830c:	f00e 4e00 	and.w	lr, lr, #2147483648	; 0x80000000
    8310:	ea4e 3111 	orr.w	r1, lr, r1, lsr #12
    8314:	eb14 045c 	adds.w	r4, r4, r12, lsr #1
    8318:	bfc2      	ittt	gt
    831a:	ebd4 050c 	rsbsgt	r5, r4, r12
    831e:	ea41 5104 	orrgt.w	r1, r1, r4, lsl #20
    8322:	bd70      	popgt	{r4, r5, r6, pc}
    8324:	f441 1180 	orr.w	r1, r1, #1048576	; 0x100000
    8328:	f04f 0e00 	mov.w	lr, #0
    832c:	3c01      	subs	r4, #1
    832e:	e690      	b.n	8052 <__aeabi_dmul+0xde>
    8330:	ea45 0e06 	orr.w	lr, r5, r6
    8334:	e68d      	b.n	8052 <__aeabi_dmul+0xde>
    8336:	ea0c 5513 	and.w	r5, r12, r3, lsr #20
    833a:	ea94 0f0c 	teq	r4, r12
    833e:	bf08      	it	eq
    8340:	ea95 0f0c 	teqeq	r5, r12
    8344:	f43f af3b 	beq.w	81be <__aeabi_dmul+0x24a>
    8348:	ea94 0f0c 	teq	r4, r12
    834c:	d10a      	bne.n	8364 <__aeabi_ddiv+0x19c>
    834e:	ea50 3401 	orrs.w	r4, r0, r1, lsl #12
    8352:	f47f af34 	bne.w	81be <__aeabi_dmul+0x24a>
    8356:	ea95 0f0c 	teq	r5, r12
    835a:	f47f af25 	bne.w	81a8 <__aeabi_dmul+0x234>
    835e:	4610      	mov	r0, r2
    8360:	4619      	mov	r1, r3
    8362:	e72c      	b.n	81be <__aeabi_dmul+0x24a>
    8364:	ea95 0f0c 	teq	r5, r12
    8368:	d106      	bne.n	8378 <__aeabi_ddiv+0x1b0>
    836a:	ea52 3503 	orrs.w	r5, r2, r3, lsl #12
    836e:	f43f aefd 	beq.w	816c <__aeabi_dmul+0x1f8>
    8372:	4610      	mov	r0, r2
    8374:	4619      	mov	r1, r3
    8376:	e722      	b.n	81be <__aeabi_dmul+0x24a>
    8378:	ea50 0641 	orrs.w	r6, r0, r1, lsl #1
    837c:	bf18      	it	ne
    837e:	ea52 0643 	orrsne.w	r6, r2, r3, lsl #1
    8382:	f47f aec5 	bne.w	8110 <__aeabi_dmul+0x19c>
    8386:	ea50 0441 	orrs.w	r4, r0, r1, lsl #1
    838a:	f47f af0d 	bne.w	81a8 <__aeabi_dmul+0x234>
    838e:	ea52 0543 	orrs.w	r5, r2, r3, lsl #1
    8392:	f47f aeeb 	bne.w	816c <__aeabi_dmul+0x1f8>
    8396:	e712      	b.n	81be <__aeabi_dmul+0x24a>

00008398 <__aeabi_d2iz>:
    8398:	ea4f 0241 	mov.w	r2, r1, lsl #1
    839c:	f512 1200 	adds.w	r2, r2, #2097152	; 0x200000
    83a0:	d215      	bcs.n	83ce <__aeabi_d2iz+0x36>
    83a2:	d511      	bpl.n	83c8 <__aeabi_d2iz+0x30>
    83a4:	f46f 7378 	mvn.w	r3, #992	; 0x3e0
    83a8:	ebb3 5262 	subs.w	r2, r3, r2, asr #21
    83ac:	d912      	bls.n	83d4 <__aeabi_d2iz+0x3c>
    83ae:	ea4f 23c1 	mov.w	r3, r1, lsl #11
    83b2:	f043 4300 	orr.w	r3, r3, #2147483648	; 0x80000000
    83b6:	ea43 5350 	orr.w	r3, r3, r0, lsr #21
    83ba:	f011 4f00 	tst.w	r1, #2147483648	; 0x80000000
    83be:	fa23 f002 	lsr.w	r0, r3, r2
    83c2:	bf18      	it	ne
    83c4:	4240      	negne	r0, r0
    83c6:	4770      	bx	lr
    83c8:	f04f 0000 	mov.w	r0, #0
    83cc:	4770      	bx	lr
    83ce:	ea50 3001 	orrs.w	r0, r0, r1, lsl #12
    83d2:	d105      	bne.n	83e0 <__aeabi_d2iz+0x48>
    83d4:	f011 4000 	ands.w	r0, r1, #2147483648	; 0x80000000
    83d8:	bf08      	it	eq
    83da:	f06f 4000 	mvneq.w	r0, #2147483648	; 0x80000000
    83de:	4770      	bx	lr
    83e0:	f04f 0000 	mov.w	r0, #0
    83e4:	4770      	bx	lr
    83e6:	bf00      	nop

000083e8 <__aeabi_d2f>:
    83e8:	ea4f 0241 	mov.w	r2, r1, lsl #1
    83ec:	f1b2 43e0 	subs.w	r3, r2, #1879048192	; 0x70000000
    83f0:	bf24      	itt	cs
    83f2:	f5b3 1c00 	subscs.w	r12, r3, #2097152	; 0x200000
    83f6:	f1dc 5cfe 	rsbscs	r12, r12, #532676608	; 0x1fc00000
    83fa:	d90d      	bls.n	8418 <__aeabi_d2f+0x30>
    83fc:	f001 4c00 	and.w	r12, r1, #2147483648	; 0x80000000
    8400:	ea4f 02c0 	mov.w	r2, r0, lsl #3
    8404:	ea4c 7050 	orr.w	r0, r12, r0, lsr #29
    8408:	f1b2 4f00 	cmp.w	r2, #2147483648	; 0x80000000
    840c:	eb40 0083 	adc.w	r0, r0, r3, lsl #2
    8410:	bf08      	it	eq
    8412:	f020 0001 	biceq.w	r0, r0, #1
    8416:	4770      	bx	lr
    8418:	f011 4f80 	tst.w	r1, #1073741824	; 0x40000000
    841c:	d121      	bne.n	8462 <__aeabi_d2f+0x7a>
    841e:	f113 7238 	adds.w	r2, r3, #48234496	; 0x2e00000
    8422:	bfbc      	itt	lt
    8424:	f001 4000 	andlt.w	r0, r1, #2147483648	; 0x80000000
    8428:	4770      	bxlt	lr
    842a:	f441 1180 	orr.w	r1, r1, #1048576	; 0x100000
    842e:	ea4f 5252 	mov.w	r2, r2, lsr #21
    8432:	f1c2 0218 	rsb	r2, r2, #24
    8436:	f1c2 0c20 	rsb	r12, r2, #32
    843a:	fa10 f30c 	lsls.w	r3, r0, r12
    843e:	fa20 f002 	lsr.w	r0, r0, r2
    8442:	bf18      	it	ne
    8444:	f040 0001 	orrne.w	r0, r0, #1
    8448:	ea4f 23c1 	mov.w	r3, r1, lsl #11
    844c:	ea4f 23d3 	mov.w	r3, r3, lsr #11
    8450:	fa03 fc0c 	lsl.w	r12, r3, r12
    8454:	ea40 000c 	orr.w	r0, r0, r12
    8458:	fa23 f302 	lsr.w	r3, r3, r2
    845c:	ea4f 0343 	mov.w	r3, r3, lsl #1
    8460:	e7cc      	b.n	83fc <__aeabi_d2f+0x14>
    8462:	ea7f 5362 	mvns.w	r3, r2, asr #21
    8466:	d107      	bne.n	8478 <__aeabi_d2f+0x90>
    8468:	ea50 3301 	orrs.w	r3, r0, r1, lsl #12
    846c:	bf1e      	ittt	ne
    846e:	f04f 40fe 	movne.w	r0, #2130706432	; 0x7f000000
    8472:	f440 0040 	orrne.w	r0, r0, #12582912	; 0xc00000
    8476:	4770      	bxne	lr
    8478:	f001 4000 	and.w	r0, r1, #2147483648	; 0x80000000
    847c:	f040 40fe 	orr.w	r0, r0, #2130706432	; 0x7f000000
    8480:	f440 0000 	orr.w	r0, r0, #8388608	; 0x800000
    8484:	4770      	bx	lr
    8486:	bf00      	nop

00008488 <__aeabi_frsub>:
    8488:	f080 4000 	eor.w	r0, r0, #2147483648	; 0x80000000
    848c:	e002      	b.n	8494 <__addsf3>
    848e:	bf00      	nop

00008490 <__aeabi_fsub>:
    8490:	f081 4100 	eor.w	r1, r1, #2147483648	; 0x80000000

00008494 <__addsf3>:
    8494:	0042      	lsls	r2, r0, #1
    8496:	bf1f      	itttt	ne
    8498:	ea5f 0341 	movsne.w	r3, r1, lsl #1
    849c:	ea92 0f03 	teqne	r2, r3
    84a0:	ea7f 6c22 	mvnsne.w	r12, r2, asr #24
    84a4:	ea7f 6c23 	mvnsne.w	r12, r3, asr #24
    84a8:	d06a      	beq.n	8580 <__addsf3+0xec>
    84aa:	ea4f 6212 	mov.w	r2, r2, lsr #24
    84ae:	ebd2 6313 	rsbs	r3, r2, r3, lsr #24
    84b2:	bfc1      	itttt	gt
    84b4:	18d2      	addgt	r2, r2, r3
    84b6:	4041      	eorgt	r1, r0
    84b8:	4048      	eorgt	r0, r1
    84ba:	4041      	eorgt	r1, r0
    84bc:	bfb8      	it	lt
    84be:	425b      	neglt	r3, r3
    84c0:	2b19      	cmp	r3, #25
    84c2:	bf88      	it	hi
    84c4:	4770      	bxhi	lr
    84c6:	f010 4f00 	tst.w	r0, #2147483648	; 0x80000000
    84ca:	f440 0000 	orr.w	r0, r0, #8388608	; 0x800000
    84ce:	f020 407f 	bic.w	r0, r0, #4278190080	; 0xff000000
    84d2:	bf18      	it	ne
    84d4:	4240      	negne	r0, r0
    84d6:	f011 4f00 	tst.w	r1, #2147483648	; 0x80000000
    84da:	f441 0100 	orr.w	r1, r1, #8388608	; 0x800000
    84de:	f021 417f 	bic.w	r1, r1, #4278190080	; 0xff000000
    84e2:	bf18      	it	ne
    84e4:	4249      	negne	r1, r1
    84e6:	ea92 0f03 	teq	r2, r3
    84ea:	d03f      	beq.n	856c <__addsf3+0xd8>
    84ec:	f1a2 0201 	sub.w	r2, r2, #1
    84f0:	fa41 fc03 	asr.w	r12, r1, r3
    84f4:	eb10 000c 	adds.w	r0, r0, r12
    84f8:	f1c3 0320 	rsb	r3, r3, #32
    84fc:	fa01 f103 	lsl.w	r1, r1, r3
    8500:	f000 4300 	and.w	r3, r0, #2147483648	; 0x80000000
    8504:	d502      	bpl.n	850c <__addsf3+0x78>
    8506:	4249      	negs	r1, r1
    8508:	eb60 0040 	sbc.w	r0, r0, r0, lsl #1
    850c:	f5b0 0f00 	cmp.w	r0, #8388608	; 0x800000
    8510:	d313      	bcc.n	853a <__addsf3+0xa6>
    8512:	f1b0 7f80 	cmp.w	r0, #16777216	; 0x1000000
    8516:	d306      	bcc.n	8526 <__addsf3+0x92>
    8518:	0840      	lsrs	r0, r0, #1
    851a:	ea4f 0131 	mov.w	r1, r1, rrx
    851e:	f102 0201 	add.w	r2, r2, #1
    8522:	2afe      	cmp	r2, #254	; 0xfe
    8524:	d251      	bcs.n	85ca <__addsf3+0x136>
    8526:	f1b1 4f00 	cmp.w	r1, #2147483648	; 0x80000000
    852a:	eb40 50c2 	adc.w	r0, r0, r2, lsl #23
    852e:	bf08      	it	eq
    8530:	f020 0001 	biceq.w	r0, r0, #1
    8534:	ea40 0003 	orr.w	r0, r0, r3
    8538:	4770      	bx	lr
    853a:	0049      	lsls	r1, r1, #1
    853c:	eb40 0000 	adc.w	r0, r0, r0
    8540:	f410 0f00 	tst.w	r0, #8388608	; 0x800000
    8544:	f1a2 0201 	sub.w	r2, r2, #1
    8548:	d1ed      	bne.n	8526 <__addsf3+0x92>
    854a:	fab0 fc80 	clz	r12, r0
    854e:	f1ac 0c08 	sub.w	r12, r12, #8
    8552:	ebb2 020c 	subs.w	r2, r2, r12
    8556:	fa00 f00c 	lsl.w	r0, r0, r12
    855a:	bfaa      	itet	ge
    855c:	eb00 50c2 	addge.w	r0, r0, r2, lsl #23
    8560:	4252      	neglt	r2, r2
    8562:	4318      	orrge	r0, r3
    8564:	bfbc      	itt	lt
    8566:	40d0      	lsrlt	r0, r2
    8568:	4318      	orrlt	r0, r3
    856a:	4770      	bx	lr
    856c:	f092 0f00 	teq	r2, #0
    8570:	f481 0100 	eor.w	r1, r1, #8388608	; 0x800000
    8574:	bf06      	itte	eq
    8576:	f480 0000 	eoreq.w	r0, r0, #8388608	; 0x800000
    857a:	3201      	addeq	r2, #1
    857c:	3b01      	subne	r3, #1
    857e:	e7b5      	b.n	84ec <__addsf3+0x58>
    8580:	ea4f 0341 	mov.w	r3, r1, lsl #1
    8584:	ea7f 6c22 	mvns.w	r12, r2, asr #24
    8588:	bf18      	it	ne
    858a:	ea7f 6c23 	mvnsne.w	r12, r3, asr #24
    858e:	d021      	beq.n	85d4 <__addsf3+0x140>
    8590:	ea92 0f03 	teq	r2, r3
    8594:	d004      	beq.n	85a0 <__addsf3+0x10c>
    8596:	f092 0f00 	teq	r2, #0
    859a:	bf08      	it	eq
    859c:	4608      	moveq	r0, r1
    859e:	4770      	bx	lr
    85a0:	ea90 0f01 	teq	r0, r1
    85a4:	bf1c      	itt	ne
    85a6:	2000      	movne	r0, #0
    85a8:	4770      	bxne	lr
    85aa:	f012 4f7f 	tst.w	r2, #4278190080	; 0xff000000
    85ae:	d104      	bne.n	85ba <__addsf3+0x126>
    85b0:	0040      	lsls	r0, r0, #1
    85b2:	bf28      	it	cs
    85b4:	f040 4000 	orrcs.w	r0, r0, #2147483648	; 0x80000000
    85b8:	4770      	bx	lr
    85ba:	f112 7200 	adds.w	r2, r2, #33554432	; 0x2000000
    85be:	bf3c      	itt	cc
    85c0:	f500 0000 	addcc.w	r0, r0, #8388608	; 0x800000
    85c4:	4770      	bxcc	lr
    85c6:	f000 4300 	and.w	r3, r0, #2147483648	; 0x80000000
    85ca:	f043 40fe 	orr.w	r0, r3, #2130706432	; 0x7f000000
    85ce:	f440 0000 	orr.w	r0, r0, #8388608	; 0x800000
    85d2:	4770      	bx	lr
    85d4:	ea7f 6222 	mvns.w	r2, r2, asr #24
    85d8:	bf16      	itet	ne
    85da:	4608      	movne	r0, r1
    85dc:	ea7f 6323 	mvnseq.w	r3, r3, asr #24
    85e0:	4601      	movne	r1, r0
    85e2:	0242      	lsls	r2, r0, #9
    85e4:	bf06      	itte	eq
    85e6:	ea5f 2341 	movseq.w	r3, r1, lsl #9
    85ea:	ea90 0f01 	teqeq	r0, r1
    85ee:	f440 0080 	orrne.w	r0, r0, #4194304	; 0x400000
    85f2:	4770      	bx	lr

000085f4 <__aeabi_ui2f>:
    85f4:	f04f 0300 	mov.w	r3, #0
    85f8:	e004      	b.n	8604 <__aeabi_i2f+0x8>
    85fa:	bf00      	nop

000085fc <__aeabi_i2f>:
    85fc:	f010 4300 	ands.w	r3, r0, #2147483648	; 0x80000000
    8600:	bf48      	it	mi
    8602:	4240      	negmi	r0, r0
    8604:	ea5f 0c00 	movs.w	r12, r0
    8608:	bf08      	it	eq
    860a:	4770      	bxeq	lr
    860c:	f043 4396 	orr.w	r3, r3, #1258291200	; 0x4b000000
    8610:	4601      	mov	r1, r0
    8612:	f04f 0000 	mov.w	r0, #0
    8616:	e01c      	b.n	8652 <__aeabi_l2f+0x2a>

00008618 <__aeabi_ul2f>:
    8618:	ea50 0201 	orrs.w	r2, r0, r1
    861c:	bf08      	it	eq
    861e:	4770      	bxeq	lr
    8620:	f04f 0300 	mov.w	r3, #0
    8624:	e00a      	b.n	863c <__aeabi_l2f+0x14>
    8626:	bf00      	nop

00008628 <__aeabi_l2f>:
    8628:	ea50 0201 	orrs.w	r2, r0, r1
    862c:	bf08      	it	eq
    862e:	4770      	bxeq	lr
    8630:	f011 4300 	ands.w	r3, r1, #2147483648	; 0x80000000
    8634:	d502      	bpl.n	863c <__aeabi_l2f+0x14>
    8636:	4240      	negs	r0, r0
    8638:	eb61 0141 	sbc.w	r1, r1, r1, lsl #1
    863c:	ea5f 0c01 	movs.w	r12, r1
    8640:	bf02      	ittt	eq
    8642:	4684      	moveq	r12, r0
    8644:	4601      	moveq	r1, r0
    8646:	2000      	moveq	r0, #0
    8648:	f043 43b6 	orr.w	r3, r3, #1526726656	; 0x5b000000
    864c:	bf08      	it	eq
    864e:	f1a3 5380 	subeq.w	r3, r3, #268435456	; 0x10000000
    8652:	f5a3 0300 	sub.w	r3, r3, #8388608	; 0x800000
    8656:	fabc f28c 	clz	r2, r12
    865a:	3a08      	subs	r2, #8
    865c:	eba3 53c2 	sub.w	r3, r3, r2, lsl #23
    8660:	db10      	blt.n	8684 <__aeabi_l2f+0x5c>
    8662:	fa01 fc02 	lsl.w	r12, r1, r2
    8666:	4463      	add	r3, r12
    8668:	fa00 fc02 	lsl.w	r12, r0, r2
    866c:	f1c2 0220 	rsb	r2, r2, #32
    8670:	f1bc 4f00 	cmp.w	r12, #2147483648	; 0x80000000
    8674:	fa20 f202 	lsr.w	r2, r0, r2
    8678:	eb43 0002 	adc.w	r0, r3, r2
    867c:	bf08      	it	eq
    867e:	f020 0001 	biceq.w	r0, r0, #1
    8682:	4770      	bx	lr
    8684:	f102 0220 	add.w	r2, r2, #32
    8688:	fa01 fc02 	lsl.w	r12, r1, r2
    868c:	f1c2 0220 	rsb	r2, r2, #32
    8690:	ea50 004c 	orrs.w	r0, r0, r12, lsl #1
    8694:	fa21 f202 	lsr.w	r2, r1, r2
    8698:	eb43 0002 	adc.w	r0, r3, r2
    869c:	bf08      	it	eq
    869e:	ea20 70dc 	biceq.w	r0, r0, r12, lsr #31
    86a2:	4770      	bx	lr

000086a4 <__aeabi_fmul>:
    86a4:	f04f 0cff 	mov.w	r12, #255	; 0xff
    86a8:	ea1c 52d0 	ands.w	r2, r12, r0, lsr #23
    86ac:	bf1e      	ittt	ne
    86ae:	ea1c 53d1 	andsne.w	r3, r12, r1, lsr #23
    86b2:	ea92 0f0c 	teqne	r2, r12
    86b6:	ea93 0f0c 	teqne	r3, r12
    86ba:	d06f      	beq.n	879c <__aeabi_fmul+0xf8>
    86bc:	441a      	add	r2, r3
    86be:	ea80 0c01 	eor.w	r12, r0, r1
    86c2:	0240      	lsls	r0, r0, #9
    86c4:	bf18      	it	ne
    86c6:	ea5f 2141 	movsne.w	r1, r1, lsl #9
    86ca:	d01e      	beq.n	870a <__aeabi_fmul+0x66>
    86cc:	f04f 6300 	mov.w	r3, #134217728	; 0x8000000
    86d0:	ea43 1050 	orr.w	r0, r3, r0, lsr #5
    86d4:	ea43 1151 	orr.w	r1, r3, r1, lsr #5
    86d8:	fba0 3101 	umull	r3, r1, r0, r1
    86dc:	f00c 4000 	and.w	r0, r12, #2147483648	; 0x80000000
    86e0:	f5b1 0f00 	cmp.w	r1, #8388608	; 0x800000
    86e4:	bf3e      	ittt	cc
    86e6:	0049      	lslcc	r1, r1, #1
    86e8:	ea41 71d3 	orrcc.w	r1, r1, r3, lsr #31
    86ec:	005b      	lslcc	r3, r3, #1
    86ee:	ea40 0001 	orr.w	r0, r0, r1
    86f2:	f162 027f 	sbc.w	r2, r2, #127	; 0x7f
    86f6:	2afd      	cmp	r2, #253	; 0xfd
    86f8:	d81d      	bhi.n	8736 <__aeabi_fmul+0x92>
    86fa:	f1b3 4f00 	cmp.w	r3, #2147483648	; 0x80000000
    86fe:	eb40 50c2 	adc.w	r0, r0, r2, lsl #23
    8702:	bf08      	it	eq
    8704:	f020 0001 	biceq.w	r0, r0, #1
    8708:	4770      	bx	lr
    870a:	f090 0f00 	teq	r0, #0
    870e:	f00c 4c00 	and.w	r12, r12, #2147483648	; 0x80000000
    8712:	bf08      	it	eq
    8714:	0249      	lsleq	r1, r1, #9
    8716:	ea4c 2050 	orr.w	r0, r12, r0, lsr #9
    871a:	ea40 2051 	orr.w	r0, r0, r1, lsr #9
    871e:	3a7f      	subs	r2, #127	; 0x7f
    8720:	bfc2      	ittt	gt
    8722:	f1d2 03ff 	rsbsgt	r3, r2, #255	; 0xff
    8726:	ea40 50c2 	orrgt.w	r0, r0, r2, lsl #23
    872a:	4770      	bxgt	lr
    872c:	f440 0000 	orr.w	r0, r0, #8388608	; 0x800000
    8730:	f04f 0300 	mov.w	r3, #0
    8734:	3a01      	subs	r2, #1
    8736:	dc5d      	bgt.n	87f4 <__aeabi_fmul+0x150>
    8738:	f112 0f19 	cmn.w	r2, #25
    873c:	bfdc      	itt	le
    873e:	f000 4000 	andle.w	r0, r0, #2147483648	; 0x80000000
    8742:	4770      	bxle	lr
    8744:	f1c2 0200 	rsb	r2, r2, #0
    8748:	0041      	lsls	r1, r0, #1
    874a:	fa21 f102 	lsr.w	r1, r1, r2
    874e:	f1c2 0220 	rsb	r2, r2, #32
    8752:	fa00 fc02 	lsl.w	r12, r0, r2
    8756:	ea5f 0031 	movs.w	r0, r1, rrx
    875a:	f140 0000 	adc.w	r0, r0, #0
    875e:	ea53 034c 	orrs.w	r3, r3, r12, lsl #1
    8762:	bf08      	it	eq
    8764:	ea20 70dc 	biceq.w	r0, r0, r12, lsr #31
    8768:	4770      	bx	lr
    876a:	f092 0f00 	teq	r2, #0
    876e:	f000 4c00 	and.w	r12, r0, #2147483648	; 0x80000000
    8772:	bf02      	ittt	eq
    8774:	0040      	lsleq	r0, r0, #1
    8776:	f410 0f00 	tsteq.w	r0, #8388608	; 0x800000
    877a:	3a01      	subeq	r2, #1
    877c:	d0f9      	beq.n	8772 <__aeabi_fmul+0xce>
    877e:	ea40 000c 	orr.w	r0, r0, r12
    8782:	f093 0f00 	teq	r3, #0
    8786:	f001 4c00 	and.w	r12, r1, #2147483648	; 0x80000000
    878a:	bf02      	ittt	eq
    878c:	0049      	lsleq	r1, r1, #1
    878e:	f411 0f00 	tsteq.w	r1, #8388608	; 0x800000
    8792:	3b01      	subeq	r3, #1
    8794:	d0f9      	beq.n	878a <__aeabi_fmul+0xe6>
    8796:	ea41 010c 	orr.w	r1, r1, r12
    879a:	e78f      	b.n	86bc <__aeabi_fmul+0x18>
    879c:	ea0c 53d1 	and.w	r3, r12, r1, lsr #23
    87a0:	ea92 0f0c 	teq	r2, r12
    87a4:	bf18      	it	ne
    87a6:	ea93 0f0c 	teqne	r3, r12
    87aa:	d00a      	beq.n	87c2 <__aeabi_fmul+0x11e>
    87ac:	f030 4c00 	bics.w	r12, r0, #2147483648	; 0x80000000
    87b0:	bf18      	it	ne
    87b2:	f031 4c00 	bicsne.w	r12, r1, #2147483648	; 0x80000000
    87b6:	d1d8      	bne.n	876a <__aeabi_fmul+0xc6>
    87b8:	ea80 0001 	eor.w	r0, r0, r1
    87bc:	f000 4000 	and.w	r0, r0, #2147483648	; 0x80000000
    87c0:	4770      	bx	lr
    87c2:	f090 0f00 	teq	r0, #0
    87c6:	bf17      	itett	ne
    87c8:	f090 4f00 	teqne	r0, #2147483648	; 0x80000000
    87cc:	4608      	moveq	r0, r1
    87ce:	f091 0f00 	teqne	r1, #0
    87d2:	f091 4f00 	teqne	r1, #2147483648	; 0x80000000
    87d6:	d014      	beq.n	8802 <__aeabi_fmul+0x15e>
    87d8:	ea92 0f0c 	teq	r2, r12
    87dc:	d101      	bne.n	87e2 <__aeabi_fmul+0x13e>
    87de:	0242      	lsls	r2, r0, #9
    87e0:	d10f      	bne.n	8802 <__aeabi_fmul+0x15e>
    87e2:	ea93 0f0c 	teq	r3, r12
    87e6:	d103      	bne.n	87f0 <__aeabi_fmul+0x14c>
    87e8:	024b      	lsls	r3, r1, #9
    87ea:	bf18      	it	ne
    87ec:	4608      	movne	r0, r1
    87ee:	d108      	bne.n	8802 <__aeabi_fmul+0x15e>
    87f0:	ea80 0001 	eor.w	r0, r0, r1
    87f4:	f000 4000 	and.w	r0, r0, #2147483648	; 0x80000000
    87f8:	f040 40fe 	orr.w	r0, r0, #2130706432	; 0x7f000000
    87fc:	f440 0000 	orr.w	r0, r0, #8388608	; 0x800000
    8800:	4770      	bx	lr
    8802:	f040 40fe 	orr.w	r0, r0, #2130706432	; 0x7f000000
    8806:	f440 0040 	orr.w	r0, r0, #12582912	; 0xc00000
    880a:	4770      	bx	lr

0000880c <__aeabi_fdiv>:
    880c:	f04f 0cff 	mov.w	r12, #255	; 0xff
    8810:	ea1c 52d0 	ands.w	r2, r12, r0, lsr #23
    8814:	bf1e      	ittt	ne
    8816:	ea1c 53d1 	andsne.w	r3, r12, r1, lsr #23
    881a:	ea92 0f0c 	teqne	r2, r12
    881e:	ea93 0f0c 	teqne	r3, r12
    8822:	d069      	beq.n	88f8 <__aeabi_fdiv+0xec>
    8824:	eba2 0203 	sub.w	r2, r2, r3
    8828:	ea80 0c01 	eor.w	r12, r0, r1
    882c:	0249      	lsls	r1, r1, #9
    882e:	ea4f 2040 	mov.w	r0, r0, lsl #9
    8832:	d037      	beq.n	88a4 <__aeabi_fdiv+0x98>
    8834:	f04f 5380 	mov.w	r3, #268435456	; 0x10000000
    8838:	ea43 1111 	orr.w	r1, r3, r1, lsr #4
    883c:	ea43 1310 	orr.w	r3, r3, r0, lsr #4
    8840:	f00c 4000 	and.w	r0, r12, #2147483648	; 0x80000000
    8844:	428b      	cmp	r3, r1
    8846:	bf38      	it	cc
    8848:	005b      	lslcc	r3, r3, #1
    884a:	f142 027d 	adc.w	r2, r2, #125	; 0x7d
    884e:	f44f 0c00 	mov.w	r12, #8388608	; 0x800000
    8852:	428b      	cmp	r3, r1
    8854:	bf24      	itt	cs
    8856:	1a5b      	subcs	r3, r3, r1
    8858:	ea40 000c 	orrcs.w	r0, r0, r12
    885c:	ebb3 0f51 	cmp.w	r3, r1, lsr #1
    8860:	bf24      	itt	cs
    8862:	eba3 0351 	subcs.w	r3, r3, r1, lsr #1
    8866:	ea40 005c 	orrcs.w	r0, r0, r12, lsr #1
    886a:	ebb3 0f91 	cmp.w	r3, r1, lsr #2
    886e:	bf24      	itt	cs
    8870:	eba3 0391 	subcs.w	r3, r3, r1, lsr #2
    8874:	ea40 009c 	orrcs.w	r0, r0, r12, lsr #2
    8878:	ebb3 0fd1 	cmp.w	r3, r1, lsr #3
    887c:	bf24      	itt	cs
    887e:	eba3 03d1 	subcs.w	r3, r3, r1, lsr #3
    8882:	ea40 00dc 	orrcs.w	r0, r0, r12, lsr #3
    8886:	011b      	lsls	r3, r3, #4
    8888:	bf18      	it	ne
    888a:	ea5f 1c1c 	movsne.w	r12, r12, lsr #4
    888e:	d1e0      	bne.n	8852 <__aeabi_fdiv+0x46>
    8890:	2afd      	cmp	r2, #253	; 0xfd
    8892:	f63f af50 	bhi.w	8736 <__aeabi_fmul+0x92>
    8896:	428b      	cmp	r3, r1
    8898:	eb40 50c2 	adc.w	r0, r0, r2, lsl #23
    889c:	bf08      	it	eq
    889e:	f020 0001 	biceq.w	r0, r0, #1
    88a2:	4770      	bx	lr
    88a4:	f00c 4c00 	and.w	r12, r12, #2147483648	; 0x80000000
    88a8:	ea4c 2050 	orr.w	r0, r12, r0, lsr #9
    88ac:	327f      	adds	r2, #127	; 0x7f
    88ae:	bfc2      	ittt	gt
    88b0:	f1d2 03ff 	rsbsgt	r3, r2, #255	; 0xff
    88b4:	ea40 50c2 	orrgt.w	r0, r0, r2, lsl #23
    88b8:	4770      	bxgt	lr
    88ba:	f440 0000 	orr.w	r0, r0, #8388608	; 0x800000
    88be:	f04f 0300 	mov.w	r3, #0
    88c2:	3a01      	subs	r2, #1
    88c4:	e737      	b.n	8736 <__aeabi_fmul+0x92>
    88c6:	f092 0f00 	teq	r2, #0
    88ca:	f000 4c00 	and.w	r12, r0, #2147483648	; 0x80000000
    88ce:	bf02      	ittt	eq
    88d0:	0040      	lsleq	r0, r0, #1
    88d2:	f410 0f00 	tsteq.w	r0, #8388608	; 0x800000
    88d6:	3a01      	subeq	r2, #1
    88d8:	d0f9      	beq.n	88ce <__aeabi_fdiv+0xc2>
    88da:	ea40 000c 	orr.w	r0, r0, r12
    88de:	f093 0f00 	teq	r3, #0
    88e2:	f001 4c00 	and.w	r12, r1, #2147483648	; 0x80000000
    88e6:	bf02      	ittt	eq
    88e8:	0049      	lsleq	r1, r1, #1
    88ea:	f411 0f00 	tsteq.w	r1, #8388608	; 0x800000
    88ee:	3b01      	subeq	r3, #1
    88f0:	d0f9      	beq.n	88e6 <__aeabi_fdiv+0xda>
    88f2:	ea41 010c 	orr.w	r1, r1, r12
    88f6:	e795      	b.n	8824 <__aeabi_fdiv+0x18>
    88f8:	ea0c 53d1 	and.w	r3, r12, r1, lsr #23
    88fc:	ea92 0f0c 	teq	r2, r12
    8900:	d108      	bne.n	8914 <__aeabi_fdiv+0x108>
    8902:	0242      	lsls	r2, r0, #9
    8904:	f47f af7d 	bne.w	8802 <__aeabi_fmul+0x15e>
    8908:	ea93 0f0c 	teq	r3, r12
    890c:	f47f af70 	bne.w	87f0 <__aeabi_fmul+0x14c>
    8910:	4608      	mov	r0, r1
    8912:	e776      	b.n	8802 <__aeabi_fmul+0x15e>
    8914:	ea93 0f0c 	teq	r3, r12
    8918:	d104      	bne.n	8924 <__aeabi_fdiv+0x118>
    891a:	024b      	lsls	r3, r1, #9
    891c:	f43f af4c 	beq.w	87b8 <__aeabi_fmul+0x114>
    8920:	4608      	mov	r0, r1
    8922:	e76e      	b.n	8802 <__aeabi_fmul+0x15e>
    8924:	f030 4c00 	bics.w	r12, r0, #2147483648	; 0x80000000
    8928:	bf18      	it	ne
    892a:	f031 4c00 	bicsne.w	r12, r1, #2147483648	; 0x80000000
    892e:	d1ca      	bne.n	88c6 <__aeabi_fdiv+0xba>
    8930:	f030 4200 	bics.w	r2, r0, #2147483648	; 0x80000000
    8934:	f47f af5c 	bne.w	87f0 <__aeabi_fmul+0x14c>
    8938:	f031 4300 	bics.w	r3, r1, #2147483648	; 0x80000000
    893c:	f47f af3c 	bne.w	87b8 <__aeabi_fmul+0x114>
    8940:	e75f      	b.n	8802 <__aeabi_fmul+0x15e>
    8942:	bf00      	nop

00008944 <__gesf2>:
    8944:	f04f 3cff 	mov.w	r12, #4294967295
    8948:	e006      	b.n	8958 <__cmpsf2+0x4>
    894a:	bf00      	nop

0000894c <__lesf2>:
    894c:	f04f 0c01 	mov.w	r12, #1
    8950:	e002      	b.n	8958 <__cmpsf2+0x4>
    8952:	bf00      	nop

00008954 <__cmpsf2>:
    8954:	f04f 0c01 	mov.w	r12, #1
    8958:	f84d cd04 	str.w	r12, [sp, #-4]!
    895c:	ea4f 0240 	mov.w	r2, r0, lsl #1
    8960:	ea4f 0341 	mov.w	r3, r1, lsl #1
    8964:	ea7f 6c22 	mvns.w	r12, r2, asr #24
    8968:	bf18      	it	ne
    896a:	ea7f 6c23 	mvnsne.w	r12, r3, asr #24
    896e:	d011      	beq.n	8994 <__cmpsf2+0x40>
    8970:	b001      	add	sp, #4
    8972:	ea52 0c53 	orrs.w	r12, r2, r3, lsr #1
    8976:	bf18      	it	ne
    8978:	ea90 0f01 	teqne	r0, r1
    897c:	bf58      	it	pl
    897e:	ebb2 0003 	subspl.w	r0, r2, r3
    8982:	bf88      	it	hi
    8984:	17c8      	asrhi	r0, r1, #31
    8986:	bf38      	it	cc
    8988:	ea6f 70e1 	mvncc.w	r0, r1, asr #31
    898c:	bf18      	it	ne
    898e:	f040 0001 	orrne.w	r0, r0, #1
    8992:	4770      	bx	lr
    8994:	ea7f 6c22 	mvns.w	r12, r2, asr #24
    8998:	d102      	bne.n	89a0 <__cmpsf2+0x4c>
    899a:	ea5f 2c40 	movs.w	r12, r0, lsl #9
    899e:	d105      	bne.n	89ac <__cmpsf2+0x58>
    89a0:	ea7f 6c23 	mvns.w	r12, r3, asr #24
    89a4:	d1e4      	bne.n	8970 <__cmpsf2+0x1c>
    89a6:	ea5f 2c41 	movs.w	r12, r1, lsl #9
    89aa:	d0e1      	beq.n	8970 <__cmpsf2+0x1c>
    89ac:	f85d 0b04 	ldr.w	r0, [sp], #4
    89b0:	4770      	bx	lr
    89b2:	bf00      	nop

000089b4 <__aeabi_cfrcmple>:
    89b4:	4684      	mov	r12, r0
    89b6:	4608      	mov	r0, r1
    89b8:	4661      	mov	r1, r12
    89ba:	e7ff      	b.n	89bc <__aeabi_cfcmpeq>

000089bc <__aeabi_cfcmpeq>:
    89bc:	b50f      	push	{r0, r1, r2, r3, lr}
    89be:	f7ff ffc9 	bl	8954 <__cmpsf2>
    89c2:	2800      	cmp	r0, #0
    89c4:	bf48      	it	mi
    89c6:	f110 0f00 	cmnmi.w	r0, #0
    89ca:	bd0f      	pop	{r0, r1, r2, r3, pc}

000089cc <__aeabi_fcmpeq>:
    89cc:	f84d ed08 	str.w	lr, [sp, #-8]!
    89d0:	f7ff fff4 	bl	89bc <__aeabi_cfcmpeq>
    89d4:	bf0c      	ite	eq
    89d6:	2001      	moveq	r0, #1
    89d8:	2000      	movne	r0, #0
    89da:	f85d fb08 	ldr.w	pc, [sp], #8
    89de:	bf00      	nop

000089e0 <__aeabi_fcmplt>:
    89e0:	f84d ed08 	str.w	lr, [sp, #-8]!
    89e4:	f7ff ffea 	bl	89bc <__aeabi_cfcmpeq>
    89e8:	bf34      	ite	cc
    89ea:	2001      	movcc	r0, #1
    89ec:	2000      	movcs	r0, #0
    89ee:	f85d fb08 	ldr.w	pc, [sp], #8
    89f2:	bf00      	nop

000089f4 <__aeabi_fcmple>:
    89f4:	f84d ed08 	str.w	lr, [sp, #-8]!
    89f8:	f7ff ffe0 	bl	89bc <__aeabi_cfcmpeq>
    89fc:	bf94      	ite	ls
    89fe:	2001      	movls	r0, #1
    8a00:	2000      	movhi	r0, #0
    8a02:	f85d fb08 	ldr.w	pc, [sp], #8
    8a06:	bf00      	nop

00008a08 <__aeabi_fcmpge>:
    8a08:	f84d ed08 	str.w	lr, [sp, #-8]!
    8a0c:	f7ff ffd2 	bl	89b4 <__aeabi_cfrcmple>
    8a10:	bf94      	ite	ls
    8a12:	2001      	movls	r0, #1
    8a14:	2000      	movhi	r0, #0
    8a16:	f85d fb08 	ldr.w	pc, [sp], #8
    8a1a:	bf00      	nop

00008a1c <__aeabi_fcmpgt>:
    8a1c:	f84d ed08 	str.w	lr, [sp, #-8]!
    8a20:	f7ff ffc8 	bl	89b4 <__aeabi_cfrcmple>
    8a24:	bf34      	ite	cc
    8a26:	2001      	movcc	r0, #1
    8a28:	2000      	movcs	r0, #0
    8a2a:	f85d fb08 	ldr.w	pc, [sp], #8
    8a2e:	bf00      	nop

00008a30 <__aeabi_f2iz>:
    8a30:	ea4f 0240 	mov.w	r2, r0, lsl #1
    8a34:	f1b2 4ffe 	cmp.w	r2, #2130706432	; 0x7f000000
    8a38:	d30f      	bcc.n	8a5a <__aeabi_f2iz+0x2a>
    8a3a:	f04f 039e 	mov.w	r3, #158	; 0x9e
    8a3e:	ebb3 6212 	subs.w	r2, r3, r2, lsr #24
    8a42:	d90d      	bls.n	8a60 <__aeabi_f2iz+0x30>
    8a44:	ea4f 2300 	mov.w	r3, r0, lsl #8
    8a48:	f043 4300 	orr.w	r3, r3, #2147483648	; 0x80000000
    8a4c:	f010 4f00 	tst.w	r0, #2147483648	; 0x80000000
    8a50:	fa23 f002 	lsr.w	r0, r3, r2
    8a54:	bf18      	it	ne
    8a56:	4240      	negne	r0, r0
    8a58:	4770      	bx	lr
    8a5a:	f04f 0000 	mov.w	r0, #0
    8a5e:	4770      	bx	lr
    8a60:	f112 0f61 	cmn.w	r2, #97	; 0x61
    8a64:	d101      	bne.n	8a6a <__aeabi_f2iz+0x3a>
    8a66:	0242      	lsls	r2, r0, #9
    8a68:	d105      	bne.n	8a76 <__aeabi_f2iz+0x46>
    8a6a:	f010 4000 	ands.w	r0, r0, #2147483648	; 0x80000000
    8a6e:	bf08      	it	eq
    8a70:	f06f 4000 	mvneq.w	r0, #2147483648	; 0x80000000
    8a74:	4770      	bx	lr
    8a76:	f04f 0000 	mov.w	r0, #0
    8a7a:	4770      	bx	lr

00008a7c <__cxa_atexit>:
    8a7c:	b510      	push	{r4, lr}
    8a7e:	4c05      	ldr	r4, [pc, #20]	; (8a94 <__cxa_atexit+0x18>)
    8a80:	4613      	mov	r3, r2
    8a82:	b12c      	cbz	r4, 8a90 <__cxa_atexit+0x14>
    8a84:	460a      	mov	r2, r1
    8a86:	4601      	mov	r1, r0
    8a88:	2002      	movs	r0, #2
    8a8a:	f3af 8000 	nop.w
    8a8e:	bd10      	pop	{r4, pc}
    8a90:	4620      	mov	r0, r4
    8a92:	bd10      	pop	{r4, pc}
    8a94:	00000000 	.word	0x00000000

00008a98 <__errno>:
    8a98:	4b01      	ldr	r3, [pc, #4]	; (8aa0 <__errno+0x8>)
    8a9a:	6818      	ldr	r0, [r3, #0]
    8a9c:	4770      	bx	lr
    8a9e:	bf00      	nop
    8aa0:	10000198 	.word	0x10000198

00008aa4 <exit>:
    8aa4:	b508      	push	{r3, lr}
    8aa6:	4b07      	ldr	r3, [pc, #28]	; (8ac4 <exit+0x20>)
    8aa8:	4604      	mov	r4, r0
    8aaa:	b113      	cbz	r3, 8ab2 <exit+0xe>
    8aac:	2100      	movs	r1, #0
    8aae:	f3af 8000 	nop.w
    8ab2:	4b05      	ldr	r3, [pc, #20]	; (8ac8 <exit+0x24>)
    8ab4:	6818      	ldr	r0, [r3, #0]
    8ab6:	6a83      	ldr	r3, [r0, #40]	; 0x28
    8ab8:	b103      	cbz	r3, 8abc <exit+0x18>
    8aba:	4798      	blx	r3
    8abc:	4620      	mov	r0, r4
    8abe:	f7ff f83f 	bl	7b40 <_exit>
    8ac2:	bf00      	nop
    8ac4:	00000000 	.word	0x00000000
    8ac8:	0000b574 	.word	0x0000b574

00008acc <_fclose_r>:
    8acc:	b570      	push	{r4, r5, r6, lr}
    8ace:	4605      	mov	r5, r0
    8ad0:	460c      	mov	r4, r1
    8ad2:	b909      	cbnz	r1, 8ad8 <_fclose_r+0xc>
    8ad4:	2000      	movs	r0, #0
    8ad6:	bd70      	pop	{r4, r5, r6, pc}
    8ad8:	b118      	cbz	r0, 8ae2 <_fclose_r+0x16>
    8ada:	6983      	ldr	r3, [r0, #24]
    8adc:	b90b      	cbnz	r3, 8ae2 <_fclose_r+0x16>
    8ade:	f000 f985 	bl	8dec <__sinit>
    8ae2:	4b20      	ldr	r3, [pc, #128]	; (8b64 <_fclose_r+0x98>)
    8ae4:	429c      	cmp	r4, r3
    8ae6:	d101      	bne.n	8aec <_fclose_r+0x20>
    8ae8:	686c      	ldr	r4, [r5, #4]
    8aea:	e008      	b.n	8afe <_fclose_r+0x32>
    8aec:	4b1e      	ldr	r3, [pc, #120]	; (8b68 <_fclose_r+0x9c>)
    8aee:	429c      	cmp	r4, r3
    8af0:	d101      	bne.n	8af6 <_fclose_r+0x2a>
    8af2:	68ac      	ldr	r4, [r5, #8]
    8af4:	e003      	b.n	8afe <_fclose_r+0x32>
    8af6:	4b1d      	ldr	r3, [pc, #116]	; (8b6c <_fclose_r+0xa0>)
    8af8:	429c      	cmp	r4, r3
    8afa:	bf08      	it	eq
    8afc:	68ec      	ldreq	r4, [r5, #12]
    8afe:	f9b4 300c 	ldrsh.w	r3, [r4, #12]
    8b02:	2b00      	cmp	r3, #0
    8b04:	d0e6      	beq.n	8ad4 <_fclose_r+0x8>
    8b06:	4621      	mov	r1, r4
    8b08:	4628      	mov	r0, r5
    8b0a:	f000 f839 	bl	8b80 <__sflush_r>
    8b0e:	6b23      	ldr	r3, [r4, #48]	; 0x30
    8b10:	4606      	mov	r6, r0
    8b12:	b133      	cbz	r3, 8b22 <_fclose_r+0x56>
    8b14:	6a21      	ldr	r1, [r4, #32]
    8b16:	4628      	mov	r0, r5
    8b18:	4798      	blx	r3
    8b1a:	2800      	cmp	r0, #0
    8b1c:	bfb8      	it	lt
    8b1e:	f04f 36ff 	movlt.w	r6, #4294967295
    8b22:	89a3      	ldrh	r3, [r4, #12]
    8b24:	061b      	lsls	r3, r3, #24
    8b26:	d503      	bpl.n	8b30 <_fclose_r+0x64>
    8b28:	6921      	ldr	r1, [r4, #16]
    8b2a:	4628      	mov	r0, r5
    8b2c:	f000 fbc6 	bl	92bc <_free_r>
    8b30:	6b61      	ldr	r1, [r4, #52]	; 0x34
    8b32:	b141      	cbz	r1, 8b46 <_fclose_r+0x7a>
    8b34:	f104 0344 	add.w	r3, r4, #68	; 0x44
    8b38:	4299      	cmp	r1, r3
    8b3a:	d002      	beq.n	8b42 <_fclose_r+0x76>
    8b3c:	4628      	mov	r0, r5
    8b3e:	f000 fbbd 	bl	92bc <_free_r>
    8b42:	2300      	movs	r3, #0
    8b44:	6363      	str	r3, [r4, #52]	; 0x34
    8b46:	6ca1      	ldr	r1, [r4, #72]	; 0x48
    8b48:	b121      	cbz	r1, 8b54 <_fclose_r+0x88>
    8b4a:	4628      	mov	r0, r5
    8b4c:	f000 fbb6 	bl	92bc <_free_r>
    8b50:	2300      	movs	r3, #0
    8b52:	64a3      	str	r3, [r4, #72]	; 0x48
    8b54:	f000 f9b6 	bl	8ec4 <__sfp_lock_acquire>
    8b58:	2300      	movs	r3, #0
    8b5a:	81a3      	strh	r3, [r4, #12]
    8b5c:	f000 f9b3 	bl	8ec6 <__sfp_lock_release>
    8b60:	4630      	mov	r0, r6
    8b62:	bd70      	pop	{r4, r5, r6, pc}
    8b64:	0000b510 	.word	0x0000b510
    8b68:	0000b530 	.word	0x0000b530
    8b6c:	0000b550 	.word	0x0000b550

00008b70 <fclose>:
    8b70:	4b02      	ldr	r3, [pc, #8]	; (8b7c <fclose+0xc>)
    8b72:	4601      	mov	r1, r0
    8b74:	6818      	ldr	r0, [r3, #0]
    8b76:	f7ff bfa9 	b.w	8acc <_fclose_r>
    8b7a:	bf00      	nop
    8b7c:	10000198 	.word	0x10000198

00008b80 <__sflush_r>:
    8b80:	898a      	ldrh	r2, [r1, #12]
    8b82:	e92d 41f0 	stmdb	sp!, {r4, r5, r6, r7, r8, lr}
    8b86:	4605      	mov	r5, r0
    8b88:	0710      	lsls	r0, r2, #28
    8b8a:	460c      	mov	r4, r1
    8b8c:	d459      	bmi.n	8c42 <__sflush_r+0xc2>
    8b8e:	684b      	ldr	r3, [r1, #4]
    8b90:	2b00      	cmp	r3, #0
    8b92:	dc02      	bgt.n	8b9a <__sflush_r+0x1a>
    8b94:	6c0b      	ldr	r3, [r1, #64]	; 0x40
    8b96:	2b00      	cmp	r3, #0
    8b98:	dd17      	ble.n	8bca <__sflush_r+0x4a>
    8b9a:	6ae6      	ldr	r6, [r4, #44]	; 0x2c
    8b9c:	b1ae      	cbz	r6, 8bca <__sflush_r+0x4a>
    8b9e:	f402 5280 	and.w	r2, r2, #4096	; 0x1000
    8ba2:	2300      	movs	r3, #0
    8ba4:	b292      	uxth	r2, r2
    8ba6:	682f      	ldr	r7, [r5, #0]
    8ba8:	602b      	str	r3, [r5, #0]
    8baa:	b10a      	cbz	r2, 8bb0 <__sflush_r+0x30>
    8bac:	6d60      	ldr	r0, [r4, #84]	; 0x54
    8bae:	e015      	b.n	8bdc <__sflush_r+0x5c>
    8bb0:	6a21      	ldr	r1, [r4, #32]
    8bb2:	2301      	movs	r3, #1
    8bb4:	4628      	mov	r0, r5
    8bb6:	47b0      	blx	r6
    8bb8:	1c41      	adds	r1, r0, #1
    8bba:	d10f      	bne.n	8bdc <__sflush_r+0x5c>
    8bbc:	682b      	ldr	r3, [r5, #0]
    8bbe:	b16b      	cbz	r3, 8bdc <__sflush_r+0x5c>
    8bc0:	2b1d      	cmp	r3, #29
    8bc2:	d001      	beq.n	8bc8 <__sflush_r+0x48>
    8bc4:	2b16      	cmp	r3, #22
    8bc6:	d103      	bne.n	8bd0 <__sflush_r+0x50>
    8bc8:	602f      	str	r7, [r5, #0]
    8bca:	2000      	movs	r0, #0
    8bcc:	e8bd 81f0 	ldmia.w	sp!, {r4, r5, r6, r7, r8, pc}
    8bd0:	89a3      	ldrh	r3, [r4, #12]
    8bd2:	f043 0340 	orr.w	r3, r3, #64	; 0x40
    8bd6:	81a3      	strh	r3, [r4, #12]
    8bd8:	e8bd 81f0 	ldmia.w	sp!, {r4, r5, r6, r7, r8, pc}
    8bdc:	89a3      	ldrh	r3, [r4, #12]
    8bde:	075a      	lsls	r2, r3, #29
    8be0:	d505      	bpl.n	8bee <__sflush_r+0x6e>
    8be2:	6863      	ldr	r3, [r4, #4]
    8be4:	1ac0      	subs	r0, r0, r3
    8be6:	6b63      	ldr	r3, [r4, #52]	; 0x34
    8be8:	b10b      	cbz	r3, 8bee <__sflush_r+0x6e>
    8bea:	6c23      	ldr	r3, [r4, #64]	; 0x40
    8bec:	1ac0      	subs	r0, r0, r3
    8bee:	2300      	movs	r3, #0
    8bf0:	4602      	mov	r2, r0
    8bf2:	6ae6      	ldr	r6, [r4, #44]	; 0x2c
    8bf4:	6a21      	ldr	r1, [r4, #32]
    8bf6:	4628      	mov	r0, r5
    8bf8:	47b0      	blx	r6
    8bfa:	1c43      	adds	r3, r0, #1
    8bfc:	89a3      	ldrh	r3, [r4, #12]
    8bfe:	d106      	bne.n	8c0e <__sflush_r+0x8e>
    8c00:	6829      	ldr	r1, [r5, #0]
    8c02:	291d      	cmp	r1, #29
    8c04:	d839      	bhi.n	8c7a <__sflush_r+0xfa>
    8c06:	4a20      	ldr	r2, [pc, #128]	; (8c88 <__sflush_r+0x108>)
    8c08:	40ca      	lsrs	r2, r1
    8c0a:	07d6      	lsls	r6, r2, #31
    8c0c:	d535      	bpl.n	8c7a <__sflush_r+0xfa>
    8c0e:	2200      	movs	r2, #0
    8c10:	6062      	str	r2, [r4, #4]
    8c12:	6922      	ldr	r2, [r4, #16]
    8c14:	04d9      	lsls	r1, r3, #19
    8c16:	6022      	str	r2, [r4, #0]
    8c18:	d504      	bpl.n	8c24 <__sflush_r+0xa4>
    8c1a:	1c42      	adds	r2, r0, #1
    8c1c:	d101      	bne.n	8c22 <__sflush_r+0xa2>
    8c1e:	682b      	ldr	r3, [r5, #0]
    8c20:	b903      	cbnz	r3, 8c24 <__sflush_r+0xa4>
    8c22:	6560      	str	r0, [r4, #84]	; 0x54
    8c24:	6b61      	ldr	r1, [r4, #52]	; 0x34
    8c26:	602f      	str	r7, [r5, #0]
    8c28:	2900      	cmp	r1, #0
    8c2a:	d0ce      	beq.n	8bca <__sflush_r+0x4a>
    8c2c:	f104 0344 	add.w	r3, r4, #68	; 0x44
    8c30:	4299      	cmp	r1, r3
    8c32:	d002      	beq.n	8c3a <__sflush_r+0xba>
    8c34:	4628      	mov	r0, r5
    8c36:	f000 fb41 	bl	92bc <_free_r>
    8c3a:	2000      	movs	r0, #0
    8c3c:	6360      	str	r0, [r4, #52]	; 0x34
    8c3e:	e8bd 81f0 	ldmia.w	sp!, {r4, r5, r6, r7, r8, pc}
    8c42:	690f      	ldr	r7, [r1, #16]
    8c44:	2f00      	cmp	r7, #0
    8c46:	d0c0      	beq.n	8bca <__sflush_r+0x4a>
    8c48:	0793      	lsls	r3, r2, #30
    8c4a:	680e      	ldr	r6, [r1, #0]
    8c4c:	bf0c      	ite	eq
    8c4e:	694b      	ldreq	r3, [r1, #20]
    8c50:	2300      	movne	r3, #0
    8c52:	ebc7 0806 	rsb	r8, r7, r6
    8c56:	600f      	str	r7, [r1, #0]
    8c58:	608b      	str	r3, [r1, #8]
    8c5a:	e002      	b.n	8c62 <__sflush_r+0xe2>
    8c5c:	4407      	add	r7, r0
    8c5e:	ebc0 0808 	rsb	r8, r0, r8
    8c62:	f1b8 0f00 	cmp.w	r8, #0
    8c66:	ddb0      	ble.n	8bca <__sflush_r+0x4a>
    8c68:	4643      	mov	r3, r8
    8c6a:	463a      	mov	r2, r7
    8c6c:	6a21      	ldr	r1, [r4, #32]
    8c6e:	4628      	mov	r0, r5
    8c70:	6aa6      	ldr	r6, [r4, #40]	; 0x28
    8c72:	47b0      	blx	r6
    8c74:	2800      	cmp	r0, #0
    8c76:	dcf1      	bgt.n	8c5c <__sflush_r+0xdc>
    8c78:	89a3      	ldrh	r3, [r4, #12]
    8c7a:	f043 0340 	orr.w	r3, r3, #64	; 0x40
    8c7e:	81a3      	strh	r3, [r4, #12]
    8c80:	f04f 30ff 	mov.w	r0, #4294967295
    8c84:	e8bd 81f0 	ldmia.w	sp!, {r4, r5, r6, r7, r8, pc}
    8c88:	20400001 	.word	0x20400001

00008c8c <_fflush_r>:
    8c8c:	b538      	push	{r3, r4, r5, lr}
    8c8e:	690b      	ldr	r3, [r1, #16]
    8c90:	4605      	mov	r5, r0
    8c92:	460c      	mov	r4, r1
    8c94:	b1db      	cbz	r3, 8cce <_fflush_r+0x42>
    8c96:	b118      	cbz	r0, 8ca0 <_fflush_r+0x14>
    8c98:	6983      	ldr	r3, [r0, #24]
    8c9a:	b90b      	cbnz	r3, 8ca0 <_fflush_r+0x14>
    8c9c:	f000 f8a6 	bl	8dec <__sinit>
    8ca0:	4b0c      	ldr	r3, [pc, #48]	; (8cd4 <_fflush_r+0x48>)
    8ca2:	429c      	cmp	r4, r3
    8ca4:	d101      	bne.n	8caa <_fflush_r+0x1e>
    8ca6:	686c      	ldr	r4, [r5, #4]
    8ca8:	e008      	b.n	8cbc <_fflush_r+0x30>
    8caa:	4b0b      	ldr	r3, [pc, #44]	; (8cd8 <_fflush_r+0x4c>)
    8cac:	429c      	cmp	r4, r3
    8cae:	d101      	bne.n	8cb4 <_fflush_r+0x28>
    8cb0:	68ac      	ldr	r4, [r5, #8]
    8cb2:	e003      	b.n	8cbc <_fflush_r+0x30>
    8cb4:	4b09      	ldr	r3, [pc, #36]	; (8cdc <_fflush_r+0x50>)
    8cb6:	429c      	cmp	r4, r3
    8cb8:	bf08      	it	eq
    8cba:	68ec      	ldreq	r4, [r5, #12]
    8cbc:	f9b4 300c 	ldrsh.w	r3, [r4, #12]
    8cc0:	b12b      	cbz	r3, 8cce <_fflush_r+0x42>
    8cc2:	4621      	mov	r1, r4
    8cc4:	4628      	mov	r0, r5
    8cc6:	e8bd 4038 	ldmia.w	sp!, {r3, r4, r5, lr}
    8cca:	f7ff bf59 	b.w	8b80 <__sflush_r>
    8cce:	2000      	movs	r0, #0
    8cd0:	bd38      	pop	{r3, r4, r5, pc}
    8cd2:	bf00      	nop
    8cd4:	0000b510 	.word	0x0000b510
    8cd8:	0000b530 	.word	0x0000b530
    8cdc:	0000b550 	.word	0x0000b550

00008ce0 <fflush>:
    8ce0:	4601      	mov	r1, r0
    8ce2:	b920      	cbnz	r0, 8cee <fflush+0xe>
    8ce4:	4b04      	ldr	r3, [pc, #16]	; (8cf8 <fflush+0x18>)
    8ce6:	4905      	ldr	r1, [pc, #20]	; (8cfc <fflush+0x1c>)
    8ce8:	6818      	ldr	r0, [r3, #0]
    8cea:	f000 ba0b 	b.w	9104 <_fwalk_reent>
    8cee:	4b04      	ldr	r3, [pc, #16]	; (8d00 <fflush+0x20>)
    8cf0:	6818      	ldr	r0, [r3, #0]
    8cf2:	f7ff bfcb 	b.w	8c8c <_fflush_r>
    8cf6:	bf00      	nop
    8cf8:	0000b574 	.word	0x0000b574
    8cfc:	00008c8d 	.word	0x00008c8d
    8d00:	10000198 	.word	0x10000198

00008d04 <_fgetc_r>:
    8d04:	b538      	push	{r3, r4, r5, lr}
    8d06:	460c      	mov	r4, r1
    8d08:	4605      	mov	r5, r0
    8d0a:	b118      	cbz	r0, 8d14 <_fgetc_r+0x10>
    8d0c:	6983      	ldr	r3, [r0, #24]
    8d0e:	b90b      	cbnz	r3, 8d14 <_fgetc_r+0x10>
    8d10:	f000 f86c 	bl	8dec <__sinit>
    8d14:	4b0e      	ldr	r3, [pc, #56]	; (8d50 <_fgetc_r+0x4c>)
    8d16:	429c      	cmp	r4, r3
    8d18:	d101      	bne.n	8d1e <_fgetc_r+0x1a>
    8d1a:	686c      	ldr	r4, [r5, #4]
    8d1c:	e008      	b.n	8d30 <_fgetc_r+0x2c>
    8d1e:	4b0d      	ldr	r3, [pc, #52]	; (8d54 <_fgetc_r+0x50>)
    8d20:	429c      	cmp	r4, r3
    8d22:	d101      	bne.n	8d28 <_fgetc_r+0x24>
    8d24:	68ac      	ldr	r4, [r5, #8]
    8d26:	e003      	b.n	8d30 <_fgetc_r+0x2c>
    8d28:	4b0b      	ldr	r3, [pc, #44]	; (8d58 <_fgetc_r+0x54>)
    8d2a:	429c      	cmp	r4, r3
    8d2c:	bf08      	it	eq
    8d2e:	68ec      	ldreq	r4, [r5, #12]
    8d30:	6863      	ldr	r3, [r4, #4]
    8d32:	3b01      	subs	r3, #1
    8d34:	2b00      	cmp	r3, #0
    8d36:	6063      	str	r3, [r4, #4]
    8d38:	da05      	bge.n	8d46 <_fgetc_r+0x42>
    8d3a:	4621      	mov	r1, r4
    8d3c:	4628      	mov	r0, r5
    8d3e:	e8bd 4038 	ldmia.w	sp!, {r3, r4, r5, lr}
    8d42:	f001 b87b 	b.w	9e3c <__srget_r>
    8d46:	6823      	ldr	r3, [r4, #0]
    8d48:	1c5a      	adds	r2, r3, #1
    8d4a:	6022      	str	r2, [r4, #0]
    8d4c:	7818      	ldrb	r0, [r3, #0]
    8d4e:	bd38      	pop	{r3, r4, r5, pc}
    8d50:	0000b510 	.word	0x0000b510
    8d54:	0000b530 	.word	0x0000b530
    8d58:	0000b550 	.word	0x0000b550

00008d5c <fgetc>:
    8d5c:	4b02      	ldr	r3, [pc, #8]	; (8d68 <fgetc+0xc>)
    8d5e:	4601      	mov	r1, r0
    8d60:	6818      	ldr	r0, [r3, #0]
    8d62:	f7ff bfcf 	b.w	8d04 <_fgetc_r>
    8d66:	bf00      	nop
    8d68:	10000198 	.word	0x10000198

00008d6c <_cleanup_r>:
    8d6c:	4901      	ldr	r1, [pc, #4]	; (8d74 <_cleanup_r+0x8>)
    8d6e:	f000 b9c9 	b.w	9104 <_fwalk_reent>
    8d72:	bf00      	nop
    8d74:	00008c8d 	.word	0x00008c8d

00008d78 <std.isra.0>:
    8d78:	b510      	push	{r4, lr}
    8d7a:	4604      	mov	r4, r0
    8d7c:	2300      	movs	r3, #0
    8d7e:	6003      	str	r3, [r0, #0]
    8d80:	6043      	str	r3, [r0, #4]
    8d82:	6083      	str	r3, [r0, #8]
    8d84:	8181      	strh	r1, [r0, #12]
    8d86:	6643      	str	r3, [r0, #100]	; 0x64
    8d88:	81c2      	strh	r2, [r0, #14]
    8d8a:	6103      	str	r3, [r0, #16]
    8d8c:	6143      	str	r3, [r0, #20]
    8d8e:	6183      	str	r3, [r0, #24]
    8d90:	4619      	mov	r1, r3
    8d92:	2208      	movs	r2, #8
    8d94:	305c      	adds	r0, #92	; 0x5c
    8d96:	f000 fa89 	bl	92ac <memset>
    8d9a:	4b05      	ldr	r3, [pc, #20]	; (8db0 <std.isra.0+0x38>)
    8d9c:	6224      	str	r4, [r4, #32]
    8d9e:	6263      	str	r3, [r4, #36]	; 0x24
    8da0:	4b04      	ldr	r3, [pc, #16]	; (8db4 <std.isra.0+0x3c>)
    8da2:	62a3      	str	r3, [r4, #40]	; 0x28
    8da4:	4b04      	ldr	r3, [pc, #16]	; (8db8 <std.isra.0+0x40>)
    8da6:	62e3      	str	r3, [r4, #44]	; 0x2c
    8da8:	4b04      	ldr	r3, [pc, #16]	; (8dbc <std.isra.0+0x44>)
    8daa:	6323      	str	r3, [r4, #48]	; 0x30
    8dac:	bd10      	pop	{r4, pc}
    8dae:	bf00      	nop
    8db0:	0000a0d1 	.word	0x0000a0d1
    8db4:	0000a0f7 	.word	0x0000a0f7
    8db8:	0000a12f 	.word	0x0000a12f
    8dbc:	0000a153 	.word	0x0000a153

00008dc0 <__sfmoreglue>:
    8dc0:	b570      	push	{r4, r5, r6, lr}
    8dc2:	2368      	movs	r3, #104	; 0x68
    8dc4:	1e4d      	subs	r5, r1, #1
    8dc6:	435d      	muls	r5, r3
    8dc8:	460e      	mov	r6, r1
    8dca:	f105 0174 	add.w	r1, r5, #116	; 0x74
    8dce:	f000 fab9 	bl	9344 <_malloc_r>
    8dd2:	4604      	mov	r4, r0
    8dd4:	b140      	cbz	r0, 8de8 <__sfmoreglue+0x28>
    8dd6:	2100      	movs	r1, #0
    8dd8:	e880 0042 	stmia.w	r0, {r1, r6}
    8ddc:	300c      	adds	r0, #12
    8dde:	60a0      	str	r0, [r4, #8]
    8de0:	f105 0268 	add.w	r2, r5, #104	; 0x68
    8de4:	f000 fa62 	bl	92ac <memset>
    8de8:	4620      	mov	r0, r4
    8dea:	bd70      	pop	{r4, r5, r6, pc}

00008dec <__sinit>:
    8dec:	6983      	ldr	r3, [r0, #24]
    8dee:	b510      	push	{r4, lr}
    8df0:	4604      	mov	r4, r0
    8df2:	bb33      	cbnz	r3, 8e42 <__sinit+0x56>
    8df4:	6483      	str	r3, [r0, #72]	; 0x48
    8df6:	64c3      	str	r3, [r0, #76]	; 0x4c
    8df8:	6503      	str	r3, [r0, #80]	; 0x50
    8dfa:	4b12      	ldr	r3, [pc, #72]	; (8e44 <__sinit+0x58>)
    8dfc:	4a12      	ldr	r2, [pc, #72]	; (8e48 <__sinit+0x5c>)
    8dfe:	681b      	ldr	r3, [r3, #0]
    8e00:	6282      	str	r2, [r0, #40]	; 0x28
    8e02:	4298      	cmp	r0, r3
    8e04:	bf04      	itt	eq
    8e06:	2301      	moveq	r3, #1
    8e08:	6183      	streq	r3, [r0, #24]
    8e0a:	f000 f81f 	bl	8e4c <__sfp>
    8e0e:	6060      	str	r0, [r4, #4]
    8e10:	4620      	mov	r0, r4
    8e12:	f000 f81b 	bl	8e4c <__sfp>
    8e16:	60a0      	str	r0, [r4, #8]
    8e18:	4620      	mov	r0, r4
    8e1a:	f000 f817 	bl	8e4c <__sfp>
    8e1e:	2200      	movs	r2, #0
    8e20:	60e0      	str	r0, [r4, #12]
    8e22:	2104      	movs	r1, #4
    8e24:	6860      	ldr	r0, [r4, #4]
    8e26:	f7ff ffa7 	bl	8d78 <std.isra.0>
    8e2a:	2201      	movs	r2, #1
    8e2c:	2109      	movs	r1, #9
    8e2e:	68a0      	ldr	r0, [r4, #8]
    8e30:	f7ff ffa2 	bl	8d78 <std.isra.0>
    8e34:	2202      	movs	r2, #2
    8e36:	2112      	movs	r1, #18
    8e38:	68e0      	ldr	r0, [r4, #12]
    8e3a:	f7ff ff9d 	bl	8d78 <std.isra.0>
    8e3e:	2301      	movs	r3, #1
    8e40:	61a3      	str	r3, [r4, #24]
    8e42:	bd10      	pop	{r4, pc}
    8e44:	0000b574 	.word	0x0000b574
    8e48:	00008d6d 	.word	0x00008d6d

00008e4c <__sfp>:
    8e4c:	b5f8      	push	{r3, r4, r5, r6, r7, lr}
    8e4e:	4b1c      	ldr	r3, [pc, #112]	; (8ec0 <__sfp+0x74>)
    8e50:	4607      	mov	r7, r0
    8e52:	681e      	ldr	r6, [r3, #0]
    8e54:	69b3      	ldr	r3, [r6, #24]
    8e56:	b913      	cbnz	r3, 8e5e <__sfp+0x12>
    8e58:	4630      	mov	r0, r6
    8e5a:	f7ff ffc7 	bl	8dec <__sinit>
    8e5e:	3648      	adds	r6, #72	; 0x48
    8e60:	68b4      	ldr	r4, [r6, #8]
    8e62:	6873      	ldr	r3, [r6, #4]
    8e64:	3b01      	subs	r3, #1
    8e66:	d404      	bmi.n	8e72 <__sfp+0x26>
    8e68:	f9b4 500c 	ldrsh.w	r5, [r4, #12]
    8e6c:	b17d      	cbz	r5, 8e8e <__sfp+0x42>
    8e6e:	3468      	adds	r4, #104	; 0x68
    8e70:	e7f8      	b.n	8e64 <__sfp+0x18>
    8e72:	6833      	ldr	r3, [r6, #0]
    8e74:	b10b      	cbz	r3, 8e7a <__sfp+0x2e>
    8e76:	6836      	ldr	r6, [r6, #0]
    8e78:	e7f2      	b.n	8e60 <__sfp+0x14>
    8e7a:	2104      	movs	r1, #4
    8e7c:	4638      	mov	r0, r7
    8e7e:	f7ff ff9f 	bl	8dc0 <__sfmoreglue>
    8e82:	6030      	str	r0, [r6, #0]
    8e84:	2800      	cmp	r0, #0
    8e86:	d1f6      	bne.n	8e76 <__sfp+0x2a>
    8e88:	230c      	movs	r3, #12
    8e8a:	603b      	str	r3, [r7, #0]
    8e8c:	bdf8      	pop	{r3, r4, r5, r6, r7, pc}
    8e8e:	f64f 73ff 	movw	r3, #65535	; 0xffff
    8e92:	81e3      	strh	r3, [r4, #14]
    8e94:	2301      	movs	r3, #1
    8e96:	81a3      	strh	r3, [r4, #12]
    8e98:	6665      	str	r5, [r4, #100]	; 0x64
    8e9a:	6025      	str	r5, [r4, #0]
    8e9c:	60a5      	str	r5, [r4, #8]
    8e9e:	6065      	str	r5, [r4, #4]
    8ea0:	6125      	str	r5, [r4, #16]
    8ea2:	6165      	str	r5, [r4, #20]
    8ea4:	61a5      	str	r5, [r4, #24]
    8ea6:	2208      	movs	r2, #8
    8ea8:	4629      	mov	r1, r5
    8eaa:	f104 005c 	add.w	r0, r4, #92	; 0x5c
    8eae:	f000 f9fd 	bl	92ac <memset>
    8eb2:	6365      	str	r5, [r4, #52]	; 0x34
    8eb4:	63a5      	str	r5, [r4, #56]	; 0x38
    8eb6:	64a5      	str	r5, [r4, #72]	; 0x48
    8eb8:	64e5      	str	r5, [r4, #76]	; 0x4c
    8eba:	4620      	mov	r0, r4
    8ebc:	bdf8      	pop	{r3, r4, r5, r6, r7, pc}
    8ebe:	bf00      	nop
    8ec0:	0000b574 	.word	0x0000b574

00008ec4 <__sfp_lock_acquire>:
    8ec4:	4770      	bx	lr

00008ec6 <__sfp_lock_release>:
    8ec6:	4770      	bx	lr

00008ec8 <_fopen_r>:
    8ec8:	b5f7      	push	{r0, r1, r2, r4, r5, r6, r7, lr}
    8eca:	460f      	mov	r7, r1
    8ecc:	4611      	mov	r1, r2
    8ece:	aa01      	add	r2, sp, #4
    8ed0:	4605      	mov	r5, r0
    8ed2:	f001 fb89 	bl	a5e8 <__sflags>
    8ed6:	4606      	mov	r6, r0
    8ed8:	b908      	cbnz	r0, 8ede <_fopen_r+0x16>
    8eda:	2000      	movs	r0, #0
    8edc:	e029      	b.n	8f32 <_fopen_r+0x6a>
    8ede:	4628      	mov	r0, r5
    8ee0:	f7ff ffb4 	bl	8e4c <__sfp>
    8ee4:	4604      	mov	r4, r0
    8ee6:	2800      	cmp	r0, #0
    8ee8:	d0f7      	beq.n	8eda <_fopen_r+0x12>
    8eea:	f44f 73db 	mov.w	r3, #438	; 0x1b6
    8eee:	9a01      	ldr	r2, [sp, #4]
    8ef0:	4639      	mov	r1, r7
    8ef2:	4628      	mov	r0, r5
    8ef4:	f000 febc 	bl	9c70 <_open_r>
    8ef8:	2800      	cmp	r0, #0
    8efa:	da06      	bge.n	8f0a <_fopen_r+0x42>
    8efc:	2500      	movs	r5, #0
    8efe:	f7ff ffe1 	bl	8ec4 <__sfp_lock_acquire>
    8f02:	81a5      	strh	r5, [r4, #12]
    8f04:	f7ff ffdf 	bl	8ec6 <__sfp_lock_release>
    8f08:	e7e7      	b.n	8eda <_fopen_r+0x12>
    8f0a:	4b0b      	ldr	r3, [pc, #44]	; (8f38 <_fopen_r+0x70>)
    8f0c:	81e0      	strh	r0, [r4, #14]
    8f0e:	6263      	str	r3, [r4, #36]	; 0x24
    8f10:	4b0a      	ldr	r3, [pc, #40]	; (8f3c <_fopen_r+0x74>)
    8f12:	81a6      	strh	r6, [r4, #12]
    8f14:	62a3      	str	r3, [r4, #40]	; 0x28
    8f16:	4b0a      	ldr	r3, [pc, #40]	; (8f40 <_fopen_r+0x78>)
    8f18:	6224      	str	r4, [r4, #32]
    8f1a:	62e3      	str	r3, [r4, #44]	; 0x2c
    8f1c:	4b09      	ldr	r3, [pc, #36]	; (8f44 <_fopen_r+0x7c>)
    8f1e:	6323      	str	r3, [r4, #48]	; 0x30
    8f20:	05f3      	lsls	r3, r6, #23
    8f22:	d505      	bpl.n	8f30 <_fopen_r+0x68>
    8f24:	2302      	movs	r3, #2
    8f26:	2200      	movs	r2, #0
    8f28:	4621      	mov	r1, r4
    8f2a:	4628      	mov	r0, r5
    8f2c:	f000 f840 	bl	8fb0 <_fseek_r>
    8f30:	4620      	mov	r0, r4
    8f32:	b003      	add	sp, #12
    8f34:	bdf0      	pop	{r4, r5, r6, r7, pc}
    8f36:	bf00      	nop
    8f38:	0000a0d1 	.word	0x0000a0d1
    8f3c:	0000a0f7 	.word	0x0000a0f7
    8f40:	0000a12f 	.word	0x0000a12f
    8f44:	0000a153 	.word	0x0000a153

00008f48 <fopen>:
    8f48:	4b02      	ldr	r3, [pc, #8]	; (8f54 <fopen+0xc>)
    8f4a:	460a      	mov	r2, r1
    8f4c:	4601      	mov	r1, r0
    8f4e:	6818      	ldr	r0, [r3, #0]
    8f50:	f7ff bfba 	b.w	8ec8 <_fopen_r>
    8f54:	10000198 	.word	0x10000198

00008f58 <_fputc_r>:
    8f58:	b570      	push	{r4, r5, r6, lr}
    8f5a:	460e      	mov	r6, r1
    8f5c:	4614      	mov	r4, r2
    8f5e:	4605      	mov	r5, r0
    8f60:	b118      	cbz	r0, 8f6a <_fputc_r+0x12>
    8f62:	6983      	ldr	r3, [r0, #24]
    8f64:	b90b      	cbnz	r3, 8f6a <_fputc_r+0x12>
    8f66:	f7ff ff41 	bl	8dec <__sinit>
    8f6a:	4b0a      	ldr	r3, [pc, #40]	; (8f94 <_fputc_r+0x3c>)
    8f6c:	429c      	cmp	r4, r3
    8f6e:	d101      	bne.n	8f74 <_fputc_r+0x1c>
    8f70:	686c      	ldr	r4, [r5, #4]
    8f72:	e008      	b.n	8f86 <_fputc_r+0x2e>
    8f74:	4b08      	ldr	r3, [pc, #32]	; (8f98 <_fputc_r+0x40>)
    8f76:	429c      	cmp	r4, r3
    8f78:	d101      	bne.n	8f7e <_fputc_r+0x26>
    8f7a:	68ac      	ldr	r4, [r5, #8]
    8f7c:	e003      	b.n	8f86 <_fputc_r+0x2e>
    8f7e:	4b07      	ldr	r3, [pc, #28]	; (8f9c <_fputc_r+0x44>)
    8f80:	429c      	cmp	r4, r3
    8f82:	bf08      	it	eq
    8f84:	68ec      	ldreq	r4, [r5, #12]
    8f86:	4622      	mov	r2, r4
    8f88:	4631      	mov	r1, r6
    8f8a:	4628      	mov	r0, r5
    8f8c:	e8bd 4070 	ldmia.w	sp!, {r4, r5, r6, lr}
    8f90:	f000 be80 	b.w	9c94 <_putc_r>
    8f94:	0000b510 	.word	0x0000b510
    8f98:	0000b530 	.word	0x0000b530
    8f9c:	0000b550 	.word	0x0000b550

00008fa0 <fputc>:
    8fa0:	4b02      	ldr	r3, [pc, #8]	; (8fac <fputc+0xc>)
    8fa2:	460a      	mov	r2, r1
    8fa4:	4601      	mov	r1, r0
    8fa6:	6818      	ldr	r0, [r3, #0]
    8fa8:	f7ff bfd6 	b.w	8f58 <_fputc_r>
    8fac:	10000198 	.word	0x10000198

00008fb0 <_fseek_r>:
    8fb0:	f000 b800 	b.w	8fb4 <_fseeko_r>

00008fb4 <_fseeko_r>:
    8fb4:	e92d 43f8 	stmdb	sp!, {r3, r4, r5, r6, r7, r8, r9, lr}
    8fb8:	460c      	mov	r4, r1
    8fba:	4690      	mov	r8, r2
    8fbc:	461e      	mov	r6, r3
    8fbe:	4605      	mov	r5, r0
    8fc0:	b118      	cbz	r0, 8fca <_fseeko_r+0x16>
    8fc2:	6983      	ldr	r3, [r0, #24]
    8fc4:	b90b      	cbnz	r3, 8fca <_fseeko_r+0x16>
    8fc6:	f7ff ff11 	bl	8dec <__sinit>
    8fca:	4b3d      	ldr	r3, [pc, #244]	; (90c0 <_fseeko_r+0x10c>)
    8fcc:	429c      	cmp	r4, r3
    8fce:	d101      	bne.n	8fd4 <_fseeko_r+0x20>
    8fd0:	686c      	ldr	r4, [r5, #4]
    8fd2:	e008      	b.n	8fe6 <_fseeko_r+0x32>
    8fd4:	4b3b      	ldr	r3, [pc, #236]	; (90c4 <_fseeko_r+0x110>)
    8fd6:	429c      	cmp	r4, r3
    8fd8:	d101      	bne.n	8fde <_fseeko_r+0x2a>
    8fda:	68ac      	ldr	r4, [r5, #8]
    8fdc:	e003      	b.n	8fe6 <_fseeko_r+0x32>
    8fde:	4b3a      	ldr	r3, [pc, #232]	; (90c8 <_fseeko_r+0x114>)
    8fe0:	429c      	cmp	r4, r3
    8fe2:	bf08      	it	eq
    8fe4:	68ec      	ldreq	r4, [r5, #12]
    8fe6:	89a3      	ldrh	r3, [r4, #12]
    8fe8:	f403 7384 	and.w	r3, r3, #264	; 0x108
    8fec:	f5b3 7f84 	cmp.w	r3, #264	; 0x108
    8ff0:	d103      	bne.n	8ffa <_fseeko_r+0x46>
    8ff2:	4621      	mov	r1, r4
    8ff4:	4628      	mov	r0, r5
    8ff6:	f7ff fe49 	bl	8c8c <_fflush_r>
    8ffa:	6ae7      	ldr	r7, [r4, #44]	; 0x2c
    8ffc:	b90f      	cbnz	r7, 9002 <_fseeko_r+0x4e>
    8ffe:	231d      	movs	r3, #29
    9000:	e02b      	b.n	905a <_fseeko_r+0xa6>
    9002:	2e01      	cmp	r6, #1
    9004:	d004      	beq.n	9010 <_fseeko_r+0x5c>
    9006:	2e02      	cmp	r6, #2
    9008:	d02b      	beq.n	9062 <_fseeko_r+0xae>
    900a:	b356      	cbz	r6, 9062 <_fseeko_r+0xae>
    900c:	2316      	movs	r3, #22
    900e:	e024      	b.n	905a <_fseeko_r+0xa6>
    9010:	4621      	mov	r1, r4
    9012:	4628      	mov	r0, r5
    9014:	f7ff fe3a 	bl	8c8c <_fflush_r>
    9018:	89a2      	ldrh	r2, [r4, #12]
    901a:	f402 5280 	and.w	r2, r2, #4096	; 0x1000
    901e:	b292      	uxth	r2, r2
    9020:	b10a      	cbz	r2, 9026 <_fseeko_r+0x72>
    9022:	6d60      	ldr	r0, [r4, #84]	; 0x54
    9024:	e005      	b.n	9032 <_fseeko_r+0x7e>
    9026:	6a21      	ldr	r1, [r4, #32]
    9028:	4633      	mov	r3, r6
    902a:	4628      	mov	r0, r5
    902c:	47b8      	blx	r7
    902e:	1c41      	adds	r1, r0, #1
    9030:	d014      	beq.n	905c <_fseeko_r+0xa8>
    9032:	89a3      	ldrh	r3, [r4, #12]
    9034:	075a      	lsls	r2, r3, #29
    9036:	d506      	bpl.n	9046 <_fseeko_r+0x92>
    9038:	6863      	ldr	r3, [r4, #4]
    903a:	1ac0      	subs	r0, r0, r3
    903c:	6b63      	ldr	r3, [r4, #52]	; 0x34
    903e:	b14b      	cbz	r3, 9054 <_fseeko_r+0xa0>
    9040:	6c23      	ldr	r3, [r4, #64]	; 0x40
    9042:	1ac0      	subs	r0, r0, r3
    9044:	e006      	b.n	9054 <_fseeko_r+0xa0>
    9046:	071b      	lsls	r3, r3, #28
    9048:	d504      	bpl.n	9054 <_fseeko_r+0xa0>
    904a:	6823      	ldr	r3, [r4, #0]
    904c:	b113      	cbz	r3, 9054 <_fseeko_r+0xa0>
    904e:	6922      	ldr	r2, [r4, #16]
    9050:	1a9b      	subs	r3, r3, r2
    9052:	4418      	add	r0, r3
    9054:	4480      	add	r8, r0
    9056:	2600      	movs	r6, #0
    9058:	e003      	b.n	9062 <_fseeko_r+0xae>
    905a:	602b      	str	r3, [r5, #0]
    905c:	f04f 39ff 	mov.w	r9, #4294967295
    9060:	e02b      	b.n	90ba <_fseeko_r+0x106>
    9062:	6923      	ldr	r3, [r4, #16]
    9064:	b91b      	cbnz	r3, 906e <_fseeko_r+0xba>
    9066:	4621      	mov	r1, r4
    9068:	4628      	mov	r0, r5
    906a:	f000 f88f 	bl	918c <__smakebuf_r>
    906e:	4621      	mov	r1, r4
    9070:	4628      	mov	r0, r5
    9072:	f7ff fe0b 	bl	8c8c <_fflush_r>
    9076:	4681      	mov	r9, r0
    9078:	2800      	cmp	r0, #0
    907a:	d1ef      	bne.n	905c <_fseeko_r+0xa8>
    907c:	4633      	mov	r3, r6
    907e:	4642      	mov	r2, r8
    9080:	6a21      	ldr	r1, [r4, #32]
    9082:	4628      	mov	r0, r5
    9084:	47b8      	blx	r7
    9086:	3001      	adds	r0, #1
    9088:	d0e8      	beq.n	905c <_fseeko_r+0xa8>
    908a:	6b61      	ldr	r1, [r4, #52]	; 0x34
    908c:	b141      	cbz	r1, 90a0 <_fseeko_r+0xec>
    908e:	f104 0344 	add.w	r3, r4, #68	; 0x44
    9092:	4299      	cmp	r1, r3
    9094:	d002      	beq.n	909c <_fseeko_r+0xe8>
    9096:	4628      	mov	r0, r5
    9098:	f000 f910 	bl	92bc <_free_r>
    909c:	2300      	movs	r3, #0
    909e:	6363      	str	r3, [r4, #52]	; 0x34
    90a0:	6923      	ldr	r3, [r4, #16]
    90a2:	2100      	movs	r1, #0
    90a4:	6023      	str	r3, [r4, #0]
    90a6:	89a3      	ldrh	r3, [r4, #12]
    90a8:	6061      	str	r1, [r4, #4]
    90aa:	f423 6302 	bic.w	r3, r3, #2080	; 0x820
    90ae:	81a3      	strh	r3, [r4, #12]
    90b0:	2208      	movs	r2, #8
    90b2:	f104 005c 	add.w	r0, r4, #92	; 0x5c
    90b6:	f000 f8f9 	bl	92ac <memset>
    90ba:	4648      	mov	r0, r9
    90bc:	e8bd 83f8 	ldmia.w	sp!, {r3, r4, r5, r6, r7, r8, r9, pc}
    90c0:	0000b510 	.word	0x0000b510
    90c4:	0000b530 	.word	0x0000b530
    90c8:	0000b550 	.word	0x0000b550

000090cc <_fwalk>:
    90cc:	e92d 41f0 	stmdb	sp!, {r4, r5, r6, r7, r8, lr}
    90d0:	4688      	mov	r8, r1
    90d2:	f100 0448 	add.w	r4, r0, #72	; 0x48
    90d6:	2600      	movs	r6, #0
    90d8:	b18c      	cbz	r4, 90fe <_fwalk+0x32>
    90da:	68a5      	ldr	r5, [r4, #8]
    90dc:	6867      	ldr	r7, [r4, #4]
    90de:	3f01      	subs	r7, #1
    90e0:	d40b      	bmi.n	90fa <_fwalk+0x2e>
    90e2:	89ab      	ldrh	r3, [r5, #12]
    90e4:	2b01      	cmp	r3, #1
    90e6:	d906      	bls.n	90f6 <_fwalk+0x2a>
    90e8:	f9b5 300e 	ldrsh.w	r3, [r5, #14]
    90ec:	3301      	adds	r3, #1
    90ee:	d002      	beq.n	90f6 <_fwalk+0x2a>
    90f0:	4628      	mov	r0, r5
    90f2:	47c0      	blx	r8
    90f4:	4306      	orrs	r6, r0
    90f6:	3568      	adds	r5, #104	; 0x68
    90f8:	e7f1      	b.n	90de <_fwalk+0x12>
    90fa:	6824      	ldr	r4, [r4, #0]
    90fc:	e7ec      	b.n	90d8 <_fwalk+0xc>
    90fe:	4630      	mov	r0, r6
    9100:	e8bd 81f0 	ldmia.w	sp!, {r4, r5, r6, r7, r8, pc}

00009104 <_fwalk_reent>:
    9104:	e92d 43f8 	stmdb	sp!, {r3, r4, r5, r6, r7, r8, r9, lr}
    9108:	4680      	mov	r8, r0
    910a:	4689      	mov	r9, r1
    910c:	f100 0448 	add.w	r4, r0, #72	; 0x48
    9110:	2600      	movs	r6, #0
    9112:	b194      	cbz	r4, 913a <_fwalk_reent+0x36>
    9114:	68a5      	ldr	r5, [r4, #8]
    9116:	6867      	ldr	r7, [r4, #4]
    9118:	3f01      	subs	r7, #1
    911a:	d40c      	bmi.n	9136 <_fwalk_reent+0x32>
    911c:	89ab      	ldrh	r3, [r5, #12]
    911e:	2b01      	cmp	r3, #1
    9120:	d907      	bls.n	9132 <_fwalk_reent+0x2e>
    9122:	f9b5 300e 	ldrsh.w	r3, [r5, #14]
    9126:	3301      	adds	r3, #1
    9128:	d003      	beq.n	9132 <_fwalk_reent+0x2e>
    912a:	4629      	mov	r1, r5
    912c:	4640      	mov	r0, r8
    912e:	47c8      	blx	r9
    9130:	4306      	orrs	r6, r0
    9132:	3568      	adds	r5, #104	; 0x68
    9134:	e7f0      	b.n	9118 <_fwalk_reent+0x14>
    9136:	6824      	ldr	r4, [r4, #0]
    9138:	e7eb      	b.n	9112 <_fwalk_reent+0xe>
    913a:	4630      	mov	r0, r6
    913c:	e8bd 83f8 	ldmia.w	sp!, {r3, r4, r5, r6, r7, r8, r9, pc}

00009140 <__libc_init_array>:
    9140:	4b0e      	ldr	r3, [pc, #56]	; (917c <__libc_init_array+0x3c>)
    9142:	b570      	push	{r4, r5, r6, lr}
    9144:	461e      	mov	r6, r3
    9146:	4c0e      	ldr	r4, [pc, #56]	; (9180 <__libc_init_array+0x40>)
    9148:	2500      	movs	r5, #0
    914a:	1ae4      	subs	r4, r4, r3
    914c:	10a4      	asrs	r4, r4, #2
    914e:	42a5      	cmp	r5, r4
    9150:	d004      	beq.n	915c <__libc_init_array+0x1c>
    9152:	f856 3025 	ldr.w	r3, [r6, r5, lsl #2]
    9156:	4798      	blx	r3
    9158:	3501      	adds	r5, #1
    915a:	e7f8      	b.n	914e <__libc_init_array+0xe>
    915c:	f001 fdea 	bl	ad34 <_init>
    9160:	4b08      	ldr	r3, [pc, #32]	; (9184 <__libc_init_array+0x44>)
    9162:	4c09      	ldr	r4, [pc, #36]	; (9188 <__libc_init_array+0x48>)
    9164:	461e      	mov	r6, r3
    9166:	1ae4      	subs	r4, r4, r3
    9168:	10a4      	asrs	r4, r4, #2
    916a:	2500      	movs	r5, #0
    916c:	42a5      	cmp	r5, r4
    916e:	d004      	beq.n	917a <__libc_init_array+0x3a>
    9170:	f856 3025 	ldr.w	r3, [r6, r5, lsl #2]
    9174:	4798      	blx	r3
    9176:	3501      	adds	r5, #1
    9178:	e7f8      	b.n	916c <__libc_init_array+0x2c>
    917a:	bd70      	pop	{r4, r5, r6, pc}
    917c:	100001a0 	.word	0x100001a0
    9180:	100001a0 	.word	0x100001a0
    9184:	100001a0 	.word	0x100001a0
    9188:	100001a8 	.word	0x100001a8

0000918c <__smakebuf_r>:
    918c:	b5f0      	push	{r4, r5, r6, r7, lr}
    918e:	898b      	ldrh	r3, [r1, #12]
    9190:	b091      	sub	sp, #68	; 0x44
    9192:	079d      	lsls	r5, r3, #30
    9194:	4606      	mov	r6, r0
    9196:	460c      	mov	r4, r1
    9198:	d425      	bmi.n	91e6 <__smakebuf_r+0x5a>
    919a:	f9b1 100e 	ldrsh.w	r1, [r1, #14]
    919e:	2900      	cmp	r1, #0
    91a0:	da08      	bge.n	91b4 <__smakebuf_r+0x28>
    91a2:	89a3      	ldrh	r3, [r4, #12]
    91a4:	2500      	movs	r5, #0
    91a6:	f013 0f80 	tst.w	r3, #128	; 0x80
    91aa:	bf14      	ite	ne
    91ac:	2740      	movne	r7, #64	; 0x40
    91ae:	f44f 6780 	moveq.w	r7, #1024	; 0x400
    91b2:	e00d      	b.n	91d0 <__smakebuf_r+0x44>
    91b4:	aa01      	add	r2, sp, #4
    91b6:	f001 fa4f 	bl	a658 <_fstat_r>
    91ba:	2800      	cmp	r0, #0
    91bc:	dbf1      	blt.n	91a2 <__smakebuf_r+0x16>
    91be:	9d02      	ldr	r5, [sp, #8]
    91c0:	f44f 6780 	mov.w	r7, #1024	; 0x400
    91c4:	f405 4570 	and.w	r5, r5, #61440	; 0xf000
    91c8:	f5a5 5100 	sub.w	r1, r5, #8192	; 0x2000
    91cc:	424d      	negs	r5, r1
    91ce:	414d      	adcs	r5, r1
    91d0:	4639      	mov	r1, r7
    91d2:	4630      	mov	r0, r6
    91d4:	f000 f8b6 	bl	9344 <_malloc_r>
    91d8:	b960      	cbnz	r0, 91f4 <__smakebuf_r+0x68>
    91da:	89a3      	ldrh	r3, [r4, #12]
    91dc:	059a      	lsls	r2, r3, #22
    91de:	d41d      	bmi.n	921c <__smakebuf_r+0x90>
    91e0:	f043 0302 	orr.w	r3, r3, #2
    91e4:	81a3      	strh	r3, [r4, #12]
    91e6:	f104 0347 	add.w	r3, r4, #71	; 0x47
    91ea:	6023      	str	r3, [r4, #0]
    91ec:	6123      	str	r3, [r4, #16]
    91ee:	2301      	movs	r3, #1
    91f0:	6163      	str	r3, [r4, #20]
    91f2:	e013      	b.n	921c <__smakebuf_r+0x90>
    91f4:	4b0a      	ldr	r3, [pc, #40]	; (9220 <__smakebuf_r+0x94>)
    91f6:	62b3      	str	r3, [r6, #40]	; 0x28
    91f8:	89a3      	ldrh	r3, [r4, #12]
    91fa:	6020      	str	r0, [r4, #0]
    91fc:	f043 0380 	orr.w	r3, r3, #128	; 0x80
    9200:	81a3      	strh	r3, [r4, #12]
    9202:	6120      	str	r0, [r4, #16]
    9204:	6167      	str	r7, [r4, #20]
    9206:	b14d      	cbz	r5, 921c <__smakebuf_r+0x90>
    9208:	f9b4 100e 	ldrsh.w	r1, [r4, #14]
    920c:	4630      	mov	r0, r6
    920e:	f001 fa35 	bl	a67c <_isatty_r>
    9212:	b118      	cbz	r0, 921c <__smakebuf_r+0x90>
    9214:	89a3      	ldrh	r3, [r4, #12]
    9216:	f043 0301 	orr.w	r3, r3, #1
    921a:	81a3      	strh	r3, [r4, #12]
    921c:	b011      	add	sp, #68	; 0x44
    921e:	bdf0      	pop	{r4, r5, r6, r7, pc}
    9220:	00008d6d 	.word	0x00008d6d

00009224 <malloc>:
    9224:	4b02      	ldr	r3, [pc, #8]	; (9230 <malloc+0xc>)
    9226:	4601      	mov	r1, r0
    9228:	6818      	ldr	r0, [r3, #0]
    922a:	f000 b88b 	b.w	9344 <_malloc_r>
    922e:	bf00      	nop
    9230:	10000198 	.word	0x10000198

00009234 <free>:
    9234:	4b02      	ldr	r3, [pc, #8]	; (9240 <free+0xc>)
    9236:	4601      	mov	r1, r0
    9238:	6818      	ldr	r0, [r3, #0]
    923a:	f000 b83f 	b.w	92bc <_free_r>
    923e:	bf00      	nop
    9240:	10000198 	.word	0x10000198

00009244 <memchr>:
    9244:	b510      	push	{r4, lr}
    9246:	b2c9      	uxtb	r1, r1
    9248:	4402      	add	r2, r0
    924a:	4290      	cmp	r0, r2
    924c:	4603      	mov	r3, r0
    924e:	d005      	beq.n	925c <memchr+0x18>
    9250:	781c      	ldrb	r4, [r3, #0]
    9252:	3001      	adds	r0, #1
    9254:	428c      	cmp	r4, r1
    9256:	d1f8      	bne.n	924a <memchr+0x6>
    9258:	4618      	mov	r0, r3
    925a:	bd10      	pop	{r4, pc}
    925c:	2000      	movs	r0, #0
    925e:	bd10      	pop	{r4, pc}

00009260 <memcpy>:
    9260:	b510      	push	{r4, lr}
    9262:	1e43      	subs	r3, r0, #1
    9264:	440a      	add	r2, r1
    9266:	4291      	cmp	r1, r2
    9268:	d004      	beq.n	9274 <memcpy+0x14>
    926a:	f811 4b01 	ldrb.w	r4, [r1], #1
    926e:	f803 4f01 	strb.w	r4, [r3, #1]!
    9272:	e7f8      	b.n	9266 <memcpy+0x6>
    9274:	bd10      	pop	{r4, pc}

00009276 <memmove>:
    9276:	4288      	cmp	r0, r1
    9278:	b510      	push	{r4, lr}
    927a:	eb01 0302 	add.w	r3, r1, r2
    927e:	d801      	bhi.n	9284 <memmove+0xe>
    9280:	1e42      	subs	r2, r0, #1
    9282:	e00b      	b.n	929c <memmove+0x26>
    9284:	4298      	cmp	r0, r3
    9286:	d2fb      	bcs.n	9280 <memmove+0xa>
    9288:	1881      	adds	r1, r0, r2
    928a:	1ad2      	subs	r2, r2, r3
    928c:	42d3      	cmn	r3, r2
    928e:	d004      	beq.n	929a <memmove+0x24>
    9290:	f813 4d01 	ldrb.w	r4, [r3, #-1]!
    9294:	f801 4d01 	strb.w	r4, [r1, #-1]!
    9298:	e7f8      	b.n	928c <memmove+0x16>
    929a:	bd10      	pop	{r4, pc}
    929c:	4299      	cmp	r1, r3
    929e:	d004      	beq.n	92aa <memmove+0x34>
    92a0:	f811 4b01 	ldrb.w	r4, [r1], #1
    92a4:	f802 4f01 	strb.w	r4, [r2, #1]!
    92a8:	e7f8      	b.n	929c <memmove+0x26>
    92aa:	bd10      	pop	{r4, pc}

000092ac <memset>:
    92ac:	4603      	mov	r3, r0
    92ae:	4402      	add	r2, r0
    92b0:	4293      	cmp	r3, r2
    92b2:	d002      	beq.n	92ba <memset+0xe>
    92b4:	f803 1b01 	strb.w	r1, [r3], #1
    92b8:	e7fa      	b.n	92b0 <memset+0x4>
    92ba:	4770      	bx	lr

000092bc <_free_r>:
    92bc:	b530      	push	{r4, r5, lr}
    92be:	2900      	cmp	r1, #0
    92c0:	d03c      	beq.n	933c <_free_r+0x80>
    92c2:	f851 2c04 	ldr.w	r2, [r1, #-4]
    92c6:	1f0b      	subs	r3, r1, #4
    92c8:	491d      	ldr	r1, [pc, #116]	; (9340 <_free_r+0x84>)
    92ca:	2a00      	cmp	r2, #0
    92cc:	bfb8      	it	lt
    92ce:	189b      	addlt	r3, r3, r2
    92d0:	680a      	ldr	r2, [r1, #0]
    92d2:	460c      	mov	r4, r1
    92d4:	b912      	cbnz	r2, 92dc <_free_r+0x20>
    92d6:	605a      	str	r2, [r3, #4]
    92d8:	600b      	str	r3, [r1, #0]
    92da:	bd30      	pop	{r4, r5, pc}
    92dc:	429a      	cmp	r2, r3
    92de:	d90d      	bls.n	92fc <_free_r+0x40>
    92e0:	6819      	ldr	r1, [r3, #0]
    92e2:	1858      	adds	r0, r3, r1
    92e4:	4282      	cmp	r2, r0
    92e6:	bf01      	itttt	eq
    92e8:	6810      	ldreq	r0, [r2, #0]
    92ea:	6852      	ldreq	r2, [r2, #4]
    92ec:	1809      	addeq	r1, r1, r0
    92ee:	6019      	streq	r1, [r3, #0]
    92f0:	605a      	str	r2, [r3, #4]
    92f2:	6023      	str	r3, [r4, #0]
    92f4:	bd30      	pop	{r4, r5, pc}
    92f6:	4299      	cmp	r1, r3
    92f8:	d803      	bhi.n	9302 <_free_r+0x46>
    92fa:	460a      	mov	r2, r1
    92fc:	6851      	ldr	r1, [r2, #4]
    92fe:	2900      	cmp	r1, #0
    9300:	d1f9      	bne.n	92f6 <_free_r+0x3a>
    9302:	6814      	ldr	r4, [r2, #0]
    9304:	1915      	adds	r5, r2, r4
    9306:	429d      	cmp	r5, r3
    9308:	d10a      	bne.n	9320 <_free_r+0x64>
    930a:	681b      	ldr	r3, [r3, #0]
    930c:	4423      	add	r3, r4
    930e:	18d0      	adds	r0, r2, r3
    9310:	4281      	cmp	r1, r0
    9312:	6013      	str	r3, [r2, #0]
    9314:	d112      	bne.n	933c <_free_r+0x80>
    9316:	6808      	ldr	r0, [r1, #0]
    9318:	4403      	add	r3, r0
    931a:	6013      	str	r3, [r2, #0]
    931c:	684b      	ldr	r3, [r1, #4]
    931e:	e00c      	b.n	933a <_free_r+0x7e>
    9320:	d902      	bls.n	9328 <_free_r+0x6c>
    9322:	230c      	movs	r3, #12
    9324:	6003      	str	r3, [r0, #0]
    9326:	bd30      	pop	{r4, r5, pc}
    9328:	6818      	ldr	r0, [r3, #0]
    932a:	181c      	adds	r4, r3, r0
    932c:	42a1      	cmp	r1, r4
    932e:	bf01      	itttt	eq
    9330:	680c      	ldreq	r4, [r1, #0]
    9332:	6849      	ldreq	r1, [r1, #4]
    9334:	1900      	addeq	r0, r0, r4
    9336:	6018      	streq	r0, [r3, #0]
    9338:	6059      	str	r1, [r3, #4]
    933a:	6053      	str	r3, [r2, #4]
    933c:	bd30      	pop	{r4, r5, pc}
    933e:	bf00      	nop
    9340:	10000ba0 	.word	0x10000ba0

00009344 <_malloc_r>:
    9344:	b570      	push	{r4, r5, r6, lr}
    9346:	1ccd      	adds	r5, r1, #3
    9348:	f025 0503 	bic.w	r5, r5, #3
    934c:	3508      	adds	r5, #8
    934e:	2d0c      	cmp	r5, #12
    9350:	bf38      	it	cc
    9352:	250c      	movcc	r5, #12
    9354:	2d00      	cmp	r5, #0
    9356:	4606      	mov	r6, r0
    9358:	da03      	bge.n	9362 <_malloc_r+0x1e>
    935a:	230c      	movs	r3, #12
    935c:	6033      	str	r3, [r6, #0]
    935e:	2000      	movs	r0, #0
    9360:	bd70      	pop	{r4, r5, r6, pc}
    9362:	42a9      	cmp	r1, r5
    9364:	d8f9      	bhi.n	935a <_malloc_r+0x16>
    9366:	4b1f      	ldr	r3, [pc, #124]	; (93e4 <_malloc_r+0xa0>)
    9368:	681c      	ldr	r4, [r3, #0]
    936a:	461a      	mov	r2, r3
    936c:	4621      	mov	r1, r4
    936e:	b1a1      	cbz	r1, 939a <_malloc_r+0x56>
    9370:	680b      	ldr	r3, [r1, #0]
    9372:	1b5b      	subs	r3, r3, r5
    9374:	d40e      	bmi.n	9394 <_malloc_r+0x50>
    9376:	2b0b      	cmp	r3, #11
    9378:	d903      	bls.n	9382 <_malloc_r+0x3e>
    937a:	600b      	str	r3, [r1, #0]
    937c:	18cc      	adds	r4, r1, r3
    937e:	50cd      	str	r5, [r1, r3]
    9380:	e01e      	b.n	93c0 <_malloc_r+0x7c>
    9382:	428c      	cmp	r4, r1
    9384:	bf0b      	itete	eq
    9386:	6863      	ldreq	r3, [r4, #4]
    9388:	684b      	ldrne	r3, [r1, #4]
    938a:	6013      	streq	r3, [r2, #0]
    938c:	6063      	strne	r3, [r4, #4]
    938e:	bf18      	it	ne
    9390:	460c      	movne	r4, r1
    9392:	e015      	b.n	93c0 <_malloc_r+0x7c>
    9394:	460c      	mov	r4, r1
    9396:	6849      	ldr	r1, [r1, #4]
    9398:	e7e9      	b.n	936e <_malloc_r+0x2a>
    939a:	4c13      	ldr	r4, [pc, #76]	; (93e8 <_malloc_r+0xa4>)
    939c:	6823      	ldr	r3, [r4, #0]
    939e:	b91b      	cbnz	r3, 93a8 <_malloc_r+0x64>
    93a0:	4630      	mov	r0, r6
    93a2:	f000 fd77 	bl	9e94 <_sbrk_r>
    93a6:	6020      	str	r0, [r4, #0]
    93a8:	4629      	mov	r1, r5
    93aa:	4630      	mov	r0, r6
    93ac:	f000 fd72 	bl	9e94 <_sbrk_r>
    93b0:	1c43      	adds	r3, r0, #1
    93b2:	d0d2      	beq.n	935a <_malloc_r+0x16>
    93b4:	1cc4      	adds	r4, r0, #3
    93b6:	f024 0403 	bic.w	r4, r4, #3
    93ba:	42a0      	cmp	r0, r4
    93bc:	d10a      	bne.n	93d4 <_malloc_r+0x90>
    93be:	6025      	str	r5, [r4, #0]
    93c0:	f104 000b 	add.w	r0, r4, #11
    93c4:	1d23      	adds	r3, r4, #4
    93c6:	f020 0007 	bic.w	r0, r0, #7
    93ca:	1ac3      	subs	r3, r0, r3
    93cc:	d009      	beq.n	93e2 <_malloc_r+0x9e>
    93ce:	425a      	negs	r2, r3
    93d0:	50e2      	str	r2, [r4, r3]
    93d2:	bd70      	pop	{r4, r5, r6, pc}
    93d4:	1a21      	subs	r1, r4, r0
    93d6:	4630      	mov	r0, r6
    93d8:	f000 fd5c 	bl	9e94 <_sbrk_r>
    93dc:	3001      	adds	r0, #1
    93de:	d1ee      	bne.n	93be <_malloc_r+0x7a>
    93e0:	e7bb      	b.n	935a <_malloc_r+0x16>
    93e2:	bd70      	pop	{r4, r5, r6, pc}
    93e4:	10000ba0 	.word	0x10000ba0
    93e8:	10000b9c 	.word	0x10000b9c

000093ec <__sfputc_r>:
    93ec:	6893      	ldr	r3, [r2, #8]
    93ee:	b410      	push	{r4}
    93f0:	3b01      	subs	r3, #1
    93f2:	2b00      	cmp	r3, #0
    93f4:	6093      	str	r3, [r2, #8]
    93f6:	da08      	bge.n	940a <__sfputc_r+0x1e>
    93f8:	6994      	ldr	r4, [r2, #24]
    93fa:	42a3      	cmp	r3, r4
    93fc:	db02      	blt.n	9404 <__sfputc_r+0x18>
    93fe:	b2cb      	uxtb	r3, r1
    9400:	2b0a      	cmp	r3, #10
    9402:	d102      	bne.n	940a <__sfputc_r+0x1e>
    9404:	bc10      	pop	{r4}
    9406:	f001 b80d 	b.w	a424 <__swbuf_r>
    940a:	6813      	ldr	r3, [r2, #0]
    940c:	1c58      	adds	r0, r3, #1
    940e:	6010      	str	r0, [r2, #0]
    9410:	7019      	strb	r1, [r3, #0]
    9412:	b2c8      	uxtb	r0, r1
    9414:	bc10      	pop	{r4}
    9416:	4770      	bx	lr

00009418 <__sfputs_r>:
    9418:	b5f8      	push	{r3, r4, r5, r6, r7, lr}
    941a:	4606      	mov	r6, r0
    941c:	460f      	mov	r7, r1
    941e:	4614      	mov	r4, r2
    9420:	18d5      	adds	r5, r2, r3
    9422:	42ac      	cmp	r4, r5
    9424:	d008      	beq.n	9438 <__sfputs_r+0x20>
    9426:	463a      	mov	r2, r7
    9428:	f814 1b01 	ldrb.w	r1, [r4], #1
    942c:	4630      	mov	r0, r6
    942e:	f7ff ffdd 	bl	93ec <__sfputc_r>
    9432:	1c43      	adds	r3, r0, #1
    9434:	d1f5      	bne.n	9422 <__sfputs_r+0xa>
    9436:	e000      	b.n	943a <__sfputs_r+0x22>
    9438:	2000      	movs	r0, #0
    943a:	bdf8      	pop	{r3, r4, r5, r6, r7, pc}

0000943c <_vfiprintf_r>:
    943c:	e92d 4ff0 	stmdb	sp!, {r4, r5, r6, r7, r8, r9, r10, r11, lr}
    9440:	b09d      	sub	sp, #116	; 0x74
    9442:	460c      	mov	r4, r1
    9444:	4617      	mov	r7, r2
    9446:	9303      	str	r3, [sp, #12]
    9448:	4606      	mov	r6, r0
    944a:	b118      	cbz	r0, 9454 <_vfiprintf_r+0x18>
    944c:	6983      	ldr	r3, [r0, #24]
    944e:	b90b      	cbnz	r3, 9454 <_vfiprintf_r+0x18>
    9450:	f7ff fccc 	bl	8dec <__sinit>
    9454:	4b7f      	ldr	r3, [pc, #508]	; (9654 <_vfiprintf_r+0x218>)
    9456:	429c      	cmp	r4, r3
    9458:	d101      	bne.n	945e <_vfiprintf_r+0x22>
    945a:	6874      	ldr	r4, [r6, #4]
    945c:	e008      	b.n	9470 <_vfiprintf_r+0x34>
    945e:	4b7e      	ldr	r3, [pc, #504]	; (9658 <_vfiprintf_r+0x21c>)
    9460:	429c      	cmp	r4, r3
    9462:	d101      	bne.n	9468 <_vfiprintf_r+0x2c>
    9464:	68b4      	ldr	r4, [r6, #8]
    9466:	e003      	b.n	9470 <_vfiprintf_r+0x34>
    9468:	4b7c      	ldr	r3, [pc, #496]	; (965c <_vfiprintf_r+0x220>)
    946a:	429c      	cmp	r4, r3
    946c:	bf08      	it	eq
    946e:	68f4      	ldreq	r4, [r6, #12]
    9470:	89a3      	ldrh	r3, [r4, #12]
    9472:	0718      	lsls	r0, r3, #28
    9474:	d50c      	bpl.n	9490 <_vfiprintf_r+0x54>
    9476:	6923      	ldr	r3, [r4, #16]
    9478:	b153      	cbz	r3, 9490 <_vfiprintf_r+0x54>
    947a:	2300      	movs	r3, #0
    947c:	9309      	str	r3, [sp, #36]	; 0x24
    947e:	2320      	movs	r3, #32
    9480:	f88d 3029 	strb.w	r3, [sp, #41]	; 0x29
    9484:	2330      	movs	r3, #48	; 0x30
    9486:	f88d 302a 	strb.w	r3, [sp, #42]	; 0x2a
    948a:	f8df b1d4 	ldr.w	r11, [pc, #468]	; 9660 <_vfiprintf_r+0x224>
    948e:	e044      	b.n	951a <_vfiprintf_r+0xde>
    9490:	4621      	mov	r1, r4
    9492:	4630      	mov	r0, r6
    9494:	f001 f82c 	bl	a4f0 <__swsetup_r>
    9498:	2800      	cmp	r0, #0
    949a:	d0ee      	beq.n	947a <_vfiprintf_r+0x3e>
    949c:	f04f 30ff 	mov.w	r0, #4294967295
    94a0:	e0d5      	b.n	964e <_vfiprintf_r+0x212>
    94a2:	9a03      	ldr	r2, [sp, #12]
    94a4:	1d11      	adds	r1, r2, #4
    94a6:	6812      	ldr	r2, [r2, #0]
    94a8:	9103      	str	r1, [sp, #12]
    94aa:	2a00      	cmp	r2, #0
    94ac:	f280 808c 	bge.w	95c8 <_vfiprintf_r+0x18c>
    94b0:	4252      	negs	r2, r2
    94b2:	f043 0002 	orr.w	r0, r3, #2
    94b6:	9207      	str	r2, [sp, #28]
    94b8:	9004      	str	r0, [sp, #16]
    94ba:	f898 3000 	ldrb.w	r3, [r8]
    94be:	2b2e      	cmp	r3, #46	; 0x2e
    94c0:	f000 8084 	beq.w	95cc <_vfiprintf_r+0x190>
    94c4:	2203      	movs	r2, #3
    94c6:	f898 1000 	ldrb.w	r1, [r8]
    94ca:	4865      	ldr	r0, [pc, #404]	; (9660 <_vfiprintf_r+0x224>)
    94cc:	f7ff feba 	bl	9244 <memchr>
    94d0:	b148      	cbz	r0, 94e6 <_vfiprintf_r+0xaa>
    94d2:	2340      	movs	r3, #64	; 0x40
    94d4:	ebcb 0000 	rsb	r0, r11, r0
    94d8:	fa03 f000 	lsl.w	r0, r3, r0
    94dc:	9b04      	ldr	r3, [sp, #16]
    94de:	f108 0801 	add.w	r8, r8, #1
    94e2:	4318      	orrs	r0, r3
    94e4:	9004      	str	r0, [sp, #16]
    94e6:	f898 1000 	ldrb.w	r1, [r8]
    94ea:	2206      	movs	r2, #6
    94ec:	485d      	ldr	r0, [pc, #372]	; (9664 <_vfiprintf_r+0x228>)
    94ee:	f108 0701 	add.w	r7, r8, #1
    94f2:	f88d 1028 	strb.w	r1, [sp, #40]	; 0x28
    94f6:	f7ff fea5 	bl	9244 <memchr>
    94fa:	2800      	cmp	r0, #0
    94fc:	f000 8095 	beq.w	962a <_vfiprintf_r+0x1ee>
    9500:	4b59      	ldr	r3, [pc, #356]	; (9668 <_vfiprintf_r+0x22c>)
    9502:	2b00      	cmp	r3, #0
    9504:	f040 8088 	bne.w	9618 <_vfiprintf_r+0x1dc>
    9508:	9b03      	ldr	r3, [sp, #12]
    950a:	3307      	adds	r3, #7
    950c:	f023 0307 	bic.w	r3, r3, #7
    9510:	3308      	adds	r3, #8
    9512:	9303      	str	r3, [sp, #12]
    9514:	9b09      	ldr	r3, [sp, #36]	; 0x24
    9516:	4453      	add	r3, r10
    9518:	9309      	str	r3, [sp, #36]	; 0x24
    951a:	46b8      	mov	r8, r7
    951c:	4645      	mov	r5, r8
    951e:	f815 3b01 	ldrb.w	r3, [r5], #1
    9522:	b91b      	cbnz	r3, 952c <_vfiprintf_r+0xf0>
    9524:	ebb8 0907 	subs.w	r9, r8, r7
    9528:	d00f      	beq.n	954a <_vfiprintf_r+0x10e>
    952a:	e003      	b.n	9534 <_vfiprintf_r+0xf8>
    952c:	2b25      	cmp	r3, #37	; 0x25
    952e:	d0f9      	beq.n	9524 <_vfiprintf_r+0xe8>
    9530:	46a8      	mov	r8, r5
    9532:	e7f3      	b.n	951c <_vfiprintf_r+0xe0>
    9534:	464b      	mov	r3, r9
    9536:	463a      	mov	r2, r7
    9538:	4621      	mov	r1, r4
    953a:	4630      	mov	r0, r6
    953c:	f7ff ff6c 	bl	9418 <__sfputs_r>
    9540:	3001      	adds	r0, #1
    9542:	d07f      	beq.n	9644 <_vfiprintf_r+0x208>
    9544:	9b09      	ldr	r3, [sp, #36]	; 0x24
    9546:	444b      	add	r3, r9
    9548:	9309      	str	r3, [sp, #36]	; 0x24
    954a:	f898 3000 	ldrb.w	r3, [r8]
    954e:	2b00      	cmp	r3, #0
    9550:	d078      	beq.n	9644 <_vfiprintf_r+0x208>
    9552:	2300      	movs	r3, #0
    9554:	f04f 32ff 	mov.w	r2, #4294967295
    9558:	9304      	str	r3, [sp, #16]
    955a:	9307      	str	r3, [sp, #28]
    955c:	9205      	str	r2, [sp, #20]
    955e:	9306      	str	r3, [sp, #24]
    9560:	f88d 3053 	strb.w	r3, [sp, #83]	; 0x53
    9564:	931a      	str	r3, [sp, #104]	; 0x68
    9566:	2701      	movs	r7, #1
    9568:	2205      	movs	r2, #5
    956a:	7829      	ldrb	r1, [r5, #0]
    956c:	483f      	ldr	r0, [pc, #252]	; (966c <_vfiprintf_r+0x230>)
    956e:	f7ff fe69 	bl	9244 <memchr>
    9572:	f105 0801 	add.w	r8, r5, #1
    9576:	9b04      	ldr	r3, [sp, #16]
    9578:	b138      	cbz	r0, 958a <_vfiprintf_r+0x14e>
    957a:	4a3c      	ldr	r2, [pc, #240]	; (966c <_vfiprintf_r+0x230>)
    957c:	4645      	mov	r5, r8
    957e:	1a80      	subs	r0, r0, r2
    9580:	fa07 f000 	lsl.w	r0, r7, r0
    9584:	4318      	orrs	r0, r3
    9586:	9004      	str	r0, [sp, #16]
    9588:	e7ee      	b.n	9568 <_vfiprintf_r+0x12c>
    958a:	06d9      	lsls	r1, r3, #27
    958c:	bf44      	itt	mi
    958e:	2220      	movmi	r2, #32
    9590:	f88d 2053 	strbmi.w	r2, [sp, #83]	; 0x53
    9594:	071a      	lsls	r2, r3, #28
    9596:	bf44      	itt	mi
    9598:	222b      	movmi	r2, #43	; 0x2b
    959a:	f88d 2053 	strbmi.w	r2, [sp, #83]	; 0x53
    959e:	782a      	ldrb	r2, [r5, #0]
    95a0:	2a2a      	cmp	r2, #42	; 0x2a
    95a2:	f43f af7e 	beq.w	94a2 <_vfiprintf_r+0x66>
    95a6:	9a07      	ldr	r2, [sp, #28]
    95a8:	2100      	movs	r1, #0
    95aa:	200a      	movs	r0, #10
    95ac:	46a8      	mov	r8, r5
    95ae:	f898 3000 	ldrb.w	r3, [r8]
    95b2:	3501      	adds	r5, #1
    95b4:	3b30      	subs	r3, #48	; 0x30
    95b6:	2b09      	cmp	r3, #9
    95b8:	d803      	bhi.n	95c2 <_vfiprintf_r+0x186>
    95ba:	fb00 3202 	mla	r2, r0, r2, r3
    95be:	2101      	movs	r1, #1
    95c0:	e7f4      	b.n	95ac <_vfiprintf_r+0x170>
    95c2:	2900      	cmp	r1, #0
    95c4:	f43f af79 	beq.w	94ba <_vfiprintf_r+0x7e>
    95c8:	9207      	str	r2, [sp, #28]
    95ca:	e776      	b.n	94ba <_vfiprintf_r+0x7e>
    95cc:	f898 3001 	ldrb.w	r3, [r8, #1]
    95d0:	2b2a      	cmp	r3, #42	; 0x2a
    95d2:	d10b      	bne.n	95ec <_vfiprintf_r+0x1b0>
    95d4:	9b03      	ldr	r3, [sp, #12]
    95d6:	f108 0802 	add.w	r8, r8, #2
    95da:	1d1a      	adds	r2, r3, #4
    95dc:	681b      	ldr	r3, [r3, #0]
    95de:	9203      	str	r2, [sp, #12]
    95e0:	2b00      	cmp	r3, #0
    95e2:	bfb8      	it	lt
    95e4:	f04f 33ff 	movlt.w	r3, #4294967295
    95e8:	9305      	str	r3, [sp, #20]
    95ea:	e76b      	b.n	94c4 <_vfiprintf_r+0x88>
    95ec:	2300      	movs	r3, #0
    95ee:	4619      	mov	r1, r3
    95f0:	9305      	str	r3, [sp, #20]
    95f2:	f108 0001 	add.w	r0, r8, #1
    95f6:	250a      	movs	r5, #10
    95f8:	4680      	mov	r8, r0
    95fa:	f898 2000 	ldrb.w	r2, [r8]
    95fe:	3001      	adds	r0, #1
    9600:	3a30      	subs	r2, #48	; 0x30
    9602:	2a09      	cmp	r2, #9
    9604:	d803      	bhi.n	960e <_vfiprintf_r+0x1d2>
    9606:	fb05 2101 	mla	r1, r5, r1, r2
    960a:	2301      	movs	r3, #1
    960c:	e7f4      	b.n	95f8 <_vfiprintf_r+0x1bc>
    960e:	2b00      	cmp	r3, #0
    9610:	f43f af58 	beq.w	94c4 <_vfiprintf_r+0x88>
    9614:	9105      	str	r1, [sp, #20]
    9616:	e755      	b.n	94c4 <_vfiprintf_r+0x88>
    9618:	ab03      	add	r3, sp, #12
    961a:	9300      	str	r3, [sp, #0]
    961c:	4622      	mov	r2, r4
    961e:	4b14      	ldr	r3, [pc, #80]	; (9670 <_vfiprintf_r+0x234>)
    9620:	a904      	add	r1, sp, #16
    9622:	4630      	mov	r0, r6
    9624:	f3af 8000 	nop.w
    9628:	e007      	b.n	963a <_vfiprintf_r+0x1fe>
    962a:	ab03      	add	r3, sp, #12
    962c:	9300      	str	r3, [sp, #0]
    962e:	4622      	mov	r2, r4
    9630:	4b0f      	ldr	r3, [pc, #60]	; (9670 <_vfiprintf_r+0x234>)
    9632:	a904      	add	r1, sp, #16
    9634:	4630      	mov	r0, r6
    9636:	f000 f89d 	bl	9774 <_printf_i>
    963a:	f1b0 3fff 	cmp.w	r0, #4294967295
    963e:	4682      	mov	r10, r0
    9640:	f47f af68 	bne.w	9514 <_vfiprintf_r+0xd8>
    9644:	89a3      	ldrh	r3, [r4, #12]
    9646:	065b      	lsls	r3, r3, #25
    9648:	f53f af28 	bmi.w	949c <_vfiprintf_r+0x60>
    964c:	9809      	ldr	r0, [sp, #36]	; 0x24
    964e:	b01d      	add	sp, #116	; 0x74
    9650:	e8bd 8ff0 	ldmia.w	sp!, {r4, r5, r6, r7, r8, r9, r10, r11, pc}
    9654:	0000b510 	.word	0x0000b510
    9658:	0000b530 	.word	0x0000b530
    965c:	0000b550 	.word	0x0000b550
    9660:	0000b57e 	.word	0x0000b57e
    9664:	0000b582 	.word	0x0000b582
    9668:	00000000 	.word	0x00000000
    966c:	0000b578 	.word	0x0000b578
    9670:	00009419 	.word	0x00009419

00009674 <vfiprintf>:
    9674:	4613      	mov	r3, r2
    9676:	460a      	mov	r2, r1
    9678:	4601      	mov	r1, r0
    967a:	4802      	ldr	r0, [pc, #8]	; (9684 <vfiprintf+0x10>)
    967c:	6800      	ldr	r0, [r0, #0]
    967e:	f7ff bedd 	b.w	943c <_vfiprintf_r>
    9682:	bf00      	nop
    9684:	10000198 	.word	0x10000198

00009688 <_printf_common>:
    9688:	e92d 47f0 	stmdb	sp!, {r4, r5, r6, r7, r8, r9, r10, lr}
    968c:	4691      	mov	r9, r2
    968e:	461f      	mov	r7, r3
    9690:	690a      	ldr	r2, [r1, #16]
    9692:	688b      	ldr	r3, [r1, #8]
    9694:	4606      	mov	r6, r0
    9696:	4293      	cmp	r3, r2
    9698:	bfb8      	it	lt
    969a:	4613      	movlt	r3, r2
    969c:	f8c9 3000 	str.w	r3, [r9]
    96a0:	f891 2043 	ldrb.w	r2, [r1, #67]	; 0x43
    96a4:	460c      	mov	r4, r1
    96a6:	f8dd 8020 	ldr.w	r8, [sp, #32]
    96aa:	b112      	cbz	r2, 96b2 <_printf_common+0x2a>
    96ac:	3301      	adds	r3, #1
    96ae:	f8c9 3000 	str.w	r3, [r9]
    96b2:	6823      	ldr	r3, [r4, #0]
    96b4:	0699      	lsls	r1, r3, #26
    96b6:	bf42      	ittt	mi
    96b8:	f8d9 3000 	ldrmi.w	r3, [r9]
    96bc:	3302      	addmi	r3, #2
    96be:	f8c9 3000 	strmi.w	r3, [r9]
    96c2:	6825      	ldr	r5, [r4, #0]
    96c4:	f015 0506 	ands.w	r5, r5, #6
    96c8:	d110      	bne.n	96ec <_printf_common+0x64>
    96ca:	f104 0a19 	add.w	r10, r4, #25
    96ce:	e007      	b.n	96e0 <_printf_common+0x58>
    96d0:	2301      	movs	r3, #1
    96d2:	4652      	mov	r2, r10
    96d4:	4639      	mov	r1, r7
    96d6:	4630      	mov	r0, r6
    96d8:	47c0      	blx	r8
    96da:	3001      	adds	r0, #1
    96dc:	d01a      	beq.n	9714 <_printf_common+0x8c>
    96de:	3501      	adds	r5, #1
    96e0:	68e3      	ldr	r3, [r4, #12]
    96e2:	f8d9 2000 	ldr.w	r2, [r9]
    96e6:	1a9b      	subs	r3, r3, r2
    96e8:	429d      	cmp	r5, r3
    96ea:	dbf1      	blt.n	96d0 <_printf_common+0x48>
    96ec:	f894 3043 	ldrb.w	r3, [r4, #67]	; 0x43
    96f0:	6822      	ldr	r2, [r4, #0]
    96f2:	3300      	adds	r3, #0
    96f4:	bf18      	it	ne
    96f6:	2301      	movne	r3, #1
    96f8:	0692      	lsls	r2, r2, #26
    96fa:	d50f      	bpl.n	971c <_printf_common+0x94>
    96fc:	18e1      	adds	r1, r4, r3
    96fe:	2030      	movs	r0, #48	; 0x30
    9700:	f881 0043 	strb.w	r0, [r1, #67]	; 0x43
    9704:	1c5a      	adds	r2, r3, #1
    9706:	f894 1045 	ldrb.w	r1, [r4, #69]	; 0x45
    970a:	4422      	add	r2, r4
    970c:	3302      	adds	r3, #2
    970e:	f882 1043 	strb.w	r1, [r2, #67]	; 0x43
    9712:	e003      	b.n	971c <_printf_common+0x94>
    9714:	f04f 30ff 	mov.w	r0, #4294967295
    9718:	e8bd 87f0 	ldmia.w	sp!, {r4, r5, r6, r7, r8, r9, r10, pc}
    971c:	f104 0243 	add.w	r2, r4, #67	; 0x43
    9720:	4639      	mov	r1, r7
    9722:	4630      	mov	r0, r6
    9724:	47c0      	blx	r8
    9726:	3001      	adds	r0, #1
    9728:	d0f4      	beq.n	9714 <_printf_common+0x8c>
    972a:	6822      	ldr	r2, [r4, #0]
    972c:	f8d9 5000 	ldr.w	r5, [r9]
    9730:	68e3      	ldr	r3, [r4, #12]
    9732:	f002 0206 	and.w	r2, r2, #6
    9736:	2a04      	cmp	r2, #4
    9738:	bf08      	it	eq
    973a:	1b5d      	subeq	r5, r3, r5
    973c:	6922      	ldr	r2, [r4, #16]
    973e:	68a3      	ldr	r3, [r4, #8]
    9740:	bf0c      	ite	eq
    9742:	ea25 75e5 	biceq.w	r5, r5, r5, asr #31
    9746:	2500      	movne	r5, #0
    9748:	4293      	cmp	r3, r2
    974a:	bfc4      	itt	gt
    974c:	1a9b      	subgt	r3, r3, r2
    974e:	18ed      	addgt	r5, r5, r3
    9750:	f04f 0900 	mov.w	r9, #0
    9754:	341a      	adds	r4, #26
    9756:	454d      	cmp	r5, r9
    9758:	d009      	beq.n	976e <_printf_common+0xe6>
    975a:	2301      	movs	r3, #1
    975c:	4622      	mov	r2, r4
    975e:	4639      	mov	r1, r7
    9760:	4630      	mov	r0, r6
    9762:	47c0      	blx	r8
    9764:	3001      	adds	r0, #1
    9766:	d0d5      	beq.n	9714 <_printf_common+0x8c>
    9768:	f109 0901 	add.w	r9, r9, #1
    976c:	e7f3      	b.n	9756 <_printf_common+0xce>
    976e:	2000      	movs	r0, #0
    9770:	e8bd 87f0 	ldmia.w	sp!, {r4, r5, r6, r7, r8, r9, r10, pc}

00009774 <_printf_i>:
    9774:	e92d 43f0 	stmdb	sp!, {r4, r5, r6, r7, r8, r9, lr}
    9778:	4617      	mov	r7, r2
    977a:	7e0a      	ldrb	r2, [r1, #24]
    977c:	b085      	sub	sp, #20
    977e:	2a6e      	cmp	r2, #110	; 0x6e
    9780:	4698      	mov	r8, r3
    9782:	4606      	mov	r6, r0
    9784:	460c      	mov	r4, r1
    9786:	9b0c      	ldr	r3, [sp, #48]	; 0x30
    9788:	f101 0e43 	add.w	lr, r1, #67	; 0x43
    978c:	f000 80ae 	beq.w	98ec <_printf_i+0x178>
    9790:	d811      	bhi.n	97b6 <_printf_i+0x42>
    9792:	2a63      	cmp	r2, #99	; 0x63
    9794:	d022      	beq.n	97dc <_printf_i+0x68>
    9796:	d809      	bhi.n	97ac <_printf_i+0x38>
    9798:	2a00      	cmp	r2, #0
    979a:	f000 80bb 	beq.w	9914 <_printf_i+0x1a0>
    979e:	2a58      	cmp	r2, #88	; 0x58
    97a0:	f040 80ca 	bne.w	9938 <_printf_i+0x1c4>
    97a4:	f881 2045 	strb.w	r2, [r1, #69]	; 0x45
    97a8:	4983      	ldr	r1, [pc, #524]	; (99b8 <_printf_i+0x244>)
    97aa:	e055      	b.n	9858 <_printf_i+0xe4>
    97ac:	2a64      	cmp	r2, #100	; 0x64
    97ae:	d01e      	beq.n	97ee <_printf_i+0x7a>
    97b0:	2a69      	cmp	r2, #105	; 0x69
    97b2:	d01c      	beq.n	97ee <_printf_i+0x7a>
    97b4:	e0c0      	b.n	9938 <_printf_i+0x1c4>
    97b6:	2a73      	cmp	r2, #115	; 0x73
    97b8:	f000 80b0 	beq.w	991c <_printf_i+0x1a8>
    97bc:	d809      	bhi.n	97d2 <_printf_i+0x5e>
    97be:	2a6f      	cmp	r2, #111	; 0x6f
    97c0:	d02e      	beq.n	9820 <_printf_i+0xac>
    97c2:	2a70      	cmp	r2, #112	; 0x70
    97c4:	f040 80b8 	bne.w	9938 <_printf_i+0x1c4>
    97c8:	680a      	ldr	r2, [r1, #0]
    97ca:	f042 0220 	orr.w	r2, r2, #32
    97ce:	600a      	str	r2, [r1, #0]
    97d0:	e03e      	b.n	9850 <_printf_i+0xdc>
    97d2:	2a75      	cmp	r2, #117	; 0x75
    97d4:	d024      	beq.n	9820 <_printf_i+0xac>
    97d6:	2a78      	cmp	r2, #120	; 0x78
    97d8:	d03a      	beq.n	9850 <_printf_i+0xdc>
    97da:	e0ad      	b.n	9938 <_printf_i+0x1c4>
    97dc:	681a      	ldr	r2, [r3, #0]
    97de:	f101 0542 	add.w	r5, r1, #66	; 0x42
    97e2:	1d11      	adds	r1, r2, #4
    97e4:	6019      	str	r1, [r3, #0]
    97e6:	6813      	ldr	r3, [r2, #0]
    97e8:	f884 3042 	strb.w	r3, [r4, #66]	; 0x42
    97ec:	e0a8      	b.n	9940 <_printf_i+0x1cc>
    97ee:	6821      	ldr	r1, [r4, #0]
    97f0:	681a      	ldr	r2, [r3, #0]
    97f2:	f011 0f80 	tst.w	r1, #128	; 0x80
    97f6:	d002      	beq.n	97fe <_printf_i+0x8a>
    97f8:	1d11      	adds	r1, r2, #4
    97fa:	6019      	str	r1, [r3, #0]
    97fc:	e008      	b.n	9810 <_printf_i+0x9c>
    97fe:	f011 0f40 	tst.w	r1, #64	; 0x40
    9802:	f102 0104 	add.w	r1, r2, #4
    9806:	6019      	str	r1, [r3, #0]
    9808:	d002      	beq.n	9810 <_printf_i+0x9c>
    980a:	f9b2 3000 	ldrsh.w	r3, [r2]
    980e:	e000      	b.n	9812 <_printf_i+0x9e>
    9810:	6813      	ldr	r3, [r2, #0]
    9812:	2b00      	cmp	r3, #0
    9814:	da3c      	bge.n	9890 <_printf_i+0x11c>
    9816:	222d      	movs	r2, #45	; 0x2d
    9818:	425b      	negs	r3, r3
    981a:	f884 2043 	strb.w	r2, [r4, #67]	; 0x43
    981e:	e037      	b.n	9890 <_printf_i+0x11c>
    9820:	6821      	ldr	r1, [r4, #0]
    9822:	681a      	ldr	r2, [r3, #0]
    9824:	f011 0f80 	tst.w	r1, #128	; 0x80
    9828:	d002      	beq.n	9830 <_printf_i+0xbc>
    982a:	1d11      	adds	r1, r2, #4
    982c:	6019      	str	r1, [r3, #0]
    982e:	e007      	b.n	9840 <_printf_i+0xcc>
    9830:	f011 0f40 	tst.w	r1, #64	; 0x40
    9834:	f102 0104 	add.w	r1, r2, #4
    9838:	6019      	str	r1, [r3, #0]
    983a:	d001      	beq.n	9840 <_printf_i+0xcc>
    983c:	8813      	ldrh	r3, [r2, #0]
    983e:	e000      	b.n	9842 <_printf_i+0xce>
    9840:	6813      	ldr	r3, [r2, #0]
    9842:	7e22      	ldrb	r2, [r4, #24]
    9844:	495c      	ldr	r1, [pc, #368]	; (99b8 <_printf_i+0x244>)
    9846:	2a6f      	cmp	r2, #111	; 0x6f
    9848:	bf14      	ite	ne
    984a:	220a      	movne	r2, #10
    984c:	2208      	moveq	r2, #8
    984e:	e01b      	b.n	9888 <_printf_i+0x114>
    9850:	2278      	movs	r2, #120	; 0x78
    9852:	495a      	ldr	r1, [pc, #360]	; (99bc <_printf_i+0x248>)
    9854:	f884 2045 	strb.w	r2, [r4, #69]	; 0x45
    9858:	6822      	ldr	r2, [r4, #0]
    985a:	6818      	ldr	r0, [r3, #0]
    985c:	f012 0f80 	tst.w	r2, #128	; 0x80
    9860:	f100 0504 	add.w	r5, r0, #4
    9864:	601d      	str	r5, [r3, #0]
    9866:	d103      	bne.n	9870 <_printf_i+0xfc>
    9868:	0655      	lsls	r5, r2, #25
    986a:	d501      	bpl.n	9870 <_printf_i+0xfc>
    986c:	8803      	ldrh	r3, [r0, #0]
    986e:	e000      	b.n	9872 <_printf_i+0xfe>
    9870:	6803      	ldr	r3, [r0, #0]
    9872:	07d0      	lsls	r0, r2, #31
    9874:	bf44      	itt	mi
    9876:	f042 0220 	orrmi.w	r2, r2, #32
    987a:	6022      	strmi	r2, [r4, #0]
    987c:	b91b      	cbnz	r3, 9886 <_printf_i+0x112>
    987e:	6822      	ldr	r2, [r4, #0]
    9880:	f022 0220 	bic.w	r2, r2, #32
    9884:	6022      	str	r2, [r4, #0]
    9886:	2210      	movs	r2, #16
    9888:	2000      	movs	r0, #0
    988a:	f884 0043 	strb.w	r0, [r4, #67]	; 0x43
    988e:	e001      	b.n	9894 <_printf_i+0x120>
    9890:	4949      	ldr	r1, [pc, #292]	; (99b8 <_printf_i+0x244>)
    9892:	220a      	movs	r2, #10
    9894:	6865      	ldr	r5, [r4, #4]
    9896:	2d00      	cmp	r5, #0
    9898:	60a5      	str	r5, [r4, #8]
    989a:	db08      	blt.n	98ae <_printf_i+0x13a>
    989c:	6820      	ldr	r0, [r4, #0]
    989e:	f020 0004 	bic.w	r0, r0, #4
    98a2:	6020      	str	r0, [r4, #0]
    98a4:	b92b      	cbnz	r3, 98b2 <_printf_i+0x13e>
    98a6:	2d00      	cmp	r5, #0
    98a8:	d17d      	bne.n	99a6 <_printf_i+0x232>
    98aa:	4675      	mov	r5, lr
    98ac:	e00c      	b.n	98c8 <_printf_i+0x154>
    98ae:	2b00      	cmp	r3, #0
    98b0:	d079      	beq.n	99a6 <_printf_i+0x232>
    98b2:	4675      	mov	r5, lr
    98b4:	fbb3 f0f2 	udiv	r0, r3, r2
    98b8:	fb02 3310 	mls	r3, r2, r0, r3
    98bc:	5ccb      	ldrb	r3, [r1, r3]
    98be:	f805 3d01 	strb.w	r3, [r5, #-1]!
    98c2:	4603      	mov	r3, r0
    98c4:	2800      	cmp	r0, #0
    98c6:	d1f5      	bne.n	98b4 <_printf_i+0x140>
    98c8:	2a08      	cmp	r2, #8
    98ca:	d10b      	bne.n	98e4 <_printf_i+0x170>
    98cc:	6823      	ldr	r3, [r4, #0]
    98ce:	07da      	lsls	r2, r3, #31
    98d0:	d508      	bpl.n	98e4 <_printf_i+0x170>
    98d2:	6923      	ldr	r3, [r4, #16]
    98d4:	6862      	ldr	r2, [r4, #4]
    98d6:	429a      	cmp	r2, r3
    98d8:	bfde      	ittt	le
    98da:	2330      	movle	r3, #48	; 0x30
    98dc:	f805 3c01 	strble.w	r3, [r5, #-1]
    98e0:	f105 35ff 	addle.w	r5, r5, #4294967295
    98e4:	ebc5 030e 	rsb	r3, r5, lr
    98e8:	6123      	str	r3, [r4, #16]
    98ea:	e02e      	b.n	994a <_printf_i+0x1d6>
    98ec:	6808      	ldr	r0, [r1, #0]
    98ee:	681a      	ldr	r2, [r3, #0]
    98f0:	f010 0f80 	tst.w	r0, #128	; 0x80
    98f4:	6949      	ldr	r1, [r1, #20]
    98f6:	d003      	beq.n	9900 <_printf_i+0x18c>
    98f8:	1d10      	adds	r0, r2, #4
    98fa:	6018      	str	r0, [r3, #0]
    98fc:	6813      	ldr	r3, [r2, #0]
    98fe:	e008      	b.n	9912 <_printf_i+0x19e>
    9900:	f010 0f40 	tst.w	r0, #64	; 0x40
    9904:	f102 0004 	add.w	r0, r2, #4
    9908:	6018      	str	r0, [r3, #0]
    990a:	6813      	ldr	r3, [r2, #0]
    990c:	d001      	beq.n	9912 <_printf_i+0x19e>
    990e:	8019      	strh	r1, [r3, #0]
    9910:	e000      	b.n	9914 <_printf_i+0x1a0>
    9912:	6019      	str	r1, [r3, #0]
    9914:	2300      	movs	r3, #0
    9916:	6123      	str	r3, [r4, #16]
    9918:	4675      	mov	r5, lr
    991a:	e016      	b.n	994a <_printf_i+0x1d6>
    991c:	681a      	ldr	r2, [r3, #0]
    991e:	1d11      	adds	r1, r2, #4
    9920:	6019      	str	r1, [r3, #0]
    9922:	6815      	ldr	r5, [r2, #0]
    9924:	2100      	movs	r1, #0
    9926:	6862      	ldr	r2, [r4, #4]
    9928:	4628      	mov	r0, r5
    992a:	f7ff fc8b 	bl	9244 <memchr>
    992e:	b108      	cbz	r0, 9934 <_printf_i+0x1c0>
    9930:	1b40      	subs	r0, r0, r5
    9932:	6060      	str	r0, [r4, #4]
    9934:	6863      	ldr	r3, [r4, #4]
    9936:	e004      	b.n	9942 <_printf_i+0x1ce>
    9938:	f104 0542 	add.w	r5, r4, #66	; 0x42
    993c:	f884 2042 	strb.w	r2, [r4, #66]	; 0x42
    9940:	2301      	movs	r3, #1
    9942:	6123      	str	r3, [r4, #16]
    9944:	2300      	movs	r3, #0
    9946:	f884 3043 	strb.w	r3, [r4, #67]	; 0x43
    994a:	f8cd 8000 	str.w	r8, [sp]
    994e:	463b      	mov	r3, r7
    9950:	aa03      	add	r2, sp, #12
    9952:	4621      	mov	r1, r4
    9954:	4630      	mov	r0, r6
    9956:	f7ff fe97 	bl	9688 <_printf_common>
    995a:	3001      	adds	r0, #1
    995c:	d102      	bne.n	9964 <_printf_i+0x1f0>
    995e:	f04f 30ff 	mov.w	r0, #4294967295
    9962:	e026      	b.n	99b2 <_printf_i+0x23e>
    9964:	6923      	ldr	r3, [r4, #16]
    9966:	462a      	mov	r2, r5
    9968:	4639      	mov	r1, r7
    996a:	4630      	mov	r0, r6
    996c:	47c0      	blx	r8
    996e:	3001      	adds	r0, #1
    9970:	d0f5      	beq.n	995e <_printf_i+0x1ea>
    9972:	6823      	ldr	r3, [r4, #0]
    9974:	079b      	lsls	r3, r3, #30
    9976:	d510      	bpl.n	999a <_printf_i+0x226>
    9978:	2500      	movs	r5, #0
    997a:	f104 0919 	add.w	r9, r4, #25
    997e:	e007      	b.n	9990 <_printf_i+0x21c>
    9980:	2301      	movs	r3, #1
    9982:	464a      	mov	r2, r9
    9984:	4639      	mov	r1, r7
    9986:	4630      	mov	r0, r6
    9988:	47c0      	blx	r8
    998a:	3001      	adds	r0, #1
    998c:	d0e7      	beq.n	995e <_printf_i+0x1ea>
    998e:	3501      	adds	r5, #1
    9990:	68e3      	ldr	r3, [r4, #12]
    9992:	9a03      	ldr	r2, [sp, #12]
    9994:	1a9b      	subs	r3, r3, r2
    9996:	429d      	cmp	r5, r3
    9998:	dbf2      	blt.n	9980 <_printf_i+0x20c>
    999a:	68e0      	ldr	r0, [r4, #12]
    999c:	9b03      	ldr	r3, [sp, #12]
    999e:	4298      	cmp	r0, r3
    99a0:	bfb8      	it	lt
    99a2:	4618      	movlt	r0, r3
    99a4:	e005      	b.n	99b2 <_printf_i+0x23e>
    99a6:	780b      	ldrb	r3, [r1, #0]
    99a8:	f104 0542 	add.w	r5, r4, #66	; 0x42
    99ac:	f884 3042 	strb.w	r3, [r4, #66]	; 0x42
    99b0:	e78a      	b.n	98c8 <_printf_i+0x154>
    99b2:	b005      	add	sp, #20
    99b4:	e8bd 83f0 	ldmia.w	sp!, {r4, r5, r6, r7, r8, r9, pc}
    99b8:	0000b589 	.word	0x0000b589
    99bc:	0000b59a 	.word	0x0000b59a

000099c0 <_scanf_chars>:
    99c0:	e92d 43f8 	stmdb	sp!, {r3, r4, r5, r6, r7, r8, r9, lr}
    99c4:	4615      	mov	r5, r2
    99c6:	688a      	ldr	r2, [r1, #8]
    99c8:	4680      	mov	r8, r0
    99ca:	460c      	mov	r4, r1
    99cc:	b932      	cbnz	r2, 99dc <_scanf_chars+0x1c>
    99ce:	698a      	ldr	r2, [r1, #24]
    99d0:	2a00      	cmp	r2, #0
    99d2:	bf0c      	ite	eq
    99d4:	2201      	moveq	r2, #1
    99d6:	f04f 32ff 	movne.w	r2, #4294967295
    99da:	608a      	str	r2, [r1, #8]
    99dc:	6822      	ldr	r2, [r4, #0]
    99de:	f8df 90a8 	ldr.w	r9, [pc, #168]	; 9a88 <_scanf_chars+0xc8>
    99e2:	06d1      	lsls	r1, r2, #27
    99e4:	bf58      	it	pl
    99e6:	681a      	ldrpl	r2, [r3, #0]
    99e8:	f04f 0600 	mov.w	r6, #0
    99ec:	bf5e      	ittt	pl
    99ee:	1d11      	addpl	r1, r2, #4
    99f0:	6019      	strpl	r1, [r3, #0]
    99f2:	6817      	ldrpl	r7, [r2, #0]
    99f4:	69a0      	ldr	r0, [r4, #24]
    99f6:	b9f8      	cbnz	r0, 9a38 <_scanf_chars+0x78>
    99f8:	6823      	ldr	r3, [r4, #0]
    99fa:	3601      	adds	r6, #1
    99fc:	06da      	lsls	r2, r3, #27
    99fe:	bf5e      	ittt	pl
    9a00:	682b      	ldrpl	r3, [r5, #0]
    9a02:	781b      	ldrbpl	r3, [r3, #0]
    9a04:	703b      	strbpl	r3, [r7, #0]
    9a06:	682a      	ldr	r2, [r5, #0]
    9a08:	686b      	ldr	r3, [r5, #4]
    9a0a:	f102 0201 	add.w	r2, r2, #1
    9a0e:	602a      	str	r2, [r5, #0]
    9a10:	68a2      	ldr	r2, [r4, #8]
    9a12:	f103 33ff 	add.w	r3, r3, #4294967295
    9a16:	f102 32ff 	add.w	r2, r2, #4294967295
    9a1a:	606b      	str	r3, [r5, #4]
    9a1c:	bf58      	it	pl
    9a1e:	3701      	addpl	r7, #1
    9a20:	60a2      	str	r2, [r4, #8]
    9a22:	b1e2      	cbz	r2, 9a5e <_scanf_chars+0x9e>
    9a24:	2b00      	cmp	r3, #0
    9a26:	dce5      	bgt.n	99f4 <_scanf_chars+0x34>
    9a28:	f8d4 3180 	ldr.w	r3, [r4, #384]	; 0x180
    9a2c:	4629      	mov	r1, r5
    9a2e:	4640      	mov	r0, r8
    9a30:	4798      	blx	r3
    9a32:	2800      	cmp	r0, #0
    9a34:	d0de      	beq.n	99f4 <_scanf_chars+0x34>
    9a36:	e012      	b.n	9a5e <_scanf_chars+0x9e>
    9a38:	2801      	cmp	r0, #1
    9a3a:	d106      	bne.n	9a4a <_scanf_chars+0x8a>
    9a3c:	682b      	ldr	r3, [r5, #0]
    9a3e:	781a      	ldrb	r2, [r3, #0]
    9a40:	6963      	ldr	r3, [r4, #20]
    9a42:	5c9b      	ldrb	r3, [r3, r2]
    9a44:	2b00      	cmp	r3, #0
    9a46:	d1d7      	bne.n	99f8 <_scanf_chars+0x38>
    9a48:	e019      	b.n	9a7e <_scanf_chars+0xbe>
    9a4a:	2802      	cmp	r0, #2
    9a4c:	d107      	bne.n	9a5e <_scanf_chars+0x9e>
    9a4e:	682b      	ldr	r3, [r5, #0]
    9a50:	f8d9 2000 	ldr.w	r2, [r9]
    9a54:	781b      	ldrb	r3, [r3, #0]
    9a56:	4413      	add	r3, r2
    9a58:	785b      	ldrb	r3, [r3, #1]
    9a5a:	071b      	lsls	r3, r3, #28
    9a5c:	d5cc      	bpl.n	99f8 <_scanf_chars+0x38>
    9a5e:	6823      	ldr	r3, [r4, #0]
    9a60:	f013 0310 	ands.w	r3, r3, #16
    9a64:	d105      	bne.n	9a72 <_scanf_chars+0xb2>
    9a66:	68e2      	ldr	r2, [r4, #12]
    9a68:	3201      	adds	r2, #1
    9a6a:	60e2      	str	r2, [r4, #12]
    9a6c:	69a2      	ldr	r2, [r4, #24]
    9a6e:	b102      	cbz	r2, 9a72 <_scanf_chars+0xb2>
    9a70:	703b      	strb	r3, [r7, #0]
    9a72:	6923      	ldr	r3, [r4, #16]
    9a74:	2000      	movs	r0, #0
    9a76:	441e      	add	r6, r3
    9a78:	6126      	str	r6, [r4, #16]
    9a7a:	e8bd 83f8 	ldmia.w	sp!, {r3, r4, r5, r6, r7, r8, r9, pc}
    9a7e:	2e00      	cmp	r6, #0
    9a80:	d1ed      	bne.n	9a5e <_scanf_chars+0x9e>
    9a82:	e8bd 83f8 	ldmia.w	sp!, {r3, r4, r5, r6, r7, r8, r9, pc}
    9a86:	bf00      	nop
    9a88:	1000019c 	.word	0x1000019c

00009a8c <_scanf_i>:
    9a8c:	e92d 4ff0 	stmdb	sp!, {r4, r5, r6, r7, r8, r9, r10, r11, lr}
    9a90:	460c      	mov	r4, r1
    9a92:	469a      	mov	r10, r3
    9a94:	4b72      	ldr	r3, [pc, #456]	; (9c60 <_scanf_i+0x1d4>)
    9a96:	b087      	sub	sp, #28
    9a98:	4683      	mov	r11, r0
    9a9a:	4616      	mov	r6, r2
    9a9c:	e893 0007 	ldmia.w	r3, {r0, r1, r2}
    9aa0:	ab03      	add	r3, sp, #12
    9aa2:	68a7      	ldr	r7, [r4, #8]
    9aa4:	e883 0007 	stmia.w	r3, {r0, r1, r2}
    9aa8:	4b6e      	ldr	r3, [pc, #440]	; (9c64 <_scanf_i+0x1d8>)
    9aaa:	69a1      	ldr	r1, [r4, #24]
    9aac:	4a6e      	ldr	r2, [pc, #440]	; (9c68 <_scanf_i+0x1dc>)
    9aae:	f104 091c 	add.w	r9, r4, #28
    9ab2:	2903      	cmp	r1, #3
    9ab4:	bf18      	it	ne
    9ab6:	461a      	movne	r2, r3
    9ab8:	1e7b      	subs	r3, r7, #1
    9aba:	f5b3 7fae 	cmp.w	r3, #348	; 0x15c
    9abe:	bf84      	itt	hi
    9ac0:	f240 135d 	movwhi	r3, #349	; 0x15d
    9ac4:	60a3      	strhi	r3, [r4, #8]
    9ac6:	6823      	ldr	r3, [r4, #0]
    9ac8:	bf88      	it	hi
    9aca:	f46f 75ae 	mvnhi.w	r5, #348	; 0x15c
    9ace:	f443 6350 	orr.w	r3, r3, #3328	; 0xd00
    9ad2:	6023      	str	r3, [r4, #0]
    9ad4:	464b      	mov	r3, r9
    9ad6:	9200      	str	r2, [sp, #0]
    9ad8:	bf8c      	ite	hi
    9ada:	197f      	addhi	r7, r7, r5
    9adc:	2700      	movls	r7, #0
    9ade:	f04f 0800 	mov.w	r8, #0
    9ae2:	6831      	ldr	r1, [r6, #0]
    9ae4:	9301      	str	r3, [sp, #4]
    9ae6:	ab03      	add	r3, sp, #12
    9ae8:	f853 0028 	ldr.w	r0, [r3, r8, lsl #2]
    9aec:	2202      	movs	r2, #2
    9aee:	7809      	ldrb	r1, [r1, #0]
    9af0:	f7ff fba8 	bl	9244 <memchr>
    9af4:	9b01      	ldr	r3, [sp, #4]
    9af6:	2800      	cmp	r0, #0
    9af8:	d033      	beq.n	9b62 <_scanf_i+0xd6>
    9afa:	f1b8 0f01 	cmp.w	r8, #1
    9afe:	d10b      	bne.n	9b18 <_scanf_i+0x8c>
    9b00:	6862      	ldr	r2, [r4, #4]
    9b02:	b92a      	cbnz	r2, 9b10 <_scanf_i+0x84>
    9b04:	2208      	movs	r2, #8
    9b06:	6062      	str	r2, [r4, #4]
    9b08:	6822      	ldr	r2, [r4, #0]
    9b0a:	f442 7200 	orr.w	r2, r2, #512	; 0x200
    9b0e:	6022      	str	r2, [r4, #0]
    9b10:	6822      	ldr	r2, [r4, #0]
    9b12:	f422 62a0 	bic.w	r2, r2, #1280	; 0x500
    9b16:	e00c      	b.n	9b32 <_scanf_i+0xa6>
    9b18:	f1b8 0f02 	cmp.w	r8, #2
    9b1c:	d10a      	bne.n	9b34 <_scanf_i+0xa8>
    9b1e:	6822      	ldr	r2, [r4, #0]
    9b20:	f402 61c0 	and.w	r1, r2, #1536	; 0x600
    9b24:	f5b1 7f00 	cmp.w	r1, #512	; 0x200
    9b28:	d11b      	bne.n	9b62 <_scanf_i+0xd6>
    9b2a:	2110      	movs	r1, #16
    9b2c:	6061      	str	r1, [r4, #4]
    9b2e:	f442 7280 	orr.w	r2, r2, #256	; 0x100
    9b32:	6022      	str	r2, [r4, #0]
    9b34:	68a2      	ldr	r2, [r4, #8]
    9b36:	1e51      	subs	r1, r2, #1
    9b38:	60a1      	str	r1, [r4, #8]
    9b3a:	b192      	cbz	r2, 9b62 <_scanf_i+0xd6>
    9b3c:	6832      	ldr	r2, [r6, #0]
    9b3e:	1c5d      	adds	r5, r3, #1
    9b40:	1c51      	adds	r1, r2, #1
    9b42:	6031      	str	r1, [r6, #0]
    9b44:	7812      	ldrb	r2, [r2, #0]
    9b46:	701a      	strb	r2, [r3, #0]
    9b48:	6873      	ldr	r3, [r6, #4]
    9b4a:	3b01      	subs	r3, #1
    9b4c:	2b00      	cmp	r3, #0
    9b4e:	6073      	str	r3, [r6, #4]
    9b50:	dc06      	bgt.n	9b60 <_scanf_i+0xd4>
    9b52:	f8d4 3180 	ldr.w	r3, [r4, #384]	; 0x180
    9b56:	4631      	mov	r1, r6
    9b58:	4658      	mov	r0, r11
    9b5a:	4798      	blx	r3
    9b5c:	2800      	cmp	r0, #0
    9b5e:	d141      	bne.n	9be4 <_scanf_i+0x158>
    9b60:	462b      	mov	r3, r5
    9b62:	f108 0801 	add.w	r8, r8, #1
    9b66:	f1b8 0f03 	cmp.w	r8, #3
    9b6a:	d1ba      	bne.n	9ae2 <_scanf_i+0x56>
    9b6c:	6862      	ldr	r2, [r4, #4]
    9b6e:	b90a      	cbnz	r2, 9b74 <_scanf_i+0xe8>
    9b70:	220a      	movs	r2, #10
    9b72:	6062      	str	r2, [r4, #4]
    9b74:	6862      	ldr	r2, [r4, #4]
    9b76:	493d      	ldr	r1, [pc, #244]	; (9c6c <_scanf_i+0x1e0>)
    9b78:	6960      	ldr	r0, [r4, #20]
    9b7a:	1a89      	subs	r1, r1, r2
    9b7c:	9301      	str	r3, [sp, #4]
    9b7e:	f000 f999 	bl	9eb4 <__sccl>
    9b82:	9b01      	ldr	r3, [sp, #4]
    9b84:	f04f 0800 	mov.w	r8, #0
    9b88:	461d      	mov	r5, r3
    9b8a:	68a3      	ldr	r3, [r4, #8]
    9b8c:	b363      	cbz	r3, 9be8 <_scanf_i+0x15c>
    9b8e:	6831      	ldr	r1, [r6, #0]
    9b90:	6960      	ldr	r0, [r4, #20]
    9b92:	780a      	ldrb	r2, [r1, #0]
    9b94:	5c80      	ldrb	r0, [r0, r2]
    9b96:	b338      	cbz	r0, 9be8 <_scanf_i+0x15c>
    9b98:	2a30      	cmp	r2, #48	; 0x30
    9b9a:	6822      	ldr	r2, [r4, #0]
    9b9c:	d108      	bne.n	9bb0 <_scanf_i+0x124>
    9b9e:	0510      	lsls	r0, r2, #20
    9ba0:	d506      	bpl.n	9bb0 <_scanf_i+0x124>
    9ba2:	f108 0801 	add.w	r8, r8, #1
    9ba6:	b157      	cbz	r7, 9bbe <_scanf_i+0x132>
    9ba8:	3301      	adds	r3, #1
    9baa:	3f01      	subs	r7, #1
    9bac:	60a3      	str	r3, [r4, #8]
    9bae:	e006      	b.n	9bbe <_scanf_i+0x132>
    9bb0:	f422 6210 	bic.w	r2, r2, #2304	; 0x900
    9bb4:	6022      	str	r2, [r4, #0]
    9bb6:	780b      	ldrb	r3, [r1, #0]
    9bb8:	3501      	adds	r5, #1
    9bba:	f805 3c01 	strb.w	r3, [r5, #-1]
    9bbe:	6873      	ldr	r3, [r6, #4]
    9bc0:	3b01      	subs	r3, #1
    9bc2:	2b00      	cmp	r3, #0
    9bc4:	6073      	str	r3, [r6, #4]
    9bc6:	dd03      	ble.n	9bd0 <_scanf_i+0x144>
    9bc8:	6833      	ldr	r3, [r6, #0]
    9bca:	3301      	adds	r3, #1
    9bcc:	6033      	str	r3, [r6, #0]
    9bce:	e005      	b.n	9bdc <_scanf_i+0x150>
    9bd0:	f8d4 3180 	ldr.w	r3, [r4, #384]	; 0x180
    9bd4:	4631      	mov	r1, r6
    9bd6:	4658      	mov	r0, r11
    9bd8:	4798      	blx	r3
    9bda:	b928      	cbnz	r0, 9be8 <_scanf_i+0x15c>
    9bdc:	68a3      	ldr	r3, [r4, #8]
    9bde:	3b01      	subs	r3, #1
    9be0:	60a3      	str	r3, [r4, #8]
    9be2:	e7d2      	b.n	9b8a <_scanf_i+0xfe>
    9be4:	f04f 0800 	mov.w	r8, #0
    9be8:	6823      	ldr	r3, [r4, #0]
    9bea:	05d9      	lsls	r1, r3, #23
    9bec:	d50c      	bpl.n	9c08 <_scanf_i+0x17c>
    9bee:	454d      	cmp	r5, r9
    9bf0:	d908      	bls.n	9c04 <_scanf_i+0x178>
    9bf2:	f815 1c01 	ldrb.w	r1, [r5, #-1]
    9bf6:	1e6f      	subs	r7, r5, #1
    9bf8:	f8d4 317c 	ldr.w	r3, [r4, #380]	; 0x17c
    9bfc:	4632      	mov	r2, r6
    9bfe:	4658      	mov	r0, r11
    9c00:	4798      	blx	r3
    9c02:	463d      	mov	r5, r7
    9c04:	454d      	cmp	r5, r9
    9c06:	d027      	beq.n	9c58 <_scanf_i+0x1cc>
    9c08:	6822      	ldr	r2, [r4, #0]
    9c0a:	f012 0210 	ands.w	r2, r2, #16
    9c0e:	d11b      	bne.n	9c48 <_scanf_i+0x1bc>
    9c10:	702a      	strb	r2, [r5, #0]
    9c12:	6863      	ldr	r3, [r4, #4]
    9c14:	4649      	mov	r1, r9
    9c16:	4658      	mov	r0, r11
    9c18:	9e00      	ldr	r6, [sp, #0]
    9c1a:	47b0      	blx	r6
    9c1c:	6822      	ldr	r2, [r4, #0]
    9c1e:	f8da 3000 	ldr.w	r3, [r10]
    9c22:	f012 0f20 	tst.w	r2, #32
    9c26:	d107      	bne.n	9c38 <_scanf_i+0x1ac>
    9c28:	07d2      	lsls	r2, r2, #31
    9c2a:	d505      	bpl.n	9c38 <_scanf_i+0x1ac>
    9c2c:	1d1a      	adds	r2, r3, #4
    9c2e:	f8ca 2000 	str.w	r2, [r10]
    9c32:	681b      	ldr	r3, [r3, #0]
    9c34:	8018      	strh	r0, [r3, #0]
    9c36:	e004      	b.n	9c42 <_scanf_i+0x1b6>
    9c38:	1d1a      	adds	r2, r3, #4
    9c3a:	f8ca 2000 	str.w	r2, [r10]
    9c3e:	681b      	ldr	r3, [r3, #0]
    9c40:	6018      	str	r0, [r3, #0]
    9c42:	68e3      	ldr	r3, [r4, #12]
    9c44:	3301      	adds	r3, #1
    9c46:	60e3      	str	r3, [r4, #12]
    9c48:	6923      	ldr	r3, [r4, #16]
    9c4a:	ebc9 0505 	rsb	r5, r9, r5
    9c4e:	4445      	add	r5, r8
    9c50:	441d      	add	r5, r3
    9c52:	6125      	str	r5, [r4, #16]
    9c54:	2000      	movs	r0, #0
    9c56:	e000      	b.n	9c5a <_scanf_i+0x1ce>
    9c58:	2001      	movs	r0, #1
    9c5a:	b007      	add	sp, #28
    9c5c:	e8bd 8ff0 	ldmia.w	sp!, {r4, r5, r6, r7, r8, r9, r10, r11, pc}
    9c60:	0000b5ac 	.word	0x0000b5ac
    9c64:	0000a2b5 	.word	0x0000a2b5
    9c68:	0000a1a9 	.word	0x0000a1a9
    9c6c:	0000b5c8 	.word	0x0000b5c8

00009c70 <_open_r>:
    9c70:	b538      	push	{r3, r4, r5, lr}
    9c72:	4c07      	ldr	r4, [pc, #28]	; (9c90 <_open_r+0x20>)
    9c74:	4605      	mov	r5, r0
    9c76:	4608      	mov	r0, r1
    9c78:	4611      	mov	r1, r2
    9c7a:	2200      	movs	r2, #0
    9c7c:	6022      	str	r2, [r4, #0]
    9c7e:	461a      	mov	r2, r3
    9c80:	f7fd fe2c 	bl	78dc <_open>
    9c84:	1c43      	adds	r3, r0, #1
    9c86:	d102      	bne.n	9c8e <_open_r+0x1e>
    9c88:	6823      	ldr	r3, [r4, #0]
    9c8a:	b103      	cbz	r3, 9c8e <_open_r+0x1e>
    9c8c:	602b      	str	r3, [r5, #0]
    9c8e:	bd38      	pop	{r3, r4, r5, pc}
    9c90:	10000bac 	.word	0x10000bac

00009c94 <_putc_r>:
    9c94:	b570      	push	{r4, r5, r6, lr}
    9c96:	460e      	mov	r6, r1
    9c98:	4614      	mov	r4, r2
    9c9a:	4605      	mov	r5, r0
    9c9c:	b118      	cbz	r0, 9ca6 <_putc_r+0x12>
    9c9e:	6983      	ldr	r3, [r0, #24]
    9ca0:	b90b      	cbnz	r3, 9ca6 <_putc_r+0x12>
    9ca2:	f7ff f8a3 	bl	8dec <__sinit>
    9ca6:	4b16      	ldr	r3, [pc, #88]	; (9d00 <_putc_r+0x6c>)
    9ca8:	429c      	cmp	r4, r3
    9caa:	d101      	bne.n	9cb0 <_putc_r+0x1c>
    9cac:	686c      	ldr	r4, [r5, #4]
    9cae:	e008      	b.n	9cc2 <_putc_r+0x2e>
    9cb0:	4b14      	ldr	r3, [pc, #80]	; (9d04 <_putc_r+0x70>)
    9cb2:	429c      	cmp	r4, r3
    9cb4:	d101      	bne.n	9cba <_putc_r+0x26>
    9cb6:	68ac      	ldr	r4, [r5, #8]
    9cb8:	e003      	b.n	9cc2 <_putc_r+0x2e>
    9cba:	4b13      	ldr	r3, [pc, #76]	; (9d08 <_putc_r+0x74>)
    9cbc:	429c      	cmp	r4, r3
    9cbe:	bf08      	it	eq
    9cc0:	68ec      	ldreq	r4, [r5, #12]
    9cc2:	68a3      	ldr	r3, [r4, #8]
    9cc4:	3b01      	subs	r3, #1
    9cc6:	2b00      	cmp	r3, #0
    9cc8:	60a3      	str	r3, [r4, #8]
    9cca:	da11      	bge.n	9cf0 <_putc_r+0x5c>
    9ccc:	69a2      	ldr	r2, [r4, #24]
    9cce:	4293      	cmp	r3, r2
    9cd0:	db07      	blt.n	9ce2 <_putc_r+0x4e>
    9cd2:	6823      	ldr	r3, [r4, #0]
    9cd4:	701e      	strb	r6, [r3, #0]
    9cd6:	6823      	ldr	r3, [r4, #0]
    9cd8:	7819      	ldrb	r1, [r3, #0]
    9cda:	290a      	cmp	r1, #10
    9cdc:	d10b      	bne.n	9cf6 <_putc_r+0x62>
    9cde:	4622      	mov	r2, r4
    9ce0:	e001      	b.n	9ce6 <_putc_r+0x52>
    9ce2:	4622      	mov	r2, r4
    9ce4:	4631      	mov	r1, r6
    9ce6:	4628      	mov	r0, r5
    9ce8:	e8bd 4070 	ldmia.w	sp!, {r4, r5, r6, lr}
    9cec:	f000 bb9a 	b.w	a424 <__swbuf_r>
    9cf0:	6823      	ldr	r3, [r4, #0]
    9cf2:	701e      	strb	r6, [r3, #0]
    9cf4:	6823      	ldr	r3, [r4, #0]
    9cf6:	1c5a      	adds	r2, r3, #1
    9cf8:	6022      	str	r2, [r4, #0]
    9cfa:	7818      	ldrb	r0, [r3, #0]
    9cfc:	bd70      	pop	{r4, r5, r6, pc}
    9cfe:	bf00      	nop
    9d00:	0000b510 	.word	0x0000b510
    9d04:	0000b530 	.word	0x0000b530
    9d08:	0000b550 	.word	0x0000b550

00009d0c <realloc>:
    9d0c:	4b02      	ldr	r3, [pc, #8]	; (9d18 <realloc+0xc>)
    9d0e:	460a      	mov	r2, r1
    9d10:	4601      	mov	r1, r0
    9d12:	6818      	ldr	r0, [r3, #0]
    9d14:	f000 bcd4 	b.w	a6c0 <_realloc_r>
    9d18:	10000198 	.word	0x10000198

00009d1c <lflush>:
    9d1c:	8983      	ldrh	r3, [r0, #12]
    9d1e:	f003 0309 	and.w	r3, r3, #9
    9d22:	2b09      	cmp	r3, #9
    9d24:	d101      	bne.n	9d2a <lflush+0xe>
    9d26:	f7fe bfdb 	b.w	8ce0 <fflush>
    9d2a:	2000      	movs	r0, #0
    9d2c:	4770      	bx	lr
	...

00009d30 <__srefill_r>:
    9d30:	b5f8      	push	{r3, r4, r5, r6, r7, lr}
    9d32:	460c      	mov	r4, r1
    9d34:	4605      	mov	r5, r0
    9d36:	b118      	cbz	r0, 9d40 <__srefill_r+0x10>
    9d38:	6983      	ldr	r3, [r0, #24]
    9d3a:	b90b      	cbnz	r3, 9d40 <__srefill_r+0x10>
    9d3c:	f7ff f856 	bl	8dec <__sinit>
    9d40:	4b39      	ldr	r3, [pc, #228]	; (9e28 <__srefill_r+0xf8>)
    9d42:	429c      	cmp	r4, r3
    9d44:	d101      	bne.n	9d4a <__srefill_r+0x1a>
    9d46:	686c      	ldr	r4, [r5, #4]
    9d48:	e008      	b.n	9d5c <__srefill_r+0x2c>
    9d4a:	4b38      	ldr	r3, [pc, #224]	; (9e2c <__srefill_r+0xfc>)
    9d4c:	429c      	cmp	r4, r3
    9d4e:	d101      	bne.n	9d54 <__srefill_r+0x24>
    9d50:	68ac      	ldr	r4, [r5, #8]
    9d52:	e003      	b.n	9d5c <__srefill_r+0x2c>
    9d54:	4b36      	ldr	r3, [pc, #216]	; (9e30 <__srefill_r+0x100>)
    9d56:	429c      	cmp	r4, r3
    9d58:	bf08      	it	eq
    9d5a:	68ec      	ldreq	r4, [r5, #12]
    9d5c:	89a2      	ldrh	r2, [r4, #12]
    9d5e:	2300      	movs	r3, #0
    9d60:	6063      	str	r3, [r4, #4]
    9d62:	b293      	uxth	r3, r2
    9d64:	069e      	lsls	r6, r3, #26
    9d66:	d45a      	bmi.n	9e1e <__srefill_r+0xee>
    9d68:	0758      	lsls	r0, r3, #29
    9d6a:	d41a      	bmi.n	9da2 <__srefill_r+0x72>
    9d6c:	06d9      	lsls	r1, r3, #27
    9d6e:	d405      	bmi.n	9d7c <__srefill_r+0x4c>
    9d70:	2309      	movs	r3, #9
    9d72:	f042 0240 	orr.w	r2, r2, #64	; 0x40
    9d76:	602b      	str	r3, [r5, #0]
    9d78:	81a2      	strh	r2, [r4, #12]
    9d7a:	e050      	b.n	9e1e <__srefill_r+0xee>
    9d7c:	071a      	lsls	r2, r3, #28
    9d7e:	d50b      	bpl.n	9d98 <__srefill_r+0x68>
    9d80:	4621      	mov	r1, r4
    9d82:	4628      	mov	r0, r5
    9d84:	f7fe ff82 	bl	8c8c <_fflush_r>
    9d88:	2800      	cmp	r0, #0
    9d8a:	d148      	bne.n	9e1e <__srefill_r+0xee>
    9d8c:	89a3      	ldrh	r3, [r4, #12]
    9d8e:	60a0      	str	r0, [r4, #8]
    9d90:	f023 0308 	bic.w	r3, r3, #8
    9d94:	81a3      	strh	r3, [r4, #12]
    9d96:	61a0      	str	r0, [r4, #24]
    9d98:	89a3      	ldrh	r3, [r4, #12]
    9d9a:	f043 0304 	orr.w	r3, r3, #4
    9d9e:	81a3      	strh	r3, [r4, #12]
    9da0:	e010      	b.n	9dc4 <__srefill_r+0x94>
    9da2:	6b61      	ldr	r1, [r4, #52]	; 0x34
    9da4:	b171      	cbz	r1, 9dc4 <__srefill_r+0x94>
    9da6:	f104 0344 	add.w	r3, r4, #68	; 0x44
    9daa:	4299      	cmp	r1, r3
    9dac:	d002      	beq.n	9db4 <__srefill_r+0x84>
    9dae:	4628      	mov	r0, r5
    9db0:	f7ff fa84 	bl	92bc <_free_r>
    9db4:	6c23      	ldr	r3, [r4, #64]	; 0x40
    9db6:	2000      	movs	r0, #0
    9db8:	6360      	str	r0, [r4, #52]	; 0x34
    9dba:	6063      	str	r3, [r4, #4]
    9dbc:	b113      	cbz	r3, 9dc4 <__srefill_r+0x94>
    9dbe:	6be3      	ldr	r3, [r4, #60]	; 0x3c
    9dc0:	6023      	str	r3, [r4, #0]
    9dc2:	bdf8      	pop	{r3, r4, r5, r6, r7, pc}
    9dc4:	6923      	ldr	r3, [r4, #16]
    9dc6:	b91b      	cbnz	r3, 9dd0 <__srefill_r+0xa0>
    9dc8:	4621      	mov	r1, r4
    9dca:	4628      	mov	r0, r5
    9dcc:	f7ff f9de 	bl	918c <__smakebuf_r>
    9dd0:	89a7      	ldrh	r7, [r4, #12]
    9dd2:	b2be      	uxth	r6, r7
    9dd4:	07b3      	lsls	r3, r6, #30
    9dd6:	d00f      	beq.n	9df8 <__srefill_r+0xc8>
    9dd8:	2301      	movs	r3, #1
    9dda:	81a3      	strh	r3, [r4, #12]
    9ddc:	4b15      	ldr	r3, [pc, #84]	; (9e34 <__srefill_r+0x104>)
    9dde:	4916      	ldr	r1, [pc, #88]	; (9e38 <__srefill_r+0x108>)
    9de0:	6818      	ldr	r0, [r3, #0]
    9de2:	f006 0609 	and.w	r6, r6, #9
    9de6:	f7ff f971 	bl	90cc <_fwalk>
    9dea:	2e09      	cmp	r6, #9
    9dec:	81a7      	strh	r7, [r4, #12]
    9dee:	d103      	bne.n	9df8 <__srefill_r+0xc8>
    9df0:	4621      	mov	r1, r4
    9df2:	4628      	mov	r0, r5
    9df4:	f7fe fec4 	bl	8b80 <__sflush_r>
    9df8:	6922      	ldr	r2, [r4, #16]
    9dfa:	6a66      	ldr	r6, [r4, #36]	; 0x24
    9dfc:	6022      	str	r2, [r4, #0]
    9dfe:	6963      	ldr	r3, [r4, #20]
    9e00:	6a21      	ldr	r1, [r4, #32]
    9e02:	4628      	mov	r0, r5
    9e04:	47b0      	blx	r6
    9e06:	2800      	cmp	r0, #0
    9e08:	6060      	str	r0, [r4, #4]
    9e0a:	dc0b      	bgt.n	9e24 <__srefill_r+0xf4>
    9e0c:	89a3      	ldrh	r3, [r4, #12]
    9e0e:	bf17      	itett	ne
    9e10:	2200      	movne	r2, #0
    9e12:	f043 0320 	orreq.w	r3, r3, #32
    9e16:	f043 0340 	orrne.w	r3, r3, #64	; 0x40
    9e1a:	6062      	strne	r2, [r4, #4]
    9e1c:	81a3      	strh	r3, [r4, #12]
    9e1e:	f04f 30ff 	mov.w	r0, #4294967295
    9e22:	bdf8      	pop	{r3, r4, r5, r6, r7, pc}
    9e24:	2000      	movs	r0, #0
    9e26:	bdf8      	pop	{r3, r4, r5, r6, r7, pc}
    9e28:	0000b510 	.word	0x0000b510
    9e2c:	0000b530 	.word	0x0000b530
    9e30:	0000b550 	.word	0x0000b550
    9e34:	0000b574 	.word	0x0000b574
    9e38:	00009d1d 	.word	0x00009d1d

00009e3c <__srget_r>:
    9e3c:	b538      	push	{r3, r4, r5, lr}
    9e3e:	460c      	mov	r4, r1
    9e40:	4605      	mov	r5, r0
    9e42:	b118      	cbz	r0, 9e4c <__srget_r+0x10>
    9e44:	6983      	ldr	r3, [r0, #24]
    9e46:	b90b      	cbnz	r3, 9e4c <__srget_r+0x10>
    9e48:	f7fe ffd0 	bl	8dec <__sinit>
    9e4c:	4b0e      	ldr	r3, [pc, #56]	; (9e88 <__srget_r+0x4c>)
    9e4e:	429c      	cmp	r4, r3
    9e50:	d101      	bne.n	9e56 <__srget_r+0x1a>
    9e52:	686c      	ldr	r4, [r5, #4]
    9e54:	e008      	b.n	9e68 <__srget_r+0x2c>
    9e56:	4b0d      	ldr	r3, [pc, #52]	; (9e8c <__srget_r+0x50>)
    9e58:	429c      	cmp	r4, r3
    9e5a:	d101      	bne.n	9e60 <__srget_r+0x24>
    9e5c:	68ac      	ldr	r4, [r5, #8]
    9e5e:	e003      	b.n	9e68 <__srget_r+0x2c>
    9e60:	4b0b      	ldr	r3, [pc, #44]	; (9e90 <__srget_r+0x54>)
    9e62:	429c      	cmp	r4, r3
    9e64:	bf08      	it	eq
    9e66:	68ec      	ldreq	r4, [r5, #12]
    9e68:	4621      	mov	r1, r4
    9e6a:	4628      	mov	r0, r5
    9e6c:	f7ff ff60 	bl	9d30 <__srefill_r>
    9e70:	b938      	cbnz	r0, 9e82 <__srget_r+0x46>
    9e72:	6863      	ldr	r3, [r4, #4]
    9e74:	3b01      	subs	r3, #1
    9e76:	6063      	str	r3, [r4, #4]
    9e78:	6823      	ldr	r3, [r4, #0]
    9e7a:	1c5a      	adds	r2, r3, #1
    9e7c:	6022      	str	r2, [r4, #0]
    9e7e:	7818      	ldrb	r0, [r3, #0]
    9e80:	bd38      	pop	{r3, r4, r5, pc}
    9e82:	f04f 30ff 	mov.w	r0, #4294967295
    9e86:	bd38      	pop	{r3, r4, r5, pc}
    9e88:	0000b510 	.word	0x0000b510
    9e8c:	0000b530 	.word	0x0000b530
    9e90:	0000b550 	.word	0x0000b550

00009e94 <_sbrk_r>:
    9e94:	b538      	push	{r3, r4, r5, lr}
    9e96:	4c06      	ldr	r4, [pc, #24]	; (9eb0 <_sbrk_r+0x1c>)
    9e98:	2300      	movs	r3, #0
    9e9a:	4605      	mov	r5, r0
    9e9c:	4608      	mov	r0, r1
    9e9e:	6023      	str	r3, [r4, #0]
    9ea0:	f7fd fe3a 	bl	7b18 <_sbrk>
    9ea4:	1c43      	adds	r3, r0, #1
    9ea6:	d102      	bne.n	9eae <_sbrk_r+0x1a>
    9ea8:	6823      	ldr	r3, [r4, #0]
    9eaa:	b103      	cbz	r3, 9eae <_sbrk_r+0x1a>
    9eac:	602b      	str	r3, [r5, #0]
    9eae:	bd38      	pop	{r3, r4, r5, pc}
    9eb0:	10000bac 	.word	0x10000bac

00009eb4 <__sccl>:
    9eb4:	b570      	push	{r4, r5, r6, lr}
    9eb6:	780b      	ldrb	r3, [r1, #0]
    9eb8:	1e44      	subs	r4, r0, #1
    9eba:	2b5e      	cmp	r3, #94	; 0x5e
    9ebc:	bf13      	iteet	ne
    9ebe:	1c4a      	addne	r2, r1, #1
    9ec0:	1c8a      	addeq	r2, r1, #2
    9ec2:	784b      	ldrbeq	r3, [r1, #1]
    9ec4:	2100      	movne	r1, #0
    9ec6:	bf08      	it	eq
    9ec8:	2101      	moveq	r1, #1
    9eca:	f100 05ff 	add.w	r5, r0, #255	; 0xff
    9ece:	f804 1f01 	strb.w	r1, [r4, #1]!
    9ed2:	42ac      	cmp	r4, r5
    9ed4:	d1fb      	bne.n	9ece <__sccl+0x1a>
    9ed6:	b90b      	cbnz	r3, 9edc <__sccl+0x28>
    9ed8:	1e50      	subs	r0, r2, #1
    9eda:	bd70      	pop	{r4, r5, r6, pc}
    9edc:	f081 0401 	eor.w	r4, r1, #1
    9ee0:	4611      	mov	r1, r2
    9ee2:	54c4      	strb	r4, [r0, r3]
    9ee4:	780d      	ldrb	r5, [r1, #0]
    9ee6:	1c4a      	adds	r2, r1, #1
    9ee8:	2d2d      	cmp	r5, #45	; 0x2d
    9eea:	d006      	beq.n	9efa <__sccl+0x46>
    9eec:	2d5d      	cmp	r5, #93	; 0x5d
    9eee:	d00f      	beq.n	9f10 <__sccl+0x5c>
    9ef0:	b10d      	cbz	r5, 9ef6 <__sccl+0x42>
    9ef2:	462b      	mov	r3, r5
    9ef4:	e7f4      	b.n	9ee0 <__sccl+0x2c>
    9ef6:	4608      	mov	r0, r1
    9ef8:	bd70      	pop	{r4, r5, r6, pc}
    9efa:	784e      	ldrb	r6, [r1, #1]
    9efc:	2e5d      	cmp	r6, #93	; 0x5d
    9efe:	d0f8      	beq.n	9ef2 <__sccl+0x3e>
    9f00:	42b3      	cmp	r3, r6
    9f02:	dcf6      	bgt.n	9ef2 <__sccl+0x3e>
    9f04:	3102      	adds	r1, #2
    9f06:	3301      	adds	r3, #1
    9f08:	429e      	cmp	r6, r3
    9f0a:	54c4      	strb	r4, [r0, r3]
    9f0c:	dcfb      	bgt.n	9f06 <__sccl+0x52>
    9f0e:	e7e9      	b.n	9ee4 <__sccl+0x30>
    9f10:	4610      	mov	r0, r2
    9f12:	bd70      	pop	{r4, r5, r6, pc}

00009f14 <setbuf>:
    9f14:	2900      	cmp	r1, #0
    9f16:	f44f 6380 	mov.w	r3, #1024	; 0x400
    9f1a:	bf0c      	ite	eq
    9f1c:	2202      	moveq	r2, #2
    9f1e:	2200      	movne	r2, #0
    9f20:	f000 b800 	b.w	9f24 <setvbuf>

00009f24 <setvbuf>:
    9f24:	e92d 41f0 	stmdb	sp!, {r4, r5, r6, r7, r8, lr}
    9f28:	461d      	mov	r5, r3
    9f2a:	4b3d      	ldr	r3, [pc, #244]	; (a020 <setvbuf+0xfc>)
    9f2c:	4604      	mov	r4, r0
    9f2e:	681e      	ldr	r6, [r3, #0]
    9f30:	460f      	mov	r7, r1
    9f32:	4690      	mov	r8, r2
    9f34:	b126      	cbz	r6, 9f40 <setvbuf+0x1c>
    9f36:	69b3      	ldr	r3, [r6, #24]
    9f38:	b913      	cbnz	r3, 9f40 <setvbuf+0x1c>
    9f3a:	4630      	mov	r0, r6
    9f3c:	f7fe ff56 	bl	8dec <__sinit>
    9f40:	4b38      	ldr	r3, [pc, #224]	; (a024 <setvbuf+0x100>)
    9f42:	429c      	cmp	r4, r3
    9f44:	d101      	bne.n	9f4a <setvbuf+0x26>
    9f46:	6874      	ldr	r4, [r6, #4]
    9f48:	e008      	b.n	9f5c <setvbuf+0x38>
    9f4a:	4b37      	ldr	r3, [pc, #220]	; (a028 <setvbuf+0x104>)
    9f4c:	429c      	cmp	r4, r3
    9f4e:	d101      	bne.n	9f54 <setvbuf+0x30>
    9f50:	68b4      	ldr	r4, [r6, #8]
    9f52:	e003      	b.n	9f5c <setvbuf+0x38>
    9f54:	4b35      	ldr	r3, [pc, #212]	; (a02c <setvbuf+0x108>)
    9f56:	429c      	cmp	r4, r3
    9f58:	bf08      	it	eq
    9f5a:	68f4      	ldreq	r4, [r6, #12]
    9f5c:	f1b8 0f02 	cmp.w	r8, #2
    9f60:	d859      	bhi.n	a016 <setvbuf+0xf2>
    9f62:	2d00      	cmp	r5, #0
    9f64:	db57      	blt.n	a016 <setvbuf+0xf2>
    9f66:	4621      	mov	r1, r4
    9f68:	4630      	mov	r0, r6
    9f6a:	f7fe fe8f 	bl	8c8c <_fflush_r>
    9f6e:	2300      	movs	r3, #0
    9f70:	6063      	str	r3, [r4, #4]
    9f72:	61a3      	str	r3, [r4, #24]
    9f74:	89a3      	ldrh	r3, [r4, #12]
    9f76:	061b      	lsls	r3, r3, #24
    9f78:	d503      	bpl.n	9f82 <setvbuf+0x5e>
    9f7a:	6921      	ldr	r1, [r4, #16]
    9f7c:	4630      	mov	r0, r6
    9f7e:	f7ff f99d 	bl	92bc <_free_r>
    9f82:	89a3      	ldrh	r3, [r4, #12]
    9f84:	f1b8 0f02 	cmp.w	r8, #2
    9f88:	f023 0383 	bic.w	r3, r3, #131	; 0x83
    9f8c:	81a3      	strh	r3, [r4, #12]
    9f8e:	d012      	beq.n	9fb6 <setvbuf+0x92>
    9f90:	bb37      	cbnz	r7, 9fe0 <setvbuf+0xbc>
    9f92:	2d00      	cmp	r5, #0
    9f94:	bf08      	it	eq
    9f96:	f44f 6580 	moveq.w	r5, #1024	; 0x400
    9f9a:	4628      	mov	r0, r5
    9f9c:	f7fc f808 	bl	5fb0 <__wrap_malloc>
    9fa0:	4607      	mov	r7, r0
    9fa2:	b9c8      	cbnz	r0, 9fd8 <setvbuf+0xb4>
    9fa4:	f44f 6080 	mov.w	r0, #1024	; 0x400
    9fa8:	f7fc f802 	bl	5fb0 <__wrap_malloc>
    9fac:	4607      	mov	r7, r0
    9fae:	b988      	cbnz	r0, 9fd4 <setvbuf+0xb0>
    9fb0:	f04f 30ff 	mov.w	r0, #4294967295
    9fb4:	e000      	b.n	9fb8 <setvbuf+0x94>
    9fb6:	2000      	movs	r0, #0
    9fb8:	89a3      	ldrh	r3, [r4, #12]
    9fba:	f043 0302 	orr.w	r3, r3, #2
    9fbe:	81a3      	strh	r3, [r4, #12]
    9fc0:	2300      	movs	r3, #0
    9fc2:	60a3      	str	r3, [r4, #8]
    9fc4:	f104 0347 	add.w	r3, r4, #71	; 0x47
    9fc8:	6023      	str	r3, [r4, #0]
    9fca:	6123      	str	r3, [r4, #16]
    9fcc:	2301      	movs	r3, #1
    9fce:	6163      	str	r3, [r4, #20]
    9fd0:	e8bd 81f0 	ldmia.w	sp!, {r4, r5, r6, r7, r8, pc}
    9fd4:	f44f 6580 	mov.w	r5, #1024	; 0x400
    9fd8:	89a3      	ldrh	r3, [r4, #12]
    9fda:	f043 0380 	orr.w	r3, r3, #128	; 0x80
    9fde:	81a3      	strh	r3, [r4, #12]
    9fe0:	f1b8 0f01 	cmp.w	r8, #1
    9fe4:	d105      	bne.n	9ff2 <setvbuf+0xce>
    9fe6:	89a3      	ldrh	r3, [r4, #12]
    9fe8:	f043 0301 	orr.w	r3, r3, #1
    9fec:	81a3      	strh	r3, [r4, #12]
    9fee:	426b      	negs	r3, r5
    9ff0:	61a3      	str	r3, [r4, #24]
    9ff2:	4b0f      	ldr	r3, [pc, #60]	; (a030 <setvbuf+0x10c>)
    9ff4:	62b3      	str	r3, [r6, #40]	; 0x28
    9ff6:	89a3      	ldrh	r3, [r4, #12]
    9ff8:	6027      	str	r7, [r4, #0]
    9ffa:	f003 0008 	and.w	r0, r3, #8
    9ffe:	b280      	uxth	r0, r0
    a000:	6127      	str	r7, [r4, #16]
    a002:	6165      	str	r5, [r4, #20]
    a004:	b148      	cbz	r0, a01a <setvbuf+0xf6>
    a006:	f013 0f03 	tst.w	r3, #3
    a00a:	bf18      	it	ne
    a00c:	2500      	movne	r5, #0
    a00e:	60a5      	str	r5, [r4, #8]
    a010:	2000      	movs	r0, #0
    a012:	e8bd 81f0 	ldmia.w	sp!, {r4, r5, r6, r7, r8, pc}
    a016:	f04f 30ff 	mov.w	r0, #4294967295
    a01a:	e8bd 81f0 	ldmia.w	sp!, {r4, r5, r6, r7, r8, pc}
    a01e:	bf00      	nop
    a020:	10000198 	.word	0x10000198
    a024:	0000b510 	.word	0x0000b510
    a028:	0000b530 	.word	0x0000b530
    a02c:	0000b550 	.word	0x0000b550
    a030:	00008d6d 	.word	0x00008d6d

0000a034 <siprintf>:
    a034:	b40e      	push	{r1, r2, r3}
    a036:	b500      	push	{lr}
    a038:	f44f 7102 	mov.w	r1, #520	; 0x208
    a03c:	b09c      	sub	sp, #112	; 0x70
    a03e:	f8ad 1014 	strh.w	r1, [sp, #20]
    a042:	f06f 4100 	mvn.w	r1, #2147483648	; 0x80000000
    a046:	9104      	str	r1, [sp, #16]
    a048:	9107      	str	r1, [sp, #28]
    a04a:	f64f 71ff 	movw	r1, #65535	; 0xffff
    a04e:	ab1d      	add	r3, sp, #116	; 0x74
    a050:	9002      	str	r0, [sp, #8]
    a052:	9006      	str	r0, [sp, #24]
    a054:	4808      	ldr	r0, [pc, #32]	; (a078 <siprintf+0x44>)
    a056:	f853 2b04 	ldr.w	r2, [r3], #4
    a05a:	f8ad 1016 	strh.w	r1, [sp, #22]
    a05e:	6800      	ldr	r0, [r0, #0]
    a060:	a902      	add	r1, sp, #8
    a062:	9301      	str	r3, [sp, #4]
    a064:	f000 fbac 	bl	a7c0 <_svfiprintf_r>
    a068:	9b02      	ldr	r3, [sp, #8]
    a06a:	2200      	movs	r2, #0
    a06c:	701a      	strb	r2, [r3, #0]
    a06e:	b01c      	add	sp, #112	; 0x70
    a070:	f85d eb04 	ldr.w	lr, [sp], #4
    a074:	b003      	add	sp, #12
    a076:	4770      	bx	lr
    a078:	10000198 	.word	0x10000198

0000a07c <siscanf>:
    a07c:	b40e      	push	{r1, r2, r3}
    a07e:	b530      	push	{r4, r5, lr}
    a080:	b09c      	sub	sp, #112	; 0x70
    a082:	ac1f      	add	r4, sp, #124	; 0x7c
    a084:	f44f 7201 	mov.w	r2, #516	; 0x204
    a088:	f854 5b04 	ldr.w	r5, [r4], #4
    a08c:	f8ad 2014 	strh.w	r2, [sp, #20]
    a090:	9002      	str	r0, [sp, #8]
    a092:	9006      	str	r0, [sp, #24]
    a094:	f000 f86b 	bl	a16e <strlen>
    a098:	4b0b      	ldr	r3, [pc, #44]	; (a0c8 <siscanf+0x4c>)
    a09a:	9003      	str	r0, [sp, #12]
    a09c:	930b      	str	r3, [sp, #44]	; 0x2c
    a09e:	2300      	movs	r3, #0
    a0a0:	930f      	str	r3, [sp, #60]	; 0x3c
    a0a2:	9314      	str	r3, [sp, #80]	; 0x50
    a0a4:	f64f 73ff 	movw	r3, #65535	; 0xffff
    a0a8:	9007      	str	r0, [sp, #28]
    a0aa:	4808      	ldr	r0, [pc, #32]	; (a0cc <siscanf+0x50>)
    a0ac:	f8ad 3016 	strh.w	r3, [sp, #22]
    a0b0:	462a      	mov	r2, r5
    a0b2:	4623      	mov	r3, r4
    a0b4:	a902      	add	r1, sp, #8
    a0b6:	6800      	ldr	r0, [r0, #0]
    a0b8:	9401      	str	r4, [sp, #4]
    a0ba:	f000 fcd1 	bl	aa60 <__ssvfiscanf_r>
    a0be:	b01c      	add	sp, #112	; 0x70
    a0c0:	e8bd 4030 	ldmia.w	sp!, {r4, r5, lr}
    a0c4:	b003      	add	sp, #12
    a0c6:	4770      	bx	lr
    a0c8:	0000a0f3 	.word	0x0000a0f3
    a0cc:	10000198 	.word	0x10000198

0000a0d0 <__sread>:
    a0d0:	b510      	push	{r4, lr}
    a0d2:	460c      	mov	r4, r1
    a0d4:	f9b1 100e 	ldrsh.w	r1, [r1, #14]
    a0d8:	f000 fe10 	bl	acfc <_read_r>
    a0dc:	2800      	cmp	r0, #0
    a0de:	bfab      	itete	ge
    a0e0:	6d63      	ldrge	r3, [r4, #84]	; 0x54
    a0e2:	89a3      	ldrhlt	r3, [r4, #12]
    a0e4:	181b      	addge	r3, r3, r0
    a0e6:	f423 5380 	biclt.w	r3, r3, #4096	; 0x1000
    a0ea:	bfac      	ite	ge
    a0ec:	6563      	strge	r3, [r4, #84]	; 0x54
    a0ee:	81a3      	strhlt	r3, [r4, #12]
    a0f0:	bd10      	pop	{r4, pc}

0000a0f2 <__seofread>:
    a0f2:	2000      	movs	r0, #0
    a0f4:	4770      	bx	lr

0000a0f6 <__swrite>:
    a0f6:	e92d 41f0 	stmdb	sp!, {r4, r5, r6, r7, r8, lr}
    a0fa:	461f      	mov	r7, r3
    a0fc:	898b      	ldrh	r3, [r1, #12]
    a0fe:	4605      	mov	r5, r0
    a100:	05db      	lsls	r3, r3, #23
    a102:	460c      	mov	r4, r1
    a104:	4616      	mov	r6, r2
    a106:	d505      	bpl.n	a114 <__swrite+0x1e>
    a108:	2302      	movs	r3, #2
    a10a:	2200      	movs	r2, #0
    a10c:	f9b1 100e 	ldrsh.w	r1, [r1, #14]
    a110:	f000 fac4 	bl	a69c <_lseek_r>
    a114:	89a3      	ldrh	r3, [r4, #12]
    a116:	4632      	mov	r2, r6
    a118:	f423 5380 	bic.w	r3, r3, #4096	; 0x1000
    a11c:	81a3      	strh	r3, [r4, #12]
    a11e:	f9b4 100e 	ldrsh.w	r1, [r4, #14]
    a122:	463b      	mov	r3, r7
    a124:	4628      	mov	r0, r5
    a126:	e8bd 41f0 	ldmia.w	sp!, {r4, r5, r6, r7, r8, lr}
    a12a:	f000 b9cf 	b.w	a4cc <_write_r>

0000a12e <__sseek>:
    a12e:	b510      	push	{r4, lr}
    a130:	460c      	mov	r4, r1
    a132:	f9b1 100e 	ldrsh.w	r1, [r1, #14]
    a136:	f000 fab1 	bl	a69c <_lseek_r>
    a13a:	1c43      	adds	r3, r0, #1
    a13c:	89a3      	ldrh	r3, [r4, #12]
    a13e:	bf15      	itete	ne
    a140:	6560      	strne	r0, [r4, #84]	; 0x54
    a142:	f423 5380 	biceq.w	r3, r3, #4096	; 0x1000
    a146:	f443 5380 	orrne.w	r3, r3, #4096	; 0x1000
    a14a:	81a3      	strheq	r3, [r4, #12]
    a14c:	bf18      	it	ne
    a14e:	81a3      	strhne	r3, [r4, #12]
    a150:	bd10      	pop	{r4, pc}

0000a152 <__sclose>:
    a152:	f9b1 100e 	ldrsh.w	r1, [r1, #14]
    a156:	f000 ba37 	b.w	a5c8 <_close_r>

0000a15a <strcmp>:
    a15a:	f810 2b01 	ldrb.w	r2, [r0], #1
    a15e:	f811 3b01 	ldrb.w	r3, [r1], #1
    a162:	2a01      	cmp	r2, #1
    a164:	bf28      	it	cs
    a166:	429a      	cmpcs	r2, r3
    a168:	d0f7      	beq.n	a15a <strcmp>
    a16a:	1ad0      	subs	r0, r2, r3
    a16c:	4770      	bx	lr

0000a16e <strlen>:
    a16e:	4603      	mov	r3, r0
    a170:	f813 2b01 	ldrb.w	r2, [r3], #1
    a174:	2a00      	cmp	r2, #0
    a176:	d1fb      	bne.n	a170 <strlen+0x2>
    a178:	1a18      	subs	r0, r3, r0
    a17a:	3801      	subs	r0, #1
    a17c:	4770      	bx	lr

0000a17e <strncmp>:
    a17e:	b530      	push	{r4, r5, lr}
    a180:	b182      	cbz	r2, a1a4 <strncmp+0x26>
    a182:	1e45      	subs	r5, r0, #1
    a184:	3901      	subs	r1, #1
    a186:	f815 3f01 	ldrb.w	r3, [r5, #1]!
    a18a:	f811 4f01 	ldrb.w	r4, [r1, #1]!
    a18e:	42a3      	cmp	r3, r4
    a190:	d106      	bne.n	a1a0 <strncmp+0x22>
    a192:	43ec      	mvns	r4, r5
    a194:	4414      	add	r4, r2
    a196:	42e0      	cmn	r0, r4
    a198:	d001      	beq.n	a19e <strncmp+0x20>
    a19a:	2b00      	cmp	r3, #0
    a19c:	d1f3      	bne.n	a186 <strncmp+0x8>
    a19e:	461c      	mov	r4, r3
    a1a0:	1b18      	subs	r0, r3, r4
    a1a2:	bd30      	pop	{r4, r5, pc}
    a1a4:	4610      	mov	r0, r2
    a1a6:	bd30      	pop	{r4, r5, pc}

0000a1a8 <_strtol_r>:
    a1a8:	e92d 47f0 	stmdb	sp!, {r4, r5, r6, r7, r8, r9, r10, lr}
    a1ac:	460f      	mov	r7, r1
    a1ae:	4680      	mov	r8, r0
    a1b0:	483f      	ldr	r0, [pc, #252]	; (a2b0 <_strtol_r+0x108>)
    a1b2:	f8d0 9000 	ldr.w	r9, [r0]
    a1b6:	463d      	mov	r5, r7
    a1b8:	f815 4b01 	ldrb.w	r4, [r5], #1
    a1bc:	eb09 0004 	add.w	r0, r9, r4
    a1c0:	7840      	ldrb	r0, [r0, #1]
    a1c2:	f000 0008 	and.w	r0, r0, #8
    a1c6:	f000 06ff 	and.w	r6, r0, #255	; 0xff
    a1ca:	b108      	cbz	r0, a1d0 <_strtol_r+0x28>
    a1cc:	462f      	mov	r7, r5
    a1ce:	e7f2      	b.n	a1b6 <_strtol_r+0xe>
    a1d0:	2c2d      	cmp	r4, #45	; 0x2d
    a1d2:	d103      	bne.n	a1dc <_strtol_r+0x34>
    a1d4:	1cbd      	adds	r5, r7, #2
    a1d6:	787c      	ldrb	r4, [r7, #1]
    a1d8:	2601      	movs	r6, #1
    a1da:	e003      	b.n	a1e4 <_strtol_r+0x3c>
    a1dc:	2c2b      	cmp	r4, #43	; 0x2b
    a1de:	bf04      	itt	eq
    a1e0:	787c      	ldrbeq	r4, [r7, #1]
    a1e2:	1cbd      	addeq	r5, r7, #2
    a1e4:	b113      	cbz	r3, a1ec <_strtol_r+0x44>
    a1e6:	2b10      	cmp	r3, #16
    a1e8:	d10a      	bne.n	a200 <_strtol_r+0x58>
    a1ea:	e05b      	b.n	a2a4 <_strtol_r+0xfc>
    a1ec:	2c30      	cmp	r4, #48	; 0x30
    a1ee:	d157      	bne.n	a2a0 <_strtol_r+0xf8>
    a1f0:	7828      	ldrb	r0, [r5, #0]
    a1f2:	f000 00df 	and.w	r0, r0, #223	; 0xdf
    a1f6:	2858      	cmp	r0, #88	; 0x58
    a1f8:	d14d      	bne.n	a296 <_strtol_r+0xee>
    a1fa:	786c      	ldrb	r4, [r5, #1]
    a1fc:	2310      	movs	r3, #16
    a1fe:	3502      	adds	r5, #2
    a200:	2e00      	cmp	r6, #0
    a202:	bf14      	ite	ne
    a204:	f04f 4c00 	movne.w	r12, #2147483648	; 0x80000000
    a208:	f06f 4c00 	mvneq.w	r12, #2147483648	; 0x80000000
    a20c:	fbbc faf3 	udiv	r10, r12, r3
    a210:	2700      	movs	r7, #0
    a212:	4638      	mov	r0, r7
    a214:	fb03 cc1a 	mls	r12, r3, r10, r12
    a218:	eb09 0e04 	add.w	lr, r9, r4
    a21c:	f89e e001 	ldrb.w	lr, [lr, #1]
    a220:	f01e 0f04 	tst.w	lr, #4
    a224:	d001      	beq.n	a22a <_strtol_r+0x82>
    a226:	3c30      	subs	r4, #48	; 0x30
    a228:	e00b      	b.n	a242 <_strtol_r+0x9a>
    a22a:	f01e 0e03 	ands.w	lr, lr, #3
    a22e:	d01b      	beq.n	a268 <_strtol_r+0xc0>
    a230:	f1be 0f01 	cmp.w	lr, #1
    a234:	bf0c      	ite	eq
    a236:	f04f 0e37 	moveq.w	lr, #55	; 0x37
    a23a:	f04f 0e57 	movne.w	lr, #87	; 0x57
    a23e:	ebce 0404 	rsb	r4, lr, r4
    a242:	42a3      	cmp	r3, r4
    a244:	dd10      	ble.n	a268 <_strtol_r+0xc0>
    a246:	f1b7 3fff 	cmp.w	r7, #4294967295
    a24a:	d00a      	beq.n	a262 <_strtol_r+0xba>
    a24c:	4550      	cmp	r0, r10
    a24e:	d806      	bhi.n	a25e <_strtol_r+0xb6>
    a250:	d101      	bne.n	a256 <_strtol_r+0xae>
    a252:	4564      	cmp	r4, r12
    a254:	dc03      	bgt.n	a25e <_strtol_r+0xb6>
    a256:	fb03 4000 	mla	r0, r3, r0, r4
    a25a:	2701      	movs	r7, #1
    a25c:	e001      	b.n	a262 <_strtol_r+0xba>
    a25e:	f04f 37ff 	mov.w	r7, #4294967295
    a262:	f815 4b01 	ldrb.w	r4, [r5], #1
    a266:	e7d7      	b.n	a218 <_strtol_r+0x70>
    a268:	1c7b      	adds	r3, r7, #1
    a26a:	d10c      	bne.n	a286 <_strtol_r+0xde>
    a26c:	2e00      	cmp	r6, #0
    a26e:	f04f 0322 	mov.w	r3, #34	; 0x22
    a272:	bf14      	ite	ne
    a274:	f04f 4000 	movne.w	r0, #2147483648	; 0x80000000
    a278:	f06f 4000 	mvneq.w	r0, #2147483648	; 0x80000000
    a27c:	f8c8 3000 	str.w	r3, [r8]
    a280:	b92a      	cbnz	r2, a28e <_strtol_r+0xe6>
    a282:	e8bd 87f0 	ldmia.w	sp!, {r4, r5, r6, r7, r8, r9, r10, pc}
    a286:	b106      	cbz	r6, a28a <_strtol_r+0xe2>
    a288:	4240      	negs	r0, r0
    a28a:	b172      	cbz	r2, a2aa <_strtol_r+0x102>
    a28c:	b107      	cbz	r7, a290 <_strtol_r+0xe8>
    a28e:	1e69      	subs	r1, r5, #1
    a290:	6011      	str	r1, [r2, #0]
    a292:	e8bd 87f0 	ldmia.w	sp!, {r4, r5, r6, r7, r8, r9, r10, pc}
    a296:	2430      	movs	r4, #48	; 0x30
    a298:	2b00      	cmp	r3, #0
    a29a:	d1b1      	bne.n	a200 <_strtol_r+0x58>
    a29c:	2308      	movs	r3, #8
    a29e:	e7af      	b.n	a200 <_strtol_r+0x58>
    a2a0:	230a      	movs	r3, #10
    a2a2:	e7ad      	b.n	a200 <_strtol_r+0x58>
    a2a4:	2c30      	cmp	r4, #48	; 0x30
    a2a6:	d0a3      	beq.n	a1f0 <_strtol_r+0x48>
    a2a8:	e7aa      	b.n	a200 <_strtol_r+0x58>
    a2aa:	e8bd 87f0 	ldmia.w	sp!, {r4, r5, r6, r7, r8, r9, r10, pc}
    a2ae:	bf00      	nop
    a2b0:	1000019c 	.word	0x1000019c

0000a2b4 <_strtoul_r>:
    a2b4:	e92d 47f0 	stmdb	sp!, {r4, r5, r6, r7, r8, r9, r10, lr}
    a2b8:	460e      	mov	r6, r1
    a2ba:	4680      	mov	r8, r0
    a2bc:	483b      	ldr	r0, [pc, #236]	; (a3ac <_strtoul_r+0xf8>)
    a2be:	f8d0 9000 	ldr.w	r9, [r0]
    a2c2:	4635      	mov	r5, r6
    a2c4:	f815 4b01 	ldrb.w	r4, [r5], #1
    a2c8:	eb09 0004 	add.w	r0, r9, r4
    a2cc:	7840      	ldrb	r0, [r0, #1]
    a2ce:	f000 0008 	and.w	r0, r0, #8
    a2d2:	f000 07ff 	and.w	r7, r0, #255	; 0xff
    a2d6:	b108      	cbz	r0, a2dc <_strtoul_r+0x28>
    a2d8:	462e      	mov	r6, r5
    a2da:	e7f2      	b.n	a2c2 <_strtoul_r+0xe>
    a2dc:	2c2d      	cmp	r4, #45	; 0x2d
    a2de:	d103      	bne.n	a2e8 <_strtoul_r+0x34>
    a2e0:	1cb5      	adds	r5, r6, #2
    a2e2:	7874      	ldrb	r4, [r6, #1]
    a2e4:	2701      	movs	r7, #1
    a2e6:	e003      	b.n	a2f0 <_strtoul_r+0x3c>
    a2e8:	2c2b      	cmp	r4, #43	; 0x2b
    a2ea:	bf04      	itt	eq
    a2ec:	7874      	ldrbeq	r4, [r6, #1]
    a2ee:	1cb5      	addeq	r5, r6, #2
    a2f0:	b113      	cbz	r3, a2f8 <_strtoul_r+0x44>
    a2f2:	2b10      	cmp	r3, #16
    a2f4:	d10a      	bne.n	a30c <_strtoul_r+0x58>
    a2f6:	e053      	b.n	a3a0 <_strtoul_r+0xec>
    a2f8:	2c30      	cmp	r4, #48	; 0x30
    a2fa:	d14f      	bne.n	a39c <_strtoul_r+0xe8>
    a2fc:	7828      	ldrb	r0, [r5, #0]
    a2fe:	f000 00df 	and.w	r0, r0, #223	; 0xdf
    a302:	2858      	cmp	r0, #88	; 0x58
    a304:	d145      	bne.n	a392 <_strtoul_r+0xde>
    a306:	786c      	ldrb	r4, [r5, #1]
    a308:	2310      	movs	r3, #16
    a30a:	3502      	adds	r5, #2
    a30c:	f04f 3cff 	mov.w	r12, #4294967295
    a310:	fbbc fcf3 	udiv	r12, r12, r3
    a314:	fb03 fa0c 	mul.w	r10, r3, r12
    a318:	2600      	movs	r6, #0
    a31a:	ea6f 0a0a 	mvn.w	r10, r10
    a31e:	4630      	mov	r0, r6
    a320:	eb09 0e04 	add.w	lr, r9, r4
    a324:	f89e e001 	ldrb.w	lr, [lr, #1]
    a328:	f01e 0f04 	tst.w	lr, #4
    a32c:	d001      	beq.n	a332 <_strtoul_r+0x7e>
    a32e:	3c30      	subs	r4, #48	; 0x30
    a330:	e00b      	b.n	a34a <_strtoul_r+0x96>
    a332:	f01e 0e03 	ands.w	lr, lr, #3
    a336:	d01a      	beq.n	a36e <_strtoul_r+0xba>
    a338:	f1be 0f01 	cmp.w	lr, #1
    a33c:	bf0c      	ite	eq
    a33e:	f04f 0e37 	moveq.w	lr, #55	; 0x37
    a342:	f04f 0e57 	movne.w	lr, #87	; 0x57
    a346:	ebce 0404 	rsb	r4, lr, r4
    a34a:	42a3      	cmp	r3, r4
    a34c:	dd0f      	ble.n	a36e <_strtoul_r+0xba>
    a34e:	2e00      	cmp	r6, #0
    a350:	db08      	blt.n	a364 <_strtoul_r+0xb0>
    a352:	4560      	cmp	r0, r12
    a354:	d806      	bhi.n	a364 <_strtoul_r+0xb0>
    a356:	d101      	bne.n	a35c <_strtoul_r+0xa8>
    a358:	4554      	cmp	r4, r10
    a35a:	dc03      	bgt.n	a364 <_strtoul_r+0xb0>
    a35c:	fb03 4000 	mla	r0, r3, r0, r4
    a360:	2601      	movs	r6, #1
    a362:	e001      	b.n	a368 <_strtoul_r+0xb4>
    a364:	f04f 36ff 	mov.w	r6, #4294967295
    a368:	f815 4b01 	ldrb.w	r4, [r5], #1
    a36c:	e7d8      	b.n	a320 <_strtoul_r+0x6c>
    a36e:	2e00      	cmp	r6, #0
    a370:	da07      	bge.n	a382 <_strtoul_r+0xce>
    a372:	2322      	movs	r3, #34	; 0x22
    a374:	f8c8 3000 	str.w	r3, [r8]
    a378:	f04f 30ff 	mov.w	r0, #4294967295
    a37c:	b92a      	cbnz	r2, a38a <_strtoul_r+0xd6>
    a37e:	e8bd 87f0 	ldmia.w	sp!, {r4, r5, r6, r7, r8, r9, r10, pc}
    a382:	b107      	cbz	r7, a386 <_strtoul_r+0xd2>
    a384:	4240      	negs	r0, r0
    a386:	b172      	cbz	r2, a3a6 <_strtoul_r+0xf2>
    a388:	b106      	cbz	r6, a38c <_strtoul_r+0xd8>
    a38a:	1e69      	subs	r1, r5, #1
    a38c:	6011      	str	r1, [r2, #0]
    a38e:	e8bd 87f0 	ldmia.w	sp!, {r4, r5, r6, r7, r8, r9, r10, pc}
    a392:	2430      	movs	r4, #48	; 0x30
    a394:	2b00      	cmp	r3, #0
    a396:	d1b9      	bne.n	a30c <_strtoul_r+0x58>
    a398:	2308      	movs	r3, #8
    a39a:	e7b7      	b.n	a30c <_strtoul_r+0x58>
    a39c:	230a      	movs	r3, #10
    a39e:	e7b5      	b.n	a30c <_strtoul_r+0x58>
    a3a0:	2c30      	cmp	r4, #48	; 0x30
    a3a2:	d0ab      	beq.n	a2fc <_strtoul_r+0x48>
    a3a4:	e7b2      	b.n	a30c <_strtoul_r+0x58>
    a3a6:	e8bd 87f0 	ldmia.w	sp!, {r4, r5, r6, r7, r8, r9, r10, pc}
    a3aa:	bf00      	nop
    a3ac:	1000019c 	.word	0x1000019c

0000a3b0 <__submore>:
    a3b0:	e92d 41f0 	stmdb	sp!, {r4, r5, r6, r7, r8, lr}
    a3b4:	460c      	mov	r4, r1
    a3b6:	6b49      	ldr	r1, [r1, #52]	; 0x34
    a3b8:	f104 0344 	add.w	r3, r4, #68	; 0x44
    a3bc:	4299      	cmp	r1, r3
    a3be:	d11a      	bne.n	a3f6 <__submore+0x46>
    a3c0:	f44f 6180 	mov.w	r1, #1024	; 0x400
    a3c4:	f7fe ffbe 	bl	9344 <_malloc_r>
    a3c8:	b918      	cbnz	r0, a3d2 <__submore+0x22>
    a3ca:	f04f 30ff 	mov.w	r0, #4294967295
    a3ce:	e8bd 81f0 	ldmia.w	sp!, {r4, r5, r6, r7, r8, pc}
    a3d2:	f44f 6380 	mov.w	r3, #1024	; 0x400
    a3d6:	63a3      	str	r3, [r4, #56]	; 0x38
    a3d8:	f894 3046 	ldrb.w	r3, [r4, #70]	; 0x46
    a3dc:	6360      	str	r0, [r4, #52]	; 0x34
    a3de:	f880 33ff 	strb.w	r3, [r0, #1023]	; 0x3ff
    a3e2:	f894 3045 	ldrb.w	r3, [r4, #69]	; 0x45
    a3e6:	f200 30fd 	addw	r0, r0, #1021	; 0x3fd
    a3ea:	7043      	strb	r3, [r0, #1]
    a3ec:	f894 3044 	ldrb.w	r3, [r4, #68]	; 0x44
    a3f0:	7003      	strb	r3, [r0, #0]
    a3f2:	6020      	str	r0, [r4, #0]
    a3f4:	e012      	b.n	a41c <__submore+0x6c>
    a3f6:	6ba6      	ldr	r6, [r4, #56]	; 0x38
    a3f8:	0077      	lsls	r7, r6, #1
    a3fa:	463a      	mov	r2, r7
    a3fc:	f000 f960 	bl	a6c0 <_realloc_r>
    a400:	4605      	mov	r5, r0
    a402:	2800      	cmp	r0, #0
    a404:	d0e1      	beq.n	a3ca <__submore+0x1a>
    a406:	eb00 0806 	add.w	r8, r0, r6
    a40a:	4601      	mov	r1, r0
    a40c:	4632      	mov	r2, r6
    a40e:	4640      	mov	r0, r8
    a410:	f7fe ff26 	bl	9260 <memcpy>
    a414:	f8c4 8000 	str.w	r8, [r4]
    a418:	6365      	str	r5, [r4, #52]	; 0x34
    a41a:	63a7      	str	r7, [r4, #56]	; 0x38
    a41c:	2000      	movs	r0, #0
    a41e:	e8bd 81f0 	ldmia.w	sp!, {r4, r5, r6, r7, r8, pc}
	...

0000a424 <__swbuf_r>:
    a424:	b5f8      	push	{r3, r4, r5, r6, r7, lr}
    a426:	460f      	mov	r7, r1
    a428:	4614      	mov	r4, r2
    a42a:	4606      	mov	r6, r0
    a42c:	b118      	cbz	r0, a436 <__swbuf_r+0x12>
    a42e:	6983      	ldr	r3, [r0, #24]
    a430:	b90b      	cbnz	r3, a436 <__swbuf_r+0x12>
    a432:	f7fe fcdb 	bl	8dec <__sinit>
    a436:	4b22      	ldr	r3, [pc, #136]	; (a4c0 <__swbuf_r+0x9c>)
    a438:	429c      	cmp	r4, r3
    a43a:	d101      	bne.n	a440 <__swbuf_r+0x1c>
    a43c:	6874      	ldr	r4, [r6, #4]
    a43e:	e008      	b.n	a452 <__swbuf_r+0x2e>
    a440:	4b20      	ldr	r3, [pc, #128]	; (a4c4 <__swbuf_r+0xa0>)
    a442:	429c      	cmp	r4, r3
    a444:	d101      	bne.n	a44a <__swbuf_r+0x26>
    a446:	68b4      	ldr	r4, [r6, #8]
    a448:	e003      	b.n	a452 <__swbuf_r+0x2e>
    a44a:	4b1f      	ldr	r3, [pc, #124]	; (a4c8 <__swbuf_r+0xa4>)
    a44c:	429c      	cmp	r4, r3
    a44e:	bf08      	it	eq
    a450:	68f4      	ldreq	r4, [r6, #12]
    a452:	69a3      	ldr	r3, [r4, #24]
    a454:	60a3      	str	r3, [r4, #8]
    a456:	89a3      	ldrh	r3, [r4, #12]
    a458:	071a      	lsls	r2, r3, #28
    a45a:	d509      	bpl.n	a470 <__swbuf_r+0x4c>
    a45c:	6923      	ldr	r3, [r4, #16]
    a45e:	b13b      	cbz	r3, a470 <__swbuf_r+0x4c>
    a460:	6823      	ldr	r3, [r4, #0]
    a462:	6920      	ldr	r0, [r4, #16]
    a464:	b2fd      	uxtb	r5, r7
    a466:	1a18      	subs	r0, r3, r0
    a468:	6963      	ldr	r3, [r4, #20]
    a46a:	4298      	cmp	r0, r3
    a46c:	db0f      	blt.n	a48e <__swbuf_r+0x6a>
    a46e:	e008      	b.n	a482 <__swbuf_r+0x5e>
    a470:	4621      	mov	r1, r4
    a472:	4630      	mov	r0, r6
    a474:	f000 f83c 	bl	a4f0 <__swsetup_r>
    a478:	2800      	cmp	r0, #0
    a47a:	d0f1      	beq.n	a460 <__swbuf_r+0x3c>
    a47c:	f04f 30ff 	mov.w	r0, #4294967295
    a480:	bdf8      	pop	{r3, r4, r5, r6, r7, pc}
    a482:	4621      	mov	r1, r4
    a484:	4630      	mov	r0, r6
    a486:	f7fe fc01 	bl	8c8c <_fflush_r>
    a48a:	2800      	cmp	r0, #0
    a48c:	d1f6      	bne.n	a47c <__swbuf_r+0x58>
    a48e:	68a3      	ldr	r3, [r4, #8]
    a490:	3b01      	subs	r3, #1
    a492:	60a3      	str	r3, [r4, #8]
    a494:	6823      	ldr	r3, [r4, #0]
    a496:	1c5a      	adds	r2, r3, #1
    a498:	6022      	str	r2, [r4, #0]
    a49a:	701f      	strb	r7, [r3, #0]
    a49c:	6962      	ldr	r2, [r4, #20]
    a49e:	1c43      	adds	r3, r0, #1
    a4a0:	4293      	cmp	r3, r2
    a4a2:	d004      	beq.n	a4ae <__swbuf_r+0x8a>
    a4a4:	89a3      	ldrh	r3, [r4, #12]
    a4a6:	07db      	lsls	r3, r3, #31
    a4a8:	d507      	bpl.n	a4ba <__swbuf_r+0x96>
    a4aa:	2d0a      	cmp	r5, #10
    a4ac:	d105      	bne.n	a4ba <__swbuf_r+0x96>
    a4ae:	4621      	mov	r1, r4
    a4b0:	4630      	mov	r0, r6
    a4b2:	f7fe fbeb 	bl	8c8c <_fflush_r>
    a4b6:	2800      	cmp	r0, #0
    a4b8:	d1e0      	bne.n	a47c <__swbuf_r+0x58>
    a4ba:	4628      	mov	r0, r5
    a4bc:	bdf8      	pop	{r3, r4, r5, r6, r7, pc}
    a4be:	bf00      	nop
    a4c0:	0000b510 	.word	0x0000b510
    a4c4:	0000b530 	.word	0x0000b530
    a4c8:	0000b550 	.word	0x0000b550

0000a4cc <_write_r>:
    a4cc:	b538      	push	{r3, r4, r5, lr}
    a4ce:	4c07      	ldr	r4, [pc, #28]	; (a4ec <_write_r+0x20>)
    a4d0:	4605      	mov	r5, r0
    a4d2:	4608      	mov	r0, r1
    a4d4:	4611      	mov	r1, r2
    a4d6:	2200      	movs	r2, #0
    a4d8:	6022      	str	r2, [r4, #0]
    a4da:	461a      	mov	r2, r3
    a4dc:	f7fd fa92 	bl	7a04 <_write>
    a4e0:	1c43      	adds	r3, r0, #1
    a4e2:	d102      	bne.n	a4ea <_write_r+0x1e>
    a4e4:	6823      	ldr	r3, [r4, #0]
    a4e6:	b103      	cbz	r3, a4ea <_write_r+0x1e>
    a4e8:	602b      	str	r3, [r5, #0]
    a4ea:	bd38      	pop	{r3, r4, r5, pc}
    a4ec:	10000bac 	.word	0x10000bac

0000a4f0 <__swsetup_r>:
    a4f0:	4b31      	ldr	r3, [pc, #196]	; (a5b8 <__swsetup_r+0xc8>)
    a4f2:	b570      	push	{r4, r5, r6, lr}
    a4f4:	681d      	ldr	r5, [r3, #0]
    a4f6:	4606      	mov	r6, r0
    a4f8:	460c      	mov	r4, r1
    a4fa:	b125      	cbz	r5, a506 <__swsetup_r+0x16>
    a4fc:	69ab      	ldr	r3, [r5, #24]
    a4fe:	b913      	cbnz	r3, a506 <__swsetup_r+0x16>
    a500:	4628      	mov	r0, r5
    a502:	f7fe fc73 	bl	8dec <__sinit>
    a506:	4b2d      	ldr	r3, [pc, #180]	; (a5bc <__swsetup_r+0xcc>)
    a508:	429c      	cmp	r4, r3
    a50a:	d101      	bne.n	a510 <__swsetup_r+0x20>
    a50c:	686c      	ldr	r4, [r5, #4]
    a50e:	e008      	b.n	a522 <__swsetup_r+0x32>
    a510:	4b2b      	ldr	r3, [pc, #172]	; (a5c0 <__swsetup_r+0xd0>)
    a512:	429c      	cmp	r4, r3
    a514:	d101      	bne.n	a51a <__swsetup_r+0x2a>
    a516:	68ac      	ldr	r4, [r5, #8]
    a518:	e003      	b.n	a522 <__swsetup_r+0x32>
    a51a:	4b2a      	ldr	r3, [pc, #168]	; (a5c4 <__swsetup_r+0xd4>)
    a51c:	429c      	cmp	r4, r3
    a51e:	bf08      	it	eq
    a520:	68ec      	ldreq	r4, [r5, #12]
    a522:	89a3      	ldrh	r3, [r4, #12]
    a524:	b29a      	uxth	r2, r3
    a526:	0711      	lsls	r1, r2, #28
    a528:	d41d      	bmi.n	a566 <__swsetup_r+0x76>
    a52a:	06d5      	lsls	r5, r2, #27
    a52c:	d402      	bmi.n	a534 <__swsetup_r+0x44>
    a52e:	2209      	movs	r2, #9
    a530:	6032      	str	r2, [r6, #0]
    a532:	e038      	b.n	a5a6 <__swsetup_r+0xb6>
    a534:	0750      	lsls	r0, r2, #29
    a536:	d512      	bpl.n	a55e <__swsetup_r+0x6e>
    a538:	6b61      	ldr	r1, [r4, #52]	; 0x34
    a53a:	b141      	cbz	r1, a54e <__swsetup_r+0x5e>
    a53c:	f104 0344 	add.w	r3, r4, #68	; 0x44
    a540:	4299      	cmp	r1, r3
    a542:	d002      	beq.n	a54a <__swsetup_r+0x5a>
    a544:	4630      	mov	r0, r6
    a546:	f7fe feb9 	bl	92bc <_free_r>
    a54a:	2300      	movs	r3, #0
    a54c:	6363      	str	r3, [r4, #52]	; 0x34
    a54e:	89a3      	ldrh	r3, [r4, #12]
    a550:	f023 0324 	bic.w	r3, r3, #36	; 0x24
    a554:	81a3      	strh	r3, [r4, #12]
    a556:	2300      	movs	r3, #0
    a558:	6063      	str	r3, [r4, #4]
    a55a:	6923      	ldr	r3, [r4, #16]
    a55c:	6023      	str	r3, [r4, #0]
    a55e:	89a3      	ldrh	r3, [r4, #12]
    a560:	f043 0308 	orr.w	r3, r3, #8
    a564:	81a3      	strh	r3, [r4, #12]
    a566:	6923      	ldr	r3, [r4, #16]
    a568:	b94b      	cbnz	r3, a57e <__swsetup_r+0x8e>
    a56a:	89a3      	ldrh	r3, [r4, #12]
    a56c:	f403 7320 	and.w	r3, r3, #640	; 0x280
    a570:	f5b3 7f00 	cmp.w	r3, #512	; 0x200
    a574:	d003      	beq.n	a57e <__swsetup_r+0x8e>
    a576:	4621      	mov	r1, r4
    a578:	4630      	mov	r0, r6
    a57a:	f7fe fe07 	bl	918c <__smakebuf_r>
    a57e:	89a3      	ldrh	r3, [r4, #12]
    a580:	f013 0201 	ands.w	r2, r3, #1
    a584:	d005      	beq.n	a592 <__swsetup_r+0xa2>
    a586:	2200      	movs	r2, #0
    a588:	60a2      	str	r2, [r4, #8]
    a58a:	6962      	ldr	r2, [r4, #20]
    a58c:	4252      	negs	r2, r2
    a58e:	61a2      	str	r2, [r4, #24]
    a590:	e003      	b.n	a59a <__swsetup_r+0xaa>
    a592:	0799      	lsls	r1, r3, #30
    a594:	bf58      	it	pl
    a596:	6962      	ldrpl	r2, [r4, #20]
    a598:	60a2      	str	r2, [r4, #8]
    a59a:	6922      	ldr	r2, [r4, #16]
    a59c:	b94a      	cbnz	r2, a5b2 <__swsetup_r+0xc2>
    a59e:	f003 0080 	and.w	r0, r3, #128	; 0x80
    a5a2:	b280      	uxth	r0, r0
    a5a4:	b130      	cbz	r0, a5b4 <__swsetup_r+0xc4>
    a5a6:	f043 0340 	orr.w	r3, r3, #64	; 0x40
    a5aa:	81a3      	strh	r3, [r4, #12]
    a5ac:	f04f 30ff 	mov.w	r0, #4294967295
    a5b0:	bd70      	pop	{r4, r5, r6, pc}
    a5b2:	2000      	movs	r0, #0
    a5b4:	bd70      	pop	{r4, r5, r6, pc}
    a5b6:	bf00      	nop
    a5b8:	10000198 	.word	0x10000198
    a5bc:	0000b510 	.word	0x0000b510
    a5c0:	0000b530 	.word	0x0000b530
    a5c4:	0000b550 	.word	0x0000b550

0000a5c8 <_close_r>:
    a5c8:	b538      	push	{r3, r4, r5, lr}
    a5ca:	4c06      	ldr	r4, [pc, #24]	; (a5e4 <_close_r+0x1c>)
    a5cc:	2300      	movs	r3, #0
    a5ce:	4605      	mov	r5, r0
    a5d0:	4608      	mov	r0, r1
    a5d2:	6023      	str	r3, [r4, #0]
    a5d4:	f7fd fa02 	bl	79dc <_close>
    a5d8:	1c43      	adds	r3, r0, #1
    a5da:	d102      	bne.n	a5e2 <_close_r+0x1a>
    a5dc:	6823      	ldr	r3, [r4, #0]
    a5de:	b103      	cbz	r3, a5e2 <_close_r+0x1a>
    a5e0:	602b      	str	r3, [r5, #0]
    a5e2:	bd38      	pop	{r3, r4, r5, pc}
    a5e4:	10000bac 	.word	0x10000bac

0000a5e8 <__sflags>:
    a5e8:	780b      	ldrb	r3, [r1, #0]
    a5ea:	b530      	push	{r4, r5, lr}
    a5ec:	2b72      	cmp	r3, #114	; 0x72
    a5ee:	d00e      	beq.n	a60e <__sflags+0x26>
    a5f0:	2b77      	cmp	r3, #119	; 0x77
    a5f2:	d007      	beq.n	a604 <__sflags+0x1c>
    a5f4:	2b61      	cmp	r3, #97	; 0x61
    a5f6:	d10e      	bne.n	a616 <__sflags+0x2e>
    a5f8:	f44f 7402 	mov.w	r4, #520	; 0x208
    a5fc:	2301      	movs	r3, #1
    a5fe:	f44f 7084 	mov.w	r0, #264	; 0x108
    a602:	e01a      	b.n	a63a <__sflags+0x52>
    a604:	f44f 64c0 	mov.w	r4, #1536	; 0x600
    a608:	2301      	movs	r3, #1
    a60a:	2008      	movs	r0, #8
    a60c:	e015      	b.n	a63a <__sflags+0x52>
    a60e:	2400      	movs	r4, #0
    a610:	4623      	mov	r3, r4
    a612:	2004      	movs	r0, #4
    a614:	e011      	b.n	a63a <__sflags+0x52>
    a616:	2316      	movs	r3, #22
    a618:	6003      	str	r3, [r0, #0]
    a61a:	2000      	movs	r0, #0
    a61c:	bd30      	pop	{r4, r5, pc}
    a61e:	2d62      	cmp	r5, #98	; 0x62
    a620:	d010      	beq.n	a644 <__sflags+0x5c>
    a622:	2d78      	cmp	r5, #120	; 0x78
    a624:	d011      	beq.n	a64a <__sflags+0x62>
    a626:	2d2b      	cmp	r5, #43	; 0x2b
    a628:	d107      	bne.n	a63a <__sflags+0x52>
    a62a:	f020 001c 	bic.w	r0, r0, #28
    a62e:	f023 0303 	bic.w	r3, r3, #3
    a632:	f040 0010 	orr.w	r0, r0, #16
    a636:	f043 0302 	orr.w	r3, r3, #2
    a63a:	f811 5f01 	ldrb.w	r5, [r1, #1]!
    a63e:	2d00      	cmp	r5, #0
    a640:	d1ed      	bne.n	a61e <__sflags+0x36>
    a642:	e005      	b.n	a650 <__sflags+0x68>
    a644:	f443 3380 	orr.w	r3, r3, #65536	; 0x10000
    a648:	e7f7      	b.n	a63a <__sflags+0x52>
    a64a:	f443 6300 	orr.w	r3, r3, #2048	; 0x800
    a64e:	e7f4      	b.n	a63a <__sflags+0x52>
    a650:	4323      	orrs	r3, r4
    a652:	6013      	str	r3, [r2, #0]
    a654:	bd30      	pop	{r4, r5, pc}
	...

0000a658 <_fstat_r>:
    a658:	b538      	push	{r3, r4, r5, lr}
    a65a:	4c07      	ldr	r4, [pc, #28]	; (a678 <_fstat_r+0x20>)
    a65c:	2300      	movs	r3, #0
    a65e:	4605      	mov	r5, r0
    a660:	4608      	mov	r0, r1
    a662:	4611      	mov	r1, r2
    a664:	6023      	str	r3, [r4, #0]
    a666:	f7fd fa39 	bl	7adc <_fstat>
    a66a:	1c43      	adds	r3, r0, #1
    a66c:	d102      	bne.n	a674 <_fstat_r+0x1c>
    a66e:	6823      	ldr	r3, [r4, #0]
    a670:	b103      	cbz	r3, a674 <_fstat_r+0x1c>
    a672:	602b      	str	r3, [r5, #0]
    a674:	bd38      	pop	{r3, r4, r5, pc}
    a676:	bf00      	nop
    a678:	10000bac 	.word	0x10000bac

0000a67c <_isatty_r>:
    a67c:	b538      	push	{r3, r4, r5, lr}
    a67e:	4c06      	ldr	r4, [pc, #24]	; (a698 <_isatty_r+0x1c>)
    a680:	2300      	movs	r3, #0
    a682:	4605      	mov	r5, r0
    a684:	4608      	mov	r0, r1
    a686:	6023      	str	r3, [r4, #0]
    a688:	f7fb fc8c 	bl	5fa4 <__wrap__isatty>
    a68c:	1c43      	adds	r3, r0, #1
    a68e:	d102      	bne.n	a696 <_isatty_r+0x1a>
    a690:	6823      	ldr	r3, [r4, #0]
    a692:	b103      	cbz	r3, a696 <_isatty_r+0x1a>
    a694:	602b      	str	r3, [r5, #0]
    a696:	bd38      	pop	{r3, r4, r5, pc}
    a698:	10000bac 	.word	0x10000bac

0000a69c <_lseek_r>:
    a69c:	b538      	push	{r3, r4, r5, lr}
    a69e:	4c07      	ldr	r4, [pc, #28]	; (a6bc <_lseek_r+0x20>)
    a6a0:	4605      	mov	r5, r0
    a6a2:	4608      	mov	r0, r1
    a6a4:	4611      	mov	r1, r2
    a6a6:	2200      	movs	r2, #0
    a6a8:	6022      	str	r2, [r4, #0]
    a6aa:	461a      	mov	r2, r3
    a6ac:	f7fd fa04 	bl	7ab8 <_lseek>
    a6b0:	1c43      	adds	r3, r0, #1
    a6b2:	d102      	bne.n	a6ba <_lseek_r+0x1e>
    a6b4:	6823      	ldr	r3, [r4, #0]
    a6b6:	b103      	cbz	r3, a6ba <_lseek_r+0x1e>
    a6b8:	602b      	str	r3, [r5, #0]
    a6ba:	bd38      	pop	{r3, r4, r5, pc}
    a6bc:	10000bac 	.word	0x10000bac

0000a6c0 <_realloc_r>:
    a6c0:	b5f8      	push	{r3, r4, r5, r6, r7, lr}
    a6c2:	4607      	mov	r7, r0
    a6c4:	4615      	mov	r5, r2
    a6c6:	460e      	mov	r6, r1
    a6c8:	b921      	cbnz	r1, a6d4 <_realloc_r+0x14>
    a6ca:	4611      	mov	r1, r2
    a6cc:	e8bd 40f8 	ldmia.w	sp!, {r3, r4, r5, r6, r7, lr}
    a6d0:	f7fe be38 	b.w	9344 <_malloc_r>
    a6d4:	b91a      	cbnz	r2, a6de <_realloc_r+0x1e>
    a6d6:	f7fe fdf1 	bl	92bc <_free_r>
    a6da:	4628      	mov	r0, r5
    a6dc:	bdf8      	pop	{r3, r4, r5, r6, r7, pc}
    a6de:	f000 fb1f 	bl	ad20 <_malloc_usable_size_r>
    a6e2:	4285      	cmp	r5, r0
    a6e4:	d90e      	bls.n	a704 <_realloc_r+0x44>
    a6e6:	4629      	mov	r1, r5
    a6e8:	4638      	mov	r0, r7
    a6ea:	f7fe fe2b 	bl	9344 <_malloc_r>
    a6ee:	4604      	mov	r4, r0
    a6f0:	b150      	cbz	r0, a708 <_realloc_r+0x48>
    a6f2:	4631      	mov	r1, r6
    a6f4:	462a      	mov	r2, r5
    a6f6:	f7fe fdb3 	bl	9260 <memcpy>
    a6fa:	4631      	mov	r1, r6
    a6fc:	4638      	mov	r0, r7
    a6fe:	f7fe fddd 	bl	92bc <_free_r>
    a702:	e001      	b.n	a708 <_realloc_r+0x48>
    a704:	4630      	mov	r0, r6
    a706:	bdf8      	pop	{r3, r4, r5, r6, r7, pc}
    a708:	4620      	mov	r0, r4
    a70a:	bdf8      	pop	{r3, r4, r5, r6, r7, pc}

0000a70c <__ssputs_r>:
    a70c:	e92d 47f0 	stmdb	sp!, {r4, r5, r6, r7, r8, r9, r10, lr}
    a710:	688e      	ldr	r6, [r1, #8]
    a712:	4682      	mov	r10, r0
    a714:	429e      	cmp	r6, r3
    a716:	460c      	mov	r4, r1
    a718:	4691      	mov	r9, r2
    a71a:	4698      	mov	r8, r3
    a71c:	d83e      	bhi.n	a79c <__ssputs_r+0x90>
    a71e:	898a      	ldrh	r2, [r1, #12]
    a720:	f412 6f90 	tst.w	r2, #1152	; 0x480
    a724:	d03a      	beq.n	a79c <__ssputs_r+0x90>
    a726:	6825      	ldr	r5, [r4, #0]
    a728:	6909      	ldr	r1, [r1, #16]
    a72a:	2302      	movs	r3, #2
    a72c:	1a6f      	subs	r7, r5, r1
    a72e:	6965      	ldr	r5, [r4, #20]
    a730:	eb05 0545 	add.w	r5, r5, r5, lsl #1
    a734:	fb95 f5f3 	sdiv	r5, r5, r3
    a738:	1c7b      	adds	r3, r7, #1
    a73a:	4443      	add	r3, r8
    a73c:	429d      	cmp	r5, r3
    a73e:	bf38      	it	cc
    a740:	461d      	movcc	r5, r3
    a742:	0553      	lsls	r3, r2, #21
    a744:	d50f      	bpl.n	a766 <__ssputs_r+0x5a>
    a746:	4629      	mov	r1, r5
    a748:	f7fe fdfc 	bl	9344 <_malloc_r>
    a74c:	4606      	mov	r6, r0
    a74e:	b198      	cbz	r0, a778 <__ssputs_r+0x6c>
    a750:	463a      	mov	r2, r7
    a752:	6921      	ldr	r1, [r4, #16]
    a754:	f7fe fd84 	bl	9260 <memcpy>
    a758:	89a3      	ldrh	r3, [r4, #12]
    a75a:	f423 6390 	bic.w	r3, r3, #1152	; 0x480
    a75e:	f043 0380 	orr.w	r3, r3, #128	; 0x80
    a762:	81a3      	strh	r3, [r4, #12]
    a764:	e013      	b.n	a78e <__ssputs_r+0x82>
    a766:	462a      	mov	r2, r5
    a768:	f7ff ffaa 	bl	a6c0 <_realloc_r>
    a76c:	4606      	mov	r6, r0
    a76e:	b970      	cbnz	r0, a78e <__ssputs_r+0x82>
    a770:	6921      	ldr	r1, [r4, #16]
    a772:	4650      	mov	r0, r10
    a774:	f7fe fda2 	bl	92bc <_free_r>
    a778:	230c      	movs	r3, #12
    a77a:	f8ca 3000 	str.w	r3, [r10]
    a77e:	89a3      	ldrh	r3, [r4, #12]
    a780:	f04f 30ff 	mov.w	r0, #4294967295
    a784:	f043 0340 	orr.w	r3, r3, #64	; 0x40
    a788:	81a3      	strh	r3, [r4, #12]
    a78a:	e8bd 87f0 	ldmia.w	sp!, {r4, r5, r6, r7, r8, r9, r10, pc}
    a78e:	6126      	str	r6, [r4, #16]
    a790:	443e      	add	r6, r7
    a792:	6026      	str	r6, [r4, #0]
    a794:	4646      	mov	r6, r8
    a796:	6165      	str	r5, [r4, #20]
    a798:	1bed      	subs	r5, r5, r7
    a79a:	60a5      	str	r5, [r4, #8]
    a79c:	4546      	cmp	r6, r8
    a79e:	bf28      	it	cs
    a7a0:	4646      	movcs	r6, r8
    a7a2:	4649      	mov	r1, r9
    a7a4:	4632      	mov	r2, r6
    a7a6:	6820      	ldr	r0, [r4, #0]
    a7a8:	f7fe fd65 	bl	9276 <memmove>
    a7ac:	68a3      	ldr	r3, [r4, #8]
    a7ae:	2000      	movs	r0, #0
    a7b0:	1b9b      	subs	r3, r3, r6
    a7b2:	60a3      	str	r3, [r4, #8]
    a7b4:	6823      	ldr	r3, [r4, #0]
    a7b6:	441e      	add	r6, r3
    a7b8:	6026      	str	r6, [r4, #0]
    a7ba:	e8bd 87f0 	ldmia.w	sp!, {r4, r5, r6, r7, r8, r9, r10, pc}
	...

0000a7c0 <_svfiprintf_r>:
    a7c0:	e92d 4ff0 	stmdb	sp!, {r4, r5, r6, r7, r8, r9, r10, r11, lr}
    a7c4:	b09d      	sub	sp, #116	; 0x74
    a7c6:	9303      	str	r3, [sp, #12]
    a7c8:	898b      	ldrh	r3, [r1, #12]
    a7ca:	4680      	mov	r8, r0
    a7cc:	061c      	lsls	r4, r3, #24
    a7ce:	460d      	mov	r5, r1
    a7d0:	4616      	mov	r6, r2
    a7d2:	d50d      	bpl.n	a7f0 <_svfiprintf_r+0x30>
    a7d4:	690b      	ldr	r3, [r1, #16]
    a7d6:	b95b      	cbnz	r3, a7f0 <_svfiprintf_r+0x30>
    a7d8:	2140      	movs	r1, #64	; 0x40
    a7da:	f7fe fdb3 	bl	9344 <_malloc_r>
    a7de:	6028      	str	r0, [r5, #0]
    a7e0:	6128      	str	r0, [r5, #16]
    a7e2:	b918      	cbnz	r0, a7ec <_svfiprintf_r+0x2c>
    a7e4:	230c      	movs	r3, #12
    a7e6:	f8c8 3000 	str.w	r3, [r8]
    a7ea:	e0cd      	b.n	a988 <_svfiprintf_r+0x1c8>
    a7ec:	2340      	movs	r3, #64	; 0x40
    a7ee:	616b      	str	r3, [r5, #20]
    a7f0:	2300      	movs	r3, #0
    a7f2:	9309      	str	r3, [sp, #36]	; 0x24
    a7f4:	2320      	movs	r3, #32
    a7f6:	f88d 3029 	strb.w	r3, [sp, #41]	; 0x29
    a7fa:	f8df b19c 	ldr.w	r11, [pc, #412]	; a998 <_svfiprintf_r+0x1d8>
    a7fe:	2330      	movs	r3, #48	; 0x30
    a800:	f88d 302a 	strb.w	r3, [sp, #42]	; 0x2a
    a804:	4637      	mov	r7, r6
    a806:	463c      	mov	r4, r7
    a808:	f814 3b01 	ldrb.w	r3, [r4], #1
    a80c:	b91b      	cbnz	r3, a816 <_svfiprintf_r+0x56>
    a80e:	ebb7 0906 	subs.w	r9, r7, r6
    a812:	d010      	beq.n	a836 <_svfiprintf_r+0x76>
    a814:	e003      	b.n	a81e <_svfiprintf_r+0x5e>
    a816:	2b25      	cmp	r3, #37	; 0x25
    a818:	d0f9      	beq.n	a80e <_svfiprintf_r+0x4e>
    a81a:	4627      	mov	r7, r4
    a81c:	e7f3      	b.n	a806 <_svfiprintf_r+0x46>
    a81e:	464b      	mov	r3, r9
    a820:	4632      	mov	r2, r6
    a822:	4629      	mov	r1, r5
    a824:	4640      	mov	r0, r8
    a826:	f7ff ff71 	bl	a70c <__ssputs_r>
    a82a:	3001      	adds	r0, #1
    a82c:	f000 80a7 	beq.w	a97e <_svfiprintf_r+0x1be>
    a830:	9b09      	ldr	r3, [sp, #36]	; 0x24
    a832:	444b      	add	r3, r9
    a834:	9309      	str	r3, [sp, #36]	; 0x24
    a836:	783b      	ldrb	r3, [r7, #0]
    a838:	2b00      	cmp	r3, #0
    a83a:	f000 80a0 	beq.w	a97e <_svfiprintf_r+0x1be>
    a83e:	2300      	movs	r3, #0
    a840:	f04f 32ff 	mov.w	r2, #4294967295
    a844:	9304      	str	r3, [sp, #16]
    a846:	9307      	str	r3, [sp, #28]
    a848:	9205      	str	r2, [sp, #20]
    a84a:	9306      	str	r3, [sp, #24]
    a84c:	f88d 3053 	strb.w	r3, [sp, #83]	; 0x53
    a850:	931a      	str	r3, [sp, #104]	; 0x68
    a852:	2601      	movs	r6, #1
    a854:	2205      	movs	r2, #5
    a856:	7821      	ldrb	r1, [r4, #0]
    a858:	484e      	ldr	r0, [pc, #312]	; (a994 <_svfiprintf_r+0x1d4>)
    a85a:	f7fe fcf3 	bl	9244 <memchr>
    a85e:	1c67      	adds	r7, r4, #1
    a860:	9b04      	ldr	r3, [sp, #16]
    a862:	b138      	cbz	r0, a874 <_svfiprintf_r+0xb4>
    a864:	4a4b      	ldr	r2, [pc, #300]	; (a994 <_svfiprintf_r+0x1d4>)
    a866:	463c      	mov	r4, r7
    a868:	1a80      	subs	r0, r0, r2
    a86a:	fa06 f000 	lsl.w	r0, r6, r0
    a86e:	4318      	orrs	r0, r3
    a870:	9004      	str	r0, [sp, #16]
    a872:	e7ef      	b.n	a854 <_svfiprintf_r+0x94>
    a874:	06d9      	lsls	r1, r3, #27
    a876:	bf44      	itt	mi
    a878:	2220      	movmi	r2, #32
    a87a:	f88d 2053 	strbmi.w	r2, [sp, #83]	; 0x53
    a87e:	071a      	lsls	r2, r3, #28
    a880:	bf44      	itt	mi
    a882:	222b      	movmi	r2, #43	; 0x2b
    a884:	f88d 2053 	strbmi.w	r2, [sp, #83]	; 0x53
    a888:	7822      	ldrb	r2, [r4, #0]
    a88a:	2a2a      	cmp	r2, #42	; 0x2a
    a88c:	d003      	beq.n	a896 <_svfiprintf_r+0xd6>
    a88e:	9a07      	ldr	r2, [sp, #28]
    a890:	2100      	movs	r1, #0
    a892:	200a      	movs	r0, #10
    a894:	e00b      	b.n	a8ae <_svfiprintf_r+0xee>
    a896:	9a03      	ldr	r2, [sp, #12]
    a898:	1d11      	adds	r1, r2, #4
    a89a:	6812      	ldr	r2, [r2, #0]
    a89c:	9103      	str	r1, [sp, #12]
    a89e:	2a00      	cmp	r2, #0
    a8a0:	da10      	bge.n	a8c4 <_svfiprintf_r+0x104>
    a8a2:	4252      	negs	r2, r2
    a8a4:	f043 0002 	orr.w	r0, r3, #2
    a8a8:	9207      	str	r2, [sp, #28]
    a8aa:	9004      	str	r0, [sp, #16]
    a8ac:	e00b      	b.n	a8c6 <_svfiprintf_r+0x106>
    a8ae:	4627      	mov	r7, r4
    a8b0:	783b      	ldrb	r3, [r7, #0]
    a8b2:	3401      	adds	r4, #1
    a8b4:	3b30      	subs	r3, #48	; 0x30
    a8b6:	2b09      	cmp	r3, #9
    a8b8:	d803      	bhi.n	a8c2 <_svfiprintf_r+0x102>
    a8ba:	fb00 3202 	mla	r2, r0, r2, r3
    a8be:	2101      	movs	r1, #1
    a8c0:	e7f5      	b.n	a8ae <_svfiprintf_r+0xee>
    a8c2:	b101      	cbz	r1, a8c6 <_svfiprintf_r+0x106>
    a8c4:	9207      	str	r2, [sp, #28]
    a8c6:	783b      	ldrb	r3, [r7, #0]
    a8c8:	2b2e      	cmp	r3, #46	; 0x2e
    a8ca:	d11e      	bne.n	a90a <_svfiprintf_r+0x14a>
    a8cc:	787b      	ldrb	r3, [r7, #1]
    a8ce:	2b2a      	cmp	r3, #42	; 0x2a
    a8d0:	d10a      	bne.n	a8e8 <_svfiprintf_r+0x128>
    a8d2:	9b03      	ldr	r3, [sp, #12]
    a8d4:	3702      	adds	r7, #2
    a8d6:	1d1a      	adds	r2, r3, #4
    a8d8:	681b      	ldr	r3, [r3, #0]
    a8da:	9203      	str	r2, [sp, #12]
    a8dc:	2b00      	cmp	r3, #0
    a8de:	bfb8      	it	lt
    a8e0:	f04f 33ff 	movlt.w	r3, #4294967295
    a8e4:	9305      	str	r3, [sp, #20]
    a8e6:	e010      	b.n	a90a <_svfiprintf_r+0x14a>
    a8e8:	2300      	movs	r3, #0
    a8ea:	4619      	mov	r1, r3
    a8ec:	9305      	str	r3, [sp, #20]
    a8ee:	1c78      	adds	r0, r7, #1
    a8f0:	240a      	movs	r4, #10
    a8f2:	4607      	mov	r7, r0
    a8f4:	783a      	ldrb	r2, [r7, #0]
    a8f6:	3001      	adds	r0, #1
    a8f8:	3a30      	subs	r2, #48	; 0x30
    a8fa:	2a09      	cmp	r2, #9
    a8fc:	d803      	bhi.n	a906 <_svfiprintf_r+0x146>
    a8fe:	fb04 2101 	mla	r1, r4, r1, r2
    a902:	2301      	movs	r3, #1
    a904:	e7f5      	b.n	a8f2 <_svfiprintf_r+0x132>
    a906:	b103      	cbz	r3, a90a <_svfiprintf_r+0x14a>
    a908:	9105      	str	r1, [sp, #20]
    a90a:	2203      	movs	r2, #3
    a90c:	7839      	ldrb	r1, [r7, #0]
    a90e:	4822      	ldr	r0, [pc, #136]	; (a998 <_svfiprintf_r+0x1d8>)
    a910:	f7fe fc98 	bl	9244 <memchr>
    a914:	b140      	cbz	r0, a928 <_svfiprintf_r+0x168>
    a916:	2340      	movs	r3, #64	; 0x40
    a918:	ebcb 0000 	rsb	r0, r11, r0
    a91c:	fa03 f000 	lsl.w	r0, r3, r0
    a920:	9b04      	ldr	r3, [sp, #16]
    a922:	3701      	adds	r7, #1
    a924:	4318      	orrs	r0, r3
    a926:	9004      	str	r0, [sp, #16]
    a928:	7839      	ldrb	r1, [r7, #0]
    a92a:	2206      	movs	r2, #6
    a92c:	481b      	ldr	r0, [pc, #108]	; (a99c <_svfiprintf_r+0x1dc>)
    a92e:	1c7e      	adds	r6, r7, #1
    a930:	f88d 1028 	strb.w	r1, [sp, #40]	; 0x28
    a934:	f7fe fc86 	bl	9244 <memchr>
    a938:	b188      	cbz	r0, a95e <_svfiprintf_r+0x19e>
    a93a:	4b19      	ldr	r3, [pc, #100]	; (a9a0 <_svfiprintf_r+0x1e0>)
    a93c:	b933      	cbnz	r3, a94c <_svfiprintf_r+0x18c>
    a93e:	9b03      	ldr	r3, [sp, #12]
    a940:	3307      	adds	r3, #7
    a942:	f023 0307 	bic.w	r3, r3, #7
    a946:	3308      	adds	r3, #8
    a948:	9303      	str	r3, [sp, #12]
    a94a:	e014      	b.n	a976 <_svfiprintf_r+0x1b6>
    a94c:	ab03      	add	r3, sp, #12
    a94e:	9300      	str	r3, [sp, #0]
    a950:	462a      	mov	r2, r5
    a952:	4b14      	ldr	r3, [pc, #80]	; (a9a4 <_svfiprintf_r+0x1e4>)
    a954:	a904      	add	r1, sp, #16
    a956:	4640      	mov	r0, r8
    a958:	f3af 8000 	nop.w
    a95c:	e007      	b.n	a96e <_svfiprintf_r+0x1ae>
    a95e:	ab03      	add	r3, sp, #12
    a960:	9300      	str	r3, [sp, #0]
    a962:	462a      	mov	r2, r5
    a964:	4b0f      	ldr	r3, [pc, #60]	; (a9a4 <_svfiprintf_r+0x1e4>)
    a966:	a904      	add	r1, sp, #16
    a968:	4640      	mov	r0, r8
    a96a:	f7fe ff03 	bl	9774 <_printf_i>
    a96e:	f1b0 3fff 	cmp.w	r0, #4294967295
    a972:	4682      	mov	r10, r0
    a974:	d003      	beq.n	a97e <_svfiprintf_r+0x1be>
    a976:	9b09      	ldr	r3, [sp, #36]	; 0x24
    a978:	4453      	add	r3, r10
    a97a:	9309      	str	r3, [sp, #36]	; 0x24
    a97c:	e742      	b.n	a804 <_svfiprintf_r+0x44>
    a97e:	89ab      	ldrh	r3, [r5, #12]
    a980:	065b      	lsls	r3, r3, #25
    a982:	d401      	bmi.n	a988 <_svfiprintf_r+0x1c8>
    a984:	9809      	ldr	r0, [sp, #36]	; 0x24
    a986:	e001      	b.n	a98c <_svfiprintf_r+0x1cc>
    a988:	f04f 30ff 	mov.w	r0, #4294967295
    a98c:	b01d      	add	sp, #116	; 0x74
    a98e:	e8bd 8ff0 	ldmia.w	sp!, {r4, r5, r6, r7, r8, r9, r10, r11, pc}
    a992:	bf00      	nop
    a994:	0000b578 	.word	0x0000b578
    a998:	0000b57e 	.word	0x0000b57e
    a99c:	0000b582 	.word	0x0000b582
    a9a0:	00000000 	.word	0x00000000
    a9a4:	0000a70d 	.word	0x0000a70d

0000a9a8 <_sungetc_r>:
    a9a8:	1c4b      	adds	r3, r1, #1
    a9aa:	b570      	push	{r4, r5, r6, lr}
    a9ac:	460e      	mov	r6, r1
    a9ae:	4614      	mov	r4, r2
    a9b0:	d102      	bne.n	a9b8 <_sungetc_r+0x10>
    a9b2:	f04f 30ff 	mov.w	r0, #4294967295
    a9b6:	bd70      	pop	{r4, r5, r6, pc}
    a9b8:	8993      	ldrh	r3, [r2, #12]
    a9ba:	b2cd      	uxtb	r5, r1
    a9bc:	f023 0320 	bic.w	r3, r3, #32
    a9c0:	8193      	strh	r3, [r2, #12]
    a9c2:	6b53      	ldr	r3, [r2, #52]	; 0x34
    a9c4:	6852      	ldr	r2, [r2, #4]
    a9c6:	b183      	cbz	r3, a9ea <_sungetc_r+0x42>
    a9c8:	6ba3      	ldr	r3, [r4, #56]	; 0x38
    a9ca:	429a      	cmp	r2, r3
    a9cc:	da07      	bge.n	a9de <_sungetc_r+0x36>
    a9ce:	6823      	ldr	r3, [r4, #0]
    a9d0:	1e5a      	subs	r2, r3, #1
    a9d2:	6022      	str	r2, [r4, #0]
    a9d4:	f803 6c01 	strb.w	r6, [r3, #-1]
    a9d8:	6863      	ldr	r3, [r4, #4]
    a9da:	3301      	adds	r3, #1
    a9dc:	e01f      	b.n	aa1e <_sungetc_r+0x76>
    a9de:	4621      	mov	r1, r4
    a9e0:	f7ff fce6 	bl	a3b0 <__submore>
    a9e4:	2800      	cmp	r0, #0
    a9e6:	d0f2      	beq.n	a9ce <_sungetc_r+0x26>
    a9e8:	e7e3      	b.n	a9b2 <_sungetc_r+0xa>
    a9ea:	6921      	ldr	r1, [r4, #16]
    a9ec:	6823      	ldr	r3, [r4, #0]
    a9ee:	b151      	cbz	r1, aa06 <_sungetc_r+0x5e>
    a9f0:	4299      	cmp	r1, r3
    a9f2:	d208      	bcs.n	aa06 <_sungetc_r+0x5e>
    a9f4:	f813 1c01 	ldrb.w	r1, [r3, #-1]
    a9f8:	428d      	cmp	r5, r1
    a9fa:	d104      	bne.n	aa06 <_sungetc_r+0x5e>
    a9fc:	3b01      	subs	r3, #1
    a9fe:	3201      	adds	r2, #1
    aa00:	6023      	str	r3, [r4, #0]
    aa02:	6062      	str	r2, [r4, #4]
    aa04:	e00c      	b.n	aa20 <_sungetc_r+0x78>
    aa06:	63e3      	str	r3, [r4, #60]	; 0x3c
    aa08:	f104 0344 	add.w	r3, r4, #68	; 0x44
    aa0c:	6363      	str	r3, [r4, #52]	; 0x34
    aa0e:	2303      	movs	r3, #3
    aa10:	63a3      	str	r3, [r4, #56]	; 0x38
    aa12:	4623      	mov	r3, r4
    aa14:	6422      	str	r2, [r4, #64]	; 0x40
    aa16:	f803 6f46 	strb.w	r6, [r3, #70]!
    aa1a:	6023      	str	r3, [r4, #0]
    aa1c:	2301      	movs	r3, #1
    aa1e:	6063      	str	r3, [r4, #4]
    aa20:	4628      	mov	r0, r5
    aa22:	bd70      	pop	{r4, r5, r6, pc}

0000aa24 <__ssrefill_r>:
    aa24:	b510      	push	{r4, lr}
    aa26:	460c      	mov	r4, r1
    aa28:	6b49      	ldr	r1, [r1, #52]	; 0x34
    aa2a:	b169      	cbz	r1, aa48 <__ssrefill_r+0x24>
    aa2c:	f104 0344 	add.w	r3, r4, #68	; 0x44
    aa30:	4299      	cmp	r1, r3
    aa32:	d001      	beq.n	aa38 <__ssrefill_r+0x14>
    aa34:	f7fe fc42 	bl	92bc <_free_r>
    aa38:	6c23      	ldr	r3, [r4, #64]	; 0x40
    aa3a:	2000      	movs	r0, #0
    aa3c:	6360      	str	r0, [r4, #52]	; 0x34
    aa3e:	6063      	str	r3, [r4, #4]
    aa40:	b113      	cbz	r3, aa48 <__ssrefill_r+0x24>
    aa42:	6be3      	ldr	r3, [r4, #60]	; 0x3c
    aa44:	6023      	str	r3, [r4, #0]
    aa46:	bd10      	pop	{r4, pc}
    aa48:	6923      	ldr	r3, [r4, #16]
    aa4a:	f04f 30ff 	mov.w	r0, #4294967295
    aa4e:	6023      	str	r3, [r4, #0]
    aa50:	2300      	movs	r3, #0
    aa52:	6063      	str	r3, [r4, #4]
    aa54:	89a3      	ldrh	r3, [r4, #12]
    aa56:	f043 0320 	orr.w	r3, r3, #32
    aa5a:	81a3      	strh	r3, [r4, #12]
    aa5c:	bd10      	pop	{r4, pc}
	...

0000aa60 <__ssvfiscanf_r>:
    aa60:	e92d 4ff0 	stmdb	sp!, {r4, r5, r6, r7, r8, r9, r10, r11, lr}
    aa64:	f8df 9290 	ldr.w	r9, [pc, #656]	; acf8 <__ssvfiscanf_r+0x298>
    aa68:	4607      	mov	r7, r0
    aa6a:	460c      	mov	r4, r1
    aa6c:	46ca      	mov	r10, r9
    aa6e:	f5ad 7d25 	sub.w	sp, sp, #660	; 0x294
    aa72:	9301      	str	r3, [sp, #4]
    aa74:	2300      	movs	r3, #0
    aa76:	9346      	str	r3, [sp, #280]	; 0x118
    aa78:	9347      	str	r3, [sp, #284]	; 0x11c
    aa7a:	4b9b      	ldr	r3, [pc, #620]	; (ace8 <__ssvfiscanf_r+0x288>)
    aa7c:	f10d 080c 	add.w	r8, sp, #12
    aa80:	93a2      	str	r3, [sp, #648]	; 0x288
    aa82:	4b9a      	ldr	r3, [pc, #616]	; (acec <__ssvfiscanf_r+0x28c>)
    aa84:	f8df b268 	ldr.w	r11, [pc, #616]	; acf0 <__ssvfiscanf_r+0x290>
    aa88:	f8cd 8120 	str.w	r8, [sp, #288]	; 0x120
    aa8c:	93a3      	str	r3, [sp, #652]	; 0x28c
    aa8e:	7815      	ldrb	r5, [r2, #0]
    aa90:	2d00      	cmp	r5, #0
    aa92:	f000 8120 	beq.w	acd6 <__ssvfiscanf_r+0x276>
    aa96:	f8d9 3000 	ldr.w	r3, [r9]
    aa9a:	442b      	add	r3, r5
    aa9c:	785b      	ldrb	r3, [r3, #1]
    aa9e:	f003 0308 	and.w	r3, r3, #8
    aaa2:	f003 01ff 	and.w	r1, r3, #255	; 0xff
    aaa6:	b1f3      	cbz	r3, aae6 <__ssvfiscanf_r+0x86>
    aaa8:	6863      	ldr	r3, [r4, #4]
    aaaa:	2b00      	cmp	r3, #0
    aaac:	dd10      	ble.n	aad0 <__ssvfiscanf_r+0x70>
    aaae:	6823      	ldr	r3, [r4, #0]
    aab0:	f8da 0000 	ldr.w	r0, [r10]
    aab4:	7819      	ldrb	r1, [r3, #0]
    aab6:	4401      	add	r1, r0
    aab8:	7849      	ldrb	r1, [r1, #1]
    aaba:	070d      	lsls	r5, r1, #28
    aabc:	d510      	bpl.n	aae0 <__ssvfiscanf_r+0x80>
    aabe:	9947      	ldr	r1, [sp, #284]	; 0x11c
    aac0:	3301      	adds	r3, #1
    aac2:	3101      	adds	r1, #1
    aac4:	9147      	str	r1, [sp, #284]	; 0x11c
    aac6:	6861      	ldr	r1, [r4, #4]
    aac8:	6023      	str	r3, [r4, #0]
    aaca:	3901      	subs	r1, #1
    aacc:	6061      	str	r1, [r4, #4]
    aace:	e7eb      	b.n	aaa8 <__ssvfiscanf_r+0x48>
    aad0:	9ba3      	ldr	r3, [sp, #652]	; 0x28c
    aad2:	4621      	mov	r1, r4
    aad4:	4638      	mov	r0, r7
    aad6:	9200      	str	r2, [sp, #0]
    aad8:	4798      	blx	r3
    aada:	9a00      	ldr	r2, [sp, #0]
    aadc:	2800      	cmp	r0, #0
    aade:	d0e6      	beq.n	aaae <__ssvfiscanf_r+0x4e>
    aae0:	1c56      	adds	r6, r2, #1
    aae2:	4632      	mov	r2, r6
    aae4:	e7d3      	b.n	aa8e <__ssvfiscanf_r+0x2e>
    aae6:	2d25      	cmp	r5, #37	; 0x25
    aae8:	f102 0601 	add.w	r6, r2, #1
    aaec:	d14b      	bne.n	ab86 <__ssvfiscanf_r+0x126>
    aaee:	9143      	str	r1, [sp, #268]	; 0x10c
    aaf0:	9145      	str	r1, [sp, #276]	; 0x114
    aaf2:	7853      	ldrb	r3, [r2, #1]
    aaf4:	2b2a      	cmp	r3, #42	; 0x2a
    aaf6:	bf02      	ittt	eq
    aaf8:	2310      	moveq	r3, #16
    aafa:	1c96      	addeq	r6, r2, #2
    aafc:	9343      	streq	r3, [sp, #268]	; 0x10c
    aafe:	220a      	movs	r2, #10
    ab00:	7831      	ldrb	r1, [r6, #0]
    ab02:	4635      	mov	r5, r6
    ab04:	f1a1 0330 	sub.w	r3, r1, #48	; 0x30
    ab08:	2b09      	cmp	r3, #9
    ab0a:	f106 0601 	add.w	r6, r6, #1
    ab0e:	d805      	bhi.n	ab1c <__ssvfiscanf_r+0xbc>
    ab10:	9b45      	ldr	r3, [sp, #276]	; 0x114
    ab12:	fb02 1303 	mla	r3, r2, r3, r1
    ab16:	3b30      	subs	r3, #48	; 0x30
    ab18:	9345      	str	r3, [sp, #276]	; 0x114
    ab1a:	e7f1      	b.n	ab00 <__ssvfiscanf_r+0xa0>
    ab1c:	2203      	movs	r2, #3
    ab1e:	4874      	ldr	r0, [pc, #464]	; (acf0 <__ssvfiscanf_r+0x290>)
    ab20:	f7fe fb90 	bl	9244 <memchr>
    ab24:	b140      	cbz	r0, ab38 <__ssvfiscanf_r+0xd8>
    ab26:	4635      	mov	r5, r6
    ab28:	2301      	movs	r3, #1
    ab2a:	ebcb 0000 	rsb	r0, r11, r0
    ab2e:	fa03 f000 	lsl.w	r0, r3, r0
    ab32:	9b43      	ldr	r3, [sp, #268]	; 0x10c
    ab34:	4303      	orrs	r3, r0
    ab36:	9343      	str	r3, [sp, #268]	; 0x10c
    ab38:	1c6e      	adds	r6, r5, #1
    ab3a:	782d      	ldrb	r5, [r5, #0]
    ab3c:	2d67      	cmp	r5, #103	; 0x67
    ab3e:	d80f      	bhi.n	ab60 <__ssvfiscanf_r+0x100>
    ab40:	2d65      	cmp	r5, #101	; 0x65
    ab42:	d278      	bcs.n	ac36 <__ssvfiscanf_r+0x1d6>
    ab44:	2d5b      	cmp	r5, #91	; 0x5b
    ab46:	d054      	beq.n	abf2 <__ssvfiscanf_r+0x192>
    ab48:	d805      	bhi.n	ab56 <__ssvfiscanf_r+0xf6>
    ab4a:	2d00      	cmp	r5, #0
    ab4c:	f000 80c5 	beq.w	acda <__ssvfiscanf_r+0x27a>
    ab50:	2d25      	cmp	r5, #37	; 0x25
    ab52:	d018      	beq.n	ab86 <__ssvfiscanf_r+0x126>
    ab54:	e071      	b.n	ac3a <__ssvfiscanf_r+0x1da>
    ab56:	2d63      	cmp	r5, #99	; 0x63
    ab58:	d057      	beq.n	ac0a <__ssvfiscanf_r+0x1aa>
    ab5a:	2d64      	cmp	r5, #100	; 0x64
    ab5c:	d03f      	beq.n	abde <__ssvfiscanf_r+0x17e>
    ab5e:	e06c      	b.n	ac3a <__ssvfiscanf_r+0x1da>
    ab60:	2d70      	cmp	r5, #112	; 0x70
    ab62:	d032      	beq.n	abca <__ssvfiscanf_r+0x16a>
    ab64:	d807      	bhi.n	ab76 <__ssvfiscanf_r+0x116>
    ab66:	2d6e      	cmp	r5, #110	; 0x6e
    ab68:	d055      	beq.n	ac16 <__ssvfiscanf_r+0x1b6>
    ab6a:	d83a      	bhi.n	abe2 <__ssvfiscanf_r+0x182>
    ab6c:	2d69      	cmp	r5, #105	; 0x69
    ab6e:	d164      	bne.n	ac3a <__ssvfiscanf_r+0x1da>
    ab70:	2300      	movs	r3, #0
    ab72:	9344      	str	r3, [sp, #272]	; 0x110
    ab74:	e03b      	b.n	abee <__ssvfiscanf_r+0x18e>
    ab76:	2d75      	cmp	r5, #117	; 0x75
    ab78:	d031      	beq.n	abde <__ssvfiscanf_r+0x17e>
    ab7a:	2d78      	cmp	r5, #120	; 0x78
    ab7c:	d029      	beq.n	abd2 <__ssvfiscanf_r+0x172>
    ab7e:	2d73      	cmp	r5, #115	; 0x73
    ab80:	d15b      	bne.n	ac3a <__ssvfiscanf_r+0x1da>
    ab82:	2302      	movs	r3, #2
    ab84:	e03f      	b.n	ac06 <__ssvfiscanf_r+0x1a6>
    ab86:	6863      	ldr	r3, [r4, #4]
    ab88:	2b00      	cmp	r3, #0
    ab8a:	dd0d      	ble.n	aba8 <__ssvfiscanf_r+0x148>
    ab8c:	6823      	ldr	r3, [r4, #0]
    ab8e:	781a      	ldrb	r2, [r3, #0]
    ab90:	4295      	cmp	r5, r2
    ab92:	f040 80a0 	bne.w	acd6 <__ssvfiscanf_r+0x276>
    ab96:	3301      	adds	r3, #1
    ab98:	6862      	ldr	r2, [r4, #4]
    ab9a:	6023      	str	r3, [r4, #0]
    ab9c:	9b47      	ldr	r3, [sp, #284]	; 0x11c
    ab9e:	3a01      	subs	r2, #1
    aba0:	3301      	adds	r3, #1
    aba2:	6062      	str	r2, [r4, #4]
    aba4:	9347      	str	r3, [sp, #284]	; 0x11c
    aba6:	e79c      	b.n	aae2 <__ssvfiscanf_r+0x82>
    aba8:	9ba3      	ldr	r3, [sp, #652]	; 0x28c
    abaa:	4621      	mov	r1, r4
    abac:	4638      	mov	r0, r7
    abae:	4798      	blx	r3
    abb0:	2800      	cmp	r0, #0
    abb2:	d0eb      	beq.n	ab8c <__ssvfiscanf_r+0x12c>
    abb4:	9846      	ldr	r0, [sp, #280]	; 0x118
    abb6:	2800      	cmp	r0, #0
    abb8:	f000 808f 	beq.w	acda <__ssvfiscanf_r+0x27a>
    abbc:	89a3      	ldrh	r3, [r4, #12]
    abbe:	f013 0f40 	tst.w	r3, #64	; 0x40
    abc2:	bf18      	it	ne
    abc4:	f04f 30ff 	movne.w	r0, #4294967295
    abc8:	e089      	b.n	acde <__ssvfiscanf_r+0x27e>
    abca:	9b43      	ldr	r3, [sp, #268]	; 0x10c
    abcc:	f043 0320 	orr.w	r3, r3, #32
    abd0:	9343      	str	r3, [sp, #268]	; 0x10c
    abd2:	9b43      	ldr	r3, [sp, #268]	; 0x10c
    abd4:	f443 7300 	orr.w	r3, r3, #512	; 0x200
    abd8:	9343      	str	r3, [sp, #268]	; 0x10c
    abda:	2310      	movs	r3, #16
    abdc:	e002      	b.n	abe4 <__ssvfiscanf_r+0x184>
    abde:	230a      	movs	r3, #10
    abe0:	e000      	b.n	abe4 <__ssvfiscanf_r+0x184>
    abe2:	2308      	movs	r3, #8
    abe4:	2d6e      	cmp	r5, #110	; 0x6e
    abe6:	9344      	str	r3, [sp, #272]	; 0x110
    abe8:	dd01      	ble.n	abee <__ssvfiscanf_r+0x18e>
    abea:	2304      	movs	r3, #4
    abec:	e00b      	b.n	ac06 <__ssvfiscanf_r+0x1a6>
    abee:	2303      	movs	r3, #3
    abf0:	e009      	b.n	ac06 <__ssvfiscanf_r+0x1a6>
    abf2:	4631      	mov	r1, r6
    abf4:	4640      	mov	r0, r8
    abf6:	f7ff f95d 	bl	9eb4 <__sccl>
    abfa:	4606      	mov	r6, r0
    abfc:	9b43      	ldr	r3, [sp, #268]	; 0x10c
    abfe:	f043 0340 	orr.w	r3, r3, #64	; 0x40
    ac02:	9343      	str	r3, [sp, #268]	; 0x10c
    ac04:	2301      	movs	r3, #1
    ac06:	9349      	str	r3, [sp, #292]	; 0x124
    ac08:	e01b      	b.n	ac42 <__ssvfiscanf_r+0x1e2>
    ac0a:	9b43      	ldr	r3, [sp, #268]	; 0x10c
    ac0c:	f043 0340 	orr.w	r3, r3, #64	; 0x40
    ac10:	9343      	str	r3, [sp, #268]	; 0x10c
    ac12:	2300      	movs	r3, #0
    ac14:	e7f7      	b.n	ac06 <__ssvfiscanf_r+0x1a6>
    ac16:	9a43      	ldr	r2, [sp, #268]	; 0x10c
    ac18:	06d0      	lsls	r0, r2, #27
    ac1a:	f53f af62 	bmi.w	aae2 <__ssvfiscanf_r+0x82>
    ac1e:	f012 0f01 	tst.w	r2, #1
    ac22:	9a01      	ldr	r2, [sp, #4]
    ac24:	9b47      	ldr	r3, [sp, #284]	; 0x11c
    ac26:	f102 0104 	add.w	r1, r2, #4
    ac2a:	9101      	str	r1, [sp, #4]
    ac2c:	6812      	ldr	r2, [r2, #0]
    ac2e:	bf14      	ite	ne
    ac30:	8013      	strhne	r3, [r2, #0]
    ac32:	6013      	streq	r3, [r2, #0]
    ac34:	e755      	b.n	aae2 <__ssvfiscanf_r+0x82>
    ac36:	2305      	movs	r3, #5
    ac38:	e7e5      	b.n	ac06 <__ssvfiscanf_r+0x1a6>
    ac3a:	2303      	movs	r3, #3
    ac3c:	9349      	str	r3, [sp, #292]	; 0x124
    ac3e:	230a      	movs	r3, #10
    ac40:	9344      	str	r3, [sp, #272]	; 0x110
    ac42:	6863      	ldr	r3, [r4, #4]
    ac44:	2b00      	cmp	r3, #0
    ac46:	dd03      	ble.n	ac50 <__ssvfiscanf_r+0x1f0>
    ac48:	9b43      	ldr	r3, [sp, #268]	; 0x10c
    ac4a:	0659      	lsls	r1, r3, #25
    ac4c:	d511      	bpl.n	ac72 <__ssvfiscanf_r+0x212>
    ac4e:	e018      	b.n	ac82 <__ssvfiscanf_r+0x222>
    ac50:	9ba3      	ldr	r3, [sp, #652]	; 0x28c
    ac52:	4621      	mov	r1, r4
    ac54:	4638      	mov	r0, r7
    ac56:	4798      	blx	r3
    ac58:	2800      	cmp	r0, #0
    ac5a:	d0f5      	beq.n	ac48 <__ssvfiscanf_r+0x1e8>
    ac5c:	e7aa      	b.n	abb4 <__ssvfiscanf_r+0x154>
    ac5e:	9a47      	ldr	r2, [sp, #284]	; 0x11c
    ac60:	3201      	adds	r2, #1
    ac62:	9247      	str	r2, [sp, #284]	; 0x11c
    ac64:	6862      	ldr	r2, [r4, #4]
    ac66:	3a01      	subs	r2, #1
    ac68:	2a00      	cmp	r2, #0
    ac6a:	6062      	str	r2, [r4, #4]
    ac6c:	dd13      	ble.n	ac96 <__ssvfiscanf_r+0x236>
    ac6e:	3301      	adds	r3, #1
    ac70:	6023      	str	r3, [r4, #0]
    ac72:	6823      	ldr	r3, [r4, #0]
    ac74:	f8da 1000 	ldr.w	r1, [r10]
    ac78:	781a      	ldrb	r2, [r3, #0]
    ac7a:	440a      	add	r2, r1
    ac7c:	7852      	ldrb	r2, [r2, #1]
    ac7e:	0712      	lsls	r2, r2, #28
    ac80:	d4ed      	bmi.n	ac5e <__ssvfiscanf_r+0x1fe>
    ac82:	9b49      	ldr	r3, [sp, #292]	; 0x124
    ac84:	2b02      	cmp	r3, #2
    ac86:	dc0d      	bgt.n	aca4 <__ssvfiscanf_r+0x244>
    ac88:	ab01      	add	r3, sp, #4
    ac8a:	4622      	mov	r2, r4
    ac8c:	a943      	add	r1, sp, #268	; 0x10c
    ac8e:	4638      	mov	r0, r7
    ac90:	f7fe fe96 	bl	99c0 <_scanf_chars>
    ac94:	e019      	b.n	acca <__ssvfiscanf_r+0x26a>
    ac96:	9ba3      	ldr	r3, [sp, #652]	; 0x28c
    ac98:	4621      	mov	r1, r4
    ac9a:	4638      	mov	r0, r7
    ac9c:	4798      	blx	r3
    ac9e:	2800      	cmp	r0, #0
    aca0:	d0e7      	beq.n	ac72 <__ssvfiscanf_r+0x212>
    aca2:	e787      	b.n	abb4 <__ssvfiscanf_r+0x154>
    aca4:	2b04      	cmp	r3, #4
    aca6:	dc06      	bgt.n	acb6 <__ssvfiscanf_r+0x256>
    aca8:	ab01      	add	r3, sp, #4
    acaa:	4622      	mov	r2, r4
    acac:	a943      	add	r1, sp, #268	; 0x10c
    acae:	4638      	mov	r0, r7
    acb0:	f7fe feec 	bl	9a8c <_scanf_i>
    acb4:	e009      	b.n	acca <__ssvfiscanf_r+0x26a>
    acb6:	4b0f      	ldr	r3, [pc, #60]	; (acf4 <__ssvfiscanf_r+0x294>)
    acb8:	2b00      	cmp	r3, #0
    acba:	f43f af12 	beq.w	aae2 <__ssvfiscanf_r+0x82>
    acbe:	ab01      	add	r3, sp, #4
    acc0:	4622      	mov	r2, r4
    acc2:	a943      	add	r1, sp, #268	; 0x10c
    acc4:	4638      	mov	r0, r7
    acc6:	f3af 8000 	nop.w
    acca:	2801      	cmp	r0, #1
    accc:	d003      	beq.n	acd6 <__ssvfiscanf_r+0x276>
    acce:	2802      	cmp	r0, #2
    acd0:	f47f af07 	bne.w	aae2 <__ssvfiscanf_r+0x82>
    acd4:	e76e      	b.n	abb4 <__ssvfiscanf_r+0x154>
    acd6:	9846      	ldr	r0, [sp, #280]	; 0x118
    acd8:	e001      	b.n	acde <__ssvfiscanf_r+0x27e>
    acda:	f04f 30ff 	mov.w	r0, #4294967295
    acde:	f50d 7d25 	add.w	sp, sp, #660	; 0x294
    ace2:	e8bd 8ff0 	ldmia.w	sp!, {r4, r5, r6, r7, r8, r9, r10, r11, pc}
    ace6:	bf00      	nop
    ace8:	0000a9a9 	.word	0x0000a9a9
    acec:	0000aa25 	.word	0x0000aa25
    acf0:	0000b57e 	.word	0x0000b57e
    acf4:	00000000 	.word	0x00000000
    acf8:	1000019c 	.word	0x1000019c

0000acfc <_read_r>:
    acfc:	b538      	push	{r3, r4, r5, lr}
    acfe:	4c07      	ldr	r4, [pc, #28]	; (ad1c <_read_r+0x20>)
    ad00:	4605      	mov	r5, r0
    ad02:	4608      	mov	r0, r1
    ad04:	4611      	mov	r1, r2
    ad06:	2200      	movs	r2, #0
    ad08:	6022      	str	r2, [r4, #0]
    ad0a:	461a      	mov	r2, r3
    ad0c:	f7fc fea0 	bl	7a50 <_read>
    ad10:	1c43      	adds	r3, r0, #1
    ad12:	d102      	bne.n	ad1a <_read_r+0x1e>
    ad14:	6823      	ldr	r3, [r4, #0]
    ad16:	b103      	cbz	r3, ad1a <_read_r+0x1e>
    ad18:	602b      	str	r3, [r5, #0]
    ad1a:	bd38      	pop	{r3, r4, r5, pc}
    ad1c:	10000bac 	.word	0x10000bac

0000ad20 <_malloc_usable_size_r>:
    ad20:	f851 0c04 	ldr.w	r0, [r1, #-4]
    ad24:	2800      	cmp	r0, #0
    ad26:	bfbe      	ittt	lt
    ad28:	1809      	addlt	r1, r1, r0
    ad2a:	f851 3c04 	ldrlt.w	r3, [r1, #-4]
    ad2e:	18c0      	addlt	r0, r0, r3
    ad30:	3804      	subs	r0, #4
    ad32:	4770      	bx	lr

0000ad34 <_init>:
    ad34:	b5f8      	push	{r3, r4, r5, r6, r7, lr}
    ad36:	bf00      	nop
    ad38:	bcf8      	pop	{r3, r4, r5, r6, r7}
    ad3a:	bc08      	pop	{r3}
    ad3c:	469e      	mov	lr, r3
    ad3e:	4770      	bx	lr

0000ad40 <_fini>:
    ad40:	b5f8      	push	{r3, r4, r5, r6, r7, lr}
    ad42:	bf00      	nop
    ad44:	bcf8      	pop	{r3, r4, r5, r6, r7}
    ad46:	bc08      	pop	{r3}
    ad48:	469e      	mov	lr, r3
    ad4a:	4770      	bx	lr

0000ad4c <vtable for std_msgs::Time>:
	...
    ad54:	0175 0000 01a1 0000 01e5 0000 01ed 0000     u...............

0000ad64 <vtable for rosserial_msgs::TopicInfo>:
	...
    ad6c:	043d 0000 0579 0000 01f5 0000 01fd 0000     =...y...........

0000ad7c <vtable for rosserial_msgs::Log>:
	...
    ad84:	040d 0000 04cd 0000 0205 0000 020d 0000     ................

0000ad94 <vtable for rosserial_msgs::RequestParamResponse>:
	...
    ad9c:	0311 0000 0635 0000 0215 0000 021d 0000     ....5...........

0000adac <vtable for std_msgs::MultiArrayDimension>:
	...
    adb4:	02b9 0000 0509 0000 0225 0000 022d 0000     ........%...-...

0000adc4 <vtable for std_msgs::MultiArrayLayout>:
	...
    adcc:	07d9 0000 08bd 0000 0235 0000 023d 0000     ........5...=...

0000addc <vtable for std_msgs::Int16MultiArray>:
	...
    ade4:	09e1 0000 0dd9 0000 0245 0000 024d 0000     ........E...M...

0000adf4 <vtable for std_msgs::Float32MultiArray>:
	...
    adfc:	0b15 0000 0f51 0000 0255 0000 025d 0000     ....Q...U...]...

0000ae0c <vtable for ros::NodeHandle_<MbedHardware, 25, 25, 512, 512>>:
	...
    ae14:	10d5 0000 389d 0000 02b1 0000               .....8......

0000ae20 <vtable for ros::Subscriber<std_msgs::Int16MultiArray>>:
	...
    ae28:	0c5d 0000 029d 0000 02a1 0000 02a9 0000     ]...............
    ae38:	7473 5f64 736d 7367 542f 6d69 0065 0000     std_msgs/Time...
    ae48:	6463 3137 3636 3763 6334 3535 6332 3133     cd7166c74c552c31
    ae58:	6631 6362 3263 6566 6135 6237 3263 3938     1fbcc2fe5a7bc289
    ae68:	0000 0000 6f72 7373 7265 6169 5f6c 736d     ....rosserial_ms
    ae78:	7367 542f 706f 6369 6e49 6f66 0000 0000     gs/TopicInfo....
    ae88:	6130 3564 6631 3838 6366 3434 3938 6632     0ad51f88fc44892f
    ae98:	6338 3031 3836 3034 3737 3436 3036 3530     8c10684077646005
    aea8:	0000 0000 6f72 7373 7265 6169 5f6c 736d     ....rosserial_ms
    aeb8:	7367 4c2f 676f 0000 3131 6261 3764 3133     gs/Log..11abd731
    aec8:	3263 3935 3333 3632 6331 3664 3831 6233     c25933261cd6183b
    aed8:	3164 6432 3236 3539 0000 0000 6639 6530     d12d6295....9f0e
    aee8:	3839 6462 3661 3935 3138 3839 6436 6664     98bda65981986ddf
    aef8:	3335 6661 3761 3461 6530 3934 0000 0000     53afa7a40e49....
    af08:	7473 5f64 736d 7367 4d2f 6c75 6974 7241     std_msgs/MultiAr
    af18:	6172 4479 6d69 6e65 6973 6e6f 0000 0000     rayDimension....
    af28:	6334 3064 3863 6133 3638 3338 6564 6561     4cd0c83a8683deae
    af38:	3034 6365 6164 3663 6530 3335 6662 3861     40ecdac60e53bfa8
    af48:	0000 0000 7473 5f64 736d 7367 4d2f 6c75     ....std_msgs/Mul
    af58:	6974 7241 6172 4c79 7961 756f 0074 0000     tiArrayLayout...
    af68:	6630 6465 6132 3131 3163 6533 3131 3563     0fed2a11c13e11c5
    af78:	3735 6231 6534 6132 3939 6135 3139 3361     571b4e2a995a91a3
    af88:	0000 0000 7473 5f64 736d 7367 492f 746e     ....std_msgs/Int
    af98:	3631 754d 746c 4169 7272 7961 0000 0000     16MultiArray....
    afa8:	3964 3333 6438 6637 3235 6633 6263 3936     d9338d7f523fcb69
    afb8:	6632 6561 6439 6130 6530 6639 3630 6337     2fae9d0a0e9f067c
    afc8:	0000 0000 7473 5f64 736d 7367 462f 6f6c     ....std_msgs/Flo
    afd8:	7461 3233 754d 746c 4169 7272 7961 0000     at32MultiArray..
    afe8:	6136 3034 3065 6666 3661 3161 6137 3035     6a40e0ffa6a17a50
    aff8:	6133 3363 3866 3136 3936 3139 3162 3666     3ac3f8616991b1f6
    b008:	0000 0000 654d 7373 6761 2065 7266 6d6f     ....Message from
    b018:	6420 7665 6369 2065 7264 706f 6570 3a64      device dropped:
    b028:	6d20 7365 6173 6567 6c20 7261 6567 2072      message larger 
    b038:	6874 6e61 6220 6675 6566 2e72 0000 0000     than buffer.....
    b048:	7261 5f6d 6f63 6d6d 6e61 0064 6874 7265     arm_command.ther
    b058:	6f6d 645f 7461 0061 6f63 5f32 6164 6174     mo_data.co2_data
    b068:	0000 0000 7261 5f6d 6f70 6973 6974 6e6f     ....arm_position
    b078:	0000 0000                                   ....

0000b07c <rosserial_msgs::REQUESTPARAM>:
    b07c:	6f72 7373 7265 6169 5f6c 736d 7367 522f     rosserial_msgs/R
    b08c:	7165 6575 7473 6150 6172 006d               equestParam.

0000b098 <vtable for mbed::SerialHalfDuplex>:
	...
    b0a0:	54c5 0000 54f9 0000 54b9 0000 5481 0000     .T...T...T...T..
    b0b0:	ffc0 ffff 0000 0000 7739 0000 7795 0000     ........9w...w..
    b0c0:	7765 0000 7795 0000 7791 0000 7795 0000     ew...w...w...w..
    b0d0:	7799 0000 54e9 0000 5521 0000 54b1 0000     .w...T..!U...T..
    b0e0:	54bd 0000 ffbc ffff 0000 0000 54f1 0000     .T...........T..
    b0f0:	5529 0000                                   )U..

0000b0f4 <vtable for MX106>:
	...
    b0fc:	5a25 0000 59b9 0000 5571 0000 55d1 0000     %Z...Y..qU...U..
    b10c:	5611 0000 5651 0000 5671 0000 57ed 0000     .V..QV..qV...W..
    b11c:	568d 0000 56d1 0000 56f1 0000 5721 0000     .V...V...V..!W..
    b12c:	5769 0000 5789 0000 57c9 0000 5835 0000     iW...W...W..5X..
    b13c:	58f1 0000                                   .X..

0000b140 <vtable for MX28>:
	...
    b148:	5f1d 0000 5eb1 0000 5a89 0000 5ae9 0000     ._...^...Z...Z..
    b158:	5b29 0000 5b69 0000 5b89 0000 5ce5 0000     )[..i[...[...\..
    b168:	5ba5 0000 5be9 0000 5c09 0000 5c39 0000     .[...[...\..9\..
    b178:	5c81 0000 5ca1 0000 5ce1 0000 5d2d 0000     .\...\...\..-]..
    b188:	5de9 0000                                   .]..

0000b18c <vtable for AjK::MODSERIAL>:
	...
    b194:	61d9 0000 6251 0000 6275 0000 6285 0000     .a..Qb..ub...b..
    b1a4:	ffc0 ffff 0000 0000 7739 0000 7795 0000     ........9w...w..
    b1b4:	7765 0000 7795 0000 7791 0000 7795 0000     ew...w...w...w..
    b1c4:	7799 0000 6241 0000 626d 0000 628d 0000     .w..Ab..mb...b..
    b1d4:	627d 0000 ffbc ffff 0000 0000 6249 0000     }b..........Ib..
    b1e4:	6265 0000 4f4d 5344 5245 4149 204c 756d     eb..MODSERIAL mu
    b1f4:	7473 6820 7661 2065 2061 6564 6966 656e     st have a define
    b204:	2064 4155 5452 7420 206f 7566 636e 6974     d UART to functi
    b214:	6e6f 002e 6f63 6c75 2064 6f6e 2074 6970     on..could not pi
    b224:	6f6e 7475 0000 0000 6970 6d6e 7061 6d20     nout....pinmap m
    b234:	7369 6d2d 7461 6863 0000 0000 6970 6d6e     is-match....pinm
    b244:	7061 6e20 746f 6620 756f 646e 6620 726f     ap not found for
    b254:	7020 7265 7069 6568 6172 006c 6970 6d6e      peripheral.pinm
    b264:	7061 6e20 746f 6620 756f 646e 6620 726f     ap not found for
    b274:	6620 6e75 7463 6f69 006e 0000                function...

0000b280 <us_interface>:
    b280:	73f9 0000 7409 0000 7439 0000 7449 0000     .s...t..9t..It..
    b290:	7425 0000                                   %t..

0000b294 <us_data>:
    b294:	b280 0000 09a0 1000                         ........

0000b29c <PinMap_UART_RTS>:
    b29c:	c016 2009 0000 4001 0001 0000 c047 2009     ... ...@....G.. 
    b2ac:	0000 4001 0002 0000 ffff ffff ffff ffff     ...@............
    b2bc:	0000 0000                                   ....

0000b2c0 <PinMap_UART_RX>:
    b2c0:	c001 2009 c000 4009 0002 0000 c003 2009     ... ...@....... 
    b2d0:	c000 4000 0001 0000 c00b 2009 8000 4009     ...@....... ...@
    b2e0:	0001 0000 c010 2009 0000 4001 0001 0000     ....... ...@....
    b2f0:	c01a 2009 c000 4009 0003 0000 c041 2009     ... ...@....A.. 
    b300:	0000 4001 0002 0000 c049 2009 8000 4009     ...@....I.. ...@
    b310:	0002 0000 c09d 2009 c000 4009 0003 0000     ....... ...@....
    b320:	ffff ffff ffff ffff 0000 0000               ............

0000b32c <PinMap_UART_TX>:
    b32c:	c000 2009 c000 4009 0002 0000 c002 2009     ... ...@....... 
    b33c:	c000 4000 0001 0000 c00a 2009 8000 4009     ...@....... ...@
    b34c:	0001 0000 c00f 2009 0000 4001 0001 0000     ....... ...@....
    b35c:	c019 2009 c000 4009 0003 0000 c040 2009     ... ...@....@.. 
    b36c:	0000 4001 0002 0000 c048 2009 8000 4009     ...@....H.. ...@
    b37c:	0002 0000 c09c 2009 c000 4009 0003 0000     ....... ...@....
    b38c:	ffff ffff ffff ffff 0000 0000               ............

0000b398 <PinMap_UART_CTS>:
    b398:	c011 2009 0000 4001 0001 0000 c042 2009     ... ...@....B.. 
    b3a8:	0000 4001 0002 0000 ffff ffff ffff ffff     ...@............
    b3b8:	0000 0000                                   ....

0000b3bc <vtable for mbed::FileBase>:
	...
    b3c4:	7455 0000 7485 0000                         Ut...t..

0000b3cc <vtable for mbed::FileLike>:
	...
    b3d4:	5fdd 0000 5fdd 0000 5fdd 0000 5fdd 0000     ._..._..._..._..
    b3e4:	5fdd 0000 5fdd 0000 751d 0000 0000 0000     ._..._...u......
    b3f4:	0000 0000 fffc ffff 0000 0000 0000 0000     ................
    b404:	0000 0000                                   ....

0000b408 <vtable for mbed::Serial>:
	...
    b410:	07a5 0000 51b9 0000 7659 0000 7665 0000     .....Q..Yv..ev..
    b420:	ffc0 ffff 0000 0000 7739 0000 7795 0000     ........9w...w..
    b430:	7765 0000 7795 0000 7791 0000 7795 0000     ew...w...w...w..
    b440:	7799 0000 07c9 0000 51e1 0000 7669 0000     .w.......Q..iv..
    b450:	765d 0000 ffbc ffff 0000 0000 07d1 0000     ]v..............
    b460:	51e9 0000                                   .Q..

0000b464 <vtable for mbed::SerialBase>:
	...
    b46c:	0171 0000 0789 0000                         q.......

0000b474 <vtable for mbed::Stream>:
	...
    b47c:	7739 0000 7795 0000 7765 0000 7795 0000     9w...w..ew...w..
    b48c:	7791 0000 7795 0000 7799 0000 0000 0000     .w...w...w......
    b49c:	0000 0000 5fdd 0000 5fdd 0000 fffc ffff     ....._..._......
	...
    b4b8:	253a 0070 2b77 0000                         :%p.w+..

0000b4c0 <__stdin_name>:
    b4c0:	732f 6474 6e69 0000                         /stdin..

0000b4c8 <__stderr_name>:
    b4c8:	732f 6474 7265 0072                         /stderr.

0000b4d0 <__stdout_name>:
    b4d0:	732f 6474 756f 0074                         /stdout.

0000b4d8 <vtable for mbed::FileHandle>:
	...
    b4e0:	5fdd 0000 5fdd 0000 5fdd 0000 5fdd 0000     ._..._..._..._..
    b4f0:	5fdd 0000 5fdd 0000 751d 0000 0000 0000     ._..._...u......
    b500:	0000 0000 7845 6563 7470 6f69 006e 0000     ....Exception...

0000b510 <__sf_fake_stdin>:
	...

0000b530 <__sf_fake_stdout>:
	...

0000b550 <__sf_fake_stderr>:
	...
    b570:	0043 0000                                   C...

0000b574 <_global_impure_ptr>:
    b574:	0138 1000 2d23 2b30 0020 6c68 004c 6665     8...#-0+ .hlL.ef
    b584:	4567 4746 3000 3231 3433 3635 3837 4139     gEFG.0123456789A
    b594:	4342 4544 0046 3130 3332 3534 3736 3938     BCDEF.0123456789
    b5a4:	6261 6463 6665 0000 b5ca 0000 b5cd 0000     abcdef..........
    b5b4:	b5d0 0000 2d41 6146 662d 3938 3130 3332     ....A-Fa-f890123
    b5c4:	3534 3736 005d 2d2b 3000 0030 5878 0000          4567].+-.00.xX.

0000b5d3 <_ctype_>:
    b5d3:	2000 2020 2020 2020 2020 2828 2828 2028     .         ((((( 
    b5e3:	2020 2020 2020 2020 2020 2020 2020 2020                     
    b5f3:	8820 1010 1010 1010 1010 1010 1010 1010      ...............
    b603:	0410 0404 0404 0404 0404 1004 1010 1010     ................
    b613:	1010 4141 4141 4141 0101 0101 0101 0101     ..AAAAAA........
    b623:	0101 0101 0101 0101 0101 0101 1010 1010     ................
    b633:	1010 4242 4242 4242 0202 0202 0202 0202     ..BBBBBB........
    b643:	0202 0202 0202 0202 0202 0202 1010 1010     ................
    b653:	0020 0000 0000 0000 0000 0000 0000 0000      ...............
	...

0000b6d4 <__EH_FRAME_BEGIN__>:
    b6d4:	0000 0000                                   ....
