
LPC1768/YOZAKURA_THETA_ARM.elf:     file format elf32-littlearm
architecture: arm, flags 0x00000112:
EXEC_P, HAS_SYMS, D_PAGED
start address 0x00005a59


Disassembly of section .text:

00000000 <__isr_vector>:
       0:	10008000 	.word	0x10008000
       4:	00005a59 	.word	0x00005a59
       8:	00005a89 	.word	0x00005a89
       c:	00005a8b 	.word	0x00005a8b
      10:	00005a8d 	.word	0x00005a8d
      14:	00005a8f 	.word	0x00005a8f
      18:	00005a91 	.word	0x00005a91
	...
      2c:	00005a93 	.word	0x00005a93
      30:	00005a95 	.word	0x00005a95
      34:	00000000 	.word	0x00000000
      38:	00005a97 	.word	0x00005a97
      3c:	00005a99 	.word	0x00005a99
      40:	00005a9b 	.word	0x00005a9b
      44:	00005a9b 	.word	0x00005a9b
      48:	00005a9b 	.word	0x00005a9b
      4c:	00005a9b 	.word	0x00005a9b
      50:	00005a9b 	.word	0x00005a9b
      54:	00005a9b 	.word	0x00005a9b
      58:	00005a9b 	.word	0x00005a9b
      5c:	00005a9b 	.word	0x00005a9b
      60:	00005a9b 	.word	0x00005a9b
      64:	00005a9b 	.word	0x00005a9b
      68:	00005a9b 	.word	0x00005a9b
      6c:	00005a9b 	.word	0x00005a9b
      70:	00005a9b 	.word	0x00005a9b
      74:	00005a9b 	.word	0x00005a9b
      78:	00005a9b 	.word	0x00005a9b
      7c:	00005a9b 	.word	0x00005a9b
      80:	00005a9b 	.word	0x00005a9b
      84:	00005a9b 	.word	0x00005a9b
      88:	00005a9b 	.word	0x00005a9b
      8c:	00005a9b 	.word	0x00005a9b
      90:	00005a9b 	.word	0x00005a9b
      94:	00005a9b 	.word	0x00005a9b
      98:	00005a9b 	.word	0x00005a9b
      9c:	00005a9b 	.word	0x00005a9b
      a0:	00005a9b 	.word	0x00005a9b
      a4:	00005a9b 	.word	0x00005a9b
      a8:	00005a9b 	.word	0x00005a9b
      ac:	00005a9b 	.word	0x00005a9b
      b0:	00005a9b 	.word	0x00005a9b
      b4:	00005a9b 	.word	0x00005a9b
      b8:	00005a9b 	.word	0x00005a9b
      bc:	00005a9b 	.word	0x00005a9b
      c0:	00005a9b 	.word	0x00005a9b
      c4:	00005a9b 	.word	0x00005a9b
      c8:	00005a9b 	.word	0x00005a9b

000000cc <__do_global_dtors_aux>:
      cc:	b510      	push	{r4, lr}
      ce:	4c05      	ldr	r4, [pc, #20]	; (e4 <__do_global_dtors_aux+0x18>)
      d0:	7823      	ldrb	r3, [r4, #0]
      d2:	b933      	cbnz	r3, e2 <__do_global_dtors_aux+0x16>
      d4:	4b04      	ldr	r3, [pc, #16]	; (e8 <__do_global_dtors_aux+0x1c>)
      d6:	b113      	cbz	r3, de <__do_global_dtors_aux+0x12>
      d8:	4804      	ldr	r0, [pc, #16]	; (ec <__do_global_dtors_aux+0x20>)
      da:	f3af 8000 	nop.w
      de:	2301      	movs	r3, #1
      e0:	7023      	strb	r3, [r4, #0]
      e2:	bd10      	pop	{r4, pc}
      e4:	100001ac 	.word	0x100001ac
      e8:	00000000 	.word	0x00000000
      ec:	00009594 	.word	0x00009594

000000f0 <frame_dummy>:
      f0:	4b08      	ldr	r3, [pc, #32]	; (114 <frame_dummy+0x24>)
      f2:	b510      	push	{r4, lr}
      f4:	b11b      	cbz	r3, fe <frame_dummy+0xe>
      f6:	4808      	ldr	r0, [pc, #32]	; (118 <frame_dummy+0x28>)
      f8:	4908      	ldr	r1, [pc, #32]	; (11c <frame_dummy+0x2c>)
      fa:	f3af 8000 	nop.w
      fe:	4808      	ldr	r0, [pc, #32]	; (120 <frame_dummy+0x30>)
     100:	6803      	ldr	r3, [r0, #0]
     102:	b903      	cbnz	r3, 106 <frame_dummy+0x16>
     104:	bd10      	pop	{r4, pc}
     106:	4b07      	ldr	r3, [pc, #28]	; (124 <frame_dummy+0x34>)
     108:	2b00      	cmp	r3, #0
     10a:	d0fb      	beq.n	104 <frame_dummy+0x14>
     10c:	e8bd 4010 	ldmia.w	sp!, {r4, lr}
     110:	4718      	bx	r3
     112:	bf00      	nop
     114:	00000000 	.word	0x00000000
     118:	00009594 	.word	0x00009594
     11c:	100001b0 	.word	0x100001b0
     120:	100001ac 	.word	0x100001ac
     124:	00000000 	.word	0x00000000

00000128 <std_msgs::Time::serialize(unsigned char*) const>:
     128:	4603      	mov	r3, r0
     12a:	6842      	ldr	r2, [r0, #4]
     12c:	2008      	movs	r0, #8
     12e:	700a      	strb	r2, [r1, #0]
     130:	685a      	ldr	r2, [r3, #4]
     132:	40c2      	lsrs	r2, r0
     134:	704a      	strb	r2, [r1, #1]
     136:	88da      	ldrh	r2, [r3, #6]
     138:	708a      	strb	r2, [r1, #2]
     13a:	79da      	ldrb	r2, [r3, #7]
     13c:	70ca      	strb	r2, [r1, #3]
     13e:	689a      	ldr	r2, [r3, #8]
     140:	710a      	strb	r2, [r1, #4]
     142:	689a      	ldr	r2, [r3, #8]
     144:	40c2      	lsrs	r2, r0
     146:	714a      	strb	r2, [r1, #5]
     148:	895a      	ldrh	r2, [r3, #10]
     14a:	718a      	strb	r2, [r1, #6]
     14c:	7adb      	ldrb	r3, [r3, #11]
     14e:	71cb      	strb	r3, [r1, #7]
     150:	4770      	bx	lr
     152:	bf00      	nop

00000154 <std_msgs::Time::deserialize(unsigned char*)>:
     154:	4602      	mov	r2, r0
     156:	b410      	push	{r4}
     158:	780b      	ldrb	r3, [r1, #0]
     15a:	2008      	movs	r0, #8
     15c:	6053      	str	r3, [r2, #4]
     15e:	784c      	ldrb	r4, [r1, #1]
     160:	ea43 2304 	orr.w	r3, r3, r4, lsl #8
     164:	6053      	str	r3, [r2, #4]
     166:	788c      	ldrb	r4, [r1, #2]
     168:	ea43 4304 	orr.w	r3, r3, r4, lsl #16
     16c:	6053      	str	r3, [r2, #4]
     16e:	78cc      	ldrb	r4, [r1, #3]
     170:	ea43 6304 	orr.w	r3, r3, r4, lsl #24
     174:	6053      	str	r3, [r2, #4]
     176:	790b      	ldrb	r3, [r1, #4]
     178:	6093      	str	r3, [r2, #8]
     17a:	794c      	ldrb	r4, [r1, #5]
     17c:	ea43 2304 	orr.w	r3, r3, r4, lsl #8
     180:	6093      	str	r3, [r2, #8]
     182:	798c      	ldrb	r4, [r1, #6]
     184:	ea43 4304 	orr.w	r3, r3, r4, lsl #16
     188:	6093      	str	r3, [r2, #8]
     18a:	79c9      	ldrb	r1, [r1, #7]
     18c:	f85d 4b04 	ldr.w	r4, [sp], #4
     190:	ea43 6301 	orr.w	r3, r3, r1, lsl #24
     194:	6093      	str	r3, [r2, #8]
     196:	4770      	bx	lr

00000198 <std_msgs::Time::getType()>:
     198:	4800      	ldr	r0, [pc, #0]	; (19c <std_msgs::Time::getType()+0x4>)
     19a:	4770      	bx	lr
     19c:	00008ce0 	.word	0x00008ce0

000001a0 <std_msgs::Time::getMD5()>:
     1a0:	4800      	ldr	r0, [pc, #0]	; (1a4 <std_msgs::Time::getMD5()+0x4>)
     1a2:	4770      	bx	lr
     1a4:	00008cf0 	.word	0x00008cf0

000001a8 <rosserial_msgs::TopicInfo::getType()>:
     1a8:	4800      	ldr	r0, [pc, #0]	; (1ac <rosserial_msgs::TopicInfo::getType()+0x4>)
     1aa:	4770      	bx	lr
     1ac:	00008d14 	.word	0x00008d14

000001b0 <rosserial_msgs::TopicInfo::getMD5()>:
     1b0:	4800      	ldr	r0, [pc, #0]	; (1b4 <rosserial_msgs::TopicInfo::getMD5()+0x4>)
     1b2:	4770      	bx	lr
     1b4:	00008d30 	.word	0x00008d30

000001b8 <rosserial_msgs::Log::getType()>:
     1b8:	4800      	ldr	r0, [pc, #0]	; (1bc <rosserial_msgs::Log::getType()+0x4>)
     1ba:	4770      	bx	lr
     1bc:	00008d54 	.word	0x00008d54

000001c0 <rosserial_msgs::Log::getMD5()>:
     1c0:	4800      	ldr	r0, [pc, #0]	; (1c4 <rosserial_msgs::Log::getMD5()+0x4>)
     1c2:	4770      	bx	lr
     1c4:	00008d68 	.word	0x00008d68

000001c8 <rosserial_msgs::RequestParamResponse::getType()>:
     1c8:	4800      	ldr	r0, [pc, #0]	; (1cc <rosserial_msgs::RequestParamResponse::getType()+0x4>)
     1ca:	4770      	bx	lr
     1cc:	00008f20 	.word	0x00008f20

000001d0 <rosserial_msgs::RequestParamResponse::getMD5()>:
     1d0:	4800      	ldr	r0, [pc, #0]	; (1d4 <rosserial_msgs::RequestParamResponse::getMD5()+0x4>)
     1d2:	4770      	bx	lr
     1d4:	00008d8c 	.word	0x00008d8c

000001d8 <std_msgs::MultiArrayDimension::getType()>:
     1d8:	4800      	ldr	r0, [pc, #0]	; (1dc <std_msgs::MultiArrayDimension::getType()+0x4>)
     1da:	4770      	bx	lr
     1dc:	00008db0 	.word	0x00008db0

000001e0 <std_msgs::MultiArrayDimension::getMD5()>:
     1e0:	4800      	ldr	r0, [pc, #0]	; (1e4 <std_msgs::MultiArrayDimension::getMD5()+0x4>)
     1e2:	4770      	bx	lr
     1e4:	00008dd0 	.word	0x00008dd0

000001e8 <std_msgs::MultiArrayLayout::getType()>:
     1e8:	4800      	ldr	r0, [pc, #0]	; (1ec <std_msgs::MultiArrayLayout::getType()+0x4>)
     1ea:	4770      	bx	lr
     1ec:	00008df4 	.word	0x00008df4

000001f0 <std_msgs::MultiArrayLayout::getMD5()>:
     1f0:	4800      	ldr	r0, [pc, #0]	; (1f4 <std_msgs::MultiArrayLayout::getMD5()+0x4>)
     1f2:	4770      	bx	lr
     1f4:	00008e10 	.word	0x00008e10

000001f8 <std_msgs::Int16MultiArray::getType()>:
     1f8:	4800      	ldr	r0, [pc, #0]	; (1fc <std_msgs::Int16MultiArray::getType()+0x4>)
     1fa:	4770      	bx	lr
     1fc:	00008e34 	.word	0x00008e34

00000200 <std_msgs::Int16MultiArray::getMD5()>:
     200:	4800      	ldr	r0, [pc, #0]	; (204 <std_msgs::Int16MultiArray::getMD5()+0x4>)
     202:	4770      	bx	lr
     204:	00008e50 	.word	0x00008e50

00000208 <std_msgs::Float32MultiArray::getType()>:
     208:	4800      	ldr	r0, [pc, #0]	; (20c <std_msgs::Float32MultiArray::getType()+0x4>)
     20a:	4770      	bx	lr
     20c:	00008e74 	.word	0x00008e74

00000210 <std_msgs::Float32MultiArray::getMD5()>:
     210:	4800      	ldr	r0, [pc, #0]	; (214 <std_msgs::Float32MultiArray::getMD5()+0x4>)
     212:	4770      	bx	lr
     214:	00008e90 	.word	0x00008e90

00000218 <command_callback(std_msgs::Int16MultiArray const&)>:
     218:	6a80      	ldr	r0, [r0, #40]	; 0x28
     21a:	4a05      	ldr	r2, [pc, #20]	; (230 <command_callback(std_msgs::Int16MultiArray const&)+0x18>)
     21c:	1e83      	subs	r3, r0, #2
     21e:	3008      	adds	r0, #8
     220:	f933 1f02 	ldrsh.w	r1, [r3, #2]!
     224:	4283      	cmp	r3, r0
     226:	f842 1b04 	str.w	r1, [r2], #4
     22a:	d1f9      	bne.n	220 <command_callback(std_msgs::Int16MultiArray const&)+0x8>
     22c:	4770      	bx	lr
     22e:	bf00      	nop
     230:	10000858 	.word	0x10000858

00000234 <ros::Subscriber<std_msgs::Int16MultiArray>::getEndpointType()>:
     234:	6bc0      	ldr	r0, [r0, #60]	; 0x3c
     236:	4770      	bx	lr

00000238 <ros::Subscriber<std_msgs::Int16MultiArray>::getMsgType()>:
     238:	4800      	ldr	r0, [pc, #0]	; (23c <ros::Subscriber<std_msgs::Int16MultiArray>::getMsgType()+0x4>)
     23a:	4770      	bx	lr
     23c:	00008e34 	.word	0x00008e34

00000240 <ros::Subscriber<std_msgs::Int16MultiArray>::getMsgMD5()>:
     240:	4800      	ldr	r0, [pc, #0]	; (244 <ros::Subscriber<std_msgs::Int16MultiArray>::getMsgMD5()+0x4>)
     242:	4770      	bx	lr
     244:	00008e50 	.word	0x00008e50

00000248 <ros::NodeHandle_<MbedHardware, 25, 25, 512, 512>::connected()>:
     248:	f890 05fc 	ldrb.w	r0, [r0, #1532]	; 0x5fc
     24c:	4770      	bx	lr
     24e:	bf00      	nop

00000250 <std::vector<Dynamixel*, std::allocator<Dynamixel*> >::~vector()>:
     250:	b510      	push	{r4, lr}
     252:	4604      	mov	r4, r0
     254:	6800      	ldr	r0, [r0, #0]
     256:	b108      	cbz	r0, 25c <std::vector<Dynamixel*, std::allocator<Dynamixel*> >::~vector()+0xc>
     258:	f005 fc25 	bl	5aa6 <operator delete(void*)>
     25c:	4620      	mov	r0, r4
     25e:	bd10      	pop	{r4, pc}

00000260 <std_msgs::MultiArrayDimension::serialize(unsigned char*) const>:
     260:	b570      	push	{r4, r5, r6, lr}
     262:	4605      	mov	r5, r0
     264:	b082      	sub	sp, #8
     266:	460c      	mov	r4, r1
     268:	6840      	ldr	r0, [r0, #4]
     26a:	f007 fed4 	bl	8016 <strlen>
     26e:	4623      	mov	r3, r4
     270:	4606      	mov	r6, r0
     272:	aa02      	add	r2, sp, #8
     274:	f842 0d04 	str.w	r0, [r2, #-4]!
     278:	6810      	ldr	r0, [r2, #0]
     27a:	4632      	mov	r2, r6
     27c:	f843 0b04 	str.w	r0, [r3], #4
     280:	6869      	ldr	r1, [r5, #4]
     282:	4618      	mov	r0, r3
     284:	f006 ff58 	bl	7138 <memcpy>
     288:	68ab      	ldr	r3, [r5, #8]
     28a:	19a1      	adds	r1, r4, r6
     28c:	710b      	strb	r3, [r1, #4]
     28e:	68ab      	ldr	r3, [r5, #8]
     290:	f106 000c 	add.w	r0, r6, #12
     294:	0a1b      	lsrs	r3, r3, #8
     296:	714b      	strb	r3, [r1, #5]
     298:	896b      	ldrh	r3, [r5, #10]
     29a:	718b      	strb	r3, [r1, #6]
     29c:	7aeb      	ldrb	r3, [r5, #11]
     29e:	71cb      	strb	r3, [r1, #7]
     2a0:	68eb      	ldr	r3, [r5, #12]
     2a2:	720b      	strb	r3, [r1, #8]
     2a4:	68eb      	ldr	r3, [r5, #12]
     2a6:	0a1b      	lsrs	r3, r3, #8
     2a8:	724b      	strb	r3, [r1, #9]
     2aa:	89eb      	ldrh	r3, [r5, #14]
     2ac:	728b      	strb	r3, [r1, #10]
     2ae:	7beb      	ldrb	r3, [r5, #15]
     2b0:	72cb      	strb	r3, [r1, #11]
     2b2:	b002      	add	sp, #8
     2b4:	bd70      	pop	{r4, r5, r6, pc}
     2b6:	bf00      	nop

000002b8 <rosserial_msgs::RequestParamResponse::serialize(unsigned char*) const>:
     2b8:	e92d 43f0 	stmdb	sp!, {r4, r5, r6, r7, r8, r9, lr}
     2bc:	7903      	ldrb	r3, [r0, #4]
     2be:	2400      	movs	r4, #0
     2c0:	700b      	strb	r3, [r1, #0]
     2c2:	704c      	strb	r4, [r1, #1]
     2c4:	708c      	strb	r4, [r1, #2]
     2c6:	70cc      	strb	r4, [r1, #3]
     2c8:	7903      	ldrb	r3, [r0, #4]
     2ca:	b083      	sub	sp, #12
     2cc:	2b00      	cmp	r3, #0
     2ce:	d06f      	beq.n	3b0 <rosserial_msgs::RequestParamResponse::serialize(unsigned char*) const+0xf8>
     2d0:	460b      	mov	r3, r1
     2d2:	2504      	movs	r5, #4
     2d4:	68c2      	ldr	r2, [r0, #12]
     2d6:	1c66      	adds	r6, r4, #1
     2d8:	f852 2024 	ldr.w	r2, [r2, r4, lsl #2]
     2dc:	b2f4      	uxtb	r4, r6
     2de:	ea4f 2e12 	mov.w	lr, r2, lsr #8
     2e2:	0c17      	lsrs	r7, r2, #16
     2e4:	0e16      	lsrs	r6, r2, #24
     2e6:	711a      	strb	r2, [r3, #4]
     2e8:	f883 e005 	strb.w	lr, [r3, #5]
     2ec:	719f      	strb	r7, [r3, #6]
     2ee:	71de      	strb	r6, [r3, #7]
     2f0:	7902      	ldrb	r2, [r0, #4]
     2f2:	3504      	adds	r5, #4
     2f4:	42a2      	cmp	r2, r4
     2f6:	f103 0304 	add.w	r3, r3, #4
     2fa:	d8eb      	bhi.n	2d4 <rosserial_msgs::RequestParamResponse::serialize(unsigned char*) const+0x1c>
     2fc:	1d2a      	adds	r2, r5, #4
     2fe:	4616      	mov	r6, r2
     300:	f105 0c01 	add.w	r12, r5, #1
     304:	f105 0e02 	add.w	lr, r5, #2
     308:	1cef      	adds	r7, r5, #3
     30a:	7c03      	ldrb	r3, [r0, #16]
     30c:	2400      	movs	r4, #0
     30e:	554b      	strb	r3, [r1, r5]
     310:	f801 400c 	strb.w	r4, [r1, r12]
     314:	f801 400e 	strb.w	r4, [r1, lr]
     318:	55cc      	strb	r4, [r1, r7]
     31a:	7c03      	ldrb	r3, [r0, #16]
     31c:	b1eb      	cbz	r3, 35a <rosserial_msgs::RequestParamResponse::serialize(unsigned char*) const+0xa2>
     31e:	eb01 0806 	add.w	r8, r1, r6
     322:	4643      	mov	r3, r8
     324:	6982      	ldr	r2, [r0, #24]
     326:	b2e5      	uxtb	r5, r4
     328:	f852 2025 	ldr.w	r2, [r2, r5, lsl #2]
     32c:	1c65      	adds	r5, r4, #1
     32e:	0e17      	lsrs	r7, r2, #24
     330:	ea4f 2c12 	mov.w	r12, r2, lsr #8
     334:	ea4f 4e12 	mov.w	lr, r2, lsr #16
     338:	f808 2024 	strb.w	r2, [r8, r4, lsl #2]
     33c:	f883 c001 	strb.w	r12, [r3, #1]
     340:	f883 e002 	strb.w	lr, [r3, #2]
     344:	70df      	strb	r7, [r3, #3]
     346:	7c07      	ldrb	r7, [r0, #16]
     348:	b2ea      	uxtb	r2, r5
     34a:	4297      	cmp	r7, r2
     34c:	f106 0604 	add.w	r6, r6, #4
     350:	f103 0304 	add.w	r3, r3, #4
     354:	462c      	mov	r4, r5
     356:	d8e5      	bhi.n	324 <rosserial_msgs::RequestParamResponse::serialize(unsigned char*) const+0x6c>
     358:	4632      	mov	r2, r6
     35a:	7f05      	ldrb	r5, [r0, #28]
     35c:	198b      	adds	r3, r1, r6
     35e:	2400      	movs	r4, #0
     360:	548d      	strb	r5, [r1, r2]
     362:	705c      	strb	r4, [r3, #1]
     364:	709c      	strb	r4, [r3, #2]
     366:	70dc      	strb	r4, [r3, #3]
     368:	7f03      	ldrb	r3, [r0, #28]
     36a:	3604      	adds	r6, #4
     36c:	b1e3      	cbz	r3, 3a8 <rosserial_msgs::RequestParamResponse::serialize(unsigned char*) const+0xf0>
     36e:	4688      	mov	r8, r1
     370:	4607      	mov	r7, r0
     372:	6a7b      	ldr	r3, [r7, #36]	; 0x24
     374:	f106 0904 	add.w	r9, r6, #4
     378:	f853 0024 	ldr.w	r0, [r3, r4, lsl #2]
     37c:	f007 fe4b 	bl	8016 <strlen>
     380:	4605      	mov	r5, r0
     382:	9001      	str	r0, [sp, #4]
     384:	9801      	ldr	r0, [sp, #4]
     386:	462a      	mov	r2, r5
     388:	f848 0006 	str.w	r0, [r8, r6]
     38c:	6a7b      	ldr	r3, [r7, #36]	; 0x24
     38e:	eb08 0009 	add.w	r0, r8, r9
     392:	f853 1024 	ldr.w	r1, [r3, r4, lsl #2]
     396:	f006 fecf 	bl	7138 <memcpy>
     39a:	3401      	adds	r4, #1
     39c:	7f3b      	ldrb	r3, [r7, #28]
     39e:	b2e4      	uxtb	r4, r4
     3a0:	42a3      	cmp	r3, r4
     3a2:	eb09 0605 	add.w	r6, r9, r5
     3a6:	d8e4      	bhi.n	372 <rosserial_msgs::RequestParamResponse::serialize(unsigned char*) const+0xba>
     3a8:	4630      	mov	r0, r6
     3aa:	b003      	add	sp, #12
     3ac:	e8bd 83f0 	ldmia.w	sp!, {r4, r5, r6, r7, r8, r9, pc}
     3b0:	2208      	movs	r2, #8
     3b2:	4616      	mov	r6, r2
     3b4:	2707      	movs	r7, #7
     3b6:	f04f 0e06 	mov.w	lr, #6
     3ba:	f04f 0c05 	mov.w	r12, #5
     3be:	2504      	movs	r5, #4
     3c0:	e7a3      	b.n	30a <rosserial_msgs::RequestParamResponse::serialize(unsigned char*) const+0x52>
     3c2:	bf00      	nop

000003c4 <rosserial_msgs::Log::serialize(unsigned char*) const>:
     3c4:	b570      	push	{r4, r5, r6, lr}
     3c6:	7903      	ldrb	r3, [r0, #4]
     3c8:	b082      	sub	sp, #8
     3ca:	700b      	strb	r3, [r1, #0]
     3cc:	4606      	mov	r6, r0
     3ce:	6880      	ldr	r0, [r0, #8]
     3d0:	460d      	mov	r5, r1
     3d2:	f007 fe20 	bl	8016 <strlen>
     3d6:	4604      	mov	r4, r0
     3d8:	ab02      	add	r3, sp, #8
     3da:	f843 0d04 	str.w	r0, [r3, #-4]!
     3de:	6818      	ldr	r0, [r3, #0]
     3e0:	4622      	mov	r2, r4
     3e2:	f8c5 0001 	str.w	r0, [r5, #1]
     3e6:	68b1      	ldr	r1, [r6, #8]
     3e8:	1d68      	adds	r0, r5, #5
     3ea:	f006 fea5 	bl	7138 <memcpy>
     3ee:	1d60      	adds	r0, r4, #5
     3f0:	b002      	add	sp, #8
     3f2:	bd70      	pop	{r4, r5, r6, pc}

000003f4 <rosserial_msgs::TopicInfo::serialize(unsigned char*) const>:
     3f4:	8883      	ldrh	r3, [r0, #4]
     3f6:	e92d 41f0 	stmdb	sp!, {r4, r5, r6, r7, r8, lr}
     3fa:	700b      	strb	r3, [r1, #0]
     3fc:	8883      	ldrh	r3, [r0, #4]
     3fe:	b084      	sub	sp, #16
     400:	0a1b      	lsrs	r3, r3, #8
     402:	704b      	strb	r3, [r1, #1]
     404:	4606      	mov	r6, r0
     406:	6880      	ldr	r0, [r0, #8]
     408:	460c      	mov	r4, r1
     40a:	f007 fe04 	bl	8016 <strlen>
     40e:	4607      	mov	r7, r0
     410:	ab04      	add	r3, sp, #16
     412:	f843 0d0c 	str.w	r0, [r3, #-12]!
     416:	6818      	ldr	r0, [r3, #0]
     418:	463a      	mov	r2, r7
     41a:	f8c4 0002 	str.w	r0, [r4, #2]
     41e:	68b1      	ldr	r1, [r6, #8]
     420:	1da0      	adds	r0, r4, #6
     422:	f006 fe89 	bl	7138 <memcpy>
     426:	68f0      	ldr	r0, [r6, #12]
     428:	f007 fdf5 	bl	8016 <strlen>
     42c:	4605      	mov	r5, r0
     42e:	ab04      	add	r3, sp, #16
     430:	f843 0d08 	str.w	r0, [r3, #-8]!
     434:	6818      	ldr	r0, [r3, #0]
     436:	1dbb      	adds	r3, r7, #6
     438:	50e0      	str	r0, [r4, r3]
     43a:	f107 080a 	add.w	r8, r7, #10
     43e:	68f1      	ldr	r1, [r6, #12]
     440:	462a      	mov	r2, r5
     442:	eb04 0008 	add.w	r0, r4, r8
     446:	f006 fe77 	bl	7138 <memcpy>
     44a:	6930      	ldr	r0, [r6, #16]
     44c:	f007 fde3 	bl	8016 <strlen>
     450:	4607      	mov	r7, r0
     452:	ab04      	add	r3, sp, #16
     454:	f843 0d04 	str.w	r0, [r3, #-4]!
     458:	6818      	ldr	r0, [r3, #0]
     45a:	4445      	add	r5, r8
     45c:	5160      	str	r0, [r4, r5]
     45e:	3504      	adds	r5, #4
     460:	6931      	ldr	r1, [r6, #16]
     462:	463a      	mov	r2, r7
     464:	1960      	adds	r0, r4, r5
     466:	f006 fe67 	bl	7138 <memcpy>
     46a:	6973      	ldr	r3, [r6, #20]
     46c:	19e8      	adds	r0, r5, r7
     46e:	1822      	adds	r2, r4, r0
     470:	5423      	strb	r3, [r4, r0]
     472:	0a1f      	lsrs	r7, r3, #8
     474:	0c1e      	lsrs	r6, r3, #16
     476:	0e19      	lsrs	r1, r3, #24
     478:	3004      	adds	r0, #4
     47a:	7057      	strb	r7, [r2, #1]
     47c:	7096      	strb	r6, [r2, #2]
     47e:	70d1      	strb	r1, [r2, #3]
     480:	b004      	add	sp, #16
     482:	e8bd 81f0 	ldmia.w	sp!, {r4, r5, r6, r7, r8, pc}
     486:	bf00      	nop

00000488 <rosserial_msgs::Log::deserialize(unsigned char*)>:
     488:	460b      	mov	r3, r1
     48a:	b4f0      	push	{r4, r5, r6, r7}
     48c:	f813 2b01 	ldrb.w	r2, [r3], #1
     490:	4606      	mov	r6, r0
     492:	7102      	strb	r2, [r0, #4]
     494:	6818      	ldr	r0, [r3, #0]
     496:	b082      	sub	sp, #8
     498:	9001      	str	r0, [sp, #4]
     49a:	9d01      	ldr	r5, [sp, #4]
     49c:	1d0f      	adds	r7, r1, #4
     49e:	1d68      	adds	r0, r5, #5
     4a0:	2805      	cmp	r0, #5
     4a2:	d908      	bls.n	4b6 <rosserial_msgs::Log::deserialize(unsigned char*)+0x2e>
     4a4:	463b      	mov	r3, r7
     4a6:	1d2c      	adds	r4, r5, #4
     4a8:	440c      	add	r4, r1
     4aa:	f813 2f01 	ldrb.w	r2, [r3, #1]!
     4ae:	42a3      	cmp	r3, r4
     4b0:	f803 2c01 	strb.w	r2, [r3, #-1]
     4b4:	d1f9      	bne.n	4aa <rosserial_msgs::Log::deserialize(unsigned char*)+0x22>
     4b6:	440d      	add	r5, r1
     4b8:	2300      	movs	r3, #0
     4ba:	712b      	strb	r3, [r5, #4]
     4bc:	60b7      	str	r7, [r6, #8]
     4be:	b002      	add	sp, #8
     4c0:	bcf0      	pop	{r4, r5, r6, r7}
     4c2:	4770      	bx	lr

000004c4 <std_msgs::MultiArrayDimension::deserialize(unsigned char*)>:
     4c4:	b4f0      	push	{r4, r5, r6, r7}
     4c6:	4605      	mov	r5, r0
     4c8:	6808      	ldr	r0, [r1, #0]
     4ca:	b082      	sub	sp, #8
     4cc:	9001      	str	r0, [sp, #4]
     4ce:	9801      	ldr	r0, [sp, #4]
     4d0:	1ccf      	adds	r7, r1, #3
     4d2:	1d06      	adds	r6, r0, #4
     4d4:	2e04      	cmp	r6, #4
     4d6:	d908      	bls.n	4ea <std_msgs::MultiArrayDimension::deserialize(unsigned char*)+0x26>
     4d8:	463b      	mov	r3, r7
     4da:	1cc4      	adds	r4, r0, #3
     4dc:	440c      	add	r4, r1
     4de:	f813 2f01 	ldrb.w	r2, [r3, #1]!
     4e2:	42a3      	cmp	r3, r4
     4e4:	f803 2c01 	strb.w	r2, [r3, #-1]
     4e8:	d1f9      	bne.n	4de <std_msgs::MultiArrayDimension::deserialize(unsigned char*)+0x1a>
     4ea:	180a      	adds	r2, r1, r0
     4ec:	2300      	movs	r3, #0
     4ee:	70d3      	strb	r3, [r2, #3]
     4f0:	606f      	str	r7, [r5, #4]
     4f2:	5d8b      	ldrb	r3, [r1, r6]
     4f4:	300c      	adds	r0, #12
     4f6:	60ab      	str	r3, [r5, #8]
     4f8:	7951      	ldrb	r1, [r2, #5]
     4fa:	ea43 2301 	orr.w	r3, r3, r1, lsl #8
     4fe:	60ab      	str	r3, [r5, #8]
     500:	7991      	ldrb	r1, [r2, #6]
     502:	ea43 4301 	orr.w	r3, r3, r1, lsl #16
     506:	60ab      	str	r3, [r5, #8]
     508:	79d1      	ldrb	r1, [r2, #7]
     50a:	ea43 6301 	orr.w	r3, r3, r1, lsl #24
     50e:	60ab      	str	r3, [r5, #8]
     510:	7a13      	ldrb	r3, [r2, #8]
     512:	60eb      	str	r3, [r5, #12]
     514:	7a51      	ldrb	r1, [r2, #9]
     516:	ea43 2301 	orr.w	r3, r3, r1, lsl #8
     51a:	60eb      	str	r3, [r5, #12]
     51c:	7a91      	ldrb	r1, [r2, #10]
     51e:	ea43 4301 	orr.w	r3, r3, r1, lsl #16
     522:	60eb      	str	r3, [r5, #12]
     524:	7ad2      	ldrb	r2, [r2, #11]
     526:	ea43 6302 	orr.w	r3, r3, r2, lsl #24
     52a:	60eb      	str	r3, [r5, #12]
     52c:	b002      	add	sp, #8
     52e:	bcf0      	pop	{r4, r5, r6, r7}
     530:	4770      	bx	lr
     532:	bf00      	nop

00000534 <rosserial_msgs::TopicInfo::deserialize(unsigned char*)>:
     534:	b4f0      	push	{r4, r5, r6, r7}
     536:	780b      	ldrb	r3, [r1, #0]
     538:	4605      	mov	r5, r0
     53a:	8083      	strh	r3, [r0, #4]
     53c:	784a      	ldrb	r2, [r1, #1]
     53e:	b084      	sub	sp, #16
     540:	ea43 2302 	orr.w	r3, r3, r2, lsl #8
     544:	8083      	strh	r3, [r0, #4]
     546:	f8d1 0002 	ldr.w	r0, [r1, #2]
     54a:	1d4f      	adds	r7, r1, #5
     54c:	9001      	str	r0, [sp, #4]
     54e:	9a01      	ldr	r2, [sp, #4]
     550:	1d96      	adds	r6, r2, #6
     552:	2e06      	cmp	r6, #6
     554:	d908      	bls.n	568 <rosserial_msgs::TopicInfo::deserialize(unsigned char*)+0x34>
     556:	463b      	mov	r3, r7
     558:	1d54      	adds	r4, r2, #5
     55a:	440c      	add	r4, r1
     55c:	f813 0f01 	ldrb.w	r0, [r3, #1]!
     560:	42a3      	cmp	r3, r4
     562:	f803 0c01 	strb.w	r0, [r3, #-1]
     566:	d1f9      	bne.n	55c <rosserial_msgs::TopicInfo::deserialize(unsigned char*)+0x28>
     568:	188b      	adds	r3, r1, r2
     56a:	2000      	movs	r0, #0
     56c:	7158      	strb	r0, [r3, #5]
     56e:	60af      	str	r7, [r5, #8]
     570:	5988      	ldr	r0, [r1, r6]
     572:	3604      	adds	r6, #4
     574:	9002      	str	r0, [sp, #8]
     576:	9b02      	ldr	r3, [sp, #8]
     578:	4433      	add	r3, r6
     57a:	429e      	cmp	r6, r3
     57c:	d209      	bcs.n	592 <rosserial_msgs::TopicInfo::deserialize(unsigned char*)+0x5e>
     57e:	4630      	mov	r0, r6
     580:	3209      	adds	r2, #9
     582:	440a      	add	r2, r1
     584:	f812 4f01 	ldrb.w	r4, [r2, #1]!
     588:	3001      	adds	r0, #1
     58a:	4298      	cmp	r0, r3
     58c:	f802 4c01 	strb.w	r4, [r2, #-1]
     590:	d3f8      	bcc.n	584 <rosserial_msgs::TopicInfo::deserialize(unsigned char*)+0x50>
     592:	3e01      	subs	r6, #1
     594:	440e      	add	r6, r1
     596:	18ca      	adds	r2, r1, r3
     598:	2000      	movs	r0, #0
     59a:	f802 0c01 	strb.w	r0, [r2, #-1]
     59e:	60ee      	str	r6, [r5, #12]
     5a0:	6810      	ldr	r0, [r2, #0]
     5a2:	1d1e      	adds	r6, r3, #4
     5a4:	9003      	str	r0, [sp, #12]
     5a6:	9803      	ldr	r0, [sp, #12]
     5a8:	4430      	add	r0, r6
     5aa:	4286      	cmp	r6, r0
     5ac:	d209      	bcs.n	5c2 <rosserial_msgs::TopicInfo::deserialize(unsigned char*)+0x8e>
     5ae:	4632      	mov	r2, r6
     5b0:	3303      	adds	r3, #3
     5b2:	440b      	add	r3, r1
     5b4:	f813 4f01 	ldrb.w	r4, [r3, #1]!
     5b8:	3201      	adds	r2, #1
     5ba:	4282      	cmp	r2, r0
     5bc:	f803 4c01 	strb.w	r4, [r3, #-1]
     5c0:	d3f8      	bcc.n	5b4 <rosserial_msgs::TopicInfo::deserialize(unsigned char*)+0x80>
     5c2:	3e01      	subs	r6, #1
     5c4:	180c      	adds	r4, r1, r0
     5c6:	440e      	add	r6, r1
     5c8:	2300      	movs	r3, #0
     5ca:	f804 3c01 	strb.w	r3, [r4, #-1]
     5ce:	612e      	str	r6, [r5, #16]
     5d0:	78a3      	ldrb	r3, [r4, #2]
     5d2:	7866      	ldrb	r6, [r4, #1]
     5d4:	5c0a      	ldrb	r2, [r1, r0]
     5d6:	041b      	lsls	r3, r3, #16
     5d8:	78e1      	ldrb	r1, [r4, #3]
     5da:	ea43 2306 	orr.w	r3, r3, r6, lsl #8
     5de:	4313      	orrs	r3, r2
     5e0:	ea43 6301 	orr.w	r3, r3, r1, lsl #24
     5e4:	3004      	adds	r0, #4
     5e6:	616b      	str	r3, [r5, #20]
     5e8:	b004      	add	sp, #16
     5ea:	bcf0      	pop	{r4, r5, r6, r7}
     5ec:	4770      	bx	lr
     5ee:	bf00      	nop

000005f0 <rosserial_msgs::RequestParamResponse::deserialize(unsigned char*)>:
     5f0:	e92d 41f0 	stmdb	sp!, {r4, r5, r6, r7, r8, lr}
     5f4:	7903      	ldrb	r3, [r0, #4]
     5f6:	780c      	ldrb	r4, [r1, #0]
     5f8:	b082      	sub	sp, #8
     5fa:	42a3      	cmp	r3, r4
     5fc:	4605      	mov	r5, r0
     5fe:	460e      	mov	r6, r1
     600:	f0c0 8082 	bcc.w	708 <rosserial_msgs::RequestParamResponse::deserialize(unsigned char*)+0x118>
     604:	712c      	strb	r4, [r5, #4]
     606:	2c00      	cmp	r4, #0
     608:	f000 8087 	beq.w	71a <rosserial_msgs::RequestParamResponse::deserialize(unsigned char*)+0x12a>
     60c:	4633      	mov	r3, r6
     60e:	f105 0708 	add.w	r7, r5, #8
     612:	2000      	movs	r0, #0
     614:	2404      	movs	r4, #4
     616:	799a      	ldrb	r2, [r3, #6]
     618:	f893 e005 	ldrb.w	lr, [r3, #5]
     61c:	7919      	ldrb	r1, [r3, #4]
     61e:	0412      	lsls	r2, r2, #16
     620:	ea42 220e 	orr.w	r2, r2, lr, lsl #8
     624:	f893 e007 	ldrb.w	lr, [r3, #7]
     628:	430a      	orrs	r2, r1
     62a:	ea42 620e 	orr.w	r2, r2, lr, lsl #24
     62e:	60aa      	str	r2, [r5, #8]
     630:	f8d7 e000 	ldr.w	lr, [r7]
     634:	68ea      	ldr	r2, [r5, #12]
     636:	1c41      	adds	r1, r0, #1
     638:	f842 e020 	str.w	lr, [r2, r0, lsl #2]
     63c:	792a      	ldrb	r2, [r5, #4]
     63e:	b2c8      	uxtb	r0, r1
     640:	4282      	cmp	r2, r0
     642:	f104 0404 	add.w	r4, r4, #4
     646:	f103 0304 	add.w	r3, r3, #4
     64a:	d8e4      	bhi.n	616 <rosserial_msgs::RequestParamResponse::deserialize(unsigned char*)+0x26>
     64c:	4623      	mov	r3, r4
     64e:	f816 8003 	ldrb.w	r8, [r6, r3]
     652:	7c2b      	ldrb	r3, [r5, #16]
     654:	1d27      	adds	r7, r4, #4
     656:	4543      	cmp	r3, r8
     658:	463c      	mov	r4, r7
     65a:	d366      	bcc.n	72a <rosserial_msgs::RequestParamResponse::deserialize(unsigned char*)+0x13a>
     65c:	f885 8010 	strb.w	r8, [r5, #16]
     660:	f1b8 0f00 	cmp.w	r8, #0
     664:	d01f      	beq.n	6a6 <rosserial_msgs::RequestParamResponse::deserialize(unsigned char*)+0xb6>
     666:	1933      	adds	r3, r6, r4
     668:	f105 0e14 	add.w	lr, r5, #20
     66c:	2000      	movs	r0, #0
     66e:	f1c6 0704 	rsb	r7, r6, #4
     672:	789a      	ldrb	r2, [r3, #2]
     674:	785c      	ldrb	r4, [r3, #1]
     676:	7819      	ldrb	r1, [r3, #0]
     678:	0412      	lsls	r2, r2, #16
     67a:	ea42 2204 	orr.w	r2, r2, r4, lsl #8
     67e:	78dc      	ldrb	r4, [r3, #3]
     680:	430a      	orrs	r2, r1
     682:	ea42 6204 	orr.w	r2, r2, r4, lsl #24
     686:	616a      	str	r2, [r5, #20]
     688:	f8de 4000 	ldr.w	r4, [lr]
     68c:	69aa      	ldr	r2, [r5, #24]
     68e:	1c41      	adds	r1, r0, #1
     690:	f842 4020 	str.w	r4, [r2, r0, lsl #2]
     694:	7c2a      	ldrb	r2, [r5, #16]
     696:	b2c8      	uxtb	r0, r1
     698:	4282      	cmp	r2, r0
     69a:	eb07 0403 	add.w	r4, r7, r3
     69e:	f103 0304 	add.w	r3, r3, #4
     6a2:	d8e6      	bhi.n	672 <rosserial_msgs::RequestParamResponse::deserialize(unsigned char*)+0x82>
     6a4:	4627      	mov	r7, r4
     6a6:	5df7      	ldrb	r7, [r6, r7]
     6a8:	7f2b      	ldrb	r3, [r5, #28]
     6aa:	42bb      	cmp	r3, r7
     6ac:	d344      	bcc.n	738 <rosserial_msgs::RequestParamResponse::deserialize(unsigned char*)+0x148>
     6ae:	1d23      	adds	r3, r4, #4
     6b0:	772f      	strb	r7, [r5, #28]
     6b2:	b32f      	cbz	r7, 700 <rosserial_msgs::RequestParamResponse::deserialize(unsigned char*)+0x110>
     6b4:	2700      	movs	r7, #0
     6b6:	46bc      	mov	r12, r7
     6b8:	f105 0e20 	add.w	lr, r5, #32
     6bc:	58f0      	ldr	r0, [r6, r3]
     6be:	1d1c      	adds	r4, r3, #4
     6c0:	9001      	str	r0, [sp, #4]
     6c2:	9801      	ldr	r0, [sp, #4]
     6c4:	4420      	add	r0, r4
     6c6:	4284      	cmp	r4, r0
     6c8:	d209      	bcs.n	6de <rosserial_msgs::RequestParamResponse::deserialize(unsigned char*)+0xee>
     6ca:	4622      	mov	r2, r4
     6cc:	3303      	adds	r3, #3
     6ce:	4433      	add	r3, r6
     6d0:	f813 1f01 	ldrb.w	r1, [r3, #1]!
     6d4:	3201      	adds	r2, #1
     6d6:	4282      	cmp	r2, r0
     6d8:	f803 1c01 	strb.w	r1, [r3, #-1]
     6dc:	d3f8      	bcc.n	6d0 <rosserial_msgs::RequestParamResponse::deserialize(unsigned char*)+0xe0>
     6de:	3c01      	subs	r4, #1
     6e0:	1833      	adds	r3, r6, r0
     6e2:	4434      	add	r4, r6
     6e4:	f803 cc01 	strb.w	r12, [r3, #-1]
     6e8:	622c      	str	r4, [r5, #32]
     6ea:	6a6a      	ldr	r2, [r5, #36]	; 0x24
     6ec:	f8de 1000 	ldr.w	r1, [lr]
     6f0:	1c7b      	adds	r3, r7, #1
     6f2:	f842 1027 	str.w	r1, [r2, r7, lsl #2]
     6f6:	7f2a      	ldrb	r2, [r5, #28]
     6f8:	b2df      	uxtb	r7, r3
     6fa:	42ba      	cmp	r2, r7
     6fc:	4603      	mov	r3, r0
     6fe:	d8dd      	bhi.n	6bc <rosserial_msgs::RequestParamResponse::deserialize(unsigned char*)+0xcc>
     700:	4618      	mov	r0, r3
     702:	b002      	add	sp, #8
     704:	e8bd 81f0 	ldmia.w	sp!, {r4, r5, r6, r7, r8, pc}
     708:	68c0      	ldr	r0, [r0, #12]
     70a:	00a1      	lsls	r1, r4, #2
     70c:	f003 fb84 	bl	3e18 <__wrap_realloc>
     710:	712c      	strb	r4, [r5, #4]
     712:	60e8      	str	r0, [r5, #12]
     714:	2c00      	cmp	r4, #0
     716:	f47f af79 	bne.w	60c <rosserial_msgs::RequestParamResponse::deserialize(unsigned char*)+0x1c>
     71a:	2304      	movs	r3, #4
     71c:	f816 8003 	ldrb.w	r8, [r6, r3]
     720:	7c2b      	ldrb	r3, [r5, #16]
     722:	2708      	movs	r7, #8
     724:	4543      	cmp	r3, r8
     726:	463c      	mov	r4, r7
     728:	d298      	bcs.n	65c <rosserial_msgs::RequestParamResponse::deserialize(unsigned char*)+0x6c>
     72a:	69a8      	ldr	r0, [r5, #24]
     72c:	ea4f 0188 	mov.w	r1, r8, lsl #2
     730:	f003 fb72 	bl	3e18 <__wrap_realloc>
     734:	61a8      	str	r0, [r5, #24]
     736:	e791      	b.n	65c <rosserial_msgs::RequestParamResponse::deserialize(unsigned char*)+0x6c>
     738:	6a68      	ldr	r0, [r5, #36]	; 0x24
     73a:	00b9      	lsls	r1, r7, #2
     73c:	f003 fb6c 	bl	3e18 <__wrap_realloc>
     740:	6268      	str	r0, [r5, #36]	; 0x24
     742:	e7b4      	b.n	6ae <rosserial_msgs::RequestParamResponse::deserialize(unsigned char*)+0xbe>

00000744 <std_msgs::MultiArrayLayout::serialize(unsigned char*) const>:
     744:	e92d 4ff0 	stmdb	sp!, {r4, r5, r6, r7, r8, r9, r10, r11, lr}
     748:	7903      	ldrb	r3, [r0, #4]
     74a:	2600      	movs	r6, #0
     74c:	700b      	strb	r3, [r1, #0]
     74e:	704e      	strb	r6, [r1, #1]
     750:	708e      	strb	r6, [r1, #2]
     752:	70ce      	strb	r6, [r1, #3]
     754:	7903      	ldrb	r3, [r0, #4]
     756:	b083      	sub	sp, #12
     758:	4683      	mov	r11, r0
     75a:	4689      	mov	r9, r1
     75c:	2b00      	cmp	r3, #0
     75e:	d059      	beq.n	814 <Heap_Size+0x14>
     760:	f8df a0c0 	ldr.w	r10, [pc, #192]	; 824 <Heap_Size+0x24>
     764:	f04f 0804 	mov.w	r8, #4
     768:	e02a      	b.n	7c0 <std_msgs::MultiArrayLayout::serialize(unsigned char*) const+0x7c>
     76a:	6860      	ldr	r0, [r4, #4]
     76c:	f007 fc53 	bl	8016 <strlen>
     770:	4607      	mov	r7, r0
     772:	ab02      	add	r3, sp, #8
     774:	f843 0d04 	str.w	r0, [r3, #-4]!
     778:	6818      	ldr	r0, [r3, #0]
     77a:	463a      	mov	r2, r7
     77c:	f849 0008 	str.w	r0, [r9, r8]
     780:	6861      	ldr	r1, [r4, #4]
     782:	1d28      	adds	r0, r5, #4
     784:	f006 fcd8 	bl	7138 <memcpy>
     788:	68a3      	ldr	r3, [r4, #8]
     78a:	19e9      	adds	r1, r5, r7
     78c:	710b      	strb	r3, [r1, #4]
     78e:	68a3      	ldr	r3, [r4, #8]
     790:	f107 000c 	add.w	r0, r7, #12
     794:	0a1b      	lsrs	r3, r3, #8
     796:	714b      	strb	r3, [r1, #5]
     798:	8963      	ldrh	r3, [r4, #10]
     79a:	718b      	strb	r3, [r1, #6]
     79c:	7ae3      	ldrb	r3, [r4, #11]
     79e:	71cb      	strb	r3, [r1, #7]
     7a0:	68e3      	ldr	r3, [r4, #12]
     7a2:	720b      	strb	r3, [r1, #8]
     7a4:	68e3      	ldr	r3, [r4, #12]
     7a6:	0a1b      	lsrs	r3, r3, #8
     7a8:	724b      	strb	r3, [r1, #9]
     7aa:	89e3      	ldrh	r3, [r4, #14]
     7ac:	728b      	strb	r3, [r1, #10]
     7ae:	7be3      	ldrb	r3, [r4, #15]
     7b0:	72cb      	strb	r3, [r1, #11]
     7b2:	3601      	adds	r6, #1
     7b4:	f89b 3004 	ldrb.w	r3, [r11, #4]
     7b8:	b2f6      	uxtb	r6, r6
     7ba:	42b3      	cmp	r3, r6
     7bc:	4480      	add	r8, r0
     7be:	d90d      	bls.n	7dc <std_msgs::MultiArrayLayout::serialize(unsigned char*) const+0x98>
     7c0:	f8db 4018 	ldr.w	r4, [r11, #24]
     7c4:	0133      	lsls	r3, r6, #4
     7c6:	58e2      	ldr	r2, [r4, r3]
     7c8:	441c      	add	r4, r3
     7ca:	6813      	ldr	r3, [r2, #0]
     7cc:	eb09 0508 	add.w	r5, r9, r8
     7d0:	4553      	cmp	r3, r10
     7d2:	d0ca      	beq.n	76a <std_msgs::MultiArrayLayout::serialize(unsigned char*) const+0x26>
     7d4:	4620      	mov	r0, r4
     7d6:	4629      	mov	r1, r5
     7d8:	4798      	blx	r3
     7da:	e7ea      	b.n	7b2 <std_msgs::MultiArrayLayout::serialize(unsigned char*) const+0x6e>
     7dc:	f108 0401 	add.w	r4, r8, #1
     7e0:	f108 0102 	add.w	r1, r8, #2
     7e4:	f108 0203 	add.w	r2, r8, #3
     7e8:	f108 0004 	add.w	r0, r8, #4
     7ec:	f8db 301c 	ldr.w	r3, [r11, #28]
     7f0:	f809 3008 	strb.w	r3, [r9, r8]
     7f4:	f8db 301c 	ldr.w	r3, [r11, #28]
     7f8:	0a1b      	lsrs	r3, r3, #8
     7fa:	f809 3004 	strb.w	r3, [r9, r4]
     7fe:	f8bb 301e 	ldrh.w	r3, [r11, #30]
     802:	f809 3001 	strb.w	r3, [r9, r1]
     806:	f89b 301f 	ldrb.w	r3, [r11, #31]
     80a:	f809 3002 	strb.w	r3, [r9, r2]
     80e:	b003      	add	sp, #12
     810:	e8bd 8ff0 	ldmia.w	sp!, {r4, r5, r6, r7, r8, r9, r10, r11, pc}
     814:	2008      	movs	r0, #8
     816:	2207      	movs	r2, #7
     818:	2106      	movs	r1, #6
     81a:	2405      	movs	r4, #5
     81c:	f04f 0804 	mov.w	r8, #4
     820:	e7e4      	b.n	7ec <std_msgs::MultiArrayLayout::serialize(unsigned char*) const+0xa8>
     822:	bf00      	nop
     824:	00000261 	.word	0x00000261

00000828 <std_msgs::MultiArrayLayout::deserialize(unsigned char*)>:
     828:	e92d 47f0 	stmdb	sp!, {r4, r5, r6, r7, r8, r9, r10, lr}
     82c:	7903      	ldrb	r3, [r0, #4]
     82e:	780d      	ldrb	r5, [r1, #0]
     830:	b082      	sub	sp, #8
     832:	42ab      	cmp	r3, r5
     834:	4604      	mov	r4, r0
     836:	460f      	mov	r7, r1
     838:	d378      	bcc.n	92c <std_msgs::MultiArrayLayout::deserialize(unsigned char*)+0x104>
     83a:	7125      	strb	r5, [r4, #4]
     83c:	2d00      	cmp	r5, #0
     83e:	d07d      	beq.n	93c <std_msgs::MultiArrayLayout::deserialize(unsigned char*)+0x114>
     840:	2500      	movs	r5, #0
     842:	46ac      	mov	r12, r5
     844:	f104 0608 	add.w	r6, r4, #8
     848:	f04f 0e04 	mov.w	lr, #4
     84c:	eb07 080e 	add.w	r8, r7, lr
     850:	f8d8 0000 	ldr.w	r0, [r8]
     854:	f108 0a03 	add.w	r10, r8, #3
     858:	9001      	str	r0, [sp, #4]
     85a:	9801      	ldr	r0, [sp, #4]
     85c:	f100 0904 	add.w	r9, r0, #4
     860:	f1b9 0f04 	cmp.w	r9, #4
     864:	d908      	bls.n	878 <std_msgs::MultiArrayLayout::deserialize(unsigned char*)+0x50>
     866:	4653      	mov	r3, r10
     868:	1cc1      	adds	r1, r0, #3
     86a:	4441      	add	r1, r8
     86c:	f813 2f01 	ldrb.w	r2, [r3, #1]!
     870:	428b      	cmp	r3, r1
     872:	f803 2c01 	strb.w	r2, [r3, #-1]
     876:	d1f9      	bne.n	86c <std_msgs::MultiArrayLayout::deserialize(unsigned char*)+0x44>
     878:	eb08 0200 	add.w	r2, r8, r0
     87c:	f882 c003 	strb.w	r12, [r2, #3]
     880:	f8c4 a00c 	str.w	r10, [r4, #12]
     884:	f818 3009 	ldrb.w	r3, [r8, r9]
     888:	f8d4 8018 	ldr.w	r8, [r4, #24]
     88c:	6123      	str	r3, [r4, #16]
     88e:	f892 9005 	ldrb.w	r9, [r2, #5]
     892:	0129      	lsls	r1, r5, #4
     894:	ea43 2309 	orr.w	r3, r3, r9, lsl #8
     898:	6123      	str	r3, [r4, #16]
     89a:	f892 9006 	ldrb.w	r9, [r2, #6]
     89e:	300c      	adds	r0, #12
     8a0:	ea43 4309 	orr.w	r3, r3, r9, lsl #16
     8a4:	6123      	str	r3, [r4, #16]
     8a6:	f892 9007 	ldrb.w	r9, [r2, #7]
     8aa:	4486      	add	lr, r0
     8ac:	ea43 6309 	orr.w	r3, r3, r9, lsl #24
     8b0:	6123      	str	r3, [r4, #16]
     8b2:	7a13      	ldrb	r3, [r2, #8]
     8b4:	eb08 0001 	add.w	r0, r8, r1
     8b8:	6163      	str	r3, [r4, #20]
     8ba:	f892 9009 	ldrb.w	r9, [r2, #9]
     8be:	3501      	adds	r5, #1
     8c0:	ea43 2309 	orr.w	r3, r3, r9, lsl #8
     8c4:	6163      	str	r3, [r4, #20]
     8c6:	f892 900a 	ldrb.w	r9, [r2, #10]
     8ca:	b2ed      	uxtb	r5, r5
     8cc:	ea43 4309 	orr.w	r3, r3, r9, lsl #16
     8d0:	6163      	str	r3, [r4, #20]
     8d2:	7ad2      	ldrb	r2, [r2, #11]
     8d4:	ea43 6302 	orr.w	r3, r3, r2, lsl #24
     8d8:	6163      	str	r3, [r4, #20]
     8da:	68f3      	ldr	r3, [r6, #12]
     8dc:	f8d6 a000 	ldr.w	r10, [r6]
     8e0:	f8d6 9004 	ldr.w	r9, [r6, #4]
     8e4:	68b2      	ldr	r2, [r6, #8]
     8e6:	f848 a001 	str.w	r10, [r8, r1]
     8ea:	f8c0 9004 	str.w	r9, [r0, #4]
     8ee:	6082      	str	r2, [r0, #8]
     8f0:	60c3      	str	r3, [r0, #12]
     8f2:	7923      	ldrb	r3, [r4, #4]
     8f4:	42ab      	cmp	r3, r5
     8f6:	d8a9      	bhi.n	84c <std_msgs::MultiArrayLayout::deserialize(unsigned char*)+0x24>
     8f8:	f10e 0501 	add.w	r5, lr, #1
     8fc:	f10e 0102 	add.w	r1, lr, #2
     900:	f10e 0203 	add.w	r2, lr, #3
     904:	f10e 0004 	add.w	r0, lr, #4
     908:	f817 300e 	ldrb.w	r3, [r7, lr]
     90c:	61e3      	str	r3, [r4, #28]
     90e:	5d7d      	ldrb	r5, [r7, r5]
     910:	ea43 2305 	orr.w	r3, r3, r5, lsl #8
     914:	61e3      	str	r3, [r4, #28]
     916:	5c79      	ldrb	r1, [r7, r1]
     918:	ea43 4301 	orr.w	r3, r3, r1, lsl #16
     91c:	61e3      	str	r3, [r4, #28]
     91e:	5cba      	ldrb	r2, [r7, r2]
     920:	ea43 6302 	orr.w	r3, r3, r2, lsl #24
     924:	61e3      	str	r3, [r4, #28]
     926:	b002      	add	sp, #8
     928:	e8bd 87f0 	ldmia.w	sp!, {r4, r5, r6, r7, r8, r9, r10, pc}
     92c:	6980      	ldr	r0, [r0, #24]
     92e:	0129      	lsls	r1, r5, #4
     930:	f003 fa72 	bl	3e18 <__wrap_realloc>
     934:	7125      	strb	r5, [r4, #4]
     936:	61a0      	str	r0, [r4, #24]
     938:	2d00      	cmp	r5, #0
     93a:	d181      	bne.n	840 <std_msgs::MultiArrayLayout::deserialize(unsigned char*)+0x18>
     93c:	2008      	movs	r0, #8
     93e:	2207      	movs	r2, #7
     940:	2106      	movs	r1, #6
     942:	2505      	movs	r5, #5
     944:	f04f 0e04 	mov.w	lr, #4
     948:	e7de      	b.n	908 <std_msgs::MultiArrayLayout::deserialize(unsigned char*)+0xe0>
     94a:	bf00      	nop

0000094c <std_msgs::Int16MultiArray::serialize(unsigned char*) const>:
     94c:	e92d 4ff0 	stmdb	sp!, {r4, r5, r6, r7, r8, r9, r10, r11, lr}
     950:	7a03      	ldrb	r3, [r0, #8]
     952:	2600      	movs	r6, #0
     954:	700b      	strb	r3, [r1, #0]
     956:	704e      	strb	r6, [r1, #1]
     958:	708e      	strb	r6, [r1, #2]
     95a:	70ce      	strb	r6, [r1, #3]
     95c:	7a03      	ldrb	r3, [r0, #8]
     95e:	b083      	sub	sp, #12
     960:	4680      	mov	r8, r0
     962:	4689      	mov	r9, r1
     964:	2b00      	cmp	r3, #0
     966:	f000 8084 	beq.w	a72 <std_msgs::Int16MultiArray::serialize(unsigned char*) const+0x126>
     96a:	f8df a120 	ldr.w	r10, [pc, #288]	; a8c <std_msgs::Int16MultiArray::serialize(unsigned char*) const+0x140>
     96e:	f04f 0b04 	mov.w	r11, #4
     972:	e02a      	b.n	9ca <std_msgs::Int16MultiArray::serialize(unsigned char*) const+0x7e>
     974:	6860      	ldr	r0, [r4, #4]
     976:	f007 fb4e 	bl	8016 <strlen>
     97a:	4607      	mov	r7, r0
     97c:	ab02      	add	r3, sp, #8
     97e:	f843 0d04 	str.w	r0, [r3, #-4]!
     982:	6818      	ldr	r0, [r3, #0]
     984:	463a      	mov	r2, r7
     986:	f849 000b 	str.w	r0, [r9, r11]
     98a:	6861      	ldr	r1, [r4, #4]
     98c:	1d28      	adds	r0, r5, #4
     98e:	f006 fbd3 	bl	7138 <memcpy>
     992:	68a3      	ldr	r3, [r4, #8]
     994:	19e9      	adds	r1, r5, r7
     996:	710b      	strb	r3, [r1, #4]
     998:	68a3      	ldr	r3, [r4, #8]
     99a:	f107 000c 	add.w	r0, r7, #12
     99e:	0a1b      	lsrs	r3, r3, #8
     9a0:	714b      	strb	r3, [r1, #5]
     9a2:	8963      	ldrh	r3, [r4, #10]
     9a4:	718b      	strb	r3, [r1, #6]
     9a6:	7ae3      	ldrb	r3, [r4, #11]
     9a8:	71cb      	strb	r3, [r1, #7]
     9aa:	68e3      	ldr	r3, [r4, #12]
     9ac:	720b      	strb	r3, [r1, #8]
     9ae:	68e3      	ldr	r3, [r4, #12]
     9b0:	0a1b      	lsrs	r3, r3, #8
     9b2:	724b      	strb	r3, [r1, #9]
     9b4:	89e3      	ldrh	r3, [r4, #14]
     9b6:	728b      	strb	r3, [r1, #10]
     9b8:	7be3      	ldrb	r3, [r4, #15]
     9ba:	72cb      	strb	r3, [r1, #11]
     9bc:	3601      	adds	r6, #1
     9be:	f898 3008 	ldrb.w	r3, [r8, #8]
     9c2:	b2f6      	uxtb	r6, r6
     9c4:	42b3      	cmp	r3, r6
     9c6:	4483      	add	r11, r0
     9c8:	d90d      	bls.n	9e6 <std_msgs::Int16MultiArray::serialize(unsigned char*) const+0x9a>
     9ca:	f8d8 401c 	ldr.w	r4, [r8, #28]
     9ce:	0133      	lsls	r3, r6, #4
     9d0:	58e2      	ldr	r2, [r4, r3]
     9d2:	441c      	add	r4, r3
     9d4:	6813      	ldr	r3, [r2, #0]
     9d6:	eb09 050b 	add.w	r5, r9, r11
     9da:	4553      	cmp	r3, r10
     9dc:	d0ca      	beq.n	974 <std_msgs::Int16MultiArray::serialize(unsigned char*) const+0x28>
     9de:	4620      	mov	r0, r4
     9e0:	4629      	mov	r1, r5
     9e2:	4798      	blx	r3
     9e4:	e7ea      	b.n	9bc <std_msgs::Int16MultiArray::serialize(unsigned char*) const+0x70>
     9e6:	f10b 0104 	add.w	r1, r11, #4
     9ea:	1d08      	adds	r0, r1, #4
     9ec:	f10b 0605 	add.w	r6, r11, #5
     9f0:	f10b 0506 	add.w	r5, r11, #6
     9f4:	f10b 0407 	add.w	r4, r11, #7
     9f8:	f10b 0c01 	add.w	r12, r11, #1
     9fc:	f10b 0e02 	add.w	lr, r11, #2
     a00:	f10b 0703 	add.w	r7, r11, #3
     a04:	f8d8 2020 	ldr.w	r2, [r8, #32]
     a08:	2300      	movs	r3, #0
     a0a:	f809 200b 	strb.w	r2, [r9, r11]
     a0e:	f8d8 2020 	ldr.w	r2, [r8, #32]
     a12:	0a12      	lsrs	r2, r2, #8
     a14:	f809 200c 	strb.w	r2, [r9, r12]
     a18:	f8b8 2022 	ldrh.w	r2, [r8, #34]	; 0x22
     a1c:	f809 200e 	strb.w	r2, [r9, lr]
     a20:	f898 2023 	ldrb.w	r2, [r8, #35]	; 0x23
     a24:	f809 2007 	strb.w	r2, [r9, r7]
     a28:	f898 2024 	ldrb.w	r2, [r8, #36]	; 0x24
     a2c:	f809 2001 	strb.w	r2, [r9, r1]
     a30:	f809 3006 	strb.w	r3, [r9, r6]
     a34:	f809 3005 	strb.w	r3, [r9, r5]
     a38:	f809 3004 	strb.w	r3, [r9, r4]
     a3c:	f898 2024 	ldrb.w	r2, [r8, #36]	; 0x24
     a40:	b1a2      	cbz	r2, a6c <std_msgs::Int16MultiArray::serialize(unsigned char*) const+0x120>
     a42:	eb09 0500 	add.w	r5, r9, r0
     a46:	f8d8 2028 	ldr.w	r2, [r8, #40]	; 0x28
     a4a:	b2d9      	uxtb	r1, r3
     a4c:	f832 2011 	ldrh.w	r2, [r2, r1, lsl #1]
     a50:	eb09 0100 	add.w	r1, r9, r0
     a54:	0a14      	lsrs	r4, r2, #8
     a56:	f805 2013 	strb.w	r2, [r5, r3, lsl #1]
     a5a:	704c      	strb	r4, [r1, #1]
     a5c:	3301      	adds	r3, #1
     a5e:	f898 1024 	ldrb.w	r1, [r8, #36]	; 0x24
     a62:	b2da      	uxtb	r2, r3
     a64:	4291      	cmp	r1, r2
     a66:	f100 0002 	add.w	r0, r0, #2
     a6a:	d8ec      	bhi.n	a46 <std_msgs::Int16MultiArray::serialize(unsigned char*) const+0xfa>
     a6c:	b003      	add	sp, #12
     a6e:	e8bd 8ff0 	ldmia.w	sp!, {r4, r5, r6, r7, r8, r9, r10, r11, pc}
     a72:	2108      	movs	r1, #8
     a74:	2707      	movs	r7, #7
     a76:	f04f 0e06 	mov.w	lr, #6
     a7a:	f04f 0c05 	mov.w	r12, #5
     a7e:	f04f 0b04 	mov.w	r11, #4
     a82:	240b      	movs	r4, #11
     a84:	200c      	movs	r0, #12
     a86:	250a      	movs	r5, #10
     a88:	2609      	movs	r6, #9
     a8a:	e7bb      	b.n	a04 <std_msgs::Int16MultiArray::serialize(unsigned char*) const+0xb8>
     a8c:	00000261 	.word	0x00000261

00000a90 <std_msgs::Float32MultiArray::serialize(unsigned char*) const>:
     a90:	e92d 4ff0 	stmdb	sp!, {r4, r5, r6, r7, r8, r9, r10, r11, lr}
     a94:	7a03      	ldrb	r3, [r0, #8]
     a96:	2600      	movs	r6, #0
     a98:	700b      	strb	r3, [r1, #0]
     a9a:	704e      	strb	r6, [r1, #1]
     a9c:	708e      	strb	r6, [r1, #2]
     a9e:	70ce      	strb	r6, [r1, #3]
     aa0:	7a03      	ldrb	r3, [r0, #8]
     aa2:	b083      	sub	sp, #12
     aa4:	4680      	mov	r8, r0
     aa6:	4689      	mov	r9, r1
     aa8:	2b00      	cmp	r3, #0
     aaa:	f000 8089 	beq.w	bc0 <std_msgs::Float32MultiArray::serialize(unsigned char*) const+0x130>
     aae:	f8df a12c 	ldr.w	r10, [pc, #300]	; bdc <std_msgs::Float32MultiArray::serialize(unsigned char*) const+0x14c>
     ab2:	f04f 0b04 	mov.w	r11, #4
     ab6:	e02a      	b.n	b0e <std_msgs::Float32MultiArray::serialize(unsigned char*) const+0x7e>
     ab8:	6860      	ldr	r0, [r4, #4]
     aba:	f007 faac 	bl	8016 <strlen>
     abe:	4607      	mov	r7, r0
     ac0:	ab02      	add	r3, sp, #8
     ac2:	f843 0d04 	str.w	r0, [r3, #-4]!
     ac6:	6818      	ldr	r0, [r3, #0]
     ac8:	463a      	mov	r2, r7
     aca:	f849 000b 	str.w	r0, [r9, r11]
     ace:	6861      	ldr	r1, [r4, #4]
     ad0:	1d28      	adds	r0, r5, #4
     ad2:	f006 fb31 	bl	7138 <memcpy>
     ad6:	68a3      	ldr	r3, [r4, #8]
     ad8:	19e9      	adds	r1, r5, r7
     ada:	710b      	strb	r3, [r1, #4]
     adc:	68a3      	ldr	r3, [r4, #8]
     ade:	f107 000c 	add.w	r0, r7, #12
     ae2:	0a1b      	lsrs	r3, r3, #8
     ae4:	714b      	strb	r3, [r1, #5]
     ae6:	8963      	ldrh	r3, [r4, #10]
     ae8:	718b      	strb	r3, [r1, #6]
     aea:	7ae3      	ldrb	r3, [r4, #11]
     aec:	71cb      	strb	r3, [r1, #7]
     aee:	68e3      	ldr	r3, [r4, #12]
     af0:	720b      	strb	r3, [r1, #8]
     af2:	68e3      	ldr	r3, [r4, #12]
     af4:	0a1b      	lsrs	r3, r3, #8
     af6:	724b      	strb	r3, [r1, #9]
     af8:	89e3      	ldrh	r3, [r4, #14]
     afa:	728b      	strb	r3, [r1, #10]
     afc:	7be3      	ldrb	r3, [r4, #15]
     afe:	72cb      	strb	r3, [r1, #11]
     b00:	3601      	adds	r6, #1
     b02:	f898 3008 	ldrb.w	r3, [r8, #8]
     b06:	b2f6      	uxtb	r6, r6
     b08:	42b3      	cmp	r3, r6
     b0a:	4483      	add	r11, r0
     b0c:	d90d      	bls.n	b2a <std_msgs::Float32MultiArray::serialize(unsigned char*) const+0x9a>
     b0e:	f8d8 401c 	ldr.w	r4, [r8, #28]
     b12:	0133      	lsls	r3, r6, #4
     b14:	58e2      	ldr	r2, [r4, r3]
     b16:	441c      	add	r4, r3
     b18:	6813      	ldr	r3, [r2, #0]
     b1a:	eb09 050b 	add.w	r5, r9, r11
     b1e:	4553      	cmp	r3, r10
     b20:	d0ca      	beq.n	ab8 <std_msgs::Float32MultiArray::serialize(unsigned char*) const+0x28>
     b22:	4620      	mov	r0, r4
     b24:	4629      	mov	r1, r5
     b26:	4798      	blx	r3
     b28:	e7ea      	b.n	b00 <std_msgs::Float32MultiArray::serialize(unsigned char*) const+0x70>
     b2a:	f10b 0204 	add.w	r2, r11, #4
     b2e:	1d10      	adds	r0, r2, #4
     b30:	f10b 0605 	add.w	r6, r11, #5
     b34:	f10b 0506 	add.w	r5, r11, #6
     b38:	f10b 0407 	add.w	r4, r11, #7
     b3c:	f10b 0c01 	add.w	r12, r11, #1
     b40:	f10b 0e02 	add.w	lr, r11, #2
     b44:	f10b 0703 	add.w	r7, r11, #3
     b48:	f8d8 3020 	ldr.w	r3, [r8, #32]
     b4c:	2100      	movs	r1, #0
     b4e:	f809 300b 	strb.w	r3, [r9, r11]
     b52:	f8d8 3020 	ldr.w	r3, [r8, #32]
     b56:	0a1b      	lsrs	r3, r3, #8
     b58:	f809 300c 	strb.w	r3, [r9, r12]
     b5c:	f8b8 3022 	ldrh.w	r3, [r8, #34]	; 0x22
     b60:	f809 300e 	strb.w	r3, [r9, lr]
     b64:	f898 3023 	ldrb.w	r3, [r8, #35]	; 0x23
     b68:	f809 3007 	strb.w	r3, [r9, r7]
     b6c:	f898 3024 	ldrb.w	r3, [r8, #36]	; 0x24
     b70:	f809 3002 	strb.w	r3, [r9, r2]
     b74:	f809 1006 	strb.w	r1, [r9, r6]
     b78:	f809 1005 	strb.w	r1, [r9, r5]
     b7c:	f809 1004 	strb.w	r1, [r9, r4]
     b80:	f898 3024 	ldrb.w	r3, [r8, #36]	; 0x24
     b84:	b1cb      	cbz	r3, bba <std_msgs::Float32MultiArray::serialize(unsigned char*) const+0x12a>
     b86:	4481      	add	r9, r0
     b88:	464b      	mov	r3, r9
     b8a:	f8d8 202c 	ldr.w	r2, [r8, #44]	; 0x2c
     b8e:	b2cc      	uxtb	r4, r1
     b90:	f852 2024 	ldr.w	r2, [r2, r4, lsl #2]
     b94:	1c4c      	adds	r4, r1, #1
     b96:	0e15      	lsrs	r5, r2, #24
     b98:	0a17      	lsrs	r7, r2, #8
     b9a:	0c16      	lsrs	r6, r2, #16
     b9c:	f809 2021 	strb.w	r2, [r9, r1, lsl #2]
     ba0:	705f      	strb	r7, [r3, #1]
     ba2:	709e      	strb	r6, [r3, #2]
     ba4:	70dd      	strb	r5, [r3, #3]
     ba6:	f898 5024 	ldrb.w	r5, [r8, #36]	; 0x24
     baa:	b2e2      	uxtb	r2, r4
     bac:	4295      	cmp	r5, r2
     bae:	f100 0004 	add.w	r0, r0, #4
     bb2:	f103 0304 	add.w	r3, r3, #4
     bb6:	4621      	mov	r1, r4
     bb8:	d8e7      	bhi.n	b8a <std_msgs::Float32MultiArray::serialize(unsigned char*) const+0xfa>
     bba:	b003      	add	sp, #12
     bbc:	e8bd 8ff0 	ldmia.w	sp!, {r4, r5, r6, r7, r8, r9, r10, r11, pc}
     bc0:	2208      	movs	r2, #8
     bc2:	2707      	movs	r7, #7
     bc4:	f04f 0e06 	mov.w	lr, #6
     bc8:	f04f 0c05 	mov.w	r12, #5
     bcc:	f04f 0b04 	mov.w	r11, #4
     bd0:	240b      	movs	r4, #11
     bd2:	200c      	movs	r0, #12
     bd4:	250a      	movs	r5, #10
     bd6:	2609      	movs	r6, #9
     bd8:	e7b6      	b.n	b48 <std_msgs::Float32MultiArray::serialize(unsigned char*) const+0xb8>
     bda:	bf00      	nop
     bdc:	00000261 	.word	0x00000261

00000be0 <std_msgs::Int16MultiArray::deserialize(unsigned char*)>:
     be0:	e92d 47f0 	stmdb	sp!, {r4, r5, r6, r7, r8, r9, r10, lr}
     be4:	7a03      	ldrb	r3, [r0, #8]
     be6:	780d      	ldrb	r5, [r1, #0]
     be8:	b082      	sub	sp, #8
     bea:	42ab      	cmp	r3, r5
     bec:	4604      	mov	r4, r0
     bee:	460f      	mov	r7, r1
     bf0:	f0c0 809d 	bcc.w	d2e <Stack_Size+0x12e>
     bf4:	7225      	strb	r5, [r4, #8]
     bf6:	2d00      	cmp	r5, #0
     bf8:	f000 80a2 	beq.w	d40 <Stack_Size+0x140>
     bfc:	2500      	movs	r5, #0
     bfe:	46ac      	mov	r12, r5
     c00:	f104 060c 	add.w	r6, r4, #12
     c04:	f04f 0e04 	mov.w	lr, #4
     c08:	eb07 080e 	add.w	r8, r7, lr
     c0c:	f8d8 0000 	ldr.w	r0, [r8]
     c10:	f108 0a03 	add.w	r10, r8, #3
     c14:	9001      	str	r0, [sp, #4]
     c16:	9801      	ldr	r0, [sp, #4]
     c18:	f100 0904 	add.w	r9, r0, #4
     c1c:	f1b9 0f04 	cmp.w	r9, #4
     c20:	d908      	bls.n	c34 <Stack_Size+0x34>
     c22:	4653      	mov	r3, r10
     c24:	1cc1      	adds	r1, r0, #3
     c26:	4441      	add	r1, r8
     c28:	f813 2f01 	ldrb.w	r2, [r3, #1]!
     c2c:	428b      	cmp	r3, r1
     c2e:	f803 2c01 	strb.w	r2, [r3, #-1]
     c32:	d1f9      	bne.n	c28 <Stack_Size+0x28>
     c34:	eb08 0200 	add.w	r2, r8, r0
     c38:	f882 c003 	strb.w	r12, [r2, #3]
     c3c:	f8c4 a010 	str.w	r10, [r4, #16]
     c40:	f818 3009 	ldrb.w	r3, [r8, r9]
     c44:	f8d4 801c 	ldr.w	r8, [r4, #28]
     c48:	6163      	str	r3, [r4, #20]
     c4a:	f892 9005 	ldrb.w	r9, [r2, #5]
     c4e:	0129      	lsls	r1, r5, #4
     c50:	ea43 2309 	orr.w	r3, r3, r9, lsl #8
     c54:	6163      	str	r3, [r4, #20]
     c56:	f892 9006 	ldrb.w	r9, [r2, #6]
     c5a:	300c      	adds	r0, #12
     c5c:	ea43 4309 	orr.w	r3, r3, r9, lsl #16
     c60:	6163      	str	r3, [r4, #20]
     c62:	f892 9007 	ldrb.w	r9, [r2, #7]
     c66:	4486      	add	lr, r0
     c68:	ea43 6309 	orr.w	r3, r3, r9, lsl #24
     c6c:	6163      	str	r3, [r4, #20]
     c6e:	7a13      	ldrb	r3, [r2, #8]
     c70:	eb08 0001 	add.w	r0, r8, r1
     c74:	61a3      	str	r3, [r4, #24]
     c76:	f892 9009 	ldrb.w	r9, [r2, #9]
     c7a:	3501      	adds	r5, #1
     c7c:	ea43 2309 	orr.w	r3, r3, r9, lsl #8
     c80:	61a3      	str	r3, [r4, #24]
     c82:	f892 900a 	ldrb.w	r9, [r2, #10]
     c86:	b2ed      	uxtb	r5, r5
     c88:	ea43 4309 	orr.w	r3, r3, r9, lsl #16
     c8c:	61a3      	str	r3, [r4, #24]
     c8e:	7ad2      	ldrb	r2, [r2, #11]
     c90:	ea43 6302 	orr.w	r3, r3, r2, lsl #24
     c94:	61a3      	str	r3, [r4, #24]
     c96:	68f3      	ldr	r3, [r6, #12]
     c98:	f8d6 a000 	ldr.w	r10, [r6]
     c9c:	f8d6 9004 	ldr.w	r9, [r6, #4]
     ca0:	68b2      	ldr	r2, [r6, #8]
     ca2:	f848 a001 	str.w	r10, [r8, r1]
     ca6:	f8c0 9004 	str.w	r9, [r0, #4]
     caa:	6082      	str	r2, [r0, #8]
     cac:	60c3      	str	r3, [r0, #12]
     cae:	7a23      	ldrb	r3, [r4, #8]
     cb0:	42ab      	cmp	r3, r5
     cb2:	d8a9      	bhi.n	c08 <Stack_Size+0x8>
     cb4:	f10e 0204 	add.w	r2, lr, #4
     cb8:	1d15      	adds	r5, r2, #4
     cba:	f10e 0601 	add.w	r6, lr, #1
     cbe:	f10e 0002 	add.w	r0, lr, #2
     cc2:	f10e 0103 	add.w	r1, lr, #3
     cc6:	f817 300e 	ldrb.w	r3, [r7, lr]
     cca:	f894 e024 	ldrb.w	lr, [r4, #36]	; 0x24
     cce:	6223      	str	r3, [r4, #32]
     cd0:	5dbe      	ldrb	r6, [r7, r6]
     cd2:	ea43 2306 	orr.w	r3, r3, r6, lsl #8
     cd6:	6223      	str	r3, [r4, #32]
     cd8:	5c38      	ldrb	r0, [r7, r0]
     cda:	ea43 4300 	orr.w	r3, r3, r0, lsl #16
     cde:	6223      	str	r3, [r4, #32]
     ce0:	5c79      	ldrb	r1, [r7, r1]
     ce2:	ea43 6301 	orr.w	r3, r3, r1, lsl #24
     ce6:	6223      	str	r3, [r4, #32]
     ce8:	5cbe      	ldrb	r6, [r7, r2]
     cea:	45b6      	cmp	lr, r6
     cec:	d330      	bcc.n	d50 <Stack_Size+0x150>
     cee:	f884 6024 	strb.w	r6, [r4, #36]	; 0x24
     cf2:	b1c6      	cbz	r6, d26 <Stack_Size+0x126>
     cf4:	197b      	adds	r3, r7, r5
     cf6:	f104 0626 	add.w	r6, r4, #38	; 0x26
     cfa:	f1c7 0702 	rsb	r7, r7, #2
     cfe:	2200      	movs	r2, #0
     d00:	7858      	ldrb	r0, [r3, #1]
     d02:	7819      	ldrb	r1, [r3, #0]
     d04:	6aa5      	ldr	r5, [r4, #40]	; 0x28
     d06:	ea41 2100 	orr.w	r1, r1, r0, lsl #8
     d0a:	84e1      	strh	r1, [r4, #38]	; 0x26
     d0c:	8831      	ldrh	r1, [r6, #0]
     d0e:	1c50      	adds	r0, r2, #1
     d10:	f825 1012 	strh.w	r1, [r5, r2, lsl #1]
     d14:	f894 1024 	ldrb.w	r1, [r4, #36]	; 0x24
     d18:	b2c2      	uxtb	r2, r0
     d1a:	4291      	cmp	r1, r2
     d1c:	eb07 0503 	add.w	r5, r7, r3
     d20:	f103 0302 	add.w	r3, r3, #2
     d24:	d8ec      	bhi.n	d00 <Stack_Size+0x100>
     d26:	4628      	mov	r0, r5
     d28:	b002      	add	sp, #8
     d2a:	e8bd 87f0 	ldmia.w	sp!, {r4, r5, r6, r7, r8, r9, r10, pc}
     d2e:	69c0      	ldr	r0, [r0, #28]
     d30:	0129      	lsls	r1, r5, #4
     d32:	f003 f871 	bl	3e18 <__wrap_realloc>
     d36:	7225      	strb	r5, [r4, #8]
     d38:	61e0      	str	r0, [r4, #28]
     d3a:	2d00      	cmp	r5, #0
     d3c:	f47f af5e 	bne.w	bfc <std_msgs::Int16MultiArray::deserialize(unsigned char*)+0x1c>
     d40:	2208      	movs	r2, #8
     d42:	2107      	movs	r1, #7
     d44:	2006      	movs	r0, #6
     d46:	2605      	movs	r6, #5
     d48:	f04f 0e04 	mov.w	lr, #4
     d4c:	250c      	movs	r5, #12
     d4e:	e7ba      	b.n	cc6 <Stack_Size+0xc6>
     d50:	6aa0      	ldr	r0, [r4, #40]	; 0x28
     d52:	0071      	lsls	r1, r6, #1
     d54:	f003 f860 	bl	3e18 <__wrap_realloc>
     d58:	62a0      	str	r0, [r4, #40]	; 0x28
     d5a:	e7c8      	b.n	cee <Stack_Size+0xee>

00000d5c <ros::Subscriber<std_msgs::Int16MultiArray>::callback(unsigned char*)>:
     d5c:	e92d 4ff0 	stmdb	sp!, {r4, r5, r6, r7, r8, r9, r10, r11, lr}
     d60:	7d03      	ldrb	r3, [r0, #20]
     d62:	780d      	ldrb	r5, [r1, #0]
     d64:	b083      	sub	sp, #12
     d66:	42ab      	cmp	r3, r5
     d68:	4604      	mov	r4, r0
     d6a:	4688      	mov	r8, r1
     d6c:	f100 090c 	add.w	r9, r0, #12
     d70:	f0c0 809b 	bcc.w	eaa <ros::Subscriber<std_msgs::Int16MultiArray>::callback(unsigned char*)+0x14e>
     d74:	7525      	strb	r5, [r4, #20]
     d76:	2d00      	cmp	r5, #0
     d78:	f000 80a0 	beq.w	ebc <ros::Subscriber<std_msgs::Int16MultiArray>::callback(unsigned char*)+0x160>
     d7c:	2500      	movs	r5, #0
     d7e:	46aa      	mov	r10, r5
     d80:	f104 0718 	add.w	r7, r4, #24
     d84:	f04f 0e04 	mov.w	lr, #4
     d88:	eb08 060e 	add.w	r6, r8, lr
     d8c:	6830      	ldr	r0, [r6, #0]
     d8e:	f106 0b03 	add.w	r11, r6, #3
     d92:	9001      	str	r0, [sp, #4]
     d94:	9801      	ldr	r0, [sp, #4]
     d96:	f100 0c04 	add.w	r12, r0, #4
     d9a:	f1bc 0f04 	cmp.w	r12, #4
     d9e:	d908      	bls.n	db2 <ros::Subscriber<std_msgs::Int16MultiArray>::callback(unsigned char*)+0x56>
     da0:	465b      	mov	r3, r11
     da2:	1cc1      	adds	r1, r0, #3
     da4:	4431      	add	r1, r6
     da6:	f813 2f01 	ldrb.w	r2, [r3, #1]!
     daa:	428b      	cmp	r3, r1
     dac:	f803 2c01 	strb.w	r2, [r3, #-1]
     db0:	d1f9      	bne.n	da6 <ros::Subscriber<std_msgs::Int16MultiArray>::callback(unsigned char*)+0x4a>
     db2:	1832      	adds	r2, r6, r0
     db4:	f882 a003 	strb.w	r10, [r2, #3]
     db8:	f8c4 b01c 	str.w	r11, [r4, #28]
     dbc:	f816 300c 	ldrb.w	r3, [r6, r12]
     dc0:	6aa6      	ldr	r6, [r4, #40]	; 0x28
     dc2:	6223      	str	r3, [r4, #32]
     dc4:	f892 c005 	ldrb.w	r12, [r2, #5]
     dc8:	0129      	lsls	r1, r5, #4
     dca:	ea43 230c 	orr.w	r3, r3, r12, lsl #8
     dce:	6223      	str	r3, [r4, #32]
     dd0:	f892 c006 	ldrb.w	r12, [r2, #6]
     dd4:	300c      	adds	r0, #12
     dd6:	ea43 430c 	orr.w	r3, r3, r12, lsl #16
     dda:	6223      	str	r3, [r4, #32]
     ddc:	f892 c007 	ldrb.w	r12, [r2, #7]
     de0:	4486      	add	lr, r0
     de2:	ea43 630c 	orr.w	r3, r3, r12, lsl #24
     de6:	6223      	str	r3, [r4, #32]
     de8:	7a13      	ldrb	r3, [r2, #8]
     dea:	1870      	adds	r0, r6, r1
     dec:	6263      	str	r3, [r4, #36]	; 0x24
     dee:	f892 c009 	ldrb.w	r12, [r2, #9]
     df2:	3501      	adds	r5, #1
     df4:	ea43 230c 	orr.w	r3, r3, r12, lsl #8
     df8:	6263      	str	r3, [r4, #36]	; 0x24
     dfa:	f892 c00a 	ldrb.w	r12, [r2, #10]
     dfe:	b2ed      	uxtb	r5, r5
     e00:	ea43 430c 	orr.w	r3, r3, r12, lsl #16
     e04:	6263      	str	r3, [r4, #36]	; 0x24
     e06:	7ad2      	ldrb	r2, [r2, #11]
     e08:	ea43 6302 	orr.w	r3, r3, r2, lsl #24
     e0c:	6263      	str	r3, [r4, #36]	; 0x24
     e0e:	68fb      	ldr	r3, [r7, #12]
     e10:	f8d7 b000 	ldr.w	r11, [r7]
     e14:	f8d7 c004 	ldr.w	r12, [r7, #4]
     e18:	68ba      	ldr	r2, [r7, #8]
     e1a:	f846 b001 	str.w	r11, [r6, r1]
     e1e:	f8c0 c004 	str.w	r12, [r0, #4]
     e22:	6082      	str	r2, [r0, #8]
     e24:	60c3      	str	r3, [r0, #12]
     e26:	7d23      	ldrb	r3, [r4, #20]
     e28:	42ab      	cmp	r3, r5
     e2a:	d8ad      	bhi.n	d88 <ros::Subscriber<std_msgs::Int16MultiArray>::callback(unsigned char*)+0x2c>
     e2c:	f10e 0204 	add.w	r2, lr, #4
     e30:	1d15      	adds	r5, r2, #4
     e32:	f10e 0601 	add.w	r6, lr, #1
     e36:	f10e 0002 	add.w	r0, lr, #2
     e3a:	f10e 0103 	add.w	r1, lr, #3
     e3e:	f818 300e 	ldrb.w	r3, [r8, lr]
     e42:	f894 7030 	ldrb.w	r7, [r4, #48]	; 0x30
     e46:	62e3      	str	r3, [r4, #44]	; 0x2c
     e48:	f818 6006 	ldrb.w	r6, [r8, r6]
     e4c:	ea43 2306 	orr.w	r3, r3, r6, lsl #8
     e50:	62e3      	str	r3, [r4, #44]	; 0x2c
     e52:	f818 0000 	ldrb.w	r0, [r8, r0]
     e56:	ea43 4300 	orr.w	r3, r3, r0, lsl #16
     e5a:	62e3      	str	r3, [r4, #44]	; 0x2c
     e5c:	f818 1001 	ldrb.w	r1, [r8, r1]
     e60:	ea43 6301 	orr.w	r3, r3, r1, lsl #24
     e64:	62e3      	str	r3, [r4, #44]	; 0x2c
     e66:	f818 6002 	ldrb.w	r6, [r8, r2]
     e6a:	42b7      	cmp	r7, r6
     e6c:	d32e      	bcc.n	ecc <ros::Subscriber<std_msgs::Int16MultiArray>::callback(unsigned char*)+0x170>
     e6e:	f884 6030 	strb.w	r6, [r4, #48]	; 0x30
     e72:	b1a6      	cbz	r6, e9e <ros::Subscriber<std_msgs::Int16MultiArray>::callback(unsigned char*)+0x142>
     e74:	44a8      	add	r8, r5
     e76:	2300      	movs	r3, #0
     e78:	f104 0532 	add.w	r5, r4, #50	; 0x32
     e7c:	f898 1001 	ldrb.w	r1, [r8, #1]
     e80:	f818 2b02 	ldrb.w	r2, [r8], #2
     e84:	6b60      	ldr	r0, [r4, #52]	; 0x34
     e86:	ea42 2201 	orr.w	r2, r2, r1, lsl #8
     e8a:	8662      	strh	r2, [r4, #50]	; 0x32
     e8c:	882a      	ldrh	r2, [r5, #0]
     e8e:	1c59      	adds	r1, r3, #1
     e90:	f820 2013 	strh.w	r2, [r0, r3, lsl #1]
     e94:	f894 2030 	ldrb.w	r2, [r4, #48]	; 0x30
     e98:	b2cb      	uxtb	r3, r1
     e9a:	429a      	cmp	r2, r3
     e9c:	d8ee      	bhi.n	e7c <ros::Subscriber<std_msgs::Int16MultiArray>::callback(unsigned char*)+0x120>
     e9e:	4648      	mov	r0, r9
     ea0:	6ba3      	ldr	r3, [r4, #56]	; 0x38
     ea2:	b003      	add	sp, #12
     ea4:	e8bd 4ff0 	ldmia.w	sp!, {r4, r5, r6, r7, r8, r9, r10, r11, lr}
     ea8:	4718      	bx	r3
     eaa:	6a80      	ldr	r0, [r0, #40]	; 0x28
     eac:	0129      	lsls	r1, r5, #4
     eae:	f002 ffb3 	bl	3e18 <__wrap_realloc>
     eb2:	7525      	strb	r5, [r4, #20]
     eb4:	62a0      	str	r0, [r4, #40]	; 0x28
     eb6:	2d00      	cmp	r5, #0
     eb8:	f47f af60 	bne.w	d7c <ros::Subscriber<std_msgs::Int16MultiArray>::callback(unsigned char*)+0x20>
     ebc:	2208      	movs	r2, #8
     ebe:	2107      	movs	r1, #7
     ec0:	2006      	movs	r0, #6
     ec2:	2605      	movs	r6, #5
     ec4:	f04f 0e04 	mov.w	lr, #4
     ec8:	250c      	movs	r5, #12
     eca:	e7b8      	b.n	e3e <ros::Subscriber<std_msgs::Int16MultiArray>::callback(unsigned char*)+0xe2>
     ecc:	6b60      	ldr	r0, [r4, #52]	; 0x34
     ece:	0071      	lsls	r1, r6, #1
     ed0:	f002 ffa2 	bl	3e18 <__wrap_realloc>
     ed4:	6360      	str	r0, [r4, #52]	; 0x34
     ed6:	e7ca      	b.n	e6e <ros::Subscriber<std_msgs::Int16MultiArray>::callback(unsigned char*)+0x112>

00000ed8 <std_msgs::Float32MultiArray::deserialize(unsigned char*)>:
     ed8:	e92d 47f0 	stmdb	sp!, {r4, r5, r6, r7, r8, r9, r10, lr}
     edc:	7a03      	ldrb	r3, [r0, #8]
     ede:	780d      	ldrb	r5, [r1, #0]
     ee0:	b082      	sub	sp, #8
     ee2:	42ab      	cmp	r3, r5
     ee4:	4604      	mov	r4, r0
     ee6:	460f      	mov	r7, r1
     ee8:	f0c0 80a3 	bcc.w	1032 <std_msgs::Float32MultiArray::deserialize(unsigned char*)+0x15a>
     eec:	7225      	strb	r5, [r4, #8]
     eee:	2d00      	cmp	r5, #0
     ef0:	f000 80a8 	beq.w	1044 <std_msgs::Float32MultiArray::deserialize(unsigned char*)+0x16c>
     ef4:	2500      	movs	r5, #0
     ef6:	46ac      	mov	r12, r5
     ef8:	f104 060c 	add.w	r6, r4, #12
     efc:	f04f 0e04 	mov.w	lr, #4
     f00:	eb07 080e 	add.w	r8, r7, lr
     f04:	f8d8 0000 	ldr.w	r0, [r8]
     f08:	f108 0a03 	add.w	r10, r8, #3
     f0c:	9001      	str	r0, [sp, #4]
     f0e:	9801      	ldr	r0, [sp, #4]
     f10:	f100 0904 	add.w	r9, r0, #4
     f14:	f1b9 0f04 	cmp.w	r9, #4
     f18:	d908      	bls.n	f2c <std_msgs::Float32MultiArray::deserialize(unsigned char*)+0x54>
     f1a:	4653      	mov	r3, r10
     f1c:	1cc1      	adds	r1, r0, #3
     f1e:	4441      	add	r1, r8
     f20:	f813 2f01 	ldrb.w	r2, [r3, #1]!
     f24:	428b      	cmp	r3, r1
     f26:	f803 2c01 	strb.w	r2, [r3, #-1]
     f2a:	d1f9      	bne.n	f20 <std_msgs::Float32MultiArray::deserialize(unsigned char*)+0x48>
     f2c:	eb08 0200 	add.w	r2, r8, r0
     f30:	f882 c003 	strb.w	r12, [r2, #3]
     f34:	f8c4 a010 	str.w	r10, [r4, #16]
     f38:	f818 3009 	ldrb.w	r3, [r8, r9]
     f3c:	f8d4 801c 	ldr.w	r8, [r4, #28]
     f40:	6163      	str	r3, [r4, #20]
     f42:	f892 9005 	ldrb.w	r9, [r2, #5]
     f46:	0129      	lsls	r1, r5, #4
     f48:	ea43 2309 	orr.w	r3, r3, r9, lsl #8
     f4c:	6163      	str	r3, [r4, #20]
     f4e:	f892 9006 	ldrb.w	r9, [r2, #6]
     f52:	300c      	adds	r0, #12
     f54:	ea43 4309 	orr.w	r3, r3, r9, lsl #16
     f58:	6163      	str	r3, [r4, #20]
     f5a:	f892 9007 	ldrb.w	r9, [r2, #7]
     f5e:	4486      	add	lr, r0
     f60:	ea43 6309 	orr.w	r3, r3, r9, lsl #24
     f64:	6163      	str	r3, [r4, #20]
     f66:	7a13      	ldrb	r3, [r2, #8]
     f68:	eb08 0001 	add.w	r0, r8, r1
     f6c:	61a3      	str	r3, [r4, #24]
     f6e:	f892 9009 	ldrb.w	r9, [r2, #9]
     f72:	3501      	adds	r5, #1
     f74:	ea43 2309 	orr.w	r3, r3, r9, lsl #8
     f78:	61a3      	str	r3, [r4, #24]
     f7a:	f892 900a 	ldrb.w	r9, [r2, #10]
     f7e:	b2ed      	uxtb	r5, r5
     f80:	ea43 4309 	orr.w	r3, r3, r9, lsl #16
     f84:	61a3      	str	r3, [r4, #24]
     f86:	7ad2      	ldrb	r2, [r2, #11]
     f88:	ea43 6302 	orr.w	r3, r3, r2, lsl #24
     f8c:	61a3      	str	r3, [r4, #24]
     f8e:	68f3      	ldr	r3, [r6, #12]
     f90:	f8d6 a000 	ldr.w	r10, [r6]
     f94:	f8d6 9004 	ldr.w	r9, [r6, #4]
     f98:	68b2      	ldr	r2, [r6, #8]
     f9a:	f848 a001 	str.w	r10, [r8, r1]
     f9e:	f8c0 9004 	str.w	r9, [r0, #4]
     fa2:	6082      	str	r2, [r0, #8]
     fa4:	60c3      	str	r3, [r0, #12]
     fa6:	7a23      	ldrb	r3, [r4, #8]
     fa8:	42ab      	cmp	r3, r5
     faa:	d8a9      	bhi.n	f00 <std_msgs::Float32MultiArray::deserialize(unsigned char*)+0x28>
     fac:	f10e 0204 	add.w	r2, lr, #4
     fb0:	1d16      	adds	r6, r2, #4
     fb2:	f10e 0501 	add.w	r5, lr, #1
     fb6:	f10e 0002 	add.w	r0, lr, #2
     fba:	f10e 0103 	add.w	r1, lr, #3
     fbe:	f817 300e 	ldrb.w	r3, [r7, lr]
     fc2:	f894 e024 	ldrb.w	lr, [r4, #36]	; 0x24
     fc6:	6223      	str	r3, [r4, #32]
     fc8:	5d7d      	ldrb	r5, [r7, r5]
     fca:	ea43 2305 	orr.w	r3, r3, r5, lsl #8
     fce:	6223      	str	r3, [r4, #32]
     fd0:	5c38      	ldrb	r0, [r7, r0]
     fd2:	ea43 4300 	orr.w	r3, r3, r0, lsl #16
     fd6:	6223      	str	r3, [r4, #32]
     fd8:	5c79      	ldrb	r1, [r7, r1]
     fda:	ea43 6301 	orr.w	r3, r3, r1, lsl #24
     fde:	6223      	str	r3, [r4, #32]
     fe0:	5cbd      	ldrb	r5, [r7, r2]
     fe2:	45ae      	cmp	lr, r5
     fe4:	d336      	bcc.n	1054 <std_msgs::Float32MultiArray::deserialize(unsigned char*)+0x17c>
     fe6:	f884 5024 	strb.w	r5, [r4, #36]	; 0x24
     fea:	b1f5      	cbz	r5, 102a <std_msgs::Float32MultiArray::deserialize(unsigned char*)+0x152>
     fec:	19bb      	adds	r3, r7, r6
     fee:	f104 0528 	add.w	r5, r4, #40	; 0x28
     ff2:	f1c7 0704 	rsb	r7, r7, #4
     ff6:	2000      	movs	r0, #0
     ff8:	789a      	ldrb	r2, [r3, #2]
     ffa:	785e      	ldrb	r6, [r3, #1]
     ffc:	7819      	ldrb	r1, [r3, #0]
     ffe:	0412      	lsls	r2, r2, #16
    1000:	ea42 2206 	orr.w	r2, r2, r6, lsl #8
    1004:	78de      	ldrb	r6, [r3, #3]
    1006:	430a      	orrs	r2, r1
    1008:	ea42 6206 	orr.w	r2, r2, r6, lsl #24
    100c:	62a2      	str	r2, [r4, #40]	; 0x28
    100e:	682e      	ldr	r6, [r5, #0]
    1010:	6ae2      	ldr	r2, [r4, #44]	; 0x2c
    1012:	1c41      	adds	r1, r0, #1
    1014:	f842 6020 	str.w	r6, [r2, r0, lsl #2]
    1018:	f894 2024 	ldrb.w	r2, [r4, #36]	; 0x24
    101c:	b2c8      	uxtb	r0, r1
    101e:	4282      	cmp	r2, r0
    1020:	eb07 0603 	add.w	r6, r7, r3
    1024:	f103 0304 	add.w	r3, r3, #4
    1028:	d8e6      	bhi.n	ff8 <std_msgs::Float32MultiArray::deserialize(unsigned char*)+0x120>
    102a:	4630      	mov	r0, r6
    102c:	b002      	add	sp, #8
    102e:	e8bd 87f0 	ldmia.w	sp!, {r4, r5, r6, r7, r8, r9, r10, pc}
    1032:	69c0      	ldr	r0, [r0, #28]
    1034:	0129      	lsls	r1, r5, #4
    1036:	f002 feef 	bl	3e18 <__wrap_realloc>
    103a:	7225      	strb	r5, [r4, #8]
    103c:	61e0      	str	r0, [r4, #28]
    103e:	2d00      	cmp	r5, #0
    1040:	f47f af58 	bne.w	ef4 <std_msgs::Float32MultiArray::deserialize(unsigned char*)+0x1c>
    1044:	2208      	movs	r2, #8
    1046:	2107      	movs	r1, #7
    1048:	2006      	movs	r0, #6
    104a:	2505      	movs	r5, #5
    104c:	f04f 0e04 	mov.w	lr, #4
    1050:	260c      	movs	r6, #12
    1052:	e7b4      	b.n	fbe <std_msgs::Float32MultiArray::deserialize(unsigned char*)+0xe6>
    1054:	6ae0      	ldr	r0, [r4, #44]	; 0x2c
    1056:	00a9      	lsls	r1, r5, #2
    1058:	f002 fede 	bl	3e18 <__wrap_realloc>
    105c:	62e0      	str	r0, [r4, #44]	; 0x2c
    105e:	e7c2      	b.n	fe6 <std_msgs::Float32MultiArray::deserialize(unsigned char*)+0x10e>

00001060 <ros::NodeHandle_<MbedHardware, 25, 25, 512, 512>::publish(int, ros::Msg const*)>:
    1060:	e92d 47f0 	stmdb	sp!, {r4, r5, r6, r7, r8, r9, r10, lr}
    1064:	2963      	cmp	r1, #99	; 0x63
    1066:	b084      	sub	sp, #16
    1068:	460f      	mov	r7, r1
    106a:	4604      	mov	r4, r0
    106c:	dd03      	ble.n	1076 <ros::NodeHandle_<MbedHardware, 25, 25, 512, 512>::publish(int, ros::Msg const*)+0x16>
    106e:	f890 55fc 	ldrb.w	r5, [r0, #1532]	; 0x5fc
    1072:	2d00      	cmp	r5, #0
    1074:	d04a      	beq.n	110c <ros::NodeHandle_<MbedHardware, 25, 25, 512, 512>::publish(int, ros::Msg const*)+0xac>
    1076:	6813      	ldr	r3, [r2, #0]
    1078:	4610      	mov	r0, r2
    107a:	681b      	ldr	r3, [r3, #0]
    107c:	f204 3127 	addw	r1, r4, #807	; 0x327
    1080:	4798      	blx	r3
    1082:	b285      	uxth	r5, r0
    1084:	b2c2      	uxtb	r2, r0
    1086:	ea4f 2c15 	mov.w	r12, r5, lsr #8
    108a:	eb0c 0e02 	add.w	lr, r12, r2
    108e:	ea6f 0e0e 	mvn.w	lr, lr
    1092:	b2f9      	uxtb	r1, r7
    1094:	f204 3625 	addw	r6, r4, #805	; 0x325
    1098:	f205 3026 	addw	r0, r5, #806	; 0x326
    109c:	f04f 09ff 	mov.w	r9, #255	; 0xff
    10a0:	f04f 08fe 	mov.w	r8, #254	; 0xfe
    10a4:	f347 2707 	sbfx	r7, r7, #8, #8
    10a8:	f884 2322 	strb.w	r2, [r4, #802]	; 0x322
    10ac:	4633      	mov	r3, r6
    10ae:	f884 e324 	strb.w	lr, [r4, #804]	; 0x324
    10b2:	f884 c323 	strb.w	r12, [r4, #803]	; 0x323
    10b6:	4420      	add	r0, r4
    10b8:	f884 9320 	strb.w	r9, [r4, #800]	; 0x320
    10bc:	f884 8321 	strb.w	r8, [r4, #801]	; 0x321
    10c0:	f884 1325 	strb.w	r1, [r4, #805]	; 0x325
    10c4:	f884 7326 	strb.w	r7, [r4, #806]	; 0x326
    10c8:	2200      	movs	r2, #0
    10ca:	e001      	b.n	10d0 <ros::NodeHandle_<MbedHardware, 25, 25, 512, 512>::publish(int, ros::Msg const*)+0x70>
    10cc:	f813 1f01 	ldrb.w	r1, [r3, #1]!
    10d0:	4283      	cmp	r3, r0
    10d2:	440a      	add	r2, r1
    10d4:	d1fa      	bne.n	10cc <ros::NodeHandle_<MbedHardware, 25, 25, 512, 512>::publish(int, ros::Msg const*)+0x6c>
    10d6:	43d2      	mvns	r2, r2
    10d8:	1deb      	adds	r3, r5, #7
    10da:	3508      	adds	r5, #8
    10dc:	b29b      	uxth	r3, r3
    10de:	b2ad      	uxth	r5, r5
    10e0:	4423      	add	r3, r4
    10e2:	f5b5 7f00 	cmp.w	r5, #512	; 0x200
    10e6:	f883 2320 	strb.w	r2, [r3, #800]	; 0x320
    10ea:	d813      	bhi.n	1114 <ros::NodeHandle_<MbedHardware, 25, 25, 512, 512>::publish(int, ros::Msg const*)+0xb4>
    10ec:	f504 7648 	add.w	r6, r4, #800	; 0x320
    10f0:	b165      	cbz	r5, 110c <ros::NodeHandle_<MbedHardware, 25, 25, 512, 512>::publish(int, ros::Msg const*)+0xac>
    10f2:	1e6b      	subs	r3, r5, #1
    10f4:	f104 0744 	add.w	r7, r4, #68	; 0x44
    10f8:	441e      	add	r6, r3
    10fa:	f204 341f 	addw	r4, r4, #799	; 0x31f
    10fe:	f814 1f01 	ldrb.w	r1, [r4, #1]!
    1102:	4638      	mov	r0, r7
    1104:	f004 faea 	bl	56dc <mbed::Stream::putc(int)>
    1108:	42b4      	cmp	r4, r6
    110a:	d1f8      	bne.n	10fe <ros::NodeHandle_<MbedHardware, 25, 25, 512, 512>::publish(int, ros::Msg const*)+0x9e>
    110c:	4628      	mov	r0, r5
    110e:	b004      	add	sp, #16
    1110:	e8bd 87f0 	ldmia.w	sp!, {r4, r5, r6, r7, r8, r9, r10, pc}
    1114:	4931      	ldr	r1, [pc, #196]	; (11dc <ros::NodeHandle_<MbedHardware, 25, 25, 512, 512>::publish(int, ros::Msg const*)+0x17c>)
    1116:	4d32      	ldr	r5, [pc, #200]	; (11e0 <ros::NodeHandle_<MbedHardware, 25, 25, 512, 512>::publish(int, ros::Msg const*)+0x180>)
    1118:	2203      	movs	r2, #3
    111a:	6823      	ldr	r3, [r4, #0]
    111c:	9101      	str	r1, [sp, #4]
    111e:	9503      	str	r5, [sp, #12]
    1120:	f88d 2008 	strb.w	r2, [sp, #8]
    1124:	681b      	ldr	r3, [r3, #0]
    1126:	492f      	ldr	r1, [pc, #188]	; (11e4 <ros::NodeHandle_<MbedHardware, 25, 25, 512, 512>::publish(int, ros::Msg const*)+0x184>)
    1128:	428b      	cmp	r3, r1
    112a:	d150      	bne.n	11ce <ros::NodeHandle_<MbedHardware, 25, 25, 512, 512>::publish(int, ros::Msg const*)+0x16e>
    112c:	ab04      	add	r3, sp, #16
    112e:	2138      	movs	r1, #56	; 0x38
    1130:	f843 1d10 	str.w	r1, [r3, #-16]!
    1134:	6818      	ldr	r0, [r3, #0]
    1136:	f884 2327 	strb.w	r2, [r4, #807]	; 0x327
    113a:	f8c4 0328 	str.w	r0, [r4, #808]	; 0x328
    113e:	f105 0c30 	add.w	r12, r5, #48	; 0x30
    1142:	f504 774b 	add.w	r7, r4, #812	; 0x32c
    1146:	46ae      	mov	lr, r5
    1148:	e8be 000f 	ldmia.w	lr!, {r0, r1, r2, r3}
    114c:	45e6      	cmp	lr, r12
    114e:	6038      	str	r0, [r7, #0]
    1150:	6079      	str	r1, [r7, #4]
    1152:	60ba      	str	r2, [r7, #8]
    1154:	60fb      	str	r3, [r7, #12]
    1156:	f105 0510 	add.w	r5, r5, #16
    115a:	f107 0710 	add.w	r7, r7, #16
    115e:	d1f2      	bne.n	1146 <ros::NodeHandle_<MbedHardware, 25, 25, 512, 512>::publish(int, ros::Msg const*)+0xe6>
    1160:	cd03      	ldmia	r5!, {r0, r1}
    1162:	f04f 0e00 	mov.w	lr, #0
    1166:	f04f 0c07 	mov.w	r12, #7
    116a:	f04f 0aff 	mov.w	r10, #255	; 0xff
    116e:	f04f 09fe 	mov.w	r9, #254	; 0xfe
    1172:	f04f 083d 	mov.w	r8, #61	; 0x3d
    1176:	25c2      	movs	r5, #194	; 0xc2
    1178:	6079      	str	r1, [r7, #4]
    117a:	6038      	str	r0, [r7, #0]
    117c:	4673      	mov	r3, lr
    117e:	4662      	mov	r2, r12
    1180:	f204 3163 	addw	r1, r4, #867	; 0x363
    1184:	f884 e323 	strb.w	lr, [r4, #803]	; 0x323
    1188:	f884 e326 	strb.w	lr, [r4, #806]	; 0x326
    118c:	f884 c325 	strb.w	r12, [r4, #805]	; 0x325
    1190:	f884 a320 	strb.w	r10, [r4, #800]	; 0x320
    1194:	f884 9321 	strb.w	r9, [r4, #801]	; 0x321
    1198:	f884 8322 	strb.w	r8, [r4, #802]	; 0x322
    119c:	f884 5324 	strb.w	r5, [r4, #804]	; 0x324
    11a0:	e001      	b.n	11a6 <ros::NodeHandle_<MbedHardware, 25, 25, 512, 512>::publish(int, ros::Msg const*)+0x146>
    11a2:	f816 2f01 	ldrb.w	r2, [r6, #1]!
    11a6:	428e      	cmp	r6, r1
    11a8:	4413      	add	r3, r2
    11aa:	d1fa      	bne.n	11a2 <ros::NodeHandle_<MbedHardware, 25, 25, 512, 512>::publish(int, ros::Msg const*)+0x142>
    11ac:	43db      	mvns	r3, r3
    11ae:	f104 0644 	add.w	r6, r4, #68	; 0x44
    11b2:	f884 3364 	strb.w	r3, [r4, #868]	; 0x364
    11b6:	f204 351f 	addw	r5, r4, #799	; 0x31f
    11ba:	f504 7459 	add.w	r4, r4, #868	; 0x364
    11be:	f815 1f01 	ldrb.w	r1, [r5, #1]!
    11c2:	4630      	mov	r0, r6
    11c4:	f004 fa8a 	bl	56dc <mbed::Stream::putc(int)>
    11c8:	42a5      	cmp	r5, r4
    11ca:	d1f8      	bne.n	11be <ros::NodeHandle_<MbedHardware, 25, 25, 512, 512>::publish(int, ros::Msg const*)+0x15e>
    11cc:	e003      	b.n	11d6 <ros::NodeHandle_<MbedHardware, 25, 25, 512, 512>::publish(int, ros::Msg const*)+0x176>
    11ce:	4620      	mov	r0, r4
    11d0:	2107      	movs	r1, #7
    11d2:	aa01      	add	r2, sp, #4
    11d4:	4798      	blx	r3
    11d6:	f04f 35ff 	mov.w	r5, #4294967295
    11da:	e797      	b.n	110c <ros::NodeHandle_<MbedHardware, 25, 25, 512, 512>::publish(int, ros::Msg const*)+0xac>
    11dc:	00008c28 	.word	0x00008c28
    11e0:	00008eb4 	.word	0x00008eb4
    11e4:	00001061 	.word	0x00001061

000011e8 <AnyDxMoving()>:
    11e8:	b538      	push	{r3, r4, r5, lr}
    11ea:	4d07      	ldr	r5, [pc, #28]	; (1208 <AnyDxMoving()+0x20>)
    11ec:	2400      	movs	r4, #0
    11ee:	682b      	ldr	r3, [r5, #0]
    11f0:	5918      	ldr	r0, [r3, r4]
    11f2:	3404      	adds	r4, #4
    11f4:	6803      	ldr	r3, [r0, #0]
    11f6:	699b      	ldr	r3, [r3, #24]
    11f8:	4798      	blx	r3
    11fa:	b910      	cbnz	r0, 1202 <AnyDxMoving()+0x1a>
    11fc:	2c14      	cmp	r4, #20
    11fe:	d1f6      	bne.n	11ee <AnyDxMoving()+0x6>
    1200:	bd38      	pop	{r3, r4, r5, pc}
    1202:	2001      	movs	r0, #1
    1204:	bd38      	pop	{r3, r4, r5, pc}
    1206:	bf00      	nop
    1208:	100008bc 	.word	0x100008bc

0000120c <DxGoHome()>:
    120c:	4b16      	ldr	r3, [pc, #88]	; (1268 <DxGoHome()+0x5c>)
    120e:	b510      	push	{r4, lr}
    1210:	6818      	ldr	r0, [r3, #0]
    1212:	4c16      	ldr	r4, [pc, #88]	; (126c <DxGoHome()+0x60>)
    1214:	6803      	ldr	r3, [r0, #0]
    1216:	6821      	ldr	r1, [r4, #0]
    1218:	685b      	ldr	r3, [r3, #4]
    121a:	2200      	movs	r2, #0
    121c:	4798      	blx	r3
    121e:	4b14      	ldr	r3, [pc, #80]	; (1270 <DxGoHome()+0x64>)
    1220:	6861      	ldr	r1, [r4, #4]
    1222:	6818      	ldr	r0, [r3, #0]
    1224:	2200      	movs	r2, #0
    1226:	6803      	ldr	r3, [r0, #0]
    1228:	685b      	ldr	r3, [r3, #4]
    122a:	4798      	blx	r3
    122c:	4b11      	ldr	r3, [pc, #68]	; (1274 <DxGoHome()+0x68>)
    122e:	68a1      	ldr	r1, [r4, #8]
    1230:	6818      	ldr	r0, [r3, #0]
    1232:	2200      	movs	r2, #0
    1234:	6803      	ldr	r3, [r0, #0]
    1236:	685b      	ldr	r3, [r3, #4]
    1238:	4798      	blx	r3
    123a:	4b0f      	ldr	r3, [pc, #60]	; (1278 <DxGoHome()+0x6c>)
    123c:	68e1      	ldr	r1, [r4, #12]
    123e:	6818      	ldr	r0, [r3, #0]
    1240:	2200      	movs	r2, #0
    1242:	6803      	ldr	r3, [r0, #0]
    1244:	685b      	ldr	r3, [r3, #4]
    1246:	4798      	blx	r3
    1248:	4b0c      	ldr	r3, [pc, #48]	; (127c <DxGoHome()+0x70>)
    124a:	6921      	ldr	r1, [r4, #16]
    124c:	6818      	ldr	r0, [r3, #0]
    124e:	2200      	movs	r2, #0
    1250:	6803      	ldr	r3, [r0, #0]
    1252:	685b      	ldr	r3, [r3, #4]
    1254:	4798      	blx	r3
    1256:	e002      	b.n	125e <DxGoHome()+0x52>
    1258:	200a      	movs	r0, #10
    125a:	f003 fab7 	bl	47cc <wait_ms>
    125e:	f7ff ffc3 	bl	11e8 <AnyDxMoving()>
    1262:	2800      	cmp	r0, #0
    1264:	d1f8      	bne.n	1258 <DxGoHome()+0x4c>
    1266:	bd10      	pop	{r4, pc}
    1268:	1000086c 	.word	0x1000086c
    126c:	1000011c 	.word	0x1000011c
    1270:	100008b0 	.word	0x100008b0
    1274:	100008dc 	.word	0x100008dc
    1278:	100008b8 	.word	0x100008b8
    127c:	100008b4 	.word	0x100008b4

00001280 <DxInitialize()>:
    1280:	e92d 41f0 	stmdb	sp!, {r4, r5, r6, r7, r8, lr}
    1284:	f8df 8048 	ldr.w	r8, [pc, #72]	; 12d0 <DxInitialize()+0x50>
    1288:	4f0e      	ldr	r7, [pc, #56]	; (12c4 <DxInitialize()+0x44>)
    128a:	4e0f      	ldr	r6, [pc, #60]	; (12c8 <DxInitialize()+0x48>)
    128c:	4d0f      	ldr	r5, [pc, #60]	; (12cc <DxInitialize()+0x4c>)
    128e:	2400      	movs	r4, #0
    1290:	682b      	ldr	r3, [r5, #0]
    1292:	f858 1b04 	ldr.w	r1, [r8], #4
    1296:	5918      	ldr	r0, [r3, r4]
    1298:	6803      	ldr	r3, [r0, #0]
    129a:	68db      	ldr	r3, [r3, #12]
    129c:	4798      	blx	r3
    129e:	682b      	ldr	r3, [r5, #0]
    12a0:	f857 1b04 	ldr.w	r1, [r7], #4
    12a4:	5918      	ldr	r0, [r3, r4]
    12a6:	6803      	ldr	r3, [r0, #0]
    12a8:	691b      	ldr	r3, [r3, #16]
    12aa:	4798      	blx	r3
    12ac:	682b      	ldr	r3, [r5, #0]
    12ae:	f856 1b04 	ldr.w	r1, [r6], #4
    12b2:	5918      	ldr	r0, [r3, r4]
    12b4:	3404      	adds	r4, #4
    12b6:	6803      	ldr	r3, [r0, #0]
    12b8:	689b      	ldr	r3, [r3, #8]
    12ba:	4798      	blx	r3
    12bc:	2c14      	cmp	r4, #20
    12be:	d1e7      	bne.n	1290 <DxInitialize()+0x10>
    12c0:	e8bd 81f0 	ldmia.w	sp!, {r4, r5, r6, r7, r8, pc}
    12c4:	100000f4 	.word	0x100000f4
    12c8:	10000108 	.word	0x10000108
    12cc:	100008bc 	.word	0x100008bc
    12d0:	100000cc 	.word	0x100000cc

000012d4 <ros::NodeHandle_<MbedHardware, 25, 25, 512, 512>::negotiateTopics()>:
    12d4:	e92d 4ff0 	stmdb	sp!, {r4, r5, r6, r7, r8, r9, r10, r11, lr}
    12d8:	4680      	mov	r8, r0
    12da:	4bc5      	ldr	r3, [pc, #788]	; (15f0 <ros::NodeHandle_<MbedHardware, 25, 25, 512, 512>::negotiateTopics()+0x31c>)
    12dc:	49c5      	ldr	r1, [pc, #788]	; (15f4 <ros::NodeHandle_<MbedHardware, 25, 25, 512, 512>::negotiateTopics()+0x320>)
    12de:	b091      	sub	sp, #68	; 0x44
    12e0:	2200      	movs	r2, #0
    12e2:	f500 67b0 	add.w	r7, r0, #1408	; 0x580
    12e6:	f200 5b1c 	addw	r11, r0, #1308	; 0x51c
    12ea:	910a      	str	r1, [sp, #40]	; 0x28
    12ec:	930c      	str	r3, [sp, #48]	; 0x30
    12ee:	930d      	str	r3, [sp, #52]	; 0x34
    12f0:	930e      	str	r3, [sp, #56]	; 0x38
    12f2:	f8ad 202c 	strh.w	r2, [sp, #44]	; 0x2c
    12f6:	920f      	str	r2, [sp, #60]	; 0x3c
    12f8:	9701      	str	r7, [sp, #4]
    12fa:	f85b 3f04 	ldr.w	r3, [r11, #4]!
    12fe:	2b00      	cmp	r3, #0
    1300:	f000 80bf 	beq.w	1482 <ros::NodeHandle_<MbedHardware, 25, 25, 512, 512>::negotiateTopics()+0x1ae>
    1304:	6858      	ldr	r0, [r3, #4]
    1306:	681c      	ldr	r4, [r3, #0]
    1308:	6801      	ldr	r1, [r0, #0]
    130a:	689a      	ldr	r2, [r3, #8]
    130c:	940c      	str	r4, [sp, #48]	; 0x30
    130e:	688b      	ldr	r3, [r1, #8]
    1310:	f8ad 202c 	strh.w	r2, [sp, #44]	; 0x2c
    1314:	4798      	blx	r3
    1316:	f8db 3000 	ldr.w	r3, [r11]
    131a:	900d      	str	r0, [sp, #52]	; 0x34
    131c:	6858      	ldr	r0, [r3, #4]
    131e:	6803      	ldr	r3, [r0, #0]
    1320:	68db      	ldr	r3, [r3, #12]
    1322:	4798      	blx	r3
    1324:	f8d8 3000 	ldr.w	r3, [r8]
    1328:	f8db 1000 	ldr.w	r1, [r11]
    132c:	f44f 7200 	mov.w	r2, #512	; 0x200
    1330:	900e      	str	r0, [sp, #56]	; 0x38
    1332:	681b      	ldr	r3, [r3, #0]
    1334:	690d      	ldr	r5, [r1, #16]
    1336:	920f      	str	r2, [sp, #60]	; 0x3c
    1338:	4aaf      	ldr	r2, [pc, #700]	; (15f8 <ros::NodeHandle_<MbedHardware, 25, 25, 512, 512>::negotiateTopics()+0x324>)
    133a:	4682      	mov	r10, r0
    133c:	4293      	cmp	r3, r2
    133e:	f040 8194 	bne.w	166a <ros::NodeHandle_<MbedHardware, 25, 25, 512, 512>::negotiateTopics()+0x396>
    1342:	2d63      	cmp	r5, #99	; 0x63
    1344:	dd04      	ble.n	1350 <ros::NodeHandle_<MbedHardware, 25, 25, 512, 512>::negotiateTopics()+0x7c>
    1346:	f898 35fc 	ldrb.w	r3, [r8, #1532]	; 0x5fc
    134a:	2b00      	cmp	r3, #0
    134c:	f000 8099 	beq.w	1482 <ros::NodeHandle_<MbedHardware, 25, 25, 512, 512>::negotiateTopics()+0x1ae>
    1350:	f8bd 302c 	ldrh.w	r3, [sp, #44]	; 0x2c
    1354:	9c0c      	ldr	r4, [sp, #48]	; 0x30
    1356:	0a1a      	lsrs	r2, r3, #8
    1358:	f888 3327 	strb.w	r3, [r8, #807]	; 0x327
    135c:	f888 2328 	strb.w	r2, [r8, #808]	; 0x328
    1360:	4620      	mov	r0, r4
    1362:	f006 fe58 	bl	8016 <strlen>
    1366:	4606      	mov	r6, r0
    1368:	ab10      	add	r3, sp, #64	; 0x40
    136a:	f843 0d2c 	str.w	r0, [r3, #-44]!
    136e:	6818      	ldr	r0, [r3, #0]
    1370:	4621      	mov	r1, r4
    1372:	4632      	mov	r2, r6
    1374:	f8c8 0329 	str.w	r0, [r8, #809]	; 0x329
    1378:	f208 302d 	addw	r0, r8, #813	; 0x32d
    137c:	f005 fedc 	bl	7138 <memcpy>
    1380:	ab10      	add	r3, sp, #64	; 0x40
    1382:	9f0d      	ldr	r7, [sp, #52]	; 0x34
    1384:	461c      	mov	r4, r3
    1386:	4638      	mov	r0, r7
    1388:	f006 fe45 	bl	8016 <strlen>
    138c:	4623      	mov	r3, r4
    138e:	4681      	mov	r9, r0
    1390:	9006      	str	r0, [sp, #24]
    1392:	f853 0d28 	ldr.w	r0, [r3, #-40]!
    1396:	f208 3427 	addw	r4, r8, #807	; 0x327
    139a:	9303      	str	r3, [sp, #12]
    139c:	1db3      	adds	r3, r6, #6
    139e:	360a      	adds	r6, #10
    13a0:	50e0      	str	r0, [r4, r3]
    13a2:	4639      	mov	r1, r7
    13a4:	464a      	mov	r2, r9
    13a6:	19a0      	adds	r0, r4, r6
    13a8:	f005 fec6 	bl	7138 <memcpy>
    13ac:	4650      	mov	r0, r10
    13ae:	f006 fe32 	bl	8016 <strlen>
    13b2:	4603      	mov	r3, r0
    13b4:	9007      	str	r0, [sp, #28]
    13b6:	af10      	add	r7, sp, #64	; 0x40
    13b8:	44b1      	add	r9, r6
    13ba:	f857 0d24 	ldr.w	r0, [r7, #-36]!
    13be:	f109 0604 	add.w	r6, r9, #4
    13c2:	f844 0009 	str.w	r0, [r4, r9]
    13c6:	4651      	mov	r1, r10
    13c8:	461a      	mov	r2, r3
    13ca:	19a0      	adds	r0, r4, r6
    13cc:	9302      	str	r3, [sp, #8]
    13ce:	f005 feb3 	bl	7138 <memcpy>
    13d2:	9b02      	ldr	r3, [sp, #8]
    13d4:	f04f 0e00 	mov.w	lr, #0
    13d8:	18f0      	adds	r0, r6, r3
    13da:	1d06      	adds	r6, r0, #4
    13dc:	b2b1      	uxth	r1, r6
    13de:	ea4f 2a11 	mov.w	r10, r1, lsr #8
    13e2:	b2f6      	uxtb	r6, r6
    13e4:	eb0a 0c06 	add.w	r12, r10, r6
    13e8:	ea6f 0c0c 	mvn.w	r12, r12
    13ec:	f804 e000 	strb.w	lr, [r4, r0]
    13f0:	eb04 0900 	add.w	r9, r4, r0
    13f4:	2002      	movs	r0, #2
    13f6:	f889 e002 	strb.w	lr, [r9, #2]
    13fa:	f889 e003 	strb.w	lr, [r9, #3]
    13fe:	f889 0001 	strb.w	r0, [r9, #1]
    1402:	f208 3325 	addw	r3, r8, #805	; 0x325
    1406:	4672      	mov	r2, lr
    1408:	f201 3026 	addw	r0, r1, #806	; 0x326
    140c:	24ff      	movs	r4, #255	; 0xff
    140e:	f888 c324 	strb.w	r12, [r8, #804]	; 0x324
    1412:	f04f 0efe 	mov.w	lr, #254	; 0xfe
    1416:	fa5f fc85 	uxtb.w	r12, r5
    141a:	f345 2507 	sbfx	r5, r5, #8, #8
    141e:	9302      	str	r3, [sp, #8]
    1420:	f888 a323 	strb.w	r10, [r8, #803]	; 0x323
    1424:	f888 6322 	strb.w	r6, [r8, #802]	; 0x322
    1428:	4440      	add	r0, r8
    142a:	f888 4320 	strb.w	r4, [r8, #800]	; 0x320
    142e:	f888 e321 	strb.w	lr, [r8, #801]	; 0x321
    1432:	f888 c325 	strb.w	r12, [r8, #805]	; 0x325
    1436:	f888 5326 	strb.w	r5, [r8, #806]	; 0x326
    143a:	e001      	b.n	1440 <ros::NodeHandle_<MbedHardware, 25, 25, 512, 512>::negotiateTopics()+0x16c>
    143c:	f813 cf01 	ldrb.w	r12, [r3, #1]!
    1440:	4283      	cmp	r3, r0
    1442:	4462      	add	r2, r12
    1444:	d1fa      	bne.n	143c <ros::NodeHandle_<MbedHardware, 25, 25, 512, 512>::negotiateTopics()+0x168>
    1446:	43d2      	mvns	r2, r2
    1448:	1dc8      	adds	r0, r1, #7
    144a:	f101 0308 	add.w	r3, r1, #8
    144e:	b280      	uxth	r0, r0
    1450:	b29b      	uxth	r3, r3
    1452:	eb08 0100 	add.w	r1, r8, r0
    1456:	f5b3 7f00 	cmp.w	r3, #512	; 0x200
    145a:	f881 2320 	strb.w	r2, [r1, #800]	; 0x320
    145e:	f200 8123 	bhi.w	16a8 <ros::NodeHandle_<MbedHardware, 25, 25, 512, 512>::negotiateTopics()+0x3d4>
    1462:	f508 7548 	add.w	r5, r8, #800	; 0x320
    1466:	b163      	cbz	r3, 1482 <ros::NodeHandle_<MbedHardware, 25, 25, 512, 512>::negotiateTopics()+0x1ae>
    1468:	3b01      	subs	r3, #1
    146a:	441d      	add	r5, r3
    146c:	f108 0644 	add.w	r6, r8, #68	; 0x44
    1470:	f208 341f 	addw	r4, r8, #799	; 0x31f
    1474:	f814 1f01 	ldrb.w	r1, [r4, #1]!
    1478:	4630      	mov	r0, r6
    147a:	f004 f92f 	bl	56dc <mbed::Stream::putc(int)>
    147e:	42ac      	cmp	r4, r5
    1480:	d1f8      	bne.n	1474 <ros::NodeHandle_<MbedHardware, 25, 25, 512, 512>::negotiateTopics()+0x1a0>
    1482:	9b01      	ldr	r3, [sp, #4]
    1484:	459b      	cmp	r11, r3
    1486:	f47f af38 	bne.w	12fa <ros::NodeHandle_<MbedHardware, 25, 25, 512, 512>::negotiateTopics()+0x26>
    148a:	461f      	mov	r7, r3
    148c:	f208 53e4 	addw	r3, r8, #1508	; 0x5e4
    1490:	9302      	str	r3, [sp, #8]
    1492:	f857 0f04 	ldr.w	r0, [r7, #4]!
    1496:	2800      	cmp	r0, #0
    1498:	f000 80dd 	beq.w	1656 <ros::NodeHandle_<MbedHardware, 25, 25, 512, 512>::negotiateTopics()+0x382>
    149c:	6882      	ldr	r2, [r0, #8]
    149e:	6803      	ldr	r3, [r0, #0]
    14a0:	6841      	ldr	r1, [r0, #4]
    14a2:	920c      	str	r2, [sp, #48]	; 0x30
    14a4:	689a      	ldr	r2, [r3, #8]
    14a6:	f8ad 102c 	strh.w	r1, [sp, #44]	; 0x2c
    14aa:	4954      	ldr	r1, [pc, #336]	; (15fc <ros::NodeHandle_<MbedHardware, 25, 25, 512, 512>::negotiateTopics()+0x328>)
    14ac:	428a      	cmp	r2, r1
    14ae:	f040 80f6 	bne.w	169e <ros::NodeHandle_<MbedHardware, 25, 25, 512, 512>::negotiateTopics()+0x3ca>
    14b2:	4a53      	ldr	r2, [pc, #332]	; (1600 <ros::NodeHandle_<MbedHardware, 25, 25, 512, 512>::negotiateTopics()+0x32c>)
    14b4:	920d      	str	r2, [sp, #52]	; 0x34
    14b6:	68da      	ldr	r2, [r3, #12]
    14b8:	4952      	ldr	r1, [pc, #328]	; (1604 <ros::NodeHandle_<MbedHardware, 25, 25, 512, 512>::negotiateTopics()+0x330>)
    14ba:	428a      	cmp	r2, r1
    14bc:	f040 80ea 	bne.w	1694 <ros::NodeHandle_<MbedHardware, 25, 25, 512, 512>::negotiateTopics()+0x3c0>
    14c0:	4a51      	ldr	r2, [pc, #324]	; (1608 <ros::NodeHandle_<MbedHardware, 25, 25, 512, 512>::negotiateTopics()+0x334>)
    14c2:	920e      	str	r2, [sp, #56]	; 0x38
    14c4:	685b      	ldr	r3, [r3, #4]
    14c6:	4a51      	ldr	r2, [pc, #324]	; (160c <ros::NodeHandle_<MbedHardware, 25, 25, 512, 512>::negotiateTopics()+0x338>)
    14c8:	f8d8 4000 	ldr.w	r4, [r8]
    14cc:	f44f 7100 	mov.w	r1, #512	; 0x200
    14d0:	4293      	cmp	r3, r2
    14d2:	6824      	ldr	r4, [r4, #0]
    14d4:	910f      	str	r1, [sp, #60]	; 0x3c
    14d6:	f040 80da 	bne.w	168e <ros::NodeHandle_<MbedHardware, 25, 25, 512, 512>::negotiateTopics()+0x3ba>
    14da:	6bc5      	ldr	r5, [r0, #60]	; 0x3c
    14dc:	f8df 9118 	ldr.w	r9, [pc, #280]	; 15f8 <ros::NodeHandle_<MbedHardware, 25, 25, 512, 512>::negotiateTopics()+0x324>
    14e0:	454c      	cmp	r4, r9
    14e2:	f040 80cb 	bne.w	167c <ros::NodeHandle_<MbedHardware, 25, 25, 512, 512>::negotiateTopics()+0x3a8>
    14e6:	2d63      	cmp	r5, #99	; 0x63
    14e8:	dd04      	ble.n	14f4 <ros::NodeHandle_<MbedHardware, 25, 25, 512, 512>::negotiateTopics()+0x220>
    14ea:	f898 35fc 	ldrb.w	r3, [r8, #1532]	; 0x5fc
    14ee:	2b00      	cmp	r3, #0
    14f0:	f000 80b1 	beq.w	1656 <ros::NodeHandle_<MbedHardware, 25, 25, 512, 512>::negotiateTopics()+0x382>
    14f4:	f8bd 302c 	ldrh.w	r3, [sp, #44]	; 0x2c
    14f8:	9e0c      	ldr	r6, [sp, #48]	; 0x30
    14fa:	0a1a      	lsrs	r2, r3, #8
    14fc:	f888 3327 	strb.w	r3, [r8, #807]	; 0x327
    1500:	f888 2328 	strb.w	r2, [r8, #808]	; 0x328
    1504:	4630      	mov	r0, r6
    1506:	f006 fd86 	bl	8016 <strlen>
    150a:	4604      	mov	r4, r0
    150c:	ab10      	add	r3, sp, #64	; 0x40
    150e:	f843 0d2c 	str.w	r0, [r3, #-44]!
    1512:	6818      	ldr	r0, [r3, #0]
    1514:	4631      	mov	r1, r6
    1516:	4622      	mov	r2, r4
    1518:	f8c8 0329 	str.w	r0, [r8, #809]	; 0x329
    151c:	f208 302d 	addw	r0, r8, #813	; 0x32d
    1520:	f005 fe0a 	bl	7138 <memcpy>
    1524:	9e0d      	ldr	r6, [sp, #52]	; 0x34
    1526:	ab10      	add	r3, sp, #64	; 0x40
    1528:	4630      	mov	r0, r6
    152a:	9301      	str	r3, [sp, #4]
    152c:	f006 fd73 	bl	8016 <strlen>
    1530:	4683      	mov	r11, r0
    1532:	9b01      	ldr	r3, [sp, #4]
    1534:	9006      	str	r0, [sp, #24]
    1536:	f853 0d28 	ldr.w	r0, [r3, #-40]!
    153a:	f104 0a0a 	add.w	r10, r4, #10
    153e:	9301      	str	r3, [sp, #4]
    1540:	1da3      	adds	r3, r4, #6
    1542:	f208 3427 	addw	r4, r8, #807	; 0x327
    1546:	50e0      	str	r0, [r4, r3]
    1548:	465a      	mov	r2, r11
    154a:	4631      	mov	r1, r6
    154c:	eb04 000a 	add.w	r0, r4, r10
    1550:	f005 fdf2 	bl	7138 <memcpy>
    1554:	990e      	ldr	r1, [sp, #56]	; 0x38
    1556:	ae10      	add	r6, sp, #64	; 0x40
    1558:	4608      	mov	r0, r1
    155a:	9103      	str	r1, [sp, #12]
    155c:	f006 fd5b 	bl	8016 <strlen>
    1560:	4603      	mov	r3, r0
    1562:	9007      	str	r0, [sp, #28]
    1564:	44d3      	add	r11, r10
    1566:	f856 0d24 	ldr.w	r0, [r6, #-36]!
    156a:	f10b 0a04 	add.w	r10, r11, #4
    156e:	f844 000b 	str.w	r0, [r4, r11]
    1572:	9903      	ldr	r1, [sp, #12]
    1574:	461a      	mov	r2, r3
    1576:	eb04 000a 	add.w	r0, r4, r10
    157a:	9303      	str	r3, [sp, #12]
    157c:	f005 fddc 	bl	7138 <memcpy>
    1580:	9b03      	ldr	r3, [sp, #12]
    1582:	980f      	ldr	r0, [sp, #60]	; 0x3c
    1584:	eb0a 0103 	add.w	r1, r10, r3
    1588:	f101 0e04 	add.w	lr, r1, #4
    158c:	fa1f f28e 	uxth.w	r2, lr
    1590:	ea4f 2b12 	mov.w	r11, r2, lsr #8
    1594:	fa5f fe8e 	uxtb.w	lr, lr
    1598:	eb0b 0c0e 	add.w	r12, r11, lr
    159c:	ea6f 0c0c 	mvn.w	r12, r12
    15a0:	5460      	strb	r0, [r4, r1]
    15a2:	eb04 0a01 	add.w	r10, r4, r1
    15a6:	0a01      	lsrs	r1, r0, #8
    15a8:	f88a 1001 	strb.w	r1, [r10, #1]
    15ac:	0c01      	lsrs	r1, r0, #16
    15ae:	0e00      	lsrs	r0, r0, #24
    15b0:	f88a 1002 	strb.w	r1, [r10, #2]
    15b4:	f88a 0003 	strb.w	r0, [r10, #3]
    15b8:	f208 3325 	addw	r3, r8, #805	; 0x325
    15bc:	20fe      	movs	r0, #254	; 0xfe
    15be:	f202 3126 	addw	r1, r2, #806	; 0x326
    15c2:	24ff      	movs	r4, #255	; 0xff
    15c4:	f888 c324 	strb.w	r12, [r8, #804]	; 0x324
    15c8:	fa5f fc85 	uxtb.w	r12, r5
    15cc:	f345 2507 	sbfx	r5, r5, #8, #8
    15d0:	f888 0321 	strb.w	r0, [r8, #801]	; 0x321
    15d4:	9303      	str	r3, [sp, #12]
    15d6:	f888 b323 	strb.w	r11, [r8, #803]	; 0x323
    15da:	f888 e322 	strb.w	lr, [r8, #802]	; 0x322
    15de:	4441      	add	r1, r8
    15e0:	f888 4320 	strb.w	r4, [r8, #800]	; 0x320
    15e4:	f888 c325 	strb.w	r12, [r8, #805]	; 0x325
    15e8:	f888 5326 	strb.w	r5, [r8, #806]	; 0x326
    15ec:	2000      	movs	r0, #0
    15ee:	e011      	b.n	1614 <ros::NodeHandle_<MbedHardware, 25, 25, 512, 512>::negotiateTopics()+0x340>
    15f0:	00008eec 	.word	0x00008eec
    15f4:	00008c10 	.word	0x00008c10
    15f8:	00001061 	.word	0x00001061
    15fc:	00000239 	.word	0x00000239
    1600:	00008e34 	.word	0x00008e34
    1604:	00000241 	.word	0x00000241
    1608:	00008e50 	.word	0x00008e50
    160c:	00000235 	.word	0x00000235
    1610:	f813 cf01 	ldrb.w	r12, [r3, #1]!
    1614:	428b      	cmp	r3, r1
    1616:	4460      	add	r0, r12
    1618:	d1fa      	bne.n	1610 <ros::NodeHandle_<MbedHardware, 25, 25, 512, 512>::negotiateTopics()+0x33c>
    161a:	43c0      	mvns	r0, r0
    161c:	1dd1      	adds	r1, r2, #7
    161e:	f102 0308 	add.w	r3, r2, #8
    1622:	b289      	uxth	r1, r1
    1624:	b29b      	uxth	r3, r3
    1626:	eb08 0201 	add.w	r2, r8, r1
    162a:	f5b3 7f00 	cmp.w	r3, #512	; 0x200
    162e:	f882 0320 	strb.w	r0, [r2, #800]	; 0x320
    1632:	f200 8097 	bhi.w	1764 <ros::NodeHandle_<MbedHardware, 25, 25, 512, 512>::negotiateTopics()+0x490>
    1636:	f508 7548 	add.w	r5, r8, #800	; 0x320
    163a:	b163      	cbz	r3, 1656 <ros::NodeHandle_<MbedHardware, 25, 25, 512, 512>::negotiateTopics()+0x382>
    163c:	3b01      	subs	r3, #1
    163e:	441d      	add	r5, r3
    1640:	f108 0644 	add.w	r6, r8, #68	; 0x44
    1644:	f208 341f 	addw	r4, r8, #799	; 0x31f
    1648:	f814 1f01 	ldrb.w	r1, [r4, #1]!
    164c:	4630      	mov	r0, r6
    164e:	f004 f845 	bl	56dc <mbed::Stream::putc(int)>
    1652:	42ac      	cmp	r4, r5
    1654:	d1f8      	bne.n	1648 <ros::NodeHandle_<MbedHardware, 25, 25, 512, 512>::negotiateTopics()+0x374>
    1656:	9b02      	ldr	r3, [sp, #8]
    1658:	429f      	cmp	r7, r3
    165a:	f47f af1a 	bne.w	1492 <ros::NodeHandle_<MbedHardware, 25, 25, 512, 512>::negotiateTopics()+0x1be>
    165e:	2301      	movs	r3, #1
    1660:	f888 35fc 	strb.w	r3, [r8, #1532]	; 0x5fc
    1664:	b011      	add	sp, #68	; 0x44
    1666:	e8bd 8ff0 	ldmia.w	sp!, {r4, r5, r6, r7, r8, r9, r10, r11, pc}
    166a:	4629      	mov	r1, r5
    166c:	4640      	mov	r0, r8
    166e:	aa0a      	add	r2, sp, #40	; 0x28
    1670:	4798      	blx	r3
    1672:	9b01      	ldr	r3, [sp, #4]
    1674:	459b      	cmp	r11, r3
    1676:	f47f ae40 	bne.w	12fa <ros::NodeHandle_<MbedHardware, 25, 25, 512, 512>::negotiateTopics()+0x26>
    167a:	e706      	b.n	148a <ros::NodeHandle_<MbedHardware, 25, 25, 512, 512>::negotiateTopics()+0x1b6>
    167c:	4629      	mov	r1, r5
    167e:	4640      	mov	r0, r8
    1680:	aa0a      	add	r2, sp, #40	; 0x28
    1682:	47a0      	blx	r4
    1684:	9b02      	ldr	r3, [sp, #8]
    1686:	429f      	cmp	r7, r3
    1688:	f47f af03 	bne.w	1492 <ros::NodeHandle_<MbedHardware, 25, 25, 512, 512>::negotiateTopics()+0x1be>
    168c:	e7e7      	b.n	165e <ros::NodeHandle_<MbedHardware, 25, 25, 512, 512>::negotiateTopics()+0x38a>
    168e:	4798      	blx	r3
    1690:	4605      	mov	r5, r0
    1692:	e723      	b.n	14dc <ros::NodeHandle_<MbedHardware, 25, 25, 512, 512>::negotiateTopics()+0x208>
    1694:	4790      	blx	r2
    1696:	4602      	mov	r2, r0
    1698:	6838      	ldr	r0, [r7, #0]
    169a:	6803      	ldr	r3, [r0, #0]
    169c:	e711      	b.n	14c2 <ros::NodeHandle_<MbedHardware, 25, 25, 512, 512>::negotiateTopics()+0x1ee>
    169e:	4790      	blx	r2
    16a0:	4602      	mov	r2, r0
    16a2:	6838      	ldr	r0, [r7, #0]
    16a4:	6803      	ldr	r3, [r0, #0]
    16a6:	e705      	b.n	14b4 <ros::NodeHandle_<MbedHardware, 25, 25, 512, 512>::negotiateTopics()+0x1e0>
    16a8:	4962      	ldr	r1, [pc, #392]	; (1834 <ros::NodeHandle_<MbedHardware, 25, 25, 512, 512>::negotiateTopics()+0x560>)
    16aa:	4863      	ldr	r0, [pc, #396]	; (1838 <ros::NodeHandle_<MbedHardware, 25, 25, 512, 512>::negotiateTopics()+0x564>)
    16ac:	2203      	movs	r2, #3
    16ae:	f8d8 3000 	ldr.w	r3, [r8]
    16b2:	9107      	str	r1, [sp, #28]
    16b4:	9009      	str	r0, [sp, #36]	; 0x24
    16b6:	f88d 2020 	strb.w	r2, [sp, #32]
    16ba:	681b      	ldr	r3, [r3, #0]
    16bc:	495f      	ldr	r1, [pc, #380]	; (183c <ros::NodeHandle_<MbedHardware, 25, 25, 512, 512>::negotiateTopics()+0x568>)
    16be:	428b      	cmp	r3, r1
    16c0:	f040 80ad 	bne.w	181e <ros::NodeHandle_<MbedHardware, 25, 25, 512, 512>::negotiateTopics()+0x54a>
    16c4:	2338      	movs	r3, #56	; 0x38
    16c6:	9306      	str	r3, [sp, #24]
    16c8:	9b03      	ldr	r3, [sp, #12]
    16ca:	4c5b      	ldr	r4, [pc, #364]	; (1838 <ros::NodeHandle_<MbedHardware, 25, 25, 512, 512>::negotiateTopics()+0x564>)
    16cc:	6818      	ldr	r0, [r3, #0]
    16ce:	f888 2327 	strb.w	r2, [r8, #807]	; 0x327
    16d2:	f8c8 0328 	str.w	r0, [r8, #808]	; 0x328
    16d6:	f508 754b 	add.w	r5, r8, #812	; 0x32c
    16da:	4626      	mov	r6, r4
    16dc:	ce0f      	ldmia	r6!, {r0, r1, r2, r3}
    16de:	60eb      	str	r3, [r5, #12]
    16e0:	4b57      	ldr	r3, [pc, #348]	; (1840 <ros::NodeHandle_<MbedHardware, 25, 25, 512, 512>::negotiateTopics()+0x56c>)
    16e2:	6028      	str	r0, [r5, #0]
    16e4:	429e      	cmp	r6, r3
    16e6:	6069      	str	r1, [r5, #4]
    16e8:	60aa      	str	r2, [r5, #8]
    16ea:	f104 0410 	add.w	r4, r4, #16
    16ee:	f105 0510 	add.w	r5, r5, #16
    16f2:	d1f2      	bne.n	16da <ros::NodeHandle_<MbedHardware, 25, 25, 512, 512>::negotiateTopics()+0x406>
    16f4:	cc03      	ldmia	r4!, {r0, r1}
    16f6:	2600      	movs	r6, #0
    16f8:	2707      	movs	r7, #7
    16fa:	9b02      	ldr	r3, [sp, #8]
    16fc:	f04f 0eff 	mov.w	lr, #255	; 0xff
    1700:	6028      	str	r0, [r5, #0]
    1702:	6069      	str	r1, [r5, #4]
    1704:	203d      	movs	r0, #61	; 0x3d
    1706:	21c2      	movs	r1, #194	; 0xc2
    1708:	25fe      	movs	r5, #254	; 0xfe
    170a:	f888 1324 	strb.w	r1, [r8, #804]	; 0x324
    170e:	4632      	mov	r2, r6
    1710:	463c      	mov	r4, r7
    1712:	f888 6323 	strb.w	r6, [r8, #803]	; 0x323
    1716:	f888 6326 	strb.w	r6, [r8, #806]	; 0x326
    171a:	f888 7325 	strb.w	r7, [r8, #805]	; 0x325
    171e:	f888 e320 	strb.w	lr, [r8, #800]	; 0x320
    1722:	f888 5321 	strb.w	r5, [r8, #801]	; 0x321
    1726:	f888 0322 	strb.w	r0, [r8, #802]	; 0x322
    172a:	f208 3163 	addw	r1, r8, #867	; 0x363
    172e:	e001      	b.n	1734 <ros::NodeHandle_<MbedHardware, 25, 25, 512, 512>::negotiateTopics()+0x460>
    1730:	f813 4f01 	ldrb.w	r4, [r3, #1]!
    1734:	428b      	cmp	r3, r1
    1736:	4422      	add	r2, r4
    1738:	d1fa      	bne.n	1730 <ros::NodeHandle_<MbedHardware, 25, 25, 512, 512>::negotiateTopics()+0x45c>
    173a:	43d2      	mvns	r2, r2
    173c:	f108 0644 	add.w	r6, r8, #68	; 0x44
    1740:	f888 2364 	strb.w	r2, [r8, #868]	; 0x364
    1744:	f208 341f 	addw	r4, r8, #799	; 0x31f
    1748:	f508 7559 	add.w	r5, r8, #868	; 0x364
    174c:	f814 1f01 	ldrb.w	r1, [r4, #1]!
    1750:	4630      	mov	r0, r6
    1752:	f003 ffc3 	bl	56dc <mbed::Stream::putc(int)>
    1756:	42ac      	cmp	r4, r5
    1758:	d1f8      	bne.n	174c <ros::NodeHandle_<MbedHardware, 25, 25, 512, 512>::negotiateTopics()+0x478>
    175a:	9b01      	ldr	r3, [sp, #4]
    175c:	459b      	cmp	r11, r3
    175e:	f47f adcc 	bne.w	12fa <ros::NodeHandle_<MbedHardware, 25, 25, 512, 512>::negotiateTopics()+0x26>
    1762:	e692      	b.n	148a <ros::NodeHandle_<MbedHardware, 25, 25, 512, 512>::negotiateTopics()+0x1b6>
    1764:	4933      	ldr	r1, [pc, #204]	; (1834 <ros::NodeHandle_<MbedHardware, 25, 25, 512, 512>::negotiateTopics()+0x560>)
    1766:	4834      	ldr	r0, [pc, #208]	; (1838 <ros::NodeHandle_<MbedHardware, 25, 25, 512, 512>::negotiateTopics()+0x564>)
    1768:	2203      	movs	r2, #3
    176a:	f8d8 3000 	ldr.w	r3, [r8]
    176e:	9009      	str	r0, [sp, #36]	; 0x24
    1770:	9107      	str	r1, [sp, #28]
    1772:	f88d 2020 	strb.w	r2, [sp, #32]
    1776:	681b      	ldr	r3, [r3, #0]
    1778:	454b      	cmp	r3, r9
    177a:	d155      	bne.n	1828 <ros::NodeHandle_<MbedHardware, 25, 25, 512, 512>::negotiateTopics()+0x554>
    177c:	2338      	movs	r3, #56	; 0x38
    177e:	9306      	str	r3, [sp, #24]
    1780:	9b01      	ldr	r3, [sp, #4]
    1782:	4c2d      	ldr	r4, [pc, #180]	; (1838 <ros::NodeHandle_<MbedHardware, 25, 25, 512, 512>::negotiateTopics()+0x564>)
    1784:	6818      	ldr	r0, [r3, #0]
    1786:	f888 2327 	strb.w	r2, [r8, #807]	; 0x327
    178a:	f8c8 0328 	str.w	r0, [r8, #808]	; 0x328
    178e:	f508 754b 	add.w	r5, r8, #812	; 0x32c
    1792:	4626      	mov	r6, r4
    1794:	ce0f      	ldmia	r6!, {r0, r1, r2, r3}
    1796:	60eb      	str	r3, [r5, #12]
    1798:	4b29      	ldr	r3, [pc, #164]	; (1840 <ros::NodeHandle_<MbedHardware, 25, 25, 512, 512>::negotiateTopics()+0x56c>)
    179a:	6028      	str	r0, [r5, #0]
    179c:	429e      	cmp	r6, r3
    179e:	6069      	str	r1, [r5, #4]
    17a0:	60aa      	str	r2, [r5, #8]
    17a2:	f104 0410 	add.w	r4, r4, #16
    17a6:	f105 0510 	add.w	r5, r5, #16
    17aa:	d1f2      	bne.n	1792 <ros::NodeHandle_<MbedHardware, 25, 25, 512, 512>::negotiateTopics()+0x4be>
    17ac:	cc03      	ldmia	r4!, {r0, r1}
    17ae:	2600      	movs	r6, #0
    17b0:	f04f 0e07 	mov.w	lr, #7
    17b4:	9b03      	ldr	r3, [sp, #12]
    17b6:	f04f 0cff 	mov.w	r12, #255	; 0xff
    17ba:	6028      	str	r0, [r5, #0]
    17bc:	6069      	str	r1, [r5, #4]
    17be:	203d      	movs	r0, #61	; 0x3d
    17c0:	21c2      	movs	r1, #194	; 0xc2
    17c2:	25fe      	movs	r5, #254	; 0xfe
    17c4:	f888 1324 	strb.w	r1, [r8, #804]	; 0x324
    17c8:	4632      	mov	r2, r6
    17ca:	4674      	mov	r4, lr
    17cc:	f888 6323 	strb.w	r6, [r8, #803]	; 0x323
    17d0:	f888 6326 	strb.w	r6, [r8, #806]	; 0x326
    17d4:	f888 e325 	strb.w	lr, [r8, #805]	; 0x325
    17d8:	f888 c320 	strb.w	r12, [r8, #800]	; 0x320
    17dc:	f888 5321 	strb.w	r5, [r8, #801]	; 0x321
    17e0:	f888 0322 	strb.w	r0, [r8, #802]	; 0x322
    17e4:	f208 3163 	addw	r1, r8, #867	; 0x363
    17e8:	e001      	b.n	17ee <ros::NodeHandle_<MbedHardware, 25, 25, 512, 512>::negotiateTopics()+0x51a>
    17ea:	f813 4f01 	ldrb.w	r4, [r3, #1]!
    17ee:	428b      	cmp	r3, r1
    17f0:	4422      	add	r2, r4
    17f2:	d1fa      	bne.n	17ea <ros::NodeHandle_<MbedHardware, 25, 25, 512, 512>::negotiateTopics()+0x516>
    17f4:	43d2      	mvns	r2, r2
    17f6:	f108 0644 	add.w	r6, r8, #68	; 0x44
    17fa:	f888 2364 	strb.w	r2, [r8, #868]	; 0x364
    17fe:	f208 341f 	addw	r4, r8, #799	; 0x31f
    1802:	f508 7559 	add.w	r5, r8, #868	; 0x364
    1806:	f814 1f01 	ldrb.w	r1, [r4, #1]!
    180a:	4630      	mov	r0, r6
    180c:	f003 ff66 	bl	56dc <mbed::Stream::putc(int)>
    1810:	42ac      	cmp	r4, r5
    1812:	d1f8      	bne.n	1806 <ros::NodeHandle_<MbedHardware, 25, 25, 512, 512>::negotiateTopics()+0x532>
    1814:	9b02      	ldr	r3, [sp, #8]
    1816:	429f      	cmp	r7, r3
    1818:	f47f ae3b 	bne.w	1492 <ros::NodeHandle_<MbedHardware, 25, 25, 512, 512>::negotiateTopics()+0x1be>
    181c:	e71f      	b.n	165e <ros::NodeHandle_<MbedHardware, 25, 25, 512, 512>::negotiateTopics()+0x38a>
    181e:	463a      	mov	r2, r7
    1820:	4640      	mov	r0, r8
    1822:	2107      	movs	r1, #7
    1824:	4798      	blx	r3
    1826:	e62c      	b.n	1482 <ros::NodeHandle_<MbedHardware, 25, 25, 512, 512>::negotiateTopics()+0x1ae>
    1828:	4632      	mov	r2, r6
    182a:	4640      	mov	r0, r8
    182c:	2107      	movs	r1, #7
    182e:	4798      	blx	r3
    1830:	e711      	b.n	1656 <ros::NodeHandle_<MbedHardware, 25, 25, 512, 512>::negotiateTopics()+0x382>
    1832:	bf00      	nop
    1834:	00008c28 	.word	0x00008c28
    1838:	00008eb4 	.word	0x00008eb4
    183c:	00001061 	.word	0x00001061
    1840:	00008ee4 	.word	0x00008ee4

00001844 <ros::NodeHandle_<MbedHardware, 25, 25, 512, 512>::spinOnce()>:
    1844:	e92d 4ff0 	stmdb	sp!, {r4, r5, r6, r7, r8, r9, r10, r11, lr}
    1848:	4604      	mov	r4, r0
    184a:	f500 7a82 	add.w	r10, r0, #260	; 0x104
    184e:	b08b      	sub	sp, #44	; 0x2c
    1850:	4650      	mov	r0, r10
    1852:	f003 ff7d 	bl	5750 <mbed::Timer::read_ms()>
    1856:	f642 22f8 	movw	r2, #11000	; 0x2af8
    185a:	f8d4 3604 	ldr.w	r3, [r4, #1540]	; 0x604
    185e:	4680      	mov	r8, r0
    1860:	1ac3      	subs	r3, r0, r3
    1862:	4293      	cmp	r3, r2
    1864:	bf84      	itt	hi
    1866:	2300      	movhi	r3, #0
    1868:	f884 35fc 	strbhi.w	r3, [r4, #1532]	; 0x5fc
    186c:	f8d4 35e8 	ldr.w	r3, [r4, #1512]	; 0x5e8
    1870:	b133      	cbz	r3, 1880 <ros::NodeHandle_<MbedHardware, 25, 25, 512, 512>::spinOnce()+0x3c>
    1872:	f8d4 3608 	ldr.w	r3, [r4, #1544]	; 0x608
    1876:	4283      	cmp	r3, r0
    1878:	bf3c      	itt	cc
    187a:	2300      	movcc	r3, #0
    187c:	f8c4 35e8 	strcc.w	r3, [r4, #1512]	; 0x5e8
    1880:	f104 0b04 	add.w	r11, r4, #4
    1884:	4658      	mov	r0, r11
    1886:	f002 fc69 	bl	415c <AjK::MODSERIAL::rxBufferEmpty()>
    188a:	4606      	mov	r6, r0
    188c:	b178      	cbz	r0, 18ae <ros::NodeHandle_<MbedHardware, 25, 25, 512, 512>::spinOnce()+0x6a>
    188e:	f894 05fc 	ldrb.w	r0, [r4, #1532]	; 0x5fc
    1892:	b148      	cbz	r0, 18a8 <ros::NodeHandle_<MbedHardware, 25, 25, 512, 512>::spinOnce()+0x64>
    1894:	f640 12c4 	movw	r2, #2500	; 0x9c4
    1898:	f8d4 3600 	ldr.w	r3, [r4, #1536]	; 0x600
    189c:	ebc3 0308 	rsb	r3, r3, r8
    18a0:	4293      	cmp	r3, r2
    18a2:	f200 81cf 	bhi.w	1c44 <ros::NodeHandle_<MbedHardware, 25, 25, 512, 512>::spinOnce()+0x400>
    18a6:	2000      	movs	r0, #0
    18a8:	b00b      	add	sp, #44	; 0x2c
    18aa:	e8bd 8ff0 	ldmia.w	sp!, {r4, r5, r6, r7, r8, r9, r10, r11, pc}
    18ae:	4658      	mov	r0, r11
    18b0:	2101      	movs	r1, #1
    18b2:	f002 fadb 	bl	3e6c <AjK::MODSERIAL::__getc(bool)>
    18b6:	2800      	cmp	r0, #0
    18b8:	dbe9      	blt.n	188e <ros::NodeHandle_<MbedHardware, 25, 25, 512, 512>::spinOnce()+0x4a>
    18ba:	f8d4 35f8 	ldr.w	r3, [r4, #1528]	; 0x5f8
    18be:	f8d4 55e8 	ldr.w	r5, [r4, #1512]	; 0x5e8
    18c2:	4403      	add	r3, r0
    18c4:	2d07      	cmp	r5, #7
    18c6:	f8c4 35f8 	str.w	r3, [r4, #1528]	; 0x5f8
    18ca:	f000 80fe 	beq.w	1aca <ros::NodeHandle_<MbedHardware, 25, 25, 512, 512>::spinOnce()+0x286>
    18ce:	b955      	cbnz	r5, 18e6 <ros::NodeHandle_<MbedHardware, 25, 25, 512, 512>::spinOnce()+0xa2>
    18d0:	28ff      	cmp	r0, #255	; 0xff
    18d2:	f040 810e 	bne.w	1af2 <ros::NodeHandle_<MbedHardware, 25, 25, 512, 512>::spinOnce()+0x2ae>
    18d6:	2201      	movs	r2, #1
    18d8:	f108 0314 	add.w	r3, r8, #20
    18dc:	f8c4 25e8 	str.w	r2, [r4, #1512]	; 0x5e8
    18e0:	f8c4 3608 	str.w	r3, [r4, #1544]	; 0x608
    18e4:	e7ce      	b.n	1884 <ros::NodeHandle_<MbedHardware, 25, 25, 512, 512>::spinOnce()+0x40>
    18e6:	2d01      	cmp	r5, #1
    18e8:	f000 8112 	beq.w	1b10 <ros::NodeHandle_<MbedHardware, 25, 25, 512, 512>::spinOnce()+0x2cc>
    18ec:	2d02      	cmp	r5, #2
    18ee:	f000 8167 	beq.w	1bc0 <ros::NodeHandle_<MbedHardware, 25, 25, 512, 512>::spinOnce()+0x37c>
    18f2:	2d03      	cmp	r5, #3
    18f4:	f000 816e 	beq.w	1bd4 <ros::NodeHandle_<MbedHardware, 25, 25, 512, 512>::spinOnce()+0x390>
    18f8:	2d04      	cmp	r5, #4
    18fa:	f000 8175 	beq.w	1be8 <ros::NodeHandle_<MbedHardware, 25, 25, 512, 512>::spinOnce()+0x3a4>
    18fe:	2d05      	cmp	r5, #5
    1900:	f000 8181 	beq.w	1c06 <ros::NodeHandle_<MbedHardware, 25, 25, 512, 512>::spinOnce()+0x3c2>
    1904:	2d06      	cmp	r5, #6
    1906:	f000 8186 	beq.w	1c16 <ros::NodeHandle_<MbedHardware, 25, 25, 512, 512>::spinOnce()+0x3d2>
    190a:	2d08      	cmp	r5, #8
    190c:	d1ba      	bne.n	1884 <ros::NodeHandle_<MbedHardware, 25, 25, 512, 512>::spinOnce()+0x40>
    190e:	4ac9      	ldr	r2, [pc, #804]	; (1c34 <ros::NodeHandle_<MbedHardware, 25, 25, 512, 512>::spinOnce()+0x3f0>)
    1910:	2100      	movs	r1, #0
    1912:	401a      	ands	r2, r3
    1914:	428a      	cmp	r2, r1
    1916:	f8c4 15e8 	str.w	r1, [r4, #1512]	; 0x5e8
    191a:	f2c0 81f7 	blt.w	1d0c <ros::NodeHandle_<MbedHardware, 25, 25, 512, 512>::spinOnce()+0x4c8>
    191e:	2aff      	cmp	r2, #255	; 0xff
    1920:	d1b0      	bne.n	1884 <ros::NodeHandle_<MbedHardware, 25, 25, 512, 512>::spinOnce()+0x40>
    1922:	f8d4 35f0 	ldr.w	r3, [r4, #1520]	; 0x5f0
    1926:	2b00      	cmp	r3, #0
    1928:	f000 8313 	beq.w	1f52 <ros::NodeHandle_<MbedHardware, 25, 25, 512, 512>::spinOnce()+0x70e>
    192c:	2b0a      	cmp	r3, #10
    192e:	f000 82a7 	beq.w	1e80 <ros::NodeHandle_<MbedHardware, 25, 25, 512, 512>::spinOnce()+0x63c>
    1932:	2b06      	cmp	r3, #6
    1934:	f000 81f8 	beq.w	1d28 <ros::NodeHandle_<MbedHardware, 25, 25, 512, 512>::spinOnce()+0x4e4>
    1938:	2b0b      	cmp	r3, #11
    193a:	f000 81f1 	beq.w	1d20 <ros::NodeHandle_<MbedHardware, 25, 25, 512, 512>::spinOnce()+0x4dc>
    193e:	eb04 0383 	add.w	r3, r4, r3, lsl #2
    1942:	f8d3 53f4 	ldr.w	r5, [r3, #1012]	; 0x3f4
    1946:	2d00      	cmp	r5, #0
    1948:	d09c      	beq.n	1884 <ros::NodeHandle_<MbedHardware, 25, 25, 512, 512>::spinOnce()+0x40>
    194a:	682b      	ldr	r3, [r5, #0]
    194c:	f504 7290 	add.w	r2, r4, #288	; 0x120
    1950:	9201      	str	r2, [sp, #4]
    1952:	681b      	ldr	r3, [r3, #0]
    1954:	4ab8      	ldr	r2, [pc, #736]	; (1c38 <ros::NodeHandle_<MbedHardware, 25, 25, 512, 512>::spinOnce()+0x3f4>)
    1956:	4293      	cmp	r3, r2
    1958:	f040 82ee 	bne.w	1f38 <ros::NodeHandle_<MbedHardware, 25, 25, 512, 512>::spinOnce()+0x6f4>
    195c:	f894 6120 	ldrb.w	r6, [r4, #288]	; 0x120
    1960:	7d2b      	ldrb	r3, [r5, #20]
    1962:	f105 020c 	add.w	r2, r5, #12
    1966:	42b3      	cmp	r3, r6
    1968:	9202      	str	r2, [sp, #8]
    196a:	f0c0 82df 	bcc.w	1f2c <ros::NodeHandle_<MbedHardware, 25, 25, 512, 512>::spinOnce()+0x6e8>
    196e:	752e      	strb	r6, [r5, #20]
    1970:	2e00      	cmp	r6, #0
    1972:	f000 82e5 	beq.w	1f40 <ros::NodeHandle_<MbedHardware, 25, 25, 512, 512>::spinOnce()+0x6fc>
    1976:	2304      	movs	r3, #4
    1978:	aa07      	add	r2, sp, #28
    197a:	f8cd 8010 	str.w	r8, [sp, #16]
    197e:	469c      	mov	r12, r3
    1980:	4690      	mov	r8, r2
    1982:	9405      	str	r4, [sp, #20]
    1984:	9c01      	ldr	r4, [sp, #4]
    1986:	2700      	movs	r7, #0
    1988:	f105 0618 	add.w	r6, r5, #24
    198c:	f8cd a00c 	str.w	r10, [sp, #12]
    1990:	eb04 0e0c 	add.w	lr, r4, r12
    1994:	f8de 0000 	ldr.w	r0, [lr]
    1998:	f10e 0903 	add.w	r9, lr, #3
    199c:	f8c8 0000 	str.w	r0, [r8]
    19a0:	9807      	ldr	r0, [sp, #28]
    19a2:	f100 0a04 	add.w	r10, r0, #4
    19a6:	f1ba 0f04 	cmp.w	r10, #4
    19aa:	d908      	bls.n	19be <ros::NodeHandle_<MbedHardware, 25, 25, 512, 512>::spinOnce()+0x17a>
    19ac:	464b      	mov	r3, r9
    19ae:	1cc1      	adds	r1, r0, #3
    19b0:	4471      	add	r1, lr
    19b2:	f813 2f01 	ldrb.w	r2, [r3, #1]!
    19b6:	428b      	cmp	r3, r1
    19b8:	f803 2c01 	strb.w	r2, [r3, #-1]
    19bc:	d1f9      	bne.n	19b2 <ros::NodeHandle_<MbedHardware, 25, 25, 512, 512>::spinOnce()+0x16e>
    19be:	f04f 0300 	mov.w	r3, #0
    19c2:	eb0e 0200 	add.w	r2, lr, r0
    19c6:	70d3      	strb	r3, [r2, #3]
    19c8:	f8c5 901c 	str.w	r9, [r5, #28]
    19cc:	f81e 300a 	ldrb.w	r3, [lr, r10]
    19d0:	300c      	adds	r0, #12
    19d2:	622b      	str	r3, [r5, #32]
    19d4:	f892 9005 	ldrb.w	r9, [r2, #5]
    19d8:	4484      	add	r12, r0
    19da:	ea43 2309 	orr.w	r3, r3, r9, lsl #8
    19de:	622b      	str	r3, [r5, #32]
    19e0:	f892 9006 	ldrb.w	r9, [r2, #6]
    19e4:	f8d5 e028 	ldr.w	lr, [r5, #40]	; 0x28
    19e8:	ea43 4309 	orr.w	r3, r3, r9, lsl #16
    19ec:	622b      	str	r3, [r5, #32]
    19ee:	f892 9007 	ldrb.w	r9, [r2, #7]
    19f2:	0139      	lsls	r1, r7, #4
    19f4:	ea43 6309 	orr.w	r3, r3, r9, lsl #24
    19f8:	622b      	str	r3, [r5, #32]
    19fa:	7a13      	ldrb	r3, [r2, #8]
    19fc:	3701      	adds	r7, #1
    19fe:	626b      	str	r3, [r5, #36]	; 0x24
    1a00:	f892 9009 	ldrb.w	r9, [r2, #9]
    1a04:	b2ff      	uxtb	r7, r7
    1a06:	ea43 2009 	orr.w	r0, r3, r9, lsl #8
    1a0a:	6268      	str	r0, [r5, #36]	; 0x24
    1a0c:	f892 900a 	ldrb.w	r9, [r2, #10]
    1a10:	eb0e 0301 	add.w	r3, lr, r1
    1a14:	ea40 4009 	orr.w	r0, r0, r9, lsl #16
    1a18:	6268      	str	r0, [r5, #36]	; 0x24
    1a1a:	7ad2      	ldrb	r2, [r2, #11]
    1a1c:	ea40 6002 	orr.w	r0, r0, r2, lsl #24
    1a20:	6268      	str	r0, [r5, #36]	; 0x24
    1a22:	f8d6 a000 	ldr.w	r10, [r6]
    1a26:	f8d6 9004 	ldr.w	r9, [r6, #4]
    1a2a:	68b0      	ldr	r0, [r6, #8]
    1a2c:	68f2      	ldr	r2, [r6, #12]
    1a2e:	f84e a001 	str.w	r10, [lr, r1]
    1a32:	f8c3 9004 	str.w	r9, [r3, #4]
    1a36:	6098      	str	r0, [r3, #8]
    1a38:	60da      	str	r2, [r3, #12]
    1a3a:	7d2b      	ldrb	r3, [r5, #20]
    1a3c:	42bb      	cmp	r3, r7
    1a3e:	d8a7      	bhi.n	1990 <ros::NodeHandle_<MbedHardware, 25, 25, 512, 512>::spinOnce()+0x14c>
    1a40:	4663      	mov	r3, r12
    1a42:	f8dd a00c 	ldr.w	r10, [sp, #12]
    1a46:	1d1a      	adds	r2, r3, #4
    1a48:	f8dd 8010 	ldr.w	r8, [sp, #16]
    1a4c:	9c05      	ldr	r4, [sp, #20]
    1a4e:	f10c 0e01 	add.w	lr, r12, #1
    1a52:	1d16      	adds	r6, r2, #4
    1a54:	1c98      	adds	r0, r3, #2
    1a56:	f10c 0c03 	add.w	r12, r12, #3
    1a5a:	9901      	ldr	r1, [sp, #4]
    1a5c:	f895 7030 	ldrb.w	r7, [r5, #48]	; 0x30
    1a60:	5ccb      	ldrb	r3, [r1, r3]
    1a62:	62eb      	str	r3, [r5, #44]	; 0x2c
    1a64:	f811 e00e 	ldrb.w	lr, [r1, lr]
    1a68:	ea43 230e 	orr.w	r3, r3, lr, lsl #8
    1a6c:	62eb      	str	r3, [r5, #44]	; 0x2c
    1a6e:	5c08      	ldrb	r0, [r1, r0]
    1a70:	ea43 4300 	orr.w	r3, r3, r0, lsl #16
    1a74:	4608      	mov	r0, r1
    1a76:	62eb      	str	r3, [r5, #44]	; 0x2c
    1a78:	f811 100c 	ldrb.w	r1, [r1, r12]
    1a7c:	ea43 6301 	orr.w	r3, r3, r1, lsl #24
    1a80:	62eb      	str	r3, [r5, #44]	; 0x2c
    1a82:	f810 9002 	ldrb.w	r9, [r0, r2]
    1a86:	454f      	cmp	r7, r9
    1a88:	f0c0 8249 	bcc.w	1f1e <ros::NodeHandle_<MbedHardware, 25, 25, 512, 512>::spinOnce()+0x6da>
    1a8c:	f885 9030 	strb.w	r9, [r5, #48]	; 0x30
    1a90:	f1b9 0f00 	cmp.w	r9, #0
    1a94:	d015      	beq.n	1ac2 <ros::NodeHandle_<MbedHardware, 25, 25, 512, 512>::spinOnce()+0x27e>
    1a96:	9b01      	ldr	r3, [sp, #4]
    1a98:	f105 0732 	add.w	r7, r5, #50	; 0x32
    1a9c:	4433      	add	r3, r6
    1a9e:	461e      	mov	r6, r3
    1aa0:	2000      	movs	r0, #0
    1aa2:	7872      	ldrb	r2, [r6, #1]
    1aa4:	f816 3b02 	ldrb.w	r3, [r6], #2
    1aa8:	6b69      	ldr	r1, [r5, #52]	; 0x34
    1aaa:	ea43 2302 	orr.w	r3, r3, r2, lsl #8
    1aae:	866b      	strh	r3, [r5, #50]	; 0x32
    1ab0:	883b      	ldrh	r3, [r7, #0]
    1ab2:	1c42      	adds	r2, r0, #1
    1ab4:	f821 3010 	strh.w	r3, [r1, r0, lsl #1]
    1ab8:	f895 3030 	ldrb.w	r3, [r5, #48]	; 0x30
    1abc:	b2d0      	uxtb	r0, r2
    1abe:	4283      	cmp	r3, r0
    1ac0:	d8ef      	bhi.n	1aa2 <ros::NodeHandle_<MbedHardware, 25, 25, 512, 512>::spinOnce()+0x25e>
    1ac2:	6bab      	ldr	r3, [r5, #56]	; 0x38
    1ac4:	9802      	ldr	r0, [sp, #8]
    1ac6:	4798      	blx	r3
    1ac8:	e6dc      	b.n	1884 <ros::NodeHandle_<MbedHardware, 25, 25, 512, 512>::spinOnce()+0x40>
    1aca:	f8d4 25f4 	ldr.w	r2, [r4, #1524]	; 0x5f4
    1ace:	f8d4 35ec 	ldr.w	r3, [r4, #1516]	; 0x5ec
    1ad2:	1c51      	adds	r1, r2, #1
    1ad4:	3b01      	subs	r3, #1
    1ad6:	4422      	add	r2, r4
    1ad8:	f8c4 15f4 	str.w	r1, [r4, #1524]	; 0x5f4
    1adc:	f882 0120 	strb.w	r0, [r2, #288]	; 0x120
    1ae0:	f8c4 35ec 	str.w	r3, [r4, #1516]	; 0x5ec
    1ae4:	2b00      	cmp	r3, #0
    1ae6:	f47f aecd 	bne.w	1884 <ros::NodeHandle_<MbedHardware, 25, 25, 512, 512>::spinOnce()+0x40>
    1aea:	2308      	movs	r3, #8
    1aec:	f8c4 35e8 	str.w	r3, [r4, #1512]	; 0x5e8
    1af0:	e6c8      	b.n	1884 <ros::NodeHandle_<MbedHardware, 25, 25, 512, 512>::spinOnce()+0x40>
    1af2:	4650      	mov	r0, r10
    1af4:	f003 fe2c 	bl	5750 <mbed::Timer::read_ms()>
    1af8:	ebc8 0000 	rsb	r0, r8, r0
    1afc:	2805      	cmp	r0, #5
    1afe:	f67f aec1 	bls.w	1884 <ros::NodeHandle_<MbedHardware, 25, 25, 512, 512>::spinOnce()+0x40>
    1b02:	f06f 0001 	mvn.w	r0, #1
    1b06:	f884 55fc 	strb.w	r5, [r4, #1532]	; 0x5fc
    1b0a:	b00b      	add	sp, #44	; 0x2c
    1b0c:	e8bd 8ff0 	ldmia.w	sp!, {r4, r5, r6, r7, r8, r9, r10, r11, pc}
    1b10:	28fe      	cmp	r0, #254	; 0xfe
    1b12:	d074      	beq.n	1bfe <ros::NodeHandle_<MbedHardware, 25, 25, 512, 512>::spinOnce()+0x3ba>
    1b14:	f894 35fc 	ldrb.w	r3, [r4, #1532]	; 0x5fc
    1b18:	f8c4 65e8 	str.w	r6, [r4, #1512]	; 0x5e8
    1b1c:	2b00      	cmp	r3, #0
    1b1e:	f47f aeb1 	bne.w	1884 <ros::NodeHandle_<MbedHardware, 25, 25, 512, 512>::spinOnce()+0x40>
    1b22:	4946      	ldr	r1, [pc, #280]	; (1c3c <ros::NodeHandle_<MbedHardware, 25, 25, 512, 512>::spinOnce()+0x3f8>)
    1b24:	6822      	ldr	r2, [r4, #0]
    1b26:	9107      	str	r1, [sp, #28]
    1b28:	6815      	ldr	r5, [r2, #0]
    1b2a:	4a45      	ldr	r2, [pc, #276]	; (1c40 <ros::NodeHandle_<MbedHardware, 25, 25, 512, 512>::spinOnce()+0x3fc>)
    1b2c:	9308      	str	r3, [sp, #32]
    1b2e:	4295      	cmp	r5, r2
    1b30:	9309      	str	r3, [sp, #36]	; 0x24
    1b32:	f040 80e1 	bne.w	1cf8 <ros::NodeHandle_<MbedHardware, 25, 25, 512, 512>::spinOnce()+0x4b4>
    1b36:	200a      	movs	r0, #10
    1b38:	461a      	mov	r2, r3
    1b3a:	27ff      	movs	r7, #255	; 0xff
    1b3c:	26fe      	movs	r6, #254	; 0xfe
    1b3e:	2508      	movs	r5, #8
    1b40:	f884 3327 	strb.w	r3, [r4, #807]	; 0x327
    1b44:	f884 3328 	strb.w	r3, [r4, #808]	; 0x328
    1b48:	f884 3329 	strb.w	r3, [r4, #809]	; 0x329
    1b4c:	f884 332a 	strb.w	r3, [r4, #810]	; 0x32a
    1b50:	f884 332b 	strb.w	r3, [r4, #811]	; 0x32b
    1b54:	f884 332c 	strb.w	r3, [r4, #812]	; 0x32c
    1b58:	f884 332d 	strb.w	r3, [r4, #813]	; 0x32d
    1b5c:	f884 332e 	strb.w	r3, [r4, #814]	; 0x32e
    1b60:	f884 3323 	strb.w	r3, [r4, #803]	; 0x323
    1b64:	f884 3326 	strb.w	r3, [r4, #806]	; 0x326
    1b68:	23f7      	movs	r3, #247	; 0xf7
    1b6a:	4601      	mov	r1, r0
    1b6c:	f884 0325 	strb.w	r0, [r4, #805]	; 0x325
    1b70:	f884 3324 	strb.w	r3, [r4, #804]	; 0x324
    1b74:	f884 7320 	strb.w	r7, [r4, #800]	; 0x320
    1b78:	f884 6321 	strb.w	r6, [r4, #801]	; 0x321
    1b7c:	f884 5322 	strb.w	r5, [r4, #802]	; 0x322
    1b80:	f204 3325 	addw	r3, r4, #805	; 0x325
    1b84:	f204 302e 	addw	r0, r4, #814	; 0x32e
    1b88:	e001      	b.n	1b8e <ros::NodeHandle_<MbedHardware, 25, 25, 512, 512>::spinOnce()+0x34a>
    1b8a:	f813 1f01 	ldrb.w	r1, [r3, #1]!
    1b8e:	4283      	cmp	r3, r0
    1b90:	440a      	add	r2, r1
    1b92:	d1fa      	bne.n	1b8a <ros::NodeHandle_<MbedHardware, 25, 25, 512, 512>::spinOnce()+0x346>
    1b94:	43d2      	mvns	r2, r2
    1b96:	f104 0744 	add.w	r7, r4, #68	; 0x44
    1b9a:	f884 232f 	strb.w	r2, [r4, #815]	; 0x32f
    1b9e:	f204 351f 	addw	r5, r4, #799	; 0x31f
    1ba2:	f204 362f 	addw	r6, r4, #815	; 0x32f
    1ba6:	f815 1f01 	ldrb.w	r1, [r5, #1]!
    1baa:	4638      	mov	r0, r7
    1bac:	f003 fd96 	bl	56dc <mbed::Stream::putc(int)>
    1bb0:	42b5      	cmp	r5, r6
    1bb2:	d1f8      	bne.n	1ba6 <ros::NodeHandle_<MbedHardware, 25, 25, 512, 512>::spinOnce()+0x362>
    1bb4:	4650      	mov	r0, r10
    1bb6:	f003 fdcb 	bl	5750 <mbed::Timer::read_ms()>
    1bba:	f8c4 0114 	str.w	r0, [r4, #276]	; 0x114
    1bbe:	e661      	b.n	1884 <ros::NodeHandle_<MbedHardware, 25, 25, 512, 512>::spinOnce()+0x40>
    1bc0:	2303      	movs	r3, #3
    1bc2:	f8c4 05ec 	str.w	r0, [r4, #1516]	; 0x5ec
    1bc6:	f8c4 65f4 	str.w	r6, [r4, #1524]	; 0x5f4
    1bca:	f8c4 05f8 	str.w	r0, [r4, #1528]	; 0x5f8
    1bce:	f8c4 35e8 	str.w	r3, [r4, #1512]	; 0x5e8
    1bd2:	e657      	b.n	1884 <ros::NodeHandle_<MbedHardware, 25, 25, 512, 512>::spinOnce()+0x40>
    1bd4:	f8d4 35ec 	ldr.w	r3, [r4, #1516]	; 0x5ec
    1bd8:	2204      	movs	r2, #4
    1bda:	eb03 2000 	add.w	r0, r3, r0, lsl #8
    1bde:	f8c4 05ec 	str.w	r0, [r4, #1516]	; 0x5ec
    1be2:	f8c4 25e8 	str.w	r2, [r4, #1512]	; 0x5e8
    1be6:	e64d      	b.n	1884 <ros::NodeHandle_<MbedHardware, 25, 25, 512, 512>::spinOnce()+0x40>
    1be8:	4a12      	ldr	r2, [pc, #72]	; (1c34 <ros::NodeHandle_<MbedHardware, 25, 25, 512, 512>::spinOnce()+0x3f0>)
    1bea:	401a      	ands	r2, r3
    1bec:	2a00      	cmp	r2, #0
    1bee:	db7e      	blt.n	1cee <ros::NodeHandle_<MbedHardware, 25, 25, 512, 512>::spinOnce()+0x4aa>
    1bf0:	2aff      	cmp	r2, #255	; 0xff
    1bf2:	bf0c      	ite	eq
    1bf4:	2305      	moveq	r3, #5
    1bf6:	2300      	movne	r3, #0
    1bf8:	f8c4 35e8 	str.w	r3, [r4, #1512]	; 0x5e8
    1bfc:	e642      	b.n	1884 <ros::NodeHandle_<MbedHardware, 25, 25, 512, 512>::spinOnce()+0x40>
    1bfe:	2302      	movs	r3, #2
    1c00:	f8c4 35e8 	str.w	r3, [r4, #1512]	; 0x5e8
    1c04:	e63e      	b.n	1884 <ros::NodeHandle_<MbedHardware, 25, 25, 512, 512>::spinOnce()+0x40>
    1c06:	2306      	movs	r3, #6
    1c08:	f8c4 05f0 	str.w	r0, [r4, #1520]	; 0x5f0
    1c0c:	f8c4 05f8 	str.w	r0, [r4, #1528]	; 0x5f8
    1c10:	f8c4 35e8 	str.w	r3, [r4, #1512]	; 0x5e8
    1c14:	e636      	b.n	1884 <ros::NodeHandle_<MbedHardware, 25, 25, 512, 512>::spinOnce()+0x40>
    1c16:	f8d4 35f0 	ldr.w	r3, [r4, #1520]	; 0x5f0
    1c1a:	f8d4 25ec 	ldr.w	r2, [r4, #1516]	; 0x5ec
    1c1e:	eb03 2300 	add.w	r3, r3, r0, lsl #8
    1c22:	2107      	movs	r1, #7
    1c24:	f8c4 35f0 	str.w	r3, [r4, #1520]	; 0x5f0
    1c28:	f8c4 15e8 	str.w	r1, [r4, #1512]	; 0x5e8
    1c2c:	2a00      	cmp	r2, #0
    1c2e:	f43f af5c 	beq.w	1aea <ros::NodeHandle_<MbedHardware, 25, 25, 512, 512>::spinOnce()+0x2a6>
    1c32:	e627      	b.n	1884 <ros::NodeHandle_<MbedHardware, 25, 25, 512, 512>::spinOnce()+0x40>
    1c34:	800000ff 	.word	0x800000ff
    1c38:	00000d5d 	.word	0x00000d5d
    1c3c:	00008bf8 	.word	0x00008bf8
    1c40:	00001061 	.word	0x00001061
    1c44:	4ad1      	ldr	r2, [pc, #836]	; (1f8c <ros::NodeHandle_<MbedHardware, 25, 25, 512, 512>::spinOnce()+0x748>)
    1c46:	6823      	ldr	r3, [r4, #0]
    1c48:	9207      	str	r2, [sp, #28]
    1c4a:	681d      	ldr	r5, [r3, #0]
    1c4c:	4ad0      	ldr	r2, [pc, #832]	; (1f90 <ros::NodeHandle_<MbedHardware, 25, 25, 512, 512>::spinOnce()+0x74c>)
    1c4e:	2300      	movs	r3, #0
    1c50:	4295      	cmp	r5, r2
    1c52:	9308      	str	r3, [sp, #32]
    1c54:	9309      	str	r3, [sp, #36]	; 0x24
    1c56:	d15e      	bne.n	1d16 <ros::NodeHandle_<MbedHardware, 25, 25, 512, 512>::spinOnce()+0x4d2>
    1c58:	200a      	movs	r0, #10
    1c5a:	f04f 0eff 	mov.w	lr, #255	; 0xff
    1c5e:	27fe      	movs	r7, #254	; 0xfe
    1c60:	2608      	movs	r6, #8
    1c62:	25f7      	movs	r5, #247	; 0xf7
    1c64:	461a      	mov	r2, r3
    1c66:	4601      	mov	r1, r0
    1c68:	f884 3327 	strb.w	r3, [r4, #807]	; 0x327
    1c6c:	f884 3328 	strb.w	r3, [r4, #808]	; 0x328
    1c70:	f884 3329 	strb.w	r3, [r4, #809]	; 0x329
    1c74:	f884 332a 	strb.w	r3, [r4, #810]	; 0x32a
    1c78:	f884 332b 	strb.w	r3, [r4, #811]	; 0x32b
    1c7c:	f884 332c 	strb.w	r3, [r4, #812]	; 0x32c
    1c80:	f884 332d 	strb.w	r3, [r4, #813]	; 0x32d
    1c84:	f884 332e 	strb.w	r3, [r4, #814]	; 0x32e
    1c88:	f884 3323 	strb.w	r3, [r4, #803]	; 0x323
    1c8c:	f884 3326 	strb.w	r3, [r4, #806]	; 0x326
    1c90:	f884 0325 	strb.w	r0, [r4, #805]	; 0x325
    1c94:	f884 e320 	strb.w	lr, [r4, #800]	; 0x320
    1c98:	f884 7321 	strb.w	r7, [r4, #801]	; 0x321
    1c9c:	f884 6322 	strb.w	r6, [r4, #802]	; 0x322
    1ca0:	f884 5324 	strb.w	r5, [r4, #804]	; 0x324
    1ca4:	f204 3325 	addw	r3, r4, #805	; 0x325
    1ca8:	f204 302e 	addw	r0, r4, #814	; 0x32e
    1cac:	e001      	b.n	1cb2 <ros::NodeHandle_<MbedHardware, 25, 25, 512, 512>::spinOnce()+0x46e>
    1cae:	f813 1f01 	ldrb.w	r1, [r3, #1]!
    1cb2:	4283      	cmp	r3, r0
    1cb4:	440a      	add	r2, r1
    1cb6:	d1fa      	bne.n	1cae <ros::NodeHandle_<MbedHardware, 25, 25, 512, 512>::spinOnce()+0x46a>
    1cb8:	43d2      	mvns	r2, r2
    1cba:	f104 0744 	add.w	r7, r4, #68	; 0x44
    1cbe:	f884 232f 	strb.w	r2, [r4, #815]	; 0x32f
    1cc2:	f204 351f 	addw	r5, r4, #799	; 0x31f
    1cc6:	f204 362f 	addw	r6, r4, #815	; 0x32f
    1cca:	f815 1f01 	ldrb.w	r1, [r5, #1]!
    1cce:	4638      	mov	r0, r7
    1cd0:	f003 fd04 	bl	56dc <mbed::Stream::putc(int)>
    1cd4:	42b5      	cmp	r5, r6
    1cd6:	d1f8      	bne.n	1cca <ros::NodeHandle_<MbedHardware, 25, 25, 512, 512>::spinOnce()+0x486>
    1cd8:	4650      	mov	r0, r10
    1cda:	f003 fd39 	bl	5750 <mbed::Timer::read_ms()>
    1cde:	f8c4 0114 	str.w	r0, [r4, #276]	; 0x114
    1ce2:	2000      	movs	r0, #0
    1ce4:	f8c4 8600 	str.w	r8, [r4, #1536]	; 0x600
    1ce8:	b00b      	add	sp, #44	; 0x2c
    1cea:	e8bd 8ff0 	ldmia.w	sp!, {r4, r5, r6, r7, r8, r9, r10, r11, pc}
    1cee:	3a01      	subs	r2, #1
    1cf0:	f062 02ff 	orn	r2, r2, #255	; 0xff
    1cf4:	3201      	adds	r2, #1
    1cf6:	e77b      	b.n	1bf0 <ros::NodeHandle_<MbedHardware, 25, 25, 512, 512>::spinOnce()+0x3ac>
    1cf8:	210a      	movs	r1, #10
    1cfa:	aa07      	add	r2, sp, #28
    1cfc:	4620      	mov	r0, r4
    1cfe:	47a8      	blx	r5
    1d00:	4650      	mov	r0, r10
    1d02:	f003 fd25 	bl	5750 <mbed::Timer::read_ms()>
    1d06:	f8c4 0114 	str.w	r0, [r4, #276]	; 0x114
    1d0a:	e5bb      	b.n	1884 <ros::NodeHandle_<MbedHardware, 25, 25, 512, 512>::spinOnce()+0x40>
    1d0c:	3a01      	subs	r2, #1
    1d0e:	f062 02ff 	orn	r2, r2, #255	; 0xff
    1d12:	3201      	adds	r2, #1
    1d14:	e603      	b.n	191e <ros::NodeHandle_<MbedHardware, 25, 25, 512, 512>::spinOnce()+0xda>
    1d16:	4620      	mov	r0, r4
    1d18:	210a      	movs	r1, #10
    1d1a:	aa07      	add	r2, sp, #28
    1d1c:	47a8      	blx	r5
    1d1e:	e7db      	b.n	1cd8 <ros::NodeHandle_<MbedHardware, 25, 25, 512, 512>::spinOnce()+0x494>
    1d20:	2300      	movs	r3, #0
    1d22:	f884 35fc 	strb.w	r3, [r4, #1532]	; 0x5fc
    1d26:	e5ad      	b.n	1884 <ros::NodeHandle_<MbedHardware, 25, 25, 512, 512>::spinOnce()+0x40>
    1d28:	f894 5120 	ldrb.w	r5, [r4, #288]	; 0x120
    1d2c:	f894 3614 	ldrb.w	r3, [r4, #1556]	; 0x614
    1d30:	f504 7690 	add.w	r6, r4, #288	; 0x120
    1d34:	42ab      	cmp	r3, r5
    1d36:	d206      	bcs.n	1d46 <ros::NodeHandle_<MbedHardware, 25, 25, 512, 512>::spinOnce()+0x502>
    1d38:	f8d4 061c 	ldr.w	r0, [r4, #1564]	; 0x61c
    1d3c:	00a9      	lsls	r1, r5, #2
    1d3e:	f002 f86b 	bl	3e18 <__wrap_realloc>
    1d42:	f8c4 061c 	str.w	r0, [r4, #1564]	; 0x61c
    1d46:	f884 5614 	strb.w	r5, [r4, #1556]	; 0x614
    1d4a:	2d00      	cmp	r5, #0
    1d4c:	f000 811a 	beq.w	1f84 <ros::NodeHandle_<MbedHardware, 25, 25, 512, 512>::spinOnce()+0x740>
    1d50:	4630      	mov	r0, r6
    1d52:	f504 67c3 	add.w	r7, r4, #1560	; 0x618
    1d56:	2100      	movs	r1, #0
    1d58:	2504      	movs	r5, #4
    1d5a:	7983      	ldrb	r3, [r0, #6]
    1d5c:	f890 e005 	ldrb.w	lr, [r0, #5]
    1d60:	7902      	ldrb	r2, [r0, #4]
    1d62:	041b      	lsls	r3, r3, #16
    1d64:	ea43 230e 	orr.w	r3, r3, lr, lsl #8
    1d68:	f890 e007 	ldrb.w	lr, [r0, #7]
    1d6c:	4313      	orrs	r3, r2
    1d6e:	ea43 630e 	orr.w	r3, r3, lr, lsl #24
    1d72:	f8c4 3618 	str.w	r3, [r4, #1560]	; 0x618
    1d76:	683a      	ldr	r2, [r7, #0]
    1d78:	f8d4 361c 	ldr.w	r3, [r4, #1564]	; 0x61c
    1d7c:	3504      	adds	r5, #4
    1d7e:	f843 2021 	str.w	r2, [r3, r1, lsl #2]
    1d82:	f894 3614 	ldrb.w	r3, [r4, #1556]	; 0x614
    1d86:	3101      	adds	r1, #1
    1d88:	b2c9      	uxtb	r1, r1
    1d8a:	428b      	cmp	r3, r1
    1d8c:	f100 0004 	add.w	r0, r0, #4
    1d90:	d8e3      	bhi.n	1d5a <ros::NodeHandle_<MbedHardware, 25, 25, 512, 512>::spinOnce()+0x516>
    1d92:	1d2f      	adds	r7, r5, #4
    1d94:	46b9      	mov	r9, r7
    1d96:	5d75      	ldrb	r5, [r6, r5]
    1d98:	f894 3620 	ldrb.w	r3, [r4, #1568]	; 0x620
    1d9c:	42ab      	cmp	r3, r5
    1d9e:	d206      	bcs.n	1dae <ros::NodeHandle_<MbedHardware, 25, 25, 512, 512>::spinOnce()+0x56a>
    1da0:	f8d4 0628 	ldr.w	r0, [r4, #1576]	; 0x628
    1da4:	00a9      	lsls	r1, r5, #2
    1da6:	f002 f837 	bl	3e18 <__wrap_realloc>
    1daa:	f8c4 0628 	str.w	r0, [r4, #1576]	; 0x628
    1dae:	f884 5620 	strb.w	r5, [r4, #1568]	; 0x620
    1db2:	b32d      	cbz	r5, 1e00 <ros::NodeHandle_<MbedHardware, 25, 25, 512, 512>::spinOnce()+0x5bc>
    1db4:	eb06 0109 	add.w	r1, r6, r9
    1db8:	f204 6724 	addw	r7, r4, #1572	; 0x624
    1dbc:	2000      	movs	r0, #0
    1dbe:	f1c6 0504 	rsb	r5, r6, #4
    1dc2:	788b      	ldrb	r3, [r1, #2]
    1dc4:	f891 e001 	ldrb.w	lr, [r1, #1]
    1dc8:	780a      	ldrb	r2, [r1, #0]
    1dca:	041b      	lsls	r3, r3, #16
    1dcc:	ea43 230e 	orr.w	r3, r3, lr, lsl #8
    1dd0:	f891 e003 	ldrb.w	lr, [r1, #3]
    1dd4:	4313      	orrs	r3, r2
    1dd6:	ea43 630e 	orr.w	r3, r3, lr, lsl #24
    1dda:	f8c4 3624 	str.w	r3, [r4, #1572]	; 0x624
    1dde:	f8d7 e000 	ldr.w	lr, [r7]
    1de2:	f8d4 3628 	ldr.w	r3, [r4, #1576]	; 0x628
    1de6:	1c42      	adds	r2, r0, #1
    1de8:	f843 e020 	str.w	lr, [r3, r0, lsl #2]
    1dec:	f894 3620 	ldrb.w	r3, [r4, #1568]	; 0x620
    1df0:	b2d0      	uxtb	r0, r2
    1df2:	4283      	cmp	r3, r0
    1df4:	eb05 0901 	add.w	r9, r5, r1
    1df8:	f101 0104 	add.w	r1, r1, #4
    1dfc:	d8e1      	bhi.n	1dc2 <ros::NodeHandle_<MbedHardware, 25, 25, 512, 512>::spinOnce()+0x57e>
    1dfe:	464f      	mov	r7, r9
    1e00:	5df5      	ldrb	r5, [r6, r7]
    1e02:	f894 362c 	ldrb.w	r3, [r4, #1580]	; 0x62c
    1e06:	42ab      	cmp	r3, r5
    1e08:	d206      	bcs.n	1e18 <ros::NodeHandle_<MbedHardware, 25, 25, 512, 512>::spinOnce()+0x5d4>
    1e0a:	f8d4 0634 	ldr.w	r0, [r4, #1588]	; 0x634
    1e0e:	00a9      	lsls	r1, r5, #2
    1e10:	f002 f802 	bl	3e18 <__wrap_realloc>
    1e14:	f8c4 0634 	str.w	r0, [r4, #1588]	; 0x634
    1e18:	f109 0304 	add.w	r3, r9, #4
    1e1c:	f884 562c 	strb.w	r5, [r4, #1580]	; 0x62c
    1e20:	b355      	cbz	r5, 1e78 <ros::NodeHandle_<MbedHardware, 25, 25, 512, 512>::spinOnce()+0x634>
    1e22:	2500      	movs	r5, #0
    1e24:	aa07      	add	r2, sp, #28
    1e26:	46ae      	mov	lr, r5
    1e28:	4694      	mov	r12, r2
    1e2a:	f504 67c6 	add.w	r7, r4, #1584	; 0x630
    1e2e:	58f0      	ldr	r0, [r6, r3]
    1e30:	1d19      	adds	r1, r3, #4
    1e32:	f8cc 0000 	str.w	r0, [r12]
    1e36:	9a07      	ldr	r2, [sp, #28]
    1e38:	440a      	add	r2, r1
    1e3a:	428a      	cmp	r2, r1
    1e3c:	d909      	bls.n	1e52 <ros::NodeHandle_<MbedHardware, 25, 25, 512, 512>::spinOnce()+0x60e>
    1e3e:	4608      	mov	r0, r1
    1e40:	3303      	adds	r3, #3
    1e42:	4433      	add	r3, r6
    1e44:	f813 9f01 	ldrb.w	r9, [r3, #1]!
    1e48:	3001      	adds	r0, #1
    1e4a:	4282      	cmp	r2, r0
    1e4c:	f803 9c01 	strb.w	r9, [r3, #-1]
    1e50:	d8f8      	bhi.n	1e44 <ros::NodeHandle_<MbedHardware, 25, 25, 512, 512>::spinOnce()+0x600>
    1e52:	1e4b      	subs	r3, r1, #1
    1e54:	4433      	add	r3, r6
    1e56:	18b1      	adds	r1, r6, r2
    1e58:	f801 ec01 	strb.w	lr, [r1, #-1]
    1e5c:	f8c4 3630 	str.w	r3, [r4, #1584]	; 0x630
    1e60:	6838      	ldr	r0, [r7, #0]
    1e62:	f8d4 1634 	ldr.w	r1, [r4, #1588]	; 0x634
    1e66:	4613      	mov	r3, r2
    1e68:	f841 0025 	str.w	r0, [r1, r5, lsl #2]
    1e6c:	f894 262c 	ldrb.w	r2, [r4, #1580]	; 0x62c
    1e70:	3501      	adds	r5, #1
    1e72:	b2ed      	uxtb	r5, r5
    1e74:	42aa      	cmp	r2, r5
    1e76:	d8da      	bhi.n	1e2e <ros::NodeHandle_<MbedHardware, 25, 25, 512, 512>::spinOnce()+0x5ea>
    1e78:	2301      	movs	r3, #1
    1e7a:	f884 360c 	strb.w	r3, [r4, #1548]	; 0x60c
    1e7e:	e501      	b.n	1884 <ros::NodeHandle_<MbedHardware, 25, 25, 512, 512>::spinOnce()+0x40>
    1e80:	4650      	mov	r0, r10
    1e82:	f003 fc65 	bl	5750 <mbed::Timer::read_ms()>
    1e86:	f894 6122 	ldrb.w	r6, [r4, #290]	; 0x122
    1e8a:	f894 3126 	ldrb.w	r3, [r4, #294]	; 0x126
    1e8e:	f894 7121 	ldrb.w	r7, [r4, #289]	; 0x121
    1e92:	f894 e125 	ldrb.w	lr, [r4, #293]	; 0x125
    1e96:	0436      	lsls	r6, r6, #16
    1e98:	f894 1120 	ldrb.w	r1, [r4, #288]	; 0x120
    1e9c:	ea46 2707 	orr.w	r7, r6, r7, lsl #8
    1ea0:	041a      	lsls	r2, r3, #16
    1ea2:	f894 6123 	ldrb.w	r6, [r4, #291]	; 0x123
    1ea6:	f894 3124 	ldrb.w	r3, [r4, #292]	; 0x124
    1eaa:	f8d4 5114 	ldr.w	r5, [r4, #276]	; 0x114
    1eae:	ea42 220e 	orr.w	r2, r2, lr, lsl #8
    1eb2:	4339      	orrs	r1, r7
    1eb4:	f894 7127 	ldrb.w	r7, [r4, #295]	; 0x127
    1eb8:	431a      	orrs	r2, r3
    1eba:	1b45      	subs	r5, r0, r5
    1ebc:	ea41 6306 	orr.w	r3, r1, r6, lsl #24
    1ec0:	4650      	mov	r0, r10
    1ec2:	ea42 6707 	orr.w	r7, r2, r7, lsl #24
    1ec6:	1e5e      	subs	r6, r3, #1
    1ec8:	f003 fc42 	bl	5750 <mbed::Timer::read_ms()>
    1ecc:	4b31      	ldr	r3, [pc, #196]	; (1f94 <ros::NodeHandle_<MbedHardware, 25, 25, 512, 512>::spinOnce()+0x750>)
    1ece:	4931      	ldr	r1, [pc, #196]	; (1f94 <ros::NodeHandle_<MbedHardware, 25, 25, 512, 512>::spinOnce()+0x750>)
    1ed0:	fba3 2305 	umull	r2, r3, r3, r5
    1ed4:	f8df 90c4 	ldr.w	r9, [pc, #196]	; 1f9c <ros::NodeHandle_<MbedHardware, 25, 25, 512, 512>::spinOnce()+0x758>
    1ed8:	f44f 727a 	mov.w	r2, #1000	; 0x3e8
    1edc:	44b9      	add	r9, r7
    1ede:	099b      	lsrs	r3, r3, #6
    1ee0:	fba1 1700 	umull	r1, r7, r1, r0
    1ee4:	fb02 5513 	mls	r5, r2, r3, r5
    1ee8:	492b      	ldr	r1, [pc, #172]	; (1f98 <ros::NodeHandle_<MbedHardware, 25, 25, 512, 512>::spinOnce()+0x754>)
    1eea:	09bf      	lsrs	r7, r7, #6
    1eec:	fb01 9105 	mla	r1, r1, r5, r9
    1ef0:	fb02 0217 	mls	r2, r2, r7, r0
    1ef4:	4828      	ldr	r0, [pc, #160]	; (1f98 <ros::NodeHandle_<MbedHardware, 25, 25, 512, 512>::spinOnce()+0x754>)
    1ef6:	4433      	add	r3, r6
    1ef8:	fb00 1212 	mls	r2, r0, r2, r1
    1efc:	1bdb      	subs	r3, r3, r7
    1efe:	f8c4 211c 	str.w	r2, [r4, #284]	; 0x11c
    1f02:	f8c4 3118 	str.w	r3, [r4, #280]	; 0x118
    1f06:	f504 708c 	add.w	r0, r4, #280	; 0x118
    1f0a:	f504 718e 	add.w	r1, r4, #284	; 0x11c
    1f0e:	f001 ff97 	bl	3e40 <ros::normalizeSecNSec(unsigned long&, unsigned long&)>
    1f12:	4650      	mov	r0, r10
    1f14:	f003 fc1c 	bl	5750 <mbed::Timer::read_ms()>
    1f18:	f8c4 0604 	str.w	r0, [r4, #1540]	; 0x604
    1f1c:	e4b2      	b.n	1884 <ros::NodeHandle_<MbedHardware, 25, 25, 512, 512>::spinOnce()+0x40>
    1f1e:	6b68      	ldr	r0, [r5, #52]	; 0x34
    1f20:	ea4f 0149 	mov.w	r1, r9, lsl #1
    1f24:	f001 ff78 	bl	3e18 <__wrap_realloc>
    1f28:	6368      	str	r0, [r5, #52]	; 0x34
    1f2a:	e5af      	b.n	1a8c <ros::NodeHandle_<MbedHardware, 25, 25, 512, 512>::spinOnce()+0x248>
    1f2c:	6aa8      	ldr	r0, [r5, #40]	; 0x28
    1f2e:	0131      	lsls	r1, r6, #4
    1f30:	f001 ff72 	bl	3e18 <__wrap_realloc>
    1f34:	62a8      	str	r0, [r5, #40]	; 0x28
    1f36:	e51a      	b.n	196e <ros::NodeHandle_<MbedHardware, 25, 25, 512, 512>::spinOnce()+0x12a>
    1f38:	4628      	mov	r0, r5
    1f3a:	9901      	ldr	r1, [sp, #4]
    1f3c:	4798      	blx	r3
    1f3e:	e4a1      	b.n	1884 <ros::NodeHandle_<MbedHardware, 25, 25, 512, 512>::spinOnce()+0x40>
    1f40:	2208      	movs	r2, #8
    1f42:	f04f 0c07 	mov.w	r12, #7
    1f46:	2006      	movs	r0, #6
    1f48:	f04f 0e05 	mov.w	lr, #5
    1f4c:	2304      	movs	r3, #4
    1f4e:	260c      	movs	r6, #12
    1f50:	e583      	b.n	1a5a <ros::NodeHandle_<MbedHardware, 25, 25, 512, 512>::spinOnce()+0x216>
    1f52:	490e      	ldr	r1, [pc, #56]	; (1f8c <ros::NodeHandle_<MbedHardware, 25, 25, 512, 512>::spinOnce()+0x748>)
    1f54:	6822      	ldr	r2, [r4, #0]
    1f56:	9107      	str	r1, [sp, #28]
    1f58:	9308      	str	r3, [sp, #32]
    1f5a:	210a      	movs	r1, #10
    1f5c:	9309      	str	r3, [sp, #36]	; 0x24
    1f5e:	4620      	mov	r0, r4
    1f60:	6813      	ldr	r3, [r2, #0]
    1f62:	aa07      	add	r2, sp, #28
    1f64:	4798      	blx	r3
    1f66:	4650      	mov	r0, r10
    1f68:	f003 fbf2 	bl	5750 <mbed::Timer::read_ms()>
    1f6c:	f8c4 0114 	str.w	r0, [r4, #276]	; 0x114
    1f70:	4620      	mov	r0, r4
    1f72:	f7ff f9af 	bl	12d4 <ros::NodeHandle_<MbedHardware, 25, 25, 512, 512>::negotiateTopics()>
    1f76:	f8c4 8600 	str.w	r8, [r4, #1536]	; 0x600
    1f7a:	f8c4 8604 	str.w	r8, [r4, #1540]	; 0x604
    1f7e:	f04f 30ff 	mov.w	r0, #4294967295
    1f82:	e491      	b.n	18a8 <ros::NodeHandle_<MbedHardware, 25, 25, 512, 512>::spinOnce()+0x64>
    1f84:	2708      	movs	r7, #8
    1f86:	46b9      	mov	r9, r7
    1f88:	2504      	movs	r5, #4
    1f8a:	e704      	b.n	1d96 <ros::NodeHandle_<MbedHardware, 25, 25, 512, 512>::spinOnce()+0x552>
    1f8c:	00008bf8 	.word	0x00008bf8
    1f90:	00001061 	.word	0x00001061
    1f94:	10624dd3 	.word	0x10624dd3
    1f98:	000f4240 	.word	0x000f4240
    1f9c:	3b9aca00 	.word	0x3b9aca00

00001fa0 <void std::vector<Dynamixel*, std::allocator<Dynamixel*> >::_M_emplace_back_aux<Dynamixel*>(Dynamixel*&&)>:
    1fa0:	e92d 41f0 	stmdb	sp!, {r4, r5, r6, r7, r8, lr}
    1fa4:	4605      	mov	r5, r0
    1fa6:	c811      	ldmia	r0, {r0, r4}
    1fa8:	1a24      	subs	r4, r4, r0
    1faa:	10a6      	asrs	r6, r4, #2
    1fac:	4688      	mov	r8, r1
    1fae:	d020      	beq.n	1ff2 <void std::vector<Dynamixel*, std::allocator<Dynamixel*> >::_M_emplace_back_aux<Dynamixel*>(Dynamixel*&&)+0x52>
    1fb0:	0077      	lsls	r7, r6, #1
    1fb2:	42be      	cmp	r6, r7
    1fb4:	d92d      	bls.n	2012 <void std::vector<Dynamixel*, std::allocator<Dynamixel*> >::_M_emplace_back_aux<Dynamixel*>(Dynamixel*&&)+0x72>
    1fb6:	f06f 0603 	mvn.w	r6, #3
    1fba:	4630      	mov	r0, r6
    1fbc:	f003 fd75 	bl	5aaa <operator new(unsigned int)>
    1fc0:	4607      	mov	r7, r0
    1fc2:	e895 0011 	ldmia.w	r5, {r0, r4}
    1fc6:	1a24      	subs	r4, r4, r0
    1fc8:	42e7      	cmn	r7, r4
    1fca:	f8d8 3000 	ldr.w	r3, [r8]
    1fce:	d003      	beq.n	1fd8 <void std::vector<Dynamixel*, std::allocator<Dynamixel*> >::_M_emplace_back_aux<Dynamixel*>(Dynamixel*&&)+0x38>
    1fd0:	513b      	str	r3, [r7, r4]
    1fd2:	e895 0011 	ldmia.w	r5, {r0, r4}
    1fd6:	1a24      	subs	r4, r4, r0
    1fd8:	08a3      	lsrs	r3, r4, #2
    1fda:	d113      	bne.n	2004 <void std::vector<Dynamixel*, std::allocator<Dynamixel*> >::_M_emplace_back_aux<Dynamixel*>(Dynamixel*&&)+0x64>
    1fdc:	3404      	adds	r4, #4
    1fde:	443c      	add	r4, r7
    1fe0:	b108      	cbz	r0, 1fe6 <void std::vector<Dynamixel*, std::allocator<Dynamixel*> >::_M_emplace_back_aux<Dynamixel*>(Dynamixel*&&)+0x46>
    1fe2:	f003 fd60 	bl	5aa6 <operator delete(void*)>
    1fe6:	443e      	add	r6, r7
    1fe8:	60ae      	str	r6, [r5, #8]
    1fea:	602f      	str	r7, [r5, #0]
    1fec:	606c      	str	r4, [r5, #4]
    1fee:	e8bd 81f0 	ldmia.w	sp!, {r4, r5, r6, r7, r8, pc}
    1ff2:	2604      	movs	r6, #4
    1ff4:	4630      	mov	r0, r6
    1ff6:	f003 fd58 	bl	5aaa <operator new(unsigned int)>
    1ffa:	4607      	mov	r7, r0
    1ffc:	e895 0011 	ldmia.w	r5, {r0, r4}
    2000:	1a24      	subs	r4, r4, r0
    2002:	e7e1      	b.n	1fc8 <void std::vector<Dynamixel*, std::allocator<Dynamixel*> >::_M_emplace_back_aux<Dynamixel*>(Dynamixel*&&)+0x28>
    2004:	4601      	mov	r1, r0
    2006:	4622      	mov	r2, r4
    2008:	4638      	mov	r0, r7
    200a:	f005 f8a0 	bl	714e <memmove>
    200e:	6828      	ldr	r0, [r5, #0]
    2010:	e7e4      	b.n	1fdc <void std::vector<Dynamixel*, std::allocator<Dynamixel*> >::_M_emplace_back_aux<Dynamixel*>(Dynamixel*&&)+0x3c>
    2012:	f1b7 4f80 	cmp.w	r7, #1073741824	; 0x40000000
    2016:	d2ce      	bcs.n	1fb6 <void std::vector<Dynamixel*, std::allocator<Dynamixel*> >::_M_emplace_back_aux<Dynamixel*>(Dynamixel*&&)+0x16>
    2018:	00f6      	lsls	r6, r6, #3
    201a:	2f00      	cmp	r7, #0
    201c:	d0d4      	beq.n	1fc8 <void std::vector<Dynamixel*, std::allocator<Dynamixel*> >::_M_emplace_back_aux<Dynamixel*>(Dynamixel*&&)+0x28>
    201e:	e7e9      	b.n	1ff4 <void std::vector<Dynamixel*, std::allocator<Dynamixel*> >::_M_emplace_back_aux<Dynamixel*>(Dynamixel*&&)+0x54>

00002020 <void std::vector<Dynamixel*, std::allocator<Dynamixel*> >::emplace_back<Dynamixel*>(Dynamixel*&&)>:
    2020:	b538      	push	{r3, r4, r5, lr}
    2022:	6843      	ldr	r3, [r0, #4]
    2024:	6884      	ldr	r4, [r0, #8]
    2026:	4602      	mov	r2, r0
    2028:	42a3      	cmp	r3, r4
    202a:	d006      	beq.n	203a <void std::vector<Dynamixel*, std::allocator<Dynamixel*> >::emplace_back<Dynamixel*>(Dynamixel*&&)+0x1a>
    202c:	6809      	ldr	r1, [r1, #0]
    202e:	b10b      	cbz	r3, 2034 <void std::vector<Dynamixel*, std::allocator<Dynamixel*> >::emplace_back<Dynamixel*>(Dynamixel*&&)+0x14>
    2030:	6019      	str	r1, [r3, #0]
    2032:	6843      	ldr	r3, [r0, #4]
    2034:	3304      	adds	r3, #4
    2036:	6053      	str	r3, [r2, #4]
    2038:	bd38      	pop	{r3, r4, r5, pc}
    203a:	f7ff ffb1 	bl	1fa0 <void std::vector<Dynamixel*, std::allocator<Dynamixel*> >::_M_emplace_back_aux<Dynamixel*>(Dynamixel*&&)>
    203e:	bd38      	pop	{r3, r4, r5, pc}

00002040 <main>:
    2040:	e92d 4ff0 	stmdb	sp!, {r4, r5, r6, r7, r8, r9, r10, r11, lr}
    2044:	b08f      	sub	sp, #60	; 0x3c
    2046:	ab0e      	add	r3, sp, #56	; 0x38
    2048:	461a      	mov	r2, r3
    204a:	4ba3      	ldr	r3, [pc, #652]	; (22d8 <main+0x298>)
    204c:	48a3      	ldr	r0, [pc, #652]	; (22dc <main+0x29c>)
    204e:	681b      	ldr	r3, [r3, #0]
    2050:	f8df a2d0 	ldr.w	r10, [pc, #720]	; 2324 <main+0x2e4>
    2054:	f842 3d0c 	str.w	r3, [r2, #-12]!
    2058:	4614      	mov	r4, r2
    205a:	4611      	mov	r1, r2
    205c:	9204      	str	r2, [sp, #16]
    205e:	f7ff ffdf 	bl	2020 <void std::vector<Dynamixel*, std::allocator<Dynamixel*> >::emplace_back<Dynamixel*>(Dynamixel*&&)>
    2062:	4b9f      	ldr	r3, [pc, #636]	; (22e0 <main+0x2a0>)
    2064:	4621      	mov	r1, r4
    2066:	681b      	ldr	r3, [r3, #0]
    2068:	489c      	ldr	r0, [pc, #624]	; (22dc <main+0x29c>)
    206a:	930b      	str	r3, [sp, #44]	; 0x2c
    206c:	f7ff ffd8 	bl	2020 <void std::vector<Dynamixel*, std::allocator<Dynamixel*> >::emplace_back<Dynamixel*>(Dynamixel*&&)>
    2070:	4b9c      	ldr	r3, [pc, #624]	; (22e4 <main+0x2a4>)
    2072:	4621      	mov	r1, r4
    2074:	681b      	ldr	r3, [r3, #0]
    2076:	4899      	ldr	r0, [pc, #612]	; (22dc <main+0x29c>)
    2078:	930b      	str	r3, [sp, #44]	; 0x2c
    207a:	f7ff ffd1 	bl	2020 <void std::vector<Dynamixel*, std::allocator<Dynamixel*> >::emplace_back<Dynamixel*>(Dynamixel*&&)>
    207e:	4b9a      	ldr	r3, [pc, #616]	; (22e8 <main+0x2a8>)
    2080:	4621      	mov	r1, r4
    2082:	681b      	ldr	r3, [r3, #0]
    2084:	4895      	ldr	r0, [pc, #596]	; (22dc <main+0x29c>)
    2086:	930b      	str	r3, [sp, #44]	; 0x2c
    2088:	f7ff ffca 	bl	2020 <void std::vector<Dynamixel*, std::allocator<Dynamixel*> >::emplace_back<Dynamixel*>(Dynamixel*&&)>
    208c:	4b97      	ldr	r3, [pc, #604]	; (22ec <main+0x2ac>)
    208e:	4621      	mov	r1, r4
    2090:	681b      	ldr	r3, [r3, #0]
    2092:	4892      	ldr	r0, [pc, #584]	; (22dc <main+0x29c>)
    2094:	930b      	str	r3, [sp, #44]	; 0x2c
    2096:	f7ff ffc3 	bl	2020 <void std::vector<Dynamixel*, std::allocator<Dynamixel*> >::emplace_back<Dynamixel*>(Dynamixel*&&)>
    209a:	f7ff f8f1 	bl	1280 <DxInitialize()>
    209e:	f7ff f8b5 	bl	120c <DxGoHome()>
    20a2:	f10a 0004 	add.w	r0, r10, #4
    20a6:	f8da 1100 	ldr.w	r1, [r10, #256]	; 0x100
    20aa:	f003 fa99 	bl	55e0 <mbed::SerialBase::baud(int)>
    20ae:	2200      	movs	r2, #0
    20b0:	4613      	mov	r3, r2
    20b2:	f8ca 25e8 	str.w	r2, [r10, #1512]	; 0x5e8
    20b6:	f8ca 25ec 	str.w	r2, [r10, #1516]	; 0x5ec
    20ba:	f8ca 25f4 	str.w	r2, [r10, #1524]	; 0x5f4
    20be:	f8ca 25f0 	str.w	r2, [r10, #1520]	; 0x5f0
    20c2:	f50a 62b0 	add.w	r2, r10, #1408	; 0x580
    20c6:	f852 1f04 	ldr.w	r1, [r2, #4]!
    20ca:	b119      	cbz	r1, 20d4 <main+0x94>
    20cc:	3301      	adds	r3, #1
    20ce:	2b19      	cmp	r3, #25
    20d0:	d1f9      	bne.n	20c6 <main+0x86>
    20d2:	e006      	b.n	20e2 <main+0xa2>
    20d4:	4a86      	ldr	r2, [pc, #536]	; (22f0 <main+0x2b0>)
    20d6:	eb0a 0183 	add.w	r1, r10, r3, lsl #2
    20da:	3364      	adds	r3, #100	; 0x64
    20dc:	f8c1 2584 	str.w	r2, [r1, #1412]	; 0x584
    20e0:	6053      	str	r3, [r2, #4]
    20e2:	4d84      	ldr	r5, [pc, #528]	; (22f4 <main+0x2b4>)
    20e4:	2320      	movs	r3, #32
    20e6:	2080      	movs	r0, #128	; 0x80
    20e8:	f885 3024 	strb.w	r3, [r5, #36]	; 0x24
    20ec:	f001 fe8e 	bl	3e0c <__wrap_malloc>
    20f0:	4604      	mov	r4, r0
    20f2:	4a81      	ldr	r2, [pc, #516]	; (22f8 <main+0x2b8>)
    20f4:	62e8      	str	r0, [r5, #44]	; 0x2c
    20f6:	2300      	movs	r3, #0
    20f8:	f852 1f04 	ldr.w	r1, [r2, #4]!
    20fc:	b119      	cbz	r1, 2106 <main+0xc6>
    20fe:	3301      	adds	r3, #1
    2100:	2b19      	cmp	r3, #25
    2102:	d1f9      	bne.n	20f8 <main+0xb8>
    2104:	e008      	b.n	2118 <main+0xd8>
    2106:	4a7d      	ldr	r2, [pc, #500]	; (22fc <main+0x2bc>)
    2108:	f503 71a4 	add.w	r1, r3, #328	; 0x148
    210c:	337d      	adds	r3, #125	; 0x7d
    210e:	f8c2 a00c 	str.w	r10, [r2, #12]
    2112:	f84a 2021 	str.w	r2, [r10, r1, lsl #2]
    2116:	6093      	str	r3, [r2, #8]
    2118:	4a77      	ldr	r2, [pc, #476]	; (22f8 <main+0x2b8>)
    211a:	2300      	movs	r3, #0
    211c:	f852 1f04 	ldr.w	r1, [r2, #4]!
    2120:	b119      	cbz	r1, 212a <main+0xea>
    2122:	3301      	adds	r3, #1
    2124:	2b19      	cmp	r3, #25
    2126:	d1f9      	bne.n	211c <main+0xdc>
    2128:	e008      	b.n	213c <main+0xfc>
    212a:	4a75      	ldr	r2, [pc, #468]	; (2300 <main+0x2c0>)
    212c:	f503 71a4 	add.w	r1, r3, #328	; 0x148
    2130:	337d      	adds	r3, #125	; 0x7d
    2132:	f8c2 a00c 	str.w	r10, [r2, #12]
    2136:	f84a 2021 	str.w	r2, [r10, r1, lsl #2]
    213a:	6093      	str	r3, [r2, #8]
    213c:	4a71      	ldr	r2, [pc, #452]	; (2304 <main+0x2c4>)
    213e:	2305      	movs	r3, #5
    2140:	2014      	movs	r0, #20
    2142:	f882 3024 	strb.w	r3, [r2, #36]	; 0x24
    2146:	f001 fe61 	bl	3e0c <__wrap_malloc>
    214a:	4b6e      	ldr	r3, [pc, #440]	; (2304 <main+0x2c4>)
    214c:	4a6a      	ldr	r2, [pc, #424]	; (22f8 <main+0x2b8>)
    214e:	62d8      	str	r0, [r3, #44]	; 0x2c
    2150:	2300      	movs	r3, #0
    2152:	f852 1f04 	ldr.w	r1, [r2, #4]!
    2156:	b129      	cbz	r1, 2164 <main+0x124>
    2158:	3301      	adds	r3, #1
    215a:	2b19      	cmp	r3, #25
    215c:	d1f9      	bne.n	2152 <main+0x112>
    215e:	4b6a      	ldr	r3, [pc, #424]	; (2308 <main+0x2c8>)
    2160:	9302      	str	r3, [sp, #8]
    2162:	e00a      	b.n	217a <main+0x13a>
    2164:	4a68      	ldr	r2, [pc, #416]	; (2308 <main+0x2c8>)
    2166:	4610      	mov	r0, r2
    2168:	9202      	str	r2, [sp, #8]
    216a:	f503 72a4 	add.w	r2, r3, #328	; 0x148
    216e:	337d      	adds	r3, #125	; 0x7d
    2170:	f8c0 a00c 	str.w	r10, [r0, #12]
    2174:	f84a 0022 	str.w	r0, [r10, r2, lsl #2]
    2178:	6083      	str	r3, [r0, #8]
    217a:	1f23      	subs	r3, r4, #4
    217c:	2200      	movs	r2, #0
    217e:	347c      	adds	r4, #124	; 0x7c
    2180:	f843 2f04 	str.w	r2, [r3, #4]!
    2184:	42a3      	cmp	r3, r4
    2186:	d1fb      	bne.n	2180 <main+0x140>
    2188:	4b60      	ldr	r3, [pc, #384]	; (230c <main+0x2cc>)
    218a:	f8df b150 	ldr.w	r11, [pc, #336]	; 22dc <main+0x29c>
    218e:	9303      	str	r3, [sp, #12]
    2190:	4b5f      	ldr	r3, [pc, #380]	; (2310 <main+0x2d0>)
    2192:	9300      	str	r3, [sp, #0]
    2194:	4b5f      	ldr	r3, [pc, #380]	; (2314 <main+0x2d4>)
    2196:	9301      	str	r3, [sp, #4]
    2198:	9e00      	ldr	r6, [sp, #0]
    219a:	6830      	ldr	r0, [r6, #0]
    219c:	f003 fe02 	bl	5da4 <__aeabi_f2d>
    21a0:	9b01      	ldr	r3, [sp, #4]
    21a2:	4604      	mov	r4, r0
    21a4:	6818      	ldr	r0, [r3, #0]
    21a6:	460d      	mov	r5, r1
    21a8:	f003 fdea 	bl	5d80 <__aeabi_i2d>
    21ac:	460b      	mov	r3, r1
    21ae:	4602      	mov	r2, r0
    21b0:	4629      	mov	r1, r5
    21b2:	4620      	mov	r0, r4
    21b4:	f003 fc98 	bl	5ae8 <__adddf3>
    21b8:	f004 f882 	bl	62c0 <__aeabi_d2f>
    21bc:	4b55      	ldr	r3, [pc, #340]	; (2314 <main+0x2d4>)
    21be:	4680      	mov	r8, r0
    21c0:	461f      	mov	r7, r3
    21c2:	9301      	str	r3, [sp, #4]
    21c4:	4633      	mov	r3, r6
    21c6:	6018      	str	r0, [r3, #0]
    21c8:	4b51      	ldr	r3, [pc, #324]	; (2310 <main+0x2d0>)
    21ca:	2400      	movs	r4, #0
    21cc:	461e      	mov	r6, r3
    21ce:	9300      	str	r3, [sp, #0]
    21d0:	f8db 3000 	ldr.w	r3, [r11]
    21d4:	4640      	mov	r0, r8
    21d6:	f853 5024 	ldr.w	r5, [r3, r4, lsl #2]
    21da:	f004 fb95 	bl	6908 <__aeabi_f2iz>
    21de:	682b      	ldr	r3, [r5, #0]
    21e0:	4601      	mov	r1, r0
    21e2:	685b      	ldr	r3, [r3, #4]
    21e4:	4628      	mov	r0, r5
    21e6:	2200      	movs	r2, #0
    21e8:	4798      	blx	r3
    21ea:	f8db 3000 	ldr.w	r3, [r11]
    21ee:	4a45      	ldr	r2, [pc, #276]	; (2304 <main+0x2c4>)
    21f0:	f853 0024 	ldr.w	r0, [r3, r4, lsl #2]
    21f4:	f8d2 802c 	ldr.w	r8, [r2, #44]	; 0x2c
    21f8:	6803      	ldr	r3, [r0, #0]
    21fa:	00a5      	lsls	r5, r4, #2
    21fc:	6a1b      	ldr	r3, [r3, #32]
    21fe:	4798      	blx	r3
    2200:	f848 0024 	str.w	r0, [r8, r4, lsl #2]
    2204:	3401      	adds	r4, #1
    2206:	2c05      	cmp	r4, #5
    2208:	f105 0504 	add.w	r5, r5, #4
    220c:	d02d      	beq.n	226a <main+0x22a>
    220e:	6870      	ldr	r0, [r6, #4]
    2210:	f003 fdc8 	bl	5da4 <__aeabi_f2d>
    2214:	4680      	mov	r8, r0
    2216:	f857 0f04 	ldr.w	r0, [r7, #4]!
    221a:	4689      	mov	r9, r1
    221c:	f003 fdb0 	bl	5d80 <__aeabi_i2d>
    2220:	4602      	mov	r2, r0
    2222:	460b      	mov	r3, r1
    2224:	4640      	mov	r0, r8
    2226:	4649      	mov	r1, r9
    2228:	f003 fc5e 	bl	5ae8 <__adddf3>
    222c:	f004 f848 	bl	62c0 <__aeabi_d2f>
    2230:	4680      	mov	r8, r0
    2232:	4b39      	ldr	r3, [pc, #228]	; (2318 <main+0x2d8>)
    2234:	f8c6 8004 	str.w	r8, [r6, #4]
    2238:	5958      	ldr	r0, [r3, r5]
    223a:	f004 f94b 	bl	64d4 <__aeabi_i2f>
    223e:	4681      	mov	r9, r0
    2240:	4640      	mov	r0, r8
    2242:	4649      	mov	r1, r9
    2244:	f004 fb56 	bl	68f4 <__aeabi_fcmpgt>
    2248:	b110      	cbz	r0, 2250 <main+0x210>
    224a:	46c8      	mov	r8, r9
    224c:	f8c6 9004 	str.w	r9, [r6, #4]
    2250:	4b32      	ldr	r3, [pc, #200]	; (231c <main+0x2dc>)
    2252:	5958      	ldr	r0, [r3, r5]
    2254:	f004 f93e 	bl	64d4 <__aeabi_i2f>
    2258:	4641      	mov	r1, r8
    225a:	4605      	mov	r5, r0
    225c:	f004 fb4a 	bl	68f4 <__aeabi_fcmpgt>
    2260:	b108      	cbz	r0, 2266 <main+0x226>
    2262:	46a8      	mov	r8, r5
    2264:	6075      	str	r5, [r6, #4]
    2266:	3604      	adds	r6, #4
    2268:	e7b2      	b.n	21d0 <main+0x190>
    226a:	9a02      	ldr	r2, [sp, #8]
    226c:	68d4      	ldr	r4, [r2, #12]
    226e:	6896      	ldr	r6, [r2, #8]
    2270:	6823      	ldr	r3, [r4, #0]
    2272:	4a2b      	ldr	r2, [pc, #172]	; (2320 <main+0x2e0>)
    2274:	681b      	ldr	r3, [r3, #0]
    2276:	4293      	cmp	r3, r2
    2278:	f040 82ba 	bne.w	27f0 <main+0x7b0>
    227c:	2e63      	cmp	r6, #99	; 0x63
    227e:	dd03      	ble.n	2288 <main+0x248>
    2280:	f894 35fc 	ldrb.w	r3, [r4, #1532]	; 0x5fc
    2284:	2b00      	cmp	r3, #0
    2286:	d071      	beq.n	236c <main+0x32c>
    2288:	4b1e      	ldr	r3, [pc, #120]	; (2304 <main+0x2c4>)
    228a:	f204 3127 	addw	r1, r4, #807	; 0x327
    228e:	681b      	ldr	r3, [r3, #0]
    2290:	481c      	ldr	r0, [pc, #112]	; (2304 <main+0x2c4>)
    2292:	681b      	ldr	r3, [r3, #0]
    2294:	4798      	blx	r3
    2296:	b287      	uxth	r7, r0
    2298:	b2c1      	uxtb	r1, r0
    229a:	0a38      	lsrs	r0, r7, #8
    229c:	1842      	adds	r2, r0, r1
    229e:	43d2      	mvns	r2, r2
    22a0:	f884 2324 	strb.w	r2, [r4, #804]	; 0x324
    22a4:	22ff      	movs	r2, #255	; 0xff
    22a6:	f204 3525 	addw	r5, r4, #805	; 0x325
    22aa:	f884 1322 	strb.w	r1, [r4, #802]	; 0x322
    22ae:	f884 0323 	strb.w	r0, [r4, #803]	; 0x323
    22b2:	f207 3126 	addw	r1, r7, #806	; 0x326
    22b6:	20fe      	movs	r0, #254	; 0xfe
    22b8:	f884 2320 	strb.w	r2, [r4, #800]	; 0x320
    22bc:	b2f2      	uxtb	r2, r6
    22be:	f346 2607 	sbfx	r6, r6, #8, #8
    22c2:	f884 0321 	strb.w	r0, [r4, #801]	; 0x321
    22c6:	462b      	mov	r3, r5
    22c8:	4421      	add	r1, r4
    22ca:	f884 2325 	strb.w	r2, [r4, #805]	; 0x325
    22ce:	f884 6326 	strb.w	r6, [r4, #806]	; 0x326
    22d2:	2000      	movs	r0, #0
    22d4:	e02a      	b.n	232c <main+0x2ec>
    22d6:	bf00      	nop
    22d8:	1000086c 	.word	0x1000086c
    22dc:	100008bc 	.word	0x100008bc
    22e0:	100008b0 	.word	0x100008b0
    22e4:	100008dc 	.word	0x100008dc
    22e8:	100008b8 	.word	0x100008b8
    22ec:	100008b4 	.word	0x100008b4
    22f0:	10000870 	.word	0x10000870
    22f4:	100008e0 	.word	0x100008e0
    22f8:	100006e4 	.word	0x100006e4
    22fc:	100008c8 	.word	0x100008c8
    2300:	10000844 	.word	0x10000844
    2304:	10000814 	.word	0x10000814
    2308:	10000800 	.word	0x10000800
    230c:	100004e8 	.word	0x100004e8
    2310:	100000e0 	.word	0x100000e0
    2314:	10000858 	.word	0x10000858
    2318:	100000f4 	.word	0x100000f4
    231c:	100000cc 	.word	0x100000cc
    2320:	00001061 	.word	0x00001061
    2324:	100001c8 	.word	0x100001c8
    2328:	f813 2f01 	ldrb.w	r2, [r3, #1]!
    232c:	428b      	cmp	r3, r1
    232e:	4410      	add	r0, r2
    2330:	d1fa      	bne.n	2328 <main+0x2e8>
    2332:	43c0      	mvns	r0, r0
    2334:	1dfa      	adds	r2, r7, #7
    2336:	f107 0308 	add.w	r3, r7, #8
    233a:	b292      	uxth	r2, r2
    233c:	b29b      	uxth	r3, r3
    233e:	4422      	add	r2, r4
    2340:	f5b3 7f00 	cmp.w	r3, #512	; 0x200
    2344:	f882 0320 	strb.w	r0, [r2, #800]	; 0x320
    2348:	f200 8260 	bhi.w	280c <main+0x7cc>
    234c:	f504 7548 	add.w	r5, r4, #800	; 0x320
    2350:	b163      	cbz	r3, 236c <main+0x32c>
    2352:	3b01      	subs	r3, #1
    2354:	f104 0644 	add.w	r6, r4, #68	; 0x44
    2358:	441d      	add	r5, r3
    235a:	f204 341f 	addw	r4, r4, #799	; 0x31f
    235e:	f814 1f01 	ldrb.w	r1, [r4, #1]!
    2362:	4630      	mov	r0, r6
    2364:	f003 f9ba 	bl	56dc <mbed::Stream::putc(int)>
    2368:	42ac      	cmp	r4, r5
    236a:	d1f8      	bne.n	235e <main+0x31e>
    236c:	4cd0      	ldr	r4, [pc, #832]	; (26b0 <main+0x670>)
    236e:	f504 7082 	add.w	r0, r4, #260	; 0x104
    2372:	f003 f9ed 	bl	5750 <mbed::Timer::read_ms()>
    2376:	f642 22f8 	movw	r2, #11000	; 0x2af8
    237a:	f8da 3604 	ldr.w	r3, [r10, #1540]	; 0x604
    237e:	4681      	mov	r9, r0
    2380:	1ac3      	subs	r3, r0, r3
    2382:	4293      	cmp	r3, r2
    2384:	bf84      	itt	hi
    2386:	2300      	movhi	r3, #0
    2388:	f884 35fc 	strbhi.w	r3, [r4, #1532]	; 0x5fc
    238c:	f8da 35e8 	ldr.w	r3, [r10, #1512]	; 0x5e8
    2390:	4ac7      	ldr	r2, [pc, #796]	; (26b0 <main+0x670>)
    2392:	b133      	cbz	r3, 23a2 <main+0x362>
    2394:	f8d2 3608 	ldr.w	r3, [r2, #1544]	; 0x608
    2398:	4298      	cmp	r0, r3
    239a:	bf84      	itt	hi
    239c:	2300      	movhi	r3, #0
    239e:	f8c2 35e8 	strhi.w	r3, [r2, #1512]	; 0x5e8
    23a2:	4cc3      	ldr	r4, [pc, #780]	; (26b0 <main+0x670>)
    23a4:	f204 382e 	addw	r8, r4, #814	; 0x32e
    23a8:	4dc1      	ldr	r5, [pc, #772]	; (26b0 <main+0x670>)
    23aa:	1d28      	adds	r0, r5, #4
    23ac:	f001 fed6 	bl	415c <AjK::MODSERIAL::rxBufferEmpty()>
    23b0:	4606      	mov	r6, r0
    23b2:	b180      	cbz	r0, 23d6 <main+0x396>
    23b4:	f89a 35fc 	ldrb.w	r3, [r10, #1532]	; 0x5fc
    23b8:	48bd      	ldr	r0, [pc, #756]	; (26b0 <main+0x670>)
    23ba:	b143      	cbz	r3, 23ce <main+0x38e>
    23bc:	f640 12c4 	movw	r2, #2500	; 0x9c4
    23c0:	f8d0 3600 	ldr.w	r3, [r0, #1536]	; 0x600
    23c4:	ebc3 0309 	rsb	r3, r3, r9
    23c8:	4293      	cmp	r3, r2
    23ca:	f200 81c6 	bhi.w	275a <main+0x71a>
    23ce:	201e      	movs	r0, #30
    23d0:	f002 f9fc 	bl	47cc <wait_ms>
    23d4:	e6e0      	b.n	2198 <main+0x158>
    23d6:	1d28      	adds	r0, r5, #4
    23d8:	2101      	movs	r1, #1
    23da:	f001 fd47 	bl	3e6c <AjK::MODSERIAL::__getc(bool)>
    23de:	2800      	cmp	r0, #0
    23e0:	dbe8      	blt.n	23b4 <main+0x374>
    23e2:	f8d4 35f8 	ldr.w	r3, [r4, #1528]	; 0x5f8
    23e6:	f8d4 75e8 	ldr.w	r7, [r4, #1512]	; 0x5e8
    23ea:	4403      	add	r3, r0
    23ec:	2f07      	cmp	r7, #7
    23ee:	f8c4 35f8 	str.w	r3, [r4, #1528]	; 0x5f8
    23f2:	f000 80fd 	beq.w	25f0 <main+0x5b0>
    23f6:	b957      	cbnz	r7, 240e <main+0x3ce>
    23f8:	28ff      	cmp	r0, #255	; 0xff
    23fa:	f040 810d 	bne.w	2618 <main+0x5d8>
    23fe:	2201      	movs	r2, #1
    2400:	f109 0314 	add.w	r3, r9, #20
    2404:	f8c4 25e8 	str.w	r2, [r4, #1512]	; 0x5e8
    2408:	f8c4 3608 	str.w	r3, [r4, #1544]	; 0x608
    240c:	e7cc      	b.n	23a8 <main+0x368>
    240e:	2f01      	cmp	r7, #1
    2410:	f000 810e 	beq.w	2630 <main+0x5f0>
    2414:	2f02      	cmp	r7, #2
    2416:	f000 8161 	beq.w	26dc <main+0x69c>
    241a:	2f03      	cmp	r7, #3
    241c:	f000 8168 	beq.w	26f0 <main+0x6b0>
    2420:	2f04      	cmp	r7, #4
    2422:	f000 816f 	beq.w	2704 <main+0x6c4>
    2426:	2f05      	cmp	r7, #5
    2428:	f000 817b 	beq.w	2722 <main+0x6e2>
    242c:	2f06      	cmp	r7, #6
    242e:	f000 8180 	beq.w	2732 <main+0x6f2>
    2432:	2f08      	cmp	r7, #8
    2434:	d1b8      	bne.n	23a8 <main+0x368>
    2436:	4a9f      	ldr	r2, [pc, #636]	; (26b4 <main+0x674>)
    2438:	2100      	movs	r1, #0
    243a:	401a      	ands	r2, r3
    243c:	428a      	cmp	r2, r1
    243e:	f8ca 15e8 	str.w	r1, [r10, #1512]	; 0x5e8
    2442:	f2c0 81da 	blt.w	27fa <main+0x7ba>
    2446:	2aff      	cmp	r2, #255	; 0xff
    2448:	d1ae      	bne.n	23a8 <main+0x368>
    244a:	f8da 35f0 	ldr.w	r3, [r10, #1520]	; 0x5f0
    244e:	4e98      	ldr	r6, [pc, #608]	; (26b0 <main+0x670>)
    2450:	2b00      	cmp	r3, #0
    2452:	f000 8354 	beq.w	2afe <main+0xabe>
    2456:	2b0a      	cmp	r3, #10
    2458:	f000 82fc 	beq.w	2a54 <main+0xa14>
    245c:	2b06      	cmp	r3, #6
    245e:	f000 822e 	beq.w	28be <main+0x87e>
    2462:	2b0b      	cmp	r3, #11
    2464:	f000 81ce 	beq.w	2804 <main+0x7c4>
    2468:	eb04 0383 	add.w	r3, r4, r3, lsl #2
    246c:	f8d3 53f4 	ldr.w	r5, [r3, #1012]	; 0x3f4
    2470:	2d00      	cmp	r5, #0
    2472:	d099      	beq.n	23a8 <main+0x368>
    2474:	682b      	ldr	r3, [r5, #0]
    2476:	4a90      	ldr	r2, [pc, #576]	; (26b8 <main+0x678>)
    2478:	681b      	ldr	r3, [r3, #0]
    247a:	4293      	cmp	r3, r2
    247c:	f040 850e 	bne.w	2e9c <main+0xe5c>
    2480:	f894 6120 	ldrb.w	r6, [r4, #288]	; 0x120
    2484:	7d2b      	ldrb	r3, [r5, #20]
    2486:	f105 020c 	add.w	r2, r5, #12
    248a:	42b3      	cmp	r3, r6
    248c:	9206      	str	r2, [sp, #24]
    248e:	d204      	bcs.n	249a <main+0x45a>
    2490:	6aa8      	ldr	r0, [r5, #40]	; 0x28
    2492:	0131      	lsls	r1, r6, #4
    2494:	f001 fcc0 	bl	3e18 <__wrap_realloc>
    2498:	62a8      	str	r0, [r5, #40]	; 0x28
    249a:	752e      	strb	r6, [r5, #20]
    249c:	2e00      	cmp	r6, #0
    249e:	f000 8594 	beq.w	2fca <main+0xf8a>
    24a2:	2304      	movs	r3, #4
    24a4:	469c      	mov	r12, r3
    24a6:	2600      	movs	r6, #0
    24a8:	f105 0e18 	add.w	lr, r5, #24
    24ac:	f8cd 901c 	str.w	r9, [sp, #28]
    24b0:	f8cd a014 	str.w	r10, [sp, #20]
    24b4:	9b05      	ldr	r3, [sp, #20]
    24b6:	f50c 7790 	add.w	r7, r12, #288	; 0x120
    24ba:	441f      	add	r7, r3
    24bc:	6838      	ldr	r0, [r7, #0]
    24be:	9b04      	ldr	r3, [sp, #16]
    24c0:	f107 0a03 	add.w	r10, r7, #3
    24c4:	6018      	str	r0, [r3, #0]
    24c6:	980b      	ldr	r0, [sp, #44]	; 0x2c
    24c8:	f100 0904 	add.w	r9, r0, #4
    24cc:	f1b9 0f04 	cmp.w	r9, #4
    24d0:	d908      	bls.n	24e4 <main+0x4a4>
    24d2:	4653      	mov	r3, r10
    24d4:	1cc1      	adds	r1, r0, #3
    24d6:	4439      	add	r1, r7
    24d8:	f813 2f01 	ldrb.w	r2, [r3, #1]!
    24dc:	428b      	cmp	r3, r1
    24de:	f803 2c01 	strb.w	r2, [r3, #-1]
    24e2:	d1f9      	bne.n	24d8 <main+0x498>
    24e4:	f04f 0300 	mov.w	r3, #0
    24e8:	183a      	adds	r2, r7, r0
    24ea:	70d3      	strb	r3, [r2, #3]
    24ec:	f8c5 a01c 	str.w	r10, [r5, #28]
    24f0:	f817 3009 	ldrb.w	r3, [r7, r9]
    24f4:	300c      	adds	r0, #12
    24f6:	622b      	str	r3, [r5, #32]
    24f8:	7957      	ldrb	r7, [r2, #5]
    24fa:	4484      	add	r12, r0
    24fc:	ea43 2307 	orr.w	r3, r3, r7, lsl #8
    2500:	622b      	str	r3, [r5, #32]
    2502:	7997      	ldrb	r7, [r2, #6]
    2504:	f8d5 a028 	ldr.w	r10, [r5, #40]	; 0x28
    2508:	ea43 4307 	orr.w	r3, r3, r7, lsl #16
    250c:	622b      	str	r3, [r5, #32]
    250e:	79d7      	ldrb	r7, [r2, #7]
    2510:	0131      	lsls	r1, r6, #4
    2512:	ea43 6307 	orr.w	r3, r3, r7, lsl #24
    2516:	622b      	str	r3, [r5, #32]
    2518:	7a13      	ldrb	r3, [r2, #8]
    251a:	3601      	adds	r6, #1
    251c:	626b      	str	r3, [r5, #36]	; 0x24
    251e:	7a57      	ldrb	r7, [r2, #9]
    2520:	b2f6      	uxtb	r6, r6
    2522:	ea43 2007 	orr.w	r0, r3, r7, lsl #8
    2526:	6268      	str	r0, [r5, #36]	; 0x24
    2528:	7a97      	ldrb	r7, [r2, #10]
    252a:	eb0a 0301 	add.w	r3, r10, r1
    252e:	ea40 4007 	orr.w	r0, r0, r7, lsl #16
    2532:	6268      	str	r0, [r5, #36]	; 0x24
    2534:	7ad2      	ldrb	r2, [r2, #11]
    2536:	ea40 6002 	orr.w	r0, r0, r2, lsl #24
    253a:	6268      	str	r0, [r5, #36]	; 0x24
    253c:	f8de 9000 	ldr.w	r9, [lr]
    2540:	f8de 7004 	ldr.w	r7, [lr, #4]
    2544:	f8de 0008 	ldr.w	r0, [lr, #8]
    2548:	f8de 200c 	ldr.w	r2, [lr, #12]
    254c:	f84a 9001 	str.w	r9, [r10, r1]
    2550:	605f      	str	r7, [r3, #4]
    2552:	6098      	str	r0, [r3, #8]
    2554:	60da      	str	r2, [r3, #12]
    2556:	7d2b      	ldrb	r3, [r5, #20]
    2558:	42b3      	cmp	r3, r6
    255a:	d8ab      	bhi.n	24b4 <main+0x474>
    255c:	4663      	mov	r3, r12
    255e:	f8dd 901c 	ldr.w	r9, [sp, #28]
    2562:	1d1a      	adds	r2, r3, #4
    2564:	f8dd a014 	ldr.w	r10, [sp, #20]
    2568:	1d16      	adds	r6, r2, #4
    256a:	1c5f      	adds	r7, r3, #1
    256c:	1c98      	adds	r0, r3, #2
    256e:	1cd9      	adds	r1, r3, #3
    2570:	4453      	add	r3, r10
    2572:	f893 3120 	ldrb.w	r3, [r3, #288]	; 0x120
    2576:	4457      	add	r7, r10
    2578:	62eb      	str	r3, [r5, #44]	; 0x2c
    257a:	f897 7120 	ldrb.w	r7, [r7, #288]	; 0x120
    257e:	4450      	add	r0, r10
    2580:	ea43 2307 	orr.w	r3, r3, r7, lsl #8
    2584:	62eb      	str	r3, [r5, #44]	; 0x2c
    2586:	f890 0120 	ldrb.w	r0, [r0, #288]	; 0x120
    258a:	4451      	add	r1, r10
    258c:	ea43 4300 	orr.w	r3, r3, r0, lsl #16
    2590:	62eb      	str	r3, [r5, #44]	; 0x2c
    2592:	f891 1120 	ldrb.w	r1, [r1, #288]	; 0x120
    2596:	4452      	add	r2, r10
    2598:	ea43 6301 	orr.w	r3, r3, r1, lsl #24
    259c:	62eb      	str	r3, [r5, #44]	; 0x2c
    259e:	f892 7120 	ldrb.w	r7, [r2, #288]	; 0x120
    25a2:	f895 3030 	ldrb.w	r3, [r5, #48]	; 0x30
    25a6:	42bb      	cmp	r3, r7
    25a8:	d204      	bcs.n	25b4 <main+0x574>
    25aa:	6b68      	ldr	r0, [r5, #52]	; 0x34
    25ac:	0079      	lsls	r1, r7, #1
    25ae:	f001 fc33 	bl	3e18 <__wrap_realloc>
    25b2:	6368      	str	r0, [r5, #52]	; 0x34
    25b4:	f885 7030 	strb.w	r7, [r5, #48]	; 0x30
    25b8:	b1b7      	cbz	r7, 25e8 <main+0x5a8>
    25ba:	eb0a 0006 	add.w	r0, r10, r6
    25be:	2100      	movs	r1, #0
    25c0:	f105 0632 	add.w	r6, r5, #50	; 0x32
    25c4:	f890 2121 	ldrb.w	r2, [r0, #289]	; 0x121
    25c8:	f890 3120 	ldrb.w	r3, [r0, #288]	; 0x120
    25cc:	3002      	adds	r0, #2
    25ce:	ea43 2302 	orr.w	r3, r3, r2, lsl #8
    25d2:	866b      	strh	r3, [r5, #50]	; 0x32
    25d4:	8837      	ldrh	r7, [r6, #0]
    25d6:	6b6b      	ldr	r3, [r5, #52]	; 0x34
    25d8:	1c4a      	adds	r2, r1, #1
    25da:	f823 7011 	strh.w	r7, [r3, r1, lsl #1]
    25de:	f895 3030 	ldrb.w	r3, [r5, #48]	; 0x30
    25e2:	b2d1      	uxtb	r1, r2
    25e4:	428b      	cmp	r3, r1
    25e6:	d8ed      	bhi.n	25c4 <main+0x584>
    25e8:	6bab      	ldr	r3, [r5, #56]	; 0x38
    25ea:	9806      	ldr	r0, [sp, #24]
    25ec:	4798      	blx	r3
    25ee:	e6db      	b.n	23a8 <main+0x368>
    25f0:	f8d4 25f4 	ldr.w	r2, [r4, #1524]	; 0x5f4
    25f4:	f8d4 35ec 	ldr.w	r3, [r4, #1516]	; 0x5ec
    25f8:	1c51      	adds	r1, r2, #1
    25fa:	3b01      	subs	r3, #1
    25fc:	4422      	add	r2, r4
    25fe:	f8c4 15f4 	str.w	r1, [r4, #1524]	; 0x5f4
    2602:	f882 0120 	strb.w	r0, [r2, #288]	; 0x120
    2606:	f8c4 35ec 	str.w	r3, [r4, #1516]	; 0x5ec
    260a:	2b00      	cmp	r3, #0
    260c:	f47f aecc 	bne.w	23a8 <main+0x368>
    2610:	2308      	movs	r3, #8
    2612:	f8ca 35e8 	str.w	r3, [r10, #1512]	; 0x5e8
    2616:	e6c7      	b.n	23a8 <main+0x368>
    2618:	f505 7082 	add.w	r0, r5, #260	; 0x104
    261c:	f003 f898 	bl	5750 <mbed::Timer::read_ms()>
    2620:	ebc9 0000 	rsb	r0, r9, r0
    2624:	2805      	cmp	r0, #5
    2626:	f67f aebf 	bls.w	23a8 <main+0x368>
    262a:	f885 75fc 	strb.w	r7, [r5, #1532]	; 0x5fc
    262e:	e6ce      	b.n	23ce <main+0x38e>
    2630:	28fe      	cmp	r0, #254	; 0xfe
    2632:	d072      	beq.n	271a <main+0x6da>
    2634:	f894 15fc 	ldrb.w	r1, [r4, #1532]	; 0x5fc
    2638:	f8c4 65e8 	str.w	r6, [r4, #1512]	; 0x5e8
    263c:	2900      	cmp	r1, #0
    263e:	f47f aeb3 	bne.w	23a8 <main+0x368>
    2642:	200a      	movs	r0, #10
    2644:	460b      	mov	r3, r1
    2646:	f884 1327 	strb.w	r1, [r4, #807]	; 0x327
    264a:	f884 1328 	strb.w	r1, [r4, #808]	; 0x328
    264e:	f884 1329 	strb.w	r1, [r4, #809]	; 0x329
    2652:	f884 132a 	strb.w	r1, [r4, #810]	; 0x32a
    2656:	f884 132b 	strb.w	r1, [r4, #811]	; 0x32b
    265a:	f884 132c 	strb.w	r1, [r4, #812]	; 0x32c
    265e:	f884 132d 	strb.w	r1, [r4, #813]	; 0x32d
    2662:	f884 132e 	strb.w	r1, [r4, #814]	; 0x32e
    2666:	f884 1323 	strb.w	r1, [r4, #803]	; 0x323
    266a:	f884 1326 	strb.w	r1, [r4, #806]	; 0x326
    266e:	21fe      	movs	r1, #254	; 0xfe
    2670:	4602      	mov	r2, r0
    2672:	26ff      	movs	r6, #255	; 0xff
    2674:	f884 0325 	strb.w	r0, [r4, #805]	; 0x325
    2678:	f884 1321 	strb.w	r1, [r4, #801]	; 0x321
    267c:	2008      	movs	r0, #8
    267e:	21f7      	movs	r1, #247	; 0xf7
    2680:	f205 3525 	addw	r5, r5, #805	; 0x325
    2684:	f884 6320 	strb.w	r6, [r4, #800]	; 0x320
    2688:	f884 0322 	strb.w	r0, [r4, #802]	; 0x322
    268c:	f884 1324 	strb.w	r1, [r4, #804]	; 0x324
    2690:	e001      	b.n	2696 <main+0x656>
    2692:	f815 2f01 	ldrb.w	r2, [r5, #1]!
    2696:	4545      	cmp	r5, r8
    2698:	4413      	add	r3, r2
    269a:	d1fa      	bne.n	2692 <main+0x652>
    269c:	43db      	mvns	r3, r3
    269e:	9a03      	ldr	r2, [sp, #12]
    26a0:	f88a 332f 	strb.w	r3, [r10, #815]	; 0x32f
    26a4:	4615      	mov	r5, r2
    26a6:	f102 070f 	add.w	r7, r2, #15
    26aa:	21ff      	movs	r1, #255	; 0xff
    26ac:	e008      	b.n	26c0 <main+0x680>
    26ae:	bf00      	nop
    26b0:	100001c8 	.word	0x100001c8
    26b4:	800000ff 	.word	0x800000ff
    26b8:	00000d5d 	.word	0x00000d5d
    26bc:	f815 1f01 	ldrb.w	r1, [r5, #1]!
    26c0:	4eda      	ldr	r6, [pc, #872]	; (2a2c <main+0x9ec>)
    26c2:	f106 0044 	add.w	r0, r6, #68	; 0x44
    26c6:	f003 f809 	bl	56dc <mbed::Stream::putc(int)>
    26ca:	42bd      	cmp	r5, r7
    26cc:	d1f6      	bne.n	26bc <main+0x67c>
    26ce:	f506 7082 	add.w	r0, r6, #260	; 0x104
    26d2:	f003 f83d 	bl	5750 <mbed::Timer::read_ms()>
    26d6:	f8c6 0114 	str.w	r0, [r6, #276]	; 0x114
    26da:	e665      	b.n	23a8 <main+0x368>
    26dc:	2303      	movs	r3, #3
    26de:	f8c4 05ec 	str.w	r0, [r4, #1516]	; 0x5ec
    26e2:	f8c4 65f4 	str.w	r6, [r4, #1524]	; 0x5f4
    26e6:	f8c4 05f8 	str.w	r0, [r4, #1528]	; 0x5f8
    26ea:	f8c4 35e8 	str.w	r3, [r4, #1512]	; 0x5e8
    26ee:	e65b      	b.n	23a8 <main+0x368>
    26f0:	f8d4 35ec 	ldr.w	r3, [r4, #1516]	; 0x5ec
    26f4:	2204      	movs	r2, #4
    26f6:	eb03 2000 	add.w	r0, r3, r0, lsl #8
    26fa:	f8c4 05ec 	str.w	r0, [r4, #1516]	; 0x5ec
    26fe:	f8c4 25e8 	str.w	r2, [r4, #1512]	; 0x5e8
    2702:	e651      	b.n	23a8 <main+0x368>
    2704:	4aca      	ldr	r2, [pc, #808]	; (2a30 <main+0x9f0>)
    2706:	401a      	ands	r2, r3
    2708:	2a00      	cmp	r2, #0
    270a:	db21      	blt.n	2750 <main+0x710>
    270c:	2aff      	cmp	r2, #255	; 0xff
    270e:	bf0c      	ite	eq
    2710:	2305      	moveq	r3, #5
    2712:	2300      	movne	r3, #0
    2714:	f8ca 35e8 	str.w	r3, [r10, #1512]	; 0x5e8
    2718:	e646      	b.n	23a8 <main+0x368>
    271a:	2302      	movs	r3, #2
    271c:	f8c4 35e8 	str.w	r3, [r4, #1512]	; 0x5e8
    2720:	e642      	b.n	23a8 <main+0x368>
    2722:	2306      	movs	r3, #6
    2724:	f8c4 05f0 	str.w	r0, [r4, #1520]	; 0x5f0
    2728:	f8c4 05f8 	str.w	r0, [r4, #1528]	; 0x5f8
    272c:	f8c4 35e8 	str.w	r3, [r4, #1512]	; 0x5e8
    2730:	e63a      	b.n	23a8 <main+0x368>
    2732:	f8da 35f0 	ldr.w	r3, [r10, #1520]	; 0x5f0
    2736:	f8da 25ec 	ldr.w	r2, [r10, #1516]	; 0x5ec
    273a:	eb03 2300 	add.w	r3, r3, r0, lsl #8
    273e:	2107      	movs	r1, #7
    2740:	f8ca 35f0 	str.w	r3, [r10, #1520]	; 0x5f0
    2744:	f8ca 15e8 	str.w	r1, [r10, #1512]	; 0x5e8
    2748:	2a00      	cmp	r2, #0
    274a:	f43f af61 	beq.w	2610 <main+0x5d0>
    274e:	e62b      	b.n	23a8 <main+0x368>
    2750:	3a01      	subs	r2, #1
    2752:	f062 02ff 	orn	r2, r2, #255	; 0xff
    2756:	3201      	adds	r2, #1
    2758:	e7d8      	b.n	270c <main+0x6cc>
    275a:	2300      	movs	r3, #0
    275c:	240a      	movs	r4, #10
    275e:	f880 3327 	strb.w	r3, [r0, #807]	; 0x327
    2762:	f880 3328 	strb.w	r3, [r0, #808]	; 0x328
    2766:	f880 3329 	strb.w	r3, [r0, #809]	; 0x329
    276a:	f880 332a 	strb.w	r3, [r0, #810]	; 0x32a
    276e:	f880 332b 	strb.w	r3, [r0, #811]	; 0x32b
    2772:	f880 332c 	strb.w	r3, [r0, #812]	; 0x32c
    2776:	f880 332d 	strb.w	r3, [r0, #813]	; 0x32d
    277a:	f880 332e 	strb.w	r3, [r0, #814]	; 0x32e
    277e:	f880 3323 	strb.w	r3, [r0, #803]	; 0x323
    2782:	f880 3326 	strb.w	r3, [r0, #806]	; 0x326
    2786:	461a      	mov	r2, r3
    2788:	23fe      	movs	r3, #254	; 0xfe
    278a:	f880 4325 	strb.w	r4, [r0, #805]	; 0x325
    278e:	f880 3321 	strb.w	r3, [r0, #801]	; 0x321
    2792:	4621      	mov	r1, r4
    2794:	23f7      	movs	r3, #247	; 0xf7
    2796:	25ff      	movs	r5, #255	; 0xff
    2798:	2408      	movs	r4, #8
    279a:	f880 3324 	strb.w	r3, [r0, #804]	; 0x324
    279e:	f880 5320 	strb.w	r5, [r0, #800]	; 0x320
    27a2:	f880 4322 	strb.w	r4, [r0, #802]	; 0x322
    27a6:	f200 3325 	addw	r3, r0, #805	; 0x325
    27aa:	f200 302e 	addw	r0, r0, #814	; 0x32e
    27ae:	e001      	b.n	27b4 <main+0x774>
    27b0:	f813 1f01 	ldrb.w	r1, [r3, #1]!
    27b4:	4283      	cmp	r3, r0
    27b6:	440a      	add	r2, r1
    27b8:	d1fa      	bne.n	27b0 <main+0x770>
    27ba:	43d2      	mvns	r2, r2
    27bc:	9b03      	ldr	r3, [sp, #12]
    27be:	f88a 232f 	strb.w	r2, [r10, #815]	; 0x32f
    27c2:	461d      	mov	r5, r3
    27c4:	f103 040f 	add.w	r4, r3, #15
    27c8:	21ff      	movs	r1, #255	; 0xff
    27ca:	e001      	b.n	27d0 <main+0x790>
    27cc:	f815 1f01 	ldrb.w	r1, [r5, #1]!
    27d0:	4e96      	ldr	r6, [pc, #600]	; (2a2c <main+0x9ec>)
    27d2:	f106 0044 	add.w	r0, r6, #68	; 0x44
    27d6:	f002 ff81 	bl	56dc <mbed::Stream::putc(int)>
    27da:	42a5      	cmp	r5, r4
    27dc:	d1f6      	bne.n	27cc <main+0x78c>
    27de:	f506 7082 	add.w	r0, r6, #260	; 0x104
    27e2:	f002 ffb5 	bl	5750 <mbed::Timer::read_ms()>
    27e6:	f8c6 9600 	str.w	r9, [r6, #1536]	; 0x600
    27ea:	f8c6 0114 	str.w	r0, [r6, #276]	; 0x114
    27ee:	e5ee      	b.n	23ce <main+0x38e>
    27f0:	4620      	mov	r0, r4
    27f2:	4631      	mov	r1, r6
    27f4:	4a8f      	ldr	r2, [pc, #572]	; (2a34 <main+0x9f4>)
    27f6:	4798      	blx	r3
    27f8:	e5b8      	b.n	236c <main+0x32c>
    27fa:	3a01      	subs	r2, #1
    27fc:	f062 02ff 	orn	r2, r2, #255	; 0xff
    2800:	3201      	adds	r2, #1
    2802:	e620      	b.n	2446 <main+0x406>
    2804:	2300      	movs	r3, #0
    2806:	f884 35fc 	strb.w	r3, [r4, #1532]	; 0x5fc
    280a:	e5cd      	b.n	23a8 <main+0x368>
    280c:	4b8a      	ldr	r3, [pc, #552]	; (2a38 <main+0x9f8>)
    280e:	2203      	movs	r2, #3
    2810:	930b      	str	r3, [sp, #44]	; 0x2c
    2812:	4b8a      	ldr	r3, [pc, #552]	; (2a3c <main+0x9fc>)
    2814:	f88d 2030 	strb.w	r2, [sp, #48]	; 0x30
    2818:	930d      	str	r3, [sp, #52]	; 0x34
    281a:	6823      	ldr	r3, [r4, #0]
    281c:	4988      	ldr	r1, [pc, #544]	; (2a40 <main+0xa00>)
    281e:	681b      	ldr	r3, [r3, #0]
    2820:	428b      	cmp	r3, r1
    2822:	f040 83da 	bne.w	2fda <main+0xf9a>
    2826:	2338      	movs	r3, #56	; 0x38
    2828:	930a      	str	r3, [sp, #40]	; 0x28
    282a:	980a      	ldr	r0, [sp, #40]	; 0x28
    282c:	4f83      	ldr	r7, [pc, #524]	; (2a3c <main+0x9fc>)
    282e:	f884 2327 	strb.w	r2, [r4, #807]	; 0x327
    2832:	f8c4 0328 	str.w	r0, [r4, #808]	; 0x328
    2836:	f504 764b 	add.w	r6, r4, #812	; 0x32c
    283a:	46be      	mov	lr, r7
    283c:	e8be 000f 	ldmia.w	lr!, {r0, r1, r2, r3}
    2840:	60f3      	str	r3, [r6, #12]
    2842:	4b80      	ldr	r3, [pc, #512]	; (2a44 <main+0xa04>)
    2844:	6030      	str	r0, [r6, #0]
    2846:	459e      	cmp	lr, r3
    2848:	6071      	str	r1, [r6, #4]
    284a:	60b2      	str	r2, [r6, #8]
    284c:	f107 0710 	add.w	r7, r7, #16
    2850:	f106 0610 	add.w	r6, r6, #16
    2854:	d1f1      	bne.n	283a <main+0x7fa>
    2856:	cf03      	ldmia	r7!, {r0, r1}
    2858:	6030      	str	r0, [r6, #0]
    285a:	6071      	str	r1, [r6, #4]
    285c:	20ff      	movs	r0, #255	; 0xff
    285e:	21fe      	movs	r1, #254	; 0xfe
    2860:	f04f 0e00 	mov.w	lr, #0
    2864:	2707      	movs	r7, #7
    2866:	f884 0320 	strb.w	r0, [r4, #800]	; 0x320
    286a:	f884 1321 	strb.w	r1, [r4, #801]	; 0x321
    286e:	203d      	movs	r0, #61	; 0x3d
    2870:	21c2      	movs	r1, #194	; 0xc2
    2872:	462b      	mov	r3, r5
    2874:	f884 1324 	strb.w	r1, [r4, #804]	; 0x324
    2878:	4672      	mov	r2, lr
    287a:	463d      	mov	r5, r7
    287c:	f884 e323 	strb.w	lr, [r4, #803]	; 0x323
    2880:	f884 e326 	strb.w	lr, [r4, #806]	; 0x326
    2884:	f884 7325 	strb.w	r7, [r4, #805]	; 0x325
    2888:	f884 0322 	strb.w	r0, [r4, #802]	; 0x322
    288c:	f204 3163 	addw	r1, r4, #867	; 0x363
    2890:	e001      	b.n	2896 <main+0x856>
    2892:	f813 5f01 	ldrb.w	r5, [r3, #1]!
    2896:	428b      	cmp	r3, r1
    2898:	442a      	add	r2, r5
    289a:	d1fa      	bne.n	2892 <main+0x852>
    289c:	43d2      	mvns	r2, r2
    289e:	f104 0644 	add.w	r6, r4, #68	; 0x44
    28a2:	f884 2364 	strb.w	r2, [r4, #868]	; 0x364
    28a6:	f204 351f 	addw	r5, r4, #799	; 0x31f
    28aa:	f504 7459 	add.w	r4, r4, #868	; 0x364
    28ae:	f815 1f01 	ldrb.w	r1, [r5, #1]!
    28b2:	4630      	mov	r0, r6
    28b4:	f002 ff12 	bl	56dc <mbed::Stream::putc(int)>
    28b8:	42a5      	cmp	r5, r4
    28ba:	d1f8      	bne.n	28ae <main+0x86e>
    28bc:	e556      	b.n	236c <main+0x32c>
    28be:	f894 5120 	ldrb.w	r5, [r4, #288]	; 0x120
    28c2:	f894 3614 	ldrb.w	r3, [r4, #1556]	; 0x614
    28c6:	42ab      	cmp	r3, r5
    28c8:	d206      	bcs.n	28d8 <main+0x898>
    28ca:	f8d4 061c 	ldr.w	r0, [r4, #1564]	; 0x61c
    28ce:	00a9      	lsls	r1, r5, #2
    28d0:	f001 faa2 	bl	3e18 <__wrap_realloc>
    28d4:	f8c4 061c 	str.w	r0, [r4, #1564]	; 0x61c
    28d8:	f88a 5614 	strb.w	r5, [r10, #1556]	; 0x614
    28dc:	2d00      	cmp	r5, #0
    28de:	f000 82e3 	beq.w	2ea8 <main+0xe68>
    28e2:	f8df a148 	ldr.w	r10, [pc, #328]	; 2a2c <main+0x9ec>
    28e6:	2700      	movs	r7, #0
    28e8:	4655      	mov	r5, r10
    28ea:	2604      	movs	r6, #4
    28ec:	f895 3126 	ldrb.w	r3, [r5, #294]	; 0x126
    28f0:	f895 1125 	ldrb.w	r1, [r5, #293]	; 0x125
    28f4:	f895 2124 	ldrb.w	r2, [r5, #292]	; 0x124
    28f8:	041b      	lsls	r3, r3, #16
    28fa:	ea43 2301 	orr.w	r3, r3, r1, lsl #8
    28fe:	f895 1127 	ldrb.w	r1, [r5, #295]	; 0x127
    2902:	4313      	orrs	r3, r2
    2904:	ea43 6301 	orr.w	r3, r3, r1, lsl #24
    2908:	f8ca 3618 	str.w	r3, [r10, #1560]	; 0x618
    290c:	4b4e      	ldr	r3, [pc, #312]	; (2a48 <main+0xa08>)
    290e:	1b2a      	subs	r2, r5, r4
    2910:	6818      	ldr	r0, [r3, #0]
    2912:	f8da 361c 	ldr.w	r3, [r10, #1564]	; 0x61c
    2916:	3701      	adds	r7, #1
    2918:	5098      	str	r0, [r3, r2]
    291a:	f89a 3614 	ldrb.w	r3, [r10, #1556]	; 0x614
    291e:	b2ff      	uxtb	r7, r7
    2920:	42bb      	cmp	r3, r7
    2922:	f106 0604 	add.w	r6, r6, #4
    2926:	f105 0504 	add.w	r5, r5, #4
    292a:	d8df      	bhi.n	28ec <main+0x8ac>
    292c:	1d37      	adds	r7, r6, #4
    292e:	463d      	mov	r5, r7
    2930:	4456      	add	r6, r10
    2932:	f896 6120 	ldrb.w	r6, [r6, #288]	; 0x120
    2936:	f89a 3620 	ldrb.w	r3, [r10, #1568]	; 0x620
    293a:	42b3      	cmp	r3, r6
    293c:	d206      	bcs.n	294c <main+0x90c>
    293e:	f8d4 0628 	ldr.w	r0, [r4, #1576]	; 0x628
    2942:	00b1      	lsls	r1, r6, #2
    2944:	f001 fa68 	bl	3e18 <__wrap_realloc>
    2948:	f8c4 0628 	str.w	r0, [r4, #1576]	; 0x628
    294c:	f88a 6620 	strb.w	r6, [r10, #1568]	; 0x620
    2950:	b31e      	cbz	r6, 299a <main+0x95a>
    2952:	1961      	adds	r1, r4, r5
    2954:	460f      	mov	r7, r1
    2956:	2600      	movs	r6, #0
    2958:	f891 3122 	ldrb.w	r3, [r1, #290]	; 0x122
    295c:	f891 0121 	ldrb.w	r0, [r1, #289]	; 0x121
    2960:	f891 2120 	ldrb.w	r2, [r1, #288]	; 0x120
    2964:	041b      	lsls	r3, r3, #16
    2966:	ea43 2300 	orr.w	r3, r3, r0, lsl #8
    296a:	f891 0123 	ldrb.w	r0, [r1, #291]	; 0x123
    296e:	4313      	orrs	r3, r2
    2970:	ea43 6300 	orr.w	r3, r3, r0, lsl #24
    2974:	f8ca 3624 	str.w	r3, [r10, #1572]	; 0x624
    2978:	4b34      	ldr	r3, [pc, #208]	; (2a4c <main+0xa0c>)
    297a:	1bca      	subs	r2, r1, r7
    297c:	6818      	ldr	r0, [r3, #0]
    297e:	f8da 3628 	ldr.w	r3, [r10, #1576]	; 0x628
    2982:	3601      	adds	r6, #1
    2984:	5098      	str	r0, [r3, r2]
    2986:	f89a 3620 	ldrb.w	r3, [r10, #1568]	; 0x620
    298a:	b2f6      	uxtb	r6, r6
    298c:	42b3      	cmp	r3, r6
    298e:	f105 0504 	add.w	r5, r5, #4
    2992:	f101 0104 	add.w	r1, r1, #4
    2996:	d8df      	bhi.n	2958 <main+0x918>
    2998:	462f      	mov	r7, r5
    299a:	4457      	add	r7, r10
    299c:	f897 6120 	ldrb.w	r6, [r7, #288]	; 0x120
    29a0:	f89a 362c 	ldrb.w	r3, [r10, #1580]	; 0x62c
    29a4:	42b3      	cmp	r3, r6
    29a6:	d206      	bcs.n	29b6 <main+0x976>
    29a8:	f8d4 0634 	ldr.w	r0, [r4, #1588]	; 0x634
    29ac:	00b1      	lsls	r1, r6, #2
    29ae:	f001 fa33 	bl	3e18 <__wrap_realloc>
    29b2:	f8c4 0634 	str.w	r0, [r4, #1588]	; 0x634
    29b6:	3504      	adds	r5, #4
    29b8:	f88a 662c 	strb.w	r6, [r10, #1580]	; 0x62c
    29bc:	b38e      	cbz	r6, 2a22 <main+0x9e2>
    29be:	2700      	movs	r7, #0
    29c0:	46be      	mov	lr, r7
    29c2:	f8dd c010 	ldr.w	r12, [sp, #16]
    29c6:	f505 7390 	add.w	r3, r5, #288	; 0x120
    29ca:	f85a 0003 	ldr.w	r0, [r10, r3]
    29ce:	1d2e      	adds	r6, r5, #4
    29d0:	f8cc 0000 	str.w	r0, [r12]
    29d4:	990b      	ldr	r1, [sp, #44]	; 0x2c
    29d6:	4431      	add	r1, r6
    29d8:	42b1      	cmp	r1, r6
    29da:	d90c      	bls.n	29f6 <main+0x9b6>
    29dc:	4633      	mov	r3, r6
    29de:	f505 7291 	add.w	r2, r5, #290	; 0x122
    29e2:	4422      	add	r2, r4
    29e4:	eb0a 0003 	add.w	r0, r10, r3
    29e8:	f890 0120 	ldrb.w	r0, [r0, #288]	; 0x120
    29ec:	3301      	adds	r3, #1
    29ee:	4299      	cmp	r1, r3
    29f0:	f802 0f01 	strb.w	r0, [r2, #1]!
    29f4:	d8f6      	bhi.n	29e4 <main+0x9a4>
    29f6:	f206 131f 	addw	r3, r6, #287	; 0x11f
    29fa:	4453      	add	r3, r10
    29fc:	f8ca 3630 	str.w	r3, [r10, #1584]	; 0x630
    2a00:	4b13      	ldr	r3, [pc, #76]	; (2a50 <main+0xa10>)
    2a02:	eb0a 0201 	add.w	r2, r10, r1
    2a06:	6818      	ldr	r0, [r3, #0]
    2a08:	f8da 3634 	ldr.w	r3, [r10, #1588]	; 0x634
    2a0c:	f882 e11f 	strb.w	lr, [r2, #287]	; 0x11f
    2a10:	f843 0027 	str.w	r0, [r3, r7, lsl #2]
    2a14:	f89a 362c 	ldrb.w	r3, [r10, #1580]	; 0x62c
    2a18:	3701      	adds	r7, #1
    2a1a:	b2ff      	uxtb	r7, r7
    2a1c:	42bb      	cmp	r3, r7
    2a1e:	460d      	mov	r5, r1
    2a20:	d8d1      	bhi.n	29c6 <main+0x986>
    2a22:	2301      	movs	r3, #1
    2a24:	f88a 360c 	strb.w	r3, [r10, #1548]	; 0x60c
    2a28:	e4be      	b.n	23a8 <main+0x368>
    2a2a:	bf00      	nop
    2a2c:	100001c8 	.word	0x100001c8
    2a30:	800000ff 	.word	0x800000ff
    2a34:	10000814 	.word	0x10000814
    2a38:	00008c28 	.word	0x00008c28
    2a3c:	00008eb4 	.word	0x00008eb4
    2a40:	00001061 	.word	0x00001061
    2a44:	00008ee4 	.word	0x00008ee4
    2a48:	100007e0 	.word	0x100007e0
    2a4c:	100007ec 	.word	0x100007ec
    2a50:	100007f8 	.word	0x100007f8
    2a54:	f506 7082 	add.w	r0, r6, #260	; 0x104
    2a58:	f002 fe7a 	bl	5750 <mbed::Timer::read_ms()>
    2a5c:	f894 2122 	ldrb.w	r2, [r4, #290]	; 0x122
    2a60:	f894 1121 	ldrb.w	r1, [r4, #289]	; 0x121
    2a64:	f894 3126 	ldrb.w	r3, [r4, #294]	; 0x126
    2a68:	f894 e125 	ldrb.w	lr, [r4, #293]	; 0x125
    2a6c:	0412      	lsls	r2, r2, #16
    2a6e:	ea42 2201 	orr.w	r2, r2, r1, lsl #8
    2a72:	041b      	lsls	r3, r3, #16
    2a74:	f894 1124 	ldrb.w	r1, [r4, #292]	; 0x124
    2a78:	f894 c127 	ldrb.w	r12, [r4, #295]	; 0x127
    2a7c:	f894 7120 	ldrb.w	r7, [r4, #288]	; 0x120
    2a80:	ea43 230e 	orr.w	r3, r3, lr, lsl #8
    2a84:	430b      	orrs	r3, r1
    2a86:	f8d4 5114 	ldr.w	r5, [r4, #276]	; 0x114
    2a8a:	4987      	ldr	r1, [pc, #540]	; (2ca8 <main+0xc68>)
    2a8c:	f894 e123 	ldrb.w	lr, [r4, #291]	; 0x123
    2a90:	4317      	orrs	r7, r2
    2a92:	ea43 620c 	orr.w	r2, r3, r12, lsl #24
    2a96:	4411      	add	r1, r2
    2a98:	1b45      	subs	r5, r0, r5
    2a9a:	f506 7082 	add.w	r0, r6, #260	; 0x104
    2a9e:	ea47 670e 	orr.w	r7, r7, lr, lsl #24
    2aa2:	9105      	str	r1, [sp, #20]
    2aa4:	9106      	str	r1, [sp, #24]
    2aa6:	f002 fe53 	bl	5750 <mbed::Timer::read_ms()>
    2aaa:	4b80      	ldr	r3, [pc, #512]	; (2cac <main+0xc6c>)
    2aac:	497f      	ldr	r1, [pc, #508]	; (2cac <main+0xc6c>)
    2aae:	fba3 2305 	umull	r2, r3, r3, r5
    2ab2:	fba1 1e00 	umull	r1, lr, r1, r0
    2ab6:	f44f 727a 	mov.w	r2, #1000	; 0x3e8
    2aba:	099b      	lsrs	r3, r3, #6
    2abc:	fb02 5513 	mls	r5, r2, r3, r5
    2ac0:	ea4f 1e9e 	mov.w	lr, lr, lsr #6
    2ac4:	fb02 001e 	mls	r0, r2, lr, r0
    2ac8:	9905      	ldr	r1, [sp, #20]
    2aca:	4a79      	ldr	r2, [pc, #484]	; (2cb0 <main+0xc70>)
    2acc:	3f01      	subs	r7, #1
    2ace:	fb02 1105 	mla	r1, r2, r5, r1
    2ad2:	fb02 1210 	mls	r2, r2, r0, r1
    2ad6:	443b      	add	r3, r7
    2ad8:	ebce 0303 	rsb	r3, lr, r3
    2adc:	f506 708c 	add.w	r0, r6, #280	; 0x118
    2ae0:	f506 718e 	add.w	r1, r6, #284	; 0x11c
    2ae4:	f8c4 211c 	str.w	r2, [r4, #284]	; 0x11c
    2ae8:	f8c4 3118 	str.w	r3, [r4, #280]	; 0x118
    2aec:	f001 f9a8 	bl	3e40 <ros::normalizeSecNSec(unsigned long&, unsigned long&)>
    2af0:	f506 7082 	add.w	r0, r6, #260	; 0x104
    2af4:	f002 fe2c 	bl	5750 <mbed::Timer::read_ms()>
    2af8:	f8c4 0604 	str.w	r0, [r4, #1540]	; 0x604
    2afc:	e454      	b.n	23a8 <main+0x368>
    2afe:	f886 3327 	strb.w	r3, [r6, #807]	; 0x327
    2b02:	f886 3328 	strb.w	r3, [r6, #808]	; 0x328
    2b06:	f886 3329 	strb.w	r3, [r6, #809]	; 0x329
    2b0a:	f886 332a 	strb.w	r3, [r6, #810]	; 0x32a
    2b0e:	f886 332b 	strb.w	r3, [r6, #811]	; 0x32b
    2b12:	f886 332c 	strb.w	r3, [r6, #812]	; 0x32c
    2b16:	f886 332d 	strb.w	r3, [r6, #813]	; 0x32d
    2b1a:	f886 332e 	strb.w	r3, [r6, #814]	; 0x32e
    2b1e:	f886 3323 	strb.w	r3, [r6, #803]	; 0x323
    2b22:	f886 3326 	strb.w	r3, [r6, #806]	; 0x326
    2b26:	4619      	mov	r1, r3
    2b28:	23fe      	movs	r3, #254	; 0xfe
    2b2a:	240a      	movs	r4, #10
    2b2c:	f886 2320 	strb.w	r2, [r6, #800]	; 0x320
    2b30:	f886 3321 	strb.w	r3, [r6, #801]	; 0x321
    2b34:	2208      	movs	r2, #8
    2b36:	23f7      	movs	r3, #247	; 0xf7
    2b38:	f886 3324 	strb.w	r3, [r6, #804]	; 0x324
    2b3c:	f886 4325 	strb.w	r4, [r6, #805]	; 0x325
    2b40:	f886 2322 	strb.w	r2, [r6, #802]	; 0x322
    2b44:	f206 332e 	addw	r3, r6, #814	; 0x32e
    2b48:	4620      	mov	r0, r4
    2b4a:	f206 3625 	addw	r6, r6, #805	; 0x325
    2b4e:	e001      	b.n	2b54 <main+0xb14>
    2b50:	f816 0f01 	ldrb.w	r0, [r6, #1]!
    2b54:	429e      	cmp	r6, r3
    2b56:	4401      	add	r1, r0
    2b58:	d1fa      	bne.n	2b50 <main+0xb10>
    2b5a:	43c9      	mvns	r1, r1
    2b5c:	4c55      	ldr	r4, [pc, #340]	; (2cb4 <main+0xc74>)
    2b5e:	f88a 132f 	strb.w	r1, [r10, #815]	; 0x32f
    2b62:	f1a4 030f 	sub.w	r3, r4, #15
    2b66:	9303      	str	r3, [sp, #12]
    2b68:	461d      	mov	r5, r3
    2b6a:	21ff      	movs	r1, #255	; 0xff
    2b6c:	e001      	b.n	2b72 <main+0xb32>
    2b6e:	f815 1f01 	ldrb.w	r1, [r5, #1]!
    2b72:	4e51      	ldr	r6, [pc, #324]	; (2cb8 <main+0xc78>)
    2b74:	f106 0044 	add.w	r0, r6, #68	; 0x44
    2b78:	f002 fdb0 	bl	56dc <mbed::Stream::putc(int)>
    2b7c:	42a5      	cmp	r5, r4
    2b7e:	d1f6      	bne.n	2b6e <main+0xb2e>
    2b80:	f506 7082 	add.w	r0, r6, #260	; 0x104
    2b84:	f002 fde4 	bl	5750 <mbed::Timer::read_ms()>
    2b88:	f206 531c 	addw	r3, r6, #1308	; 0x51c
    2b8c:	f8cd 9014 	str.w	r9, [sp, #20]
    2b90:	4637      	mov	r7, r6
    2b92:	4699      	mov	r9, r3
    2b94:	f8c6 0114 	str.w	r0, [r6, #276]	; 0x114
    2b98:	f859 3f04 	ldr.w	r3, [r9, #4]!
    2b9c:	2b00      	cmp	r3, #0
    2b9e:	f000 80b3 	beq.w	2d08 <main+0xcc8>
    2ba2:	6858      	ldr	r0, [r3, #4]
    2ba4:	689a      	ldr	r2, [r3, #8]
    2ba6:	6801      	ldr	r1, [r0, #0]
    2ba8:	9206      	str	r2, [sp, #24]
    2baa:	6889      	ldr	r1, [r1, #8]
    2bac:	681e      	ldr	r6, [r3, #0]
    2bae:	4788      	blx	r1
    2bb0:	f8d9 3000 	ldr.w	r3, [r9]
    2bb4:	4605      	mov	r5, r0
    2bb6:	6858      	ldr	r0, [r3, #4]
    2bb8:	6803      	ldr	r3, [r0, #0]
    2bba:	68db      	ldr	r3, [r3, #12]
    2bbc:	4798      	blx	r3
    2bbe:	f8d9 3000 	ldr.w	r3, [r9]
    2bc2:	4604      	mov	r4, r0
    2bc4:	f8d3 8010 	ldr.w	r8, [r3, #16]
    2bc8:	9a06      	ldr	r2, [sp, #24]
    2bca:	f1b8 0f63 	cmp.w	r8, #99	; 0x63
    2bce:	dd04      	ble.n	2bda <main+0xb9a>
    2bd0:	f89a 35fc 	ldrb.w	r3, [r10, #1532]	; 0x5fc
    2bd4:	2b00      	cmp	r3, #0
    2bd6:	f000 8097 	beq.w	2d08 <main+0xcc8>
    2bda:	f3c2 2307 	ubfx	r3, r2, #8, #8
    2bde:	4630      	mov	r0, r6
    2be0:	f88a 2327 	strb.w	r2, [r10, #807]	; 0x327
    2be4:	f88a 3328 	strb.w	r3, [r10, #808]	; 0x328
    2be8:	f005 fa15 	bl	8016 <strlen>
    2bec:	4603      	mov	r3, r0
    2bee:	9009      	str	r0, [sp, #36]	; 0x24
    2bf0:	9809      	ldr	r0, [sp, #36]	; 0x24
    2bf2:	4a32      	ldr	r2, [pc, #200]	; (2cbc <main+0xc7c>)
    2bf4:	4631      	mov	r1, r6
    2bf6:	6010      	str	r0, [r2, #0]
    2bf8:	461a      	mov	r2, r3
    2bfa:	4831      	ldr	r0, [pc, #196]	; (2cc0 <main+0xc80>)
    2bfc:	9306      	str	r3, [sp, #24]
    2bfe:	f004 fa9b 	bl	7138 <memcpy>
    2c02:	4628      	mov	r0, r5
    2c04:	f005 fa07 	bl	8016 <strlen>
    2c08:	9b06      	ldr	r3, [sp, #24]
    2c0a:	900a      	str	r0, [sp, #40]	; 0x28
    2c0c:	4606      	mov	r6, r0
    2c0e:	4629      	mov	r1, r5
    2c10:	980a      	ldr	r0, [sp, #40]	; 0x28
    2c12:	4d2c      	ldr	r5, [pc, #176]	; (2cc4 <main+0xc84>)
    2c14:	1d9a      	adds	r2, r3, #6
    2c16:	50a8      	str	r0, [r5, r2]
    2c18:	4628      	mov	r0, r5
    2c1a:	330a      	adds	r3, #10
    2c1c:	4632      	mov	r2, r6
    2c1e:	4418      	add	r0, r3
    2c20:	9306      	str	r3, [sp, #24]
    2c22:	f004 fa89 	bl	7138 <memcpy>
    2c26:	4620      	mov	r0, r4
    2c28:	f005 f9f5 	bl	8016 <strlen>
    2c2c:	4605      	mov	r5, r0
    2c2e:	9a04      	ldr	r2, [sp, #16]
    2c30:	900b      	str	r0, [sp, #44]	; 0x2c
    2c32:	9b06      	ldr	r3, [sp, #24]
    2c34:	6810      	ldr	r0, [r2, #0]
    2c36:	4a23      	ldr	r2, [pc, #140]	; (2cc4 <main+0xc84>)
    2c38:	4433      	add	r3, r6
    2c3a:	1d1e      	adds	r6, r3, #4
    2c3c:	50d0      	str	r0, [r2, r3]
    2c3e:	4b21      	ldr	r3, [pc, #132]	; (2cc4 <main+0xc84>)
    2c40:	4621      	mov	r1, r4
    2c42:	462a      	mov	r2, r5
    2c44:	1998      	adds	r0, r3, r6
    2c46:	f004 fa77 	bl	7138 <memcpy>
    2c4a:	1971      	adds	r1, r6, r5
    2c4c:	1d0b      	adds	r3, r1, #4
    2c4e:	b29c      	uxth	r4, r3
    2c50:	ea4f 2e14 	mov.w	lr, r4, lsr #8
    2c54:	b2db      	uxtb	r3, r3
    2c56:	eb0e 0c03 	add.w	r12, lr, r3
    2c5a:	ea6f 0c0c 	mvn.w	r12, r12
    2c5e:	2000      	movs	r0, #0
    2c60:	4451      	add	r1, r10
    2c62:	2502      	movs	r5, #2
    2c64:	f881 5328 	strb.w	r5, [r1, #808]	; 0x328
    2c68:	f881 0327 	strb.w	r0, [r1, #807]	; 0x327
    2c6c:	f881 0329 	strb.w	r0, [r1, #809]	; 0x329
    2c70:	f881 032a 	strb.w	r0, [r1, #810]	; 0x32a
    2c74:	4602      	mov	r2, r0
    2c76:	fa5f f188 	uxtb.w	r1, r8
    2c7a:	f204 3026 	addw	r0, r4, #806	; 0x326
    2c7e:	26ff      	movs	r6, #255	; 0xff
    2c80:	25fe      	movs	r5, #254	; 0xfe
    2c82:	f348 2807 	sbfx	r8, r8, #8, #8
    2c86:	f88a 3322 	strb.w	r3, [r10, #802]	; 0x322
    2c8a:	f88a c324 	strb.w	r12, [r10, #804]	; 0x324
    2c8e:	f88a e323 	strb.w	lr, [r10, #803]	; 0x323
    2c92:	4b0d      	ldr	r3, [pc, #52]	; (2cc8 <main+0xc88>)
    2c94:	4450      	add	r0, r10
    2c96:	f88a 6320 	strb.w	r6, [r10, #800]	; 0x320
    2c9a:	f88a 5321 	strb.w	r5, [r10, #801]	; 0x321
    2c9e:	f88a 1325 	strb.w	r1, [r10, #805]	; 0x325
    2ca2:	f88a 8326 	strb.w	r8, [r10, #806]	; 0x326
    2ca6:	e013      	b.n	2cd0 <main+0xc90>
    2ca8:	3b9aca00 	.word	0x3b9aca00
    2cac:	10624dd3 	.word	0x10624dd3
    2cb0:	000f4240 	.word	0x000f4240
    2cb4:	100004f7 	.word	0x100004f7
    2cb8:	100001c8 	.word	0x100001c8
    2cbc:	100004f1 	.word	0x100004f1
    2cc0:	100004f5 	.word	0x100004f5
    2cc4:	100004ef 	.word	0x100004ef
    2cc8:	100004ed 	.word	0x100004ed
    2ccc:	f813 1f01 	ldrb.w	r1, [r3, #1]!
    2cd0:	4283      	cmp	r3, r0
    2cd2:	440a      	add	r2, r1
    2cd4:	d1fa      	bne.n	2ccc <main+0xc8c>
    2cd6:	43d2      	mvns	r2, r2
    2cd8:	1de1      	adds	r1, r4, #7
    2cda:	f104 0308 	add.w	r3, r4, #8
    2cde:	b289      	uxth	r1, r1
    2ce0:	b29b      	uxth	r3, r3
    2ce2:	4451      	add	r1, r10
    2ce4:	f5b3 7f00 	cmp.w	r3, #512	; 0x200
    2ce8:	f881 2320 	strb.w	r2, [r1, #800]	; 0x320
    2cec:	f200 80e0 	bhi.w	2eb0 <main+0xe70>
    2cf0:	b153      	cbz	r3, 2d08 <main+0xcc8>
    2cf2:	f203 331f 	addw	r3, r3, #799	; 0x31f
    2cf6:	4cbc      	ldr	r4, [pc, #752]	; (2fe8 <main+0xfa8>)
    2cf8:	18fd      	adds	r5, r7, r3
    2cfa:	f814 1f01 	ldrb.w	r1, [r4, #1]!
    2cfe:	48bb      	ldr	r0, [pc, #748]	; (2fec <main+0xfac>)
    2d00:	f002 fcec 	bl	56dc <mbed::Stream::putc(int)>
    2d04:	42ac      	cmp	r4, r5
    2d06:	d1f8      	bne.n	2cfa <main+0xcba>
    2d08:	4bb9      	ldr	r3, [pc, #740]	; (2ff0 <main+0xfb0>)
    2d0a:	4599      	cmp	r9, r3
    2d0c:	f47f af44 	bne.w	2b98 <main+0xb58>
    2d10:	3364      	adds	r3, #100	; 0x64
    2d12:	f2a3 58e4 	subw	r8, r3, #1508	; 0x5e4
    2d16:	3b64      	subs	r3, #100	; 0x64
    2d18:	4699      	mov	r9, r3
    2d1a:	f859 0f04 	ldr.w	r0, [r9, #4]!
    2d1e:	2800      	cmp	r0, #0
    2d20:	f000 809e 	beq.w	2e60 <main+0xe20>
    2d24:	e890 0088 	ldmia.w	r0, {r3, r7}
    2d28:	49b2      	ldr	r1, [pc, #712]	; (2ff4 <main+0xfb4>)
    2d2a:	689a      	ldr	r2, [r3, #8]
    2d2c:	6886      	ldr	r6, [r0, #8]
    2d2e:	428a      	cmp	r2, r1
    2d30:	f040 80ae 	bne.w	2e90 <main+0xe50>
    2d34:	4db0      	ldr	r5, [pc, #704]	; (2ff8 <main+0xfb8>)
    2d36:	68da      	ldr	r2, [r3, #12]
    2d38:	49b0      	ldr	r1, [pc, #704]	; (2ffc <main+0xfbc>)
    2d3a:	428a      	cmp	r2, r1
    2d3c:	f040 80a2 	bne.w	2e84 <main+0xe44>
    2d40:	4caf      	ldr	r4, [pc, #700]	; (3000 <main+0xfc0>)
    2d42:	685b      	ldr	r3, [r3, #4]
    2d44:	4aaf      	ldr	r2, [pc, #700]	; (3004 <main+0xfc4>)
    2d46:	4293      	cmp	r3, r2
    2d48:	f040 8099 	bne.w	2e7e <main+0xe3e>
    2d4c:	6bc3      	ldr	r3, [r0, #60]	; 0x3c
    2d4e:	2b63      	cmp	r3, #99	; 0x63
    2d50:	dd04      	ble.n	2d5c <main+0xd1c>
    2d52:	f89a 25fc 	ldrb.w	r2, [r10, #1532]	; 0x5fc
    2d56:	2a00      	cmp	r2, #0
    2d58:	f000 8082 	beq.w	2e60 <main+0xe20>
    2d5c:	f3c7 2207 	ubfx	r2, r7, #8, #8
    2d60:	4630      	mov	r0, r6
    2d62:	f88a 7327 	strb.w	r7, [r10, #807]	; 0x327
    2d66:	f88a 2328 	strb.w	r2, [r10, #808]	; 0x328
    2d6a:	9306      	str	r3, [sp, #24]
    2d6c:	f005 f953 	bl	8016 <strlen>
    2d70:	4607      	mov	r7, r0
    2d72:	9009      	str	r0, [sp, #36]	; 0x24
    2d74:	4ba4      	ldr	r3, [pc, #656]	; (3008 <main+0xfc8>)
    2d76:	9809      	ldr	r0, [sp, #36]	; 0x24
    2d78:	4631      	mov	r1, r6
    2d7a:	6018      	str	r0, [r3, #0]
    2d7c:	463a      	mov	r2, r7
    2d7e:	1d18      	adds	r0, r3, #4
    2d80:	f004 f9da 	bl	7138 <memcpy>
    2d84:	4628      	mov	r0, r5
    2d86:	f005 f946 	bl	8016 <strlen>
    2d8a:	4606      	mov	r6, r0
    2d8c:	900a      	str	r0, [sp, #40]	; 0x28
    2d8e:	4b9f      	ldr	r3, [pc, #636]	; (300c <main+0xfcc>)
    2d90:	980a      	ldr	r0, [sp, #40]	; 0x28
    2d92:	1dba      	adds	r2, r7, #6
    2d94:	370a      	adds	r7, #10
    2d96:	5098      	str	r0, [r3, r2]
    2d98:	4629      	mov	r1, r5
    2d9a:	4632      	mov	r2, r6
    2d9c:	19d8      	adds	r0, r3, r7
    2d9e:	f004 f9cb 	bl	7138 <memcpy>
    2da2:	4620      	mov	r0, r4
    2da4:	f005 f937 	bl	8016 <strlen>
    2da8:	4605      	mov	r5, r0
    2daa:	9b04      	ldr	r3, [sp, #16]
    2dac:	900b      	str	r0, [sp, #44]	; 0x2c
    2dae:	6818      	ldr	r0, [r3, #0]
    2db0:	4437      	add	r7, r6
    2db2:	4b96      	ldr	r3, [pc, #600]	; (300c <main+0xfcc>)
    2db4:	1d3e      	adds	r6, r7, #4
    2db6:	51d8      	str	r0, [r3, r7]
    2db8:	4621      	mov	r1, r4
    2dba:	462a      	mov	r2, r5
    2dbc:	1998      	adds	r0, r3, r6
    2dbe:	f004 f9bb 	bl	7138 <memcpy>
    2dc2:	1971      	adds	r1, r6, r5
    2dc4:	f101 0e04 	add.w	lr, r1, #4
    2dc8:	fa1f f48e 	uxth.w	r4, lr
    2dcc:	0a27      	lsrs	r7, r4, #8
    2dce:	fa5f fe8e 	uxtb.w	lr, lr
    2dd2:	eb07 0c0e 	add.w	r12, r7, lr
    2dd6:	ea6f 0c0c 	mvn.w	r12, r12
    2dda:	9b06      	ldr	r3, [sp, #24]
    2ddc:	2000      	movs	r0, #0
    2dde:	4451      	add	r1, r10
    2de0:	2502      	movs	r5, #2
    2de2:	f881 5328 	strb.w	r5, [r1, #808]	; 0x328
    2de6:	f881 0327 	strb.w	r0, [r1, #807]	; 0x327
    2dea:	f881 0329 	strb.w	r0, [r1, #809]	; 0x329
    2dee:	f881 032a 	strb.w	r0, [r1, #810]	; 0x32a
    2df2:	4602      	mov	r2, r0
    2df4:	b2d9      	uxtb	r1, r3
    2df6:	f204 3026 	addw	r0, r4, #806	; 0x326
    2dfa:	26ff      	movs	r6, #255	; 0xff
    2dfc:	25fe      	movs	r5, #254	; 0xfe
    2dfe:	f88a 7323 	strb.w	r7, [r10, #803]	; 0x323
    2e02:	f343 2707 	sbfx	r7, r3, #8, #8
    2e06:	f88a c324 	strb.w	r12, [r10, #804]	; 0x324
    2e0a:	f88a e322 	strb.w	lr, [r10, #802]	; 0x322
    2e0e:	4b80      	ldr	r3, [pc, #512]	; (3010 <main+0xfd0>)
    2e10:	4450      	add	r0, r10
    2e12:	f88a 6320 	strb.w	r6, [r10, #800]	; 0x320
    2e16:	f88a 5321 	strb.w	r5, [r10, #801]	; 0x321
    2e1a:	f88a 1325 	strb.w	r1, [r10, #805]	; 0x325
    2e1e:	f88a 7326 	strb.w	r7, [r10, #806]	; 0x326
    2e22:	e001      	b.n	2e28 <main+0xde8>
    2e24:	f813 1f01 	ldrb.w	r1, [r3, #1]!
    2e28:	4283      	cmp	r3, r0
    2e2a:	440a      	add	r2, r1
    2e2c:	d1fa      	bne.n	2e24 <main+0xde4>
    2e2e:	43d2      	mvns	r2, r2
    2e30:	1de1      	adds	r1, r4, #7
    2e32:	f104 0308 	add.w	r3, r4, #8
    2e36:	b289      	uxth	r1, r1
    2e38:	b29b      	uxth	r3, r3
    2e3a:	4451      	add	r1, r10
    2e3c:	f5b3 7f00 	cmp.w	r3, #512	; 0x200
    2e40:	f881 2320 	strb.w	r2, [r1, #800]	; 0x320
    2e44:	d87b      	bhi.n	2f3e <main+0xefe>
    2e46:	b15b      	cbz	r3, 2e60 <main+0xe20>
    2e48:	f203 331f 	addw	r3, r3, #799	; 0x31f
    2e4c:	4c66      	ldr	r4, [pc, #408]	; (2fe8 <main+0xfa8>)
    2e4e:	eb08 0503 	add.w	r5, r8, r3
    2e52:	f814 1f01 	ldrb.w	r1, [r4, #1]!
    2e56:	4865      	ldr	r0, [pc, #404]	; (2fec <main+0xfac>)
    2e58:	f002 fc40 	bl	56dc <mbed::Stream::putc(int)>
    2e5c:	42ac      	cmp	r4, r5
    2e5e:	d1f8      	bne.n	2e52 <main+0xe12>
    2e60:	4b6c      	ldr	r3, [pc, #432]	; (3014 <main+0xfd4>)
    2e62:	4599      	cmp	r9, r3
    2e64:	f47f af59 	bne.w	2d1a <main+0xcda>
    2e68:	f8dd 9014 	ldr.w	r9, [sp, #20]
    2e6c:	2301      	movs	r3, #1
    2e6e:	f8ca 9600 	str.w	r9, [r10, #1536]	; 0x600
    2e72:	f8ca 9604 	str.w	r9, [r10, #1540]	; 0x604
    2e76:	f88a 35fc 	strb.w	r3, [r10, #1532]	; 0x5fc
    2e7a:	f7ff baa8 	b.w	23ce <main+0x38e>
    2e7e:	4798      	blx	r3
    2e80:	4603      	mov	r3, r0
    2e82:	e764      	b.n	2d4e <main+0xd0e>
    2e84:	4790      	blx	r2
    2e86:	4604      	mov	r4, r0
    2e88:	f8d9 0000 	ldr.w	r0, [r9]
    2e8c:	6803      	ldr	r3, [r0, #0]
    2e8e:	e758      	b.n	2d42 <main+0xd02>
    2e90:	4790      	blx	r2
    2e92:	4605      	mov	r5, r0
    2e94:	f8d9 0000 	ldr.w	r0, [r9]
    2e98:	6803      	ldr	r3, [r0, #0]
    2e9a:	e74c      	b.n	2d36 <main+0xcf6>
    2e9c:	4628      	mov	r0, r5
    2e9e:	f506 7190 	add.w	r1, r6, #288	; 0x120
    2ea2:	4798      	blx	r3
    2ea4:	f7ff ba80 	b.w	23a8 <main+0x368>
    2ea8:	2708      	movs	r7, #8
    2eaa:	463d      	mov	r5, r7
    2eac:	2604      	movs	r6, #4
    2eae:	e53f      	b.n	2930 <main+0x8f0>
    2eb0:	4d59      	ldr	r5, [pc, #356]	; (3018 <main+0xfd8>)
    2eb2:	4c5a      	ldr	r4, [pc, #360]	; (301c <main+0xfdc>)
    2eb4:	cd0f      	ldmia	r5!, {r0, r1, r2, r3}
    2eb6:	c40f      	stmia	r4!, {r0, r1, r2, r3}
    2eb8:	cd0f      	ldmia	r5!, {r0, r1, r2, r3}
    2eba:	c40f      	stmia	r4!, {r0, r1, r2, r3}
    2ebc:	cd0f      	ldmia	r5!, {r0, r1, r2, r3}
    2ebe:	c40f      	stmia	r4!, {r0, r1, r2, r3}
    2ec0:	e895 0003 	ldmia.w	r5, {r0, r1}
    2ec4:	2303      	movs	r3, #3
    2ec6:	f887 3327 	strb.w	r3, [r7, #807]	; 0x327
    2eca:	2338      	movs	r3, #56	; 0x38
    2ecc:	f8c7 3328 	str.w	r3, [r7, #808]	; 0x328
    2ed0:	23ff      	movs	r3, #255	; 0xff
    2ed2:	e884 0003 	stmia.w	r4, {r0, r1}
    2ed6:	f887 3320 	strb.w	r3, [r7, #800]	; 0x320
    2eda:	23fe      	movs	r3, #254	; 0xfe
    2edc:	f887 3321 	strb.w	r3, [r7, #801]	; 0x321
    2ee0:	233d      	movs	r3, #61	; 0x3d
    2ee2:	f04f 0e00 	mov.w	lr, #0
    2ee6:	f04f 0c07 	mov.w	r12, #7
    2eea:	f887 3322 	strb.w	r3, [r7, #802]	; 0x322
    2eee:	23c2      	movs	r3, #194	; 0xc2
    2ef0:	f887 e323 	strb.w	lr, [r7, #803]	; 0x323
    2ef4:	eb04 020c 	add.w	r2, r4, r12
    2ef8:	4676      	mov	r6, lr
    2efa:	46e0      	mov	r8, r12
    2efc:	3c37      	subs	r4, #55	; 0x37
    2efe:	f887 e326 	strb.w	lr, [r7, #806]	; 0x326
    2f02:	f887 c325 	strb.w	r12, [r7, #805]	; 0x325
    2f06:	f887 3324 	strb.w	r3, [r7, #804]	; 0x324
    2f0a:	e001      	b.n	2f10 <main+0xed0>
    2f0c:	f814 8f01 	ldrb.w	r8, [r4, #1]!
    2f10:	4294      	cmp	r4, r2
    2f12:	4446      	add	r6, r8
    2f14:	d1fa      	bne.n	2f0c <main+0xecc>
    2f16:	43f6      	mvns	r6, r6
    2f18:	4d41      	ldr	r5, [pc, #260]	; (3020 <main+0xfe0>)
    2f1a:	f88a 6364 	strb.w	r6, [r10, #868]	; 0x364
    2f1e:	f1a5 0444 	sub.w	r4, r5, #68	; 0x44
    2f22:	21ff      	movs	r1, #255	; 0xff
    2f24:	e001      	b.n	2f2a <main+0xeea>
    2f26:	f814 1f01 	ldrb.w	r1, [r4, #1]!
    2f2a:	4830      	ldr	r0, [pc, #192]	; (2fec <main+0xfac>)
    2f2c:	f002 fbd6 	bl	56dc <mbed::Stream::putc(int)>
    2f30:	42ac      	cmp	r4, r5
    2f32:	d1f8      	bne.n	2f26 <main+0xee6>
    2f34:	4b2e      	ldr	r3, [pc, #184]	; (2ff0 <main+0xfb0>)
    2f36:	4599      	cmp	r9, r3
    2f38:	f47f ae2e 	bne.w	2b98 <main+0xb58>
    2f3c:	e6e8      	b.n	2d10 <main+0xcd0>
    2f3e:	4d36      	ldr	r5, [pc, #216]	; (3018 <main+0xfd8>)
    2f40:	4c36      	ldr	r4, [pc, #216]	; (301c <main+0xfdc>)
    2f42:	cd0f      	ldmia	r5!, {r0, r1, r2, r3}
    2f44:	c40f      	stmia	r4!, {r0, r1, r2, r3}
    2f46:	cd0f      	ldmia	r5!, {r0, r1, r2, r3}
    2f48:	c40f      	stmia	r4!, {r0, r1, r2, r3}
    2f4a:	cd0f      	ldmia	r5!, {r0, r1, r2, r3}
    2f4c:	c40f      	stmia	r4!, {r0, r1, r2, r3}
    2f4e:	e895 0003 	ldmia.w	r5, {r0, r1}
    2f52:	2303      	movs	r3, #3
    2f54:	f888 3327 	strb.w	r3, [r8, #807]	; 0x327
    2f58:	2338      	movs	r3, #56	; 0x38
    2f5a:	f8c8 3328 	str.w	r3, [r8, #808]	; 0x328
    2f5e:	23ff      	movs	r3, #255	; 0xff
    2f60:	e884 0003 	stmia.w	r4, {r0, r1}
    2f64:	f888 3320 	strb.w	r3, [r8, #800]	; 0x320
    2f68:	23fe      	movs	r3, #254	; 0xfe
    2f6a:	f888 3321 	strb.w	r3, [r8, #801]	; 0x321
    2f6e:	233d      	movs	r3, #61	; 0x3d
    2f70:	2700      	movs	r7, #0
    2f72:	f04f 0e07 	mov.w	lr, #7
    2f76:	f888 3322 	strb.w	r3, [r8, #802]	; 0x322
    2f7a:	23c2      	movs	r3, #194	; 0xc2
    2f7c:	f888 7323 	strb.w	r7, [r8, #803]	; 0x323
    2f80:	eb04 020e 	add.w	r2, r4, lr
    2f84:	463e      	mov	r6, r7
    2f86:	46f4      	mov	r12, lr
    2f88:	3c37      	subs	r4, #55	; 0x37
    2f8a:	f888 7326 	strb.w	r7, [r8, #806]	; 0x326
    2f8e:	f888 e325 	strb.w	lr, [r8, #805]	; 0x325
    2f92:	f888 3324 	strb.w	r3, [r8, #804]	; 0x324
    2f96:	e001      	b.n	2f9c <main+0xf5c>
    2f98:	f814 cf01 	ldrb.w	r12, [r4, #1]!
    2f9c:	4294      	cmp	r4, r2
    2f9e:	4466      	add	r6, r12
    2fa0:	d1fa      	bne.n	2f98 <main+0xf58>
    2fa2:	43f6      	mvns	r6, r6
    2fa4:	4d1e      	ldr	r5, [pc, #120]	; (3020 <main+0xfe0>)
    2fa6:	f88a 6364 	strb.w	r6, [r10, #868]	; 0x364
    2faa:	f1a5 0444 	sub.w	r4, r5, #68	; 0x44
    2fae:	21ff      	movs	r1, #255	; 0xff
    2fb0:	e001      	b.n	2fb6 <main+0xf76>
    2fb2:	f814 1f01 	ldrb.w	r1, [r4, #1]!
    2fb6:	480d      	ldr	r0, [pc, #52]	; (2fec <main+0xfac>)
    2fb8:	f002 fb90 	bl	56dc <mbed::Stream::putc(int)>
    2fbc:	42ac      	cmp	r4, r5
    2fbe:	d1f8      	bne.n	2fb2 <main+0xf72>
    2fc0:	4b14      	ldr	r3, [pc, #80]	; (3014 <main+0xfd4>)
    2fc2:	4599      	cmp	r9, r3
    2fc4:	f47f aea9 	bne.w	2d1a <main+0xcda>
    2fc8:	e74e      	b.n	2e68 <main+0xe28>
    2fca:	2208      	movs	r2, #8
    2fcc:	2107      	movs	r1, #7
    2fce:	2006      	movs	r0, #6
    2fd0:	2705      	movs	r7, #5
    2fd2:	2304      	movs	r3, #4
    2fd4:	260c      	movs	r6, #12
    2fd6:	f7ff bacb 	b.w	2570 <main+0x530>
    2fda:	4620      	mov	r0, r4
    2fdc:	2107      	movs	r1, #7
    2fde:	9a04      	ldr	r2, [sp, #16]
    2fe0:	4798      	blx	r3
    2fe2:	f7ff b9c3 	b.w	236c <main+0x32c>
    2fe6:	bf00      	nop
    2fe8:	100004e7 	.word	0x100004e7
    2fec:	1000020c 	.word	0x1000020c
    2ff0:	10000748 	.word	0x10000748
    2ff4:	00000239 	.word	0x00000239
    2ff8:	00008e34 	.word	0x00008e34
    2ffc:	00000241 	.word	0x00000241
    3000:	00008e50 	.word	0x00008e50
    3004:	00000235 	.word	0x00000235
    3008:	100004f1 	.word	0x100004f1
    300c:	100004ef 	.word	0x100004ef
    3010:	100004ed 	.word	0x100004ed
    3014:	100007ac 	.word	0x100007ac
    3018:	00008eb4 	.word	0x00008eb4
    301c:	100004f4 	.word	0x100004f4
    3020:	1000052c 	.word	0x1000052c

00003024 <_GLOBAL__sub_I_servos>:
    3024:	e92d 4ff8 	stmdb	sp!, {r3, r4, r5, r6, r7, r8, r9, r10, r11, lr}
    3028:	4b7c      	ldr	r3, [pc, #496]	; (321c <_GLOBAL__sub_I_servos+0x1f8>)
    302a:	2500      	movs	r5, #0
    302c:	4618      	mov	r0, r3
    302e:	497c      	ldr	r1, [pc, #496]	; (3220 <_GLOBAL__sub_I_servos+0x1fc>)
    3030:	4a7c      	ldr	r2, [pc, #496]	; (3224 <_GLOBAL__sub_I_servos+0x200>)
    3032:	601d      	str	r5, [r3, #0]
    3034:	605d      	str	r5, [r3, #4]
    3036:	609d      	str	r5, [r3, #8]
    3038:	f002 fd30 	bl	5a9c <__aeabi_atexit>
    303c:	2064      	movs	r0, #100	; 0x64
    303e:	f002 fd34 	bl	5aaa <operator new(unsigned int)>
    3042:	4604      	mov	r4, r0
    3044:	4978      	ldr	r1, [pc, #480]	; (3228 <_GLOBAL__sub_I_servos+0x204>)
    3046:	4a79      	ldr	r2, [pc, #484]	; (322c <_GLOBAL__sub_I_servos+0x208>)
    3048:	2301      	movs	r3, #1
    304a:	f000 fc33 	bl	38b4 <MX106::MX106(PinName, PinName, int)>
    304e:	4b78      	ldr	r3, [pc, #480]	; (3230 <_GLOBAL__sub_I_servos+0x20c>)
    3050:	2064      	movs	r0, #100	; 0x64
    3052:	601c      	str	r4, [r3, #0]
    3054:	f002 fd29 	bl	5aaa <operator new(unsigned int)>
    3058:	4604      	mov	r4, r0
    305a:	4973      	ldr	r1, [pc, #460]	; (3228 <_GLOBAL__sub_I_servos+0x204>)
    305c:	4a73      	ldr	r2, [pc, #460]	; (322c <_GLOBAL__sub_I_servos+0x208>)
    305e:	2302      	movs	r3, #2
    3060:	f000 fc28 	bl	38b4 <MX106::MX106(PinName, PinName, int)>
    3064:	4b73      	ldr	r3, [pc, #460]	; (3234 <_GLOBAL__sub_I_servos+0x210>)
    3066:	2064      	movs	r0, #100	; 0x64
    3068:	601c      	str	r4, [r3, #0]
    306a:	f002 fd1e 	bl	5aaa <operator new(unsigned int)>
    306e:	4604      	mov	r4, r0
    3070:	496d      	ldr	r1, [pc, #436]	; (3228 <_GLOBAL__sub_I_servos+0x204>)
    3072:	4a6e      	ldr	r2, [pc, #440]	; (322c <_GLOBAL__sub_I_servos+0x208>)
    3074:	2303      	movs	r3, #3
    3076:	f000 fc1d 	bl	38b4 <MX106::MX106(PinName, PinName, int)>
    307a:	4b6f      	ldr	r3, [pc, #444]	; (3238 <_GLOBAL__sub_I_servos+0x214>)
    307c:	2064      	movs	r0, #100	; 0x64
    307e:	601c      	str	r4, [r3, #0]
    3080:	f002 fd13 	bl	5aaa <operator new(unsigned int)>
    3084:	4606      	mov	r6, r0
    3086:	4968      	ldr	r1, [pc, #416]	; (3228 <_GLOBAL__sub_I_servos+0x204>)
    3088:	4a68      	ldr	r2, [pc, #416]	; (322c <_GLOBAL__sub_I_servos+0x208>)
    308a:	2304      	movs	r3, #4
    308c:	f000 fc12 	bl	38b4 <MX106::MX106(PinName, PinName, int)>
    3090:	4b6a      	ldr	r3, [pc, #424]	; (323c <_GLOBAL__sub_I_servos+0x218>)
    3092:	2064      	movs	r0, #100	; 0x64
    3094:	601e      	str	r6, [r3, #0]
    3096:	f002 fd08 	bl	5aaa <operator new(unsigned int)>
    309a:	4c69      	ldr	r4, [pc, #420]	; (3240 <_GLOBAL__sub_I_servos+0x21c>)
    309c:	4962      	ldr	r1, [pc, #392]	; (3228 <_GLOBAL__sub_I_servos+0x204>)
    309e:	4a63      	ldr	r2, [pc, #396]	; (322c <_GLOBAL__sub_I_servos+0x208>)
    30a0:	2305      	movs	r3, #5
    30a2:	4607      	mov	r7, r0
    30a4:	f000 fe82 	bl	3dac <MX28::MX28(PinName, PinName, int)>
    30a8:	4620      	mov	r0, r4
    30aa:	4b66      	ldr	r3, [pc, #408]	; (3244 <_GLOBAL__sub_I_servos+0x220>)
    30ac:	4e66      	ldr	r6, [pc, #408]	; (3248 <_GLOBAL__sub_I_servos+0x224>)
    30ae:	4967      	ldr	r1, [pc, #412]	; (324c <_GLOBAL__sub_I_servos+0x228>)
    30b0:	4a67      	ldr	r2, [pc, #412]	; (3250 <_GLOBAL__sub_I_servos+0x22c>)
    30b2:	f840 3b04 	str.w	r3, [r0], #4
    30b6:	462b      	mov	r3, r5
    30b8:	6037      	str	r7, [r6, #0]
    30ba:	f001 f825 	bl	4108 <AjK::MODSERIAL::MODSERIAL(PinName, PinName, char const*)>
    30be:	f504 7082 	add.w	r0, r4, #260	; 0x104
    30c2:	f002 fb29 	bl	5718 <mbed::Timer::Timer()>
    30c6:	f44f 4361 	mov.w	r3, #57600	; 0xe100
    30ca:	f8c4 3100 	str.w	r3, [r4, #256]	; 0x100
    30ce:	f504 7082 	add.w	r0, r4, #260	; 0x104
    30d2:	f002 fb31 	bl	5738 <mbed::Timer::start()>
    30d6:	4629      	mov	r1, r5
    30d8:	4b5e      	ldr	r3, [pc, #376]	; (3254 <_GLOBAL__sub_I_servos+0x230>)
    30da:	f884 55fc 	strb.w	r5, [r4, #1532]	; 0x5fc
    30de:	f8c4 3610 	str.w	r3, [r4, #1552]	; 0x610
    30e2:	f884 5614 	strb.w	r5, [r4, #1556]	; 0x614
    30e6:	f8c4 561c 	str.w	r5, [r4, #1564]	; 0x61c
    30ea:	f884 5620 	strb.w	r5, [r4, #1568]	; 0x620
    30ee:	f8c4 5628 	str.w	r5, [r4, #1576]	; 0x628
    30f2:	f884 562c 	strb.w	r5, [r4, #1580]	; 0x62c
    30f6:	f8c4 5634 	str.w	r5, [r4, #1588]	; 0x634
    30fa:	f204 531c 	addw	r3, r4, #1308	; 0x51c
    30fe:	f504 62b0 	add.w	r2, r4, #1408	; 0x580
    3102:	f843 1f04 	str.w	r1, [r3, #4]!
    3106:	4293      	cmp	r3, r2
    3108:	d1fb      	bne.n	3102 <_GLOBAL__sub_I_servos+0xde>
    310a:	4b53      	ldr	r3, [pc, #332]	; (3258 <_GLOBAL__sub_I_servos+0x234>)
    310c:	2100      	movs	r1, #0
    310e:	f103 0264 	add.w	r2, r3, #100	; 0x64
    3112:	f843 1f04 	str.w	r1, [r3, #4]!
    3116:	4293      	cmp	r3, r2
    3118:	d1fb      	bne.n	3112 <_GLOBAL__sub_I_servos+0xee>
    311a:	4b50      	ldr	r3, [pc, #320]	; (325c <_GLOBAL__sub_I_servos+0x238>)
    311c:	2100      	movs	r1, #0
    311e:	f503 7200 	add.w	r2, r3, #512	; 0x200
    3122:	f803 1f01 	strb.w	r1, [r3, #1]!
    3126:	4293      	cmp	r3, r2
    3128:	d1fb      	bne.n	3122 <_GLOBAL__sub_I_servos+0xfe>
    312a:	4b4d      	ldr	r3, [pc, #308]	; (3260 <_GLOBAL__sub_I_servos+0x23c>)
    312c:	2100      	movs	r1, #0
    312e:	f503 7200 	add.w	r2, r3, #512	; 0x200
    3132:	f803 1f01 	strb.w	r1, [r3, #1]!
    3136:	4293      	cmp	r3, r2
    3138:	f04f 0400 	mov.w	r4, #0
    313c:	d1f9      	bne.n	3132 <_GLOBAL__sub_I_servos+0x10e>
    313e:	4949      	ldr	r1, [pc, #292]	; (3264 <_GLOBAL__sub_I_servos+0x240>)
    3140:	4a38      	ldr	r2, [pc, #224]	; (3224 <_GLOBAL__sub_I_servos+0x200>)
    3142:	483f      	ldr	r0, [pc, #252]	; (3240 <_GLOBAL__sub_I_servos+0x21c>)
    3144:	f002 fcaa 	bl	5a9c <__aeabi_atexit>
    3148:	4b47      	ldr	r3, [pc, #284]	; (3268 <_GLOBAL__sub_I_servos+0x244>)
    314a:	4a48      	ldr	r2, [pc, #288]	; (326c <_GLOBAL__sub_I_servos+0x248>)
    314c:	4f48      	ldr	r7, [pc, #288]	; (3270 <_GLOBAL__sub_I_servos+0x24c>)
    314e:	4e49      	ldr	r6, [pc, #292]	; (3274 <_GLOBAL__sub_I_servos+0x250>)
    3150:	4d49      	ldr	r5, [pc, #292]	; (3278 <_GLOBAL__sub_I_servos+0x254>)
    3152:	639a      	str	r2, [r3, #56]	; 0x38
    3154:	f8df 8134 	ldr.w	r8, [pc, #308]	; 328c <_GLOBAL__sub_I_servos+0x268>
    3158:	f8df a134 	ldr.w	r10, [pc, #308]	; 3290 <_GLOBAL__sub_I_servos+0x26c>
    315c:	f8df e134 	ldr.w	lr, [pc, #308]	; 3294 <_GLOBAL__sub_I_servos+0x270>
    3160:	2201      	movs	r2, #1
    3162:	4846      	ldr	r0, [pc, #280]	; (327c <_GLOBAL__sub_I_servos+0x258>)
    3164:	4946      	ldr	r1, [pc, #280]	; (3280 <_GLOBAL__sub_I_servos+0x25c>)
    3166:	f8df c130 	ldr.w	r12, [pc, #304]	; 3298 <_GLOBAL__sub_I_servos+0x274>
    316a:	f8df 9130 	ldr.w	r9, [pc, #304]	; 329c <_GLOBAL__sub_I_servos+0x278>
    316e:	63da      	str	r2, [r3, #60]	; 0x3c
    3170:	f8df b12c 	ldr.w	r11, [pc, #300]	; 32a0 <_GLOBAL__sub_I_servos+0x27c>
    3174:	4a43      	ldr	r2, [pc, #268]	; (3284 <_GLOBAL__sub_I_servos+0x260>)
    3176:	f8c3 8000 	str.w	r8, [r3]
    317a:	f8c3 a00c 	str.w	r10, [r3, #12]
    317e:	f8df 8124 	ldr.w	r8, [pc, #292]	; 32a4 <_GLOBAL__sub_I_servos+0x280>
    3182:	f8c3 e008 	str.w	lr, [r3, #8]
    3186:	751c      	strb	r4, [r3, #20]
    3188:	f8df e11c 	ldr.w	lr, [pc, #284]	; 32a8 <_GLOBAL__sub_I_servos+0x284>
    318c:	621c      	str	r4, [r3, #32]
    318e:	625c      	str	r4, [r3, #36]	; 0x24
    3190:	629c      	str	r4, [r3, #40]	; 0x28
    3192:	62dc      	str	r4, [r3, #44]	; 0x2c
    3194:	f883 4030 	strb.w	r4, [r3, #48]	; 0x30
    3198:	635c      	str	r4, [r3, #52]	; 0x34
    319a:	611f      	str	r7, [r3, #16]
    319c:	619e      	str	r6, [r3, #24]
    319e:	61dd      	str	r5, [r3, #28]
    31a0:	f8df a108 	ldr.w	r10, [pc, #264]	; 32ac <_GLOBAL__sub_I_servos+0x288>
    31a4:	4b38      	ldr	r3, [pc, #224]	; (3288 <_GLOBAL__sub_I_servos+0x264>)
    31a6:	6047      	str	r7, [r0, #4]
    31a8:	7204      	strb	r4, [r0, #8]
    31aa:	60c6      	str	r6, [r0, #12]
    31ac:	6105      	str	r5, [r0, #16]
    31ae:	6144      	str	r4, [r0, #20]
    31b0:	6184      	str	r4, [r0, #24]
    31b2:	61c4      	str	r4, [r0, #28]
    31b4:	6204      	str	r4, [r0, #32]
    31b6:	f880 4024 	strb.w	r4, [r0, #36]	; 0x24
    31ba:	62c4      	str	r4, [r0, #44]	; 0x2c
    31bc:	f8c0 c000 	str.w	r12, [r0]
    31c0:	f8c9 0004 	str.w	r0, [r9, #4]
    31c4:	f8c9 4010 	str.w	r4, [r9, #16]
    31c8:	f8c9 b000 	str.w	r11, [r9]
    31cc:	f8c1 c000 	str.w	r12, [r1]
    31d0:	604f      	str	r7, [r1, #4]
    31d2:	720c      	strb	r4, [r1, #8]
    31d4:	60ce      	str	r6, [r1, #12]
    31d6:	610d      	str	r5, [r1, #16]
    31d8:	f881 4024 	strb.w	r4, [r1, #36]	; 0x24
    31dc:	7214      	strb	r4, [r2, #8]
    31de:	f882 4024 	strb.w	r4, [r2, #36]	; 0x24
    31e2:	614c      	str	r4, [r1, #20]
    31e4:	618c      	str	r4, [r1, #24]
    31e6:	61cc      	str	r4, [r1, #28]
    31e8:	620c      	str	r4, [r1, #32]
    31ea:	62cc      	str	r4, [r1, #44]	; 0x2c
    31ec:	f8c8 1004 	str.w	r1, [r8, #4]
    31f0:	f8c8 4010 	str.w	r4, [r8, #16]
    31f4:	f8c8 a000 	str.w	r10, [r8]
    31f8:	f8c2 c000 	str.w	r12, [r2]
    31fc:	6057      	str	r7, [r2, #4]
    31fe:	60d6      	str	r6, [r2, #12]
    3200:	6115      	str	r5, [r2, #16]
    3202:	6154      	str	r4, [r2, #20]
    3204:	6194      	str	r4, [r2, #24]
    3206:	61d4      	str	r4, [r2, #28]
    3208:	6214      	str	r4, [r2, #32]
    320a:	62d4      	str	r4, [r2, #44]	; 0x2c
    320c:	f8ce 2004 	str.w	r2, [lr, #4]
    3210:	f8ce 4010 	str.w	r4, [lr, #16]
    3214:	f8ce 3000 	str.w	r3, [lr]
    3218:	e8bd 8ff8 	ldmia.w	sp!, {r3, r4, r5, r6, r7, r8, r9, r10, r11, pc}
    321c:	100008bc 	.word	0x100008bc
    3220:	00000251 	.word	0x00000251
    3224:	100000c8 	.word	0x100000c8
    3228:	2009c00f 	.word	0x2009c00f
    322c:	2009c010 	.word	0x2009c010
    3230:	1000086c 	.word	0x1000086c
    3234:	100008b0 	.word	0x100008b0
    3238:	100008dc 	.word	0x100008dc
    323c:	100008b8 	.word	0x100008b8
    3240:	100001c8 	.word	0x100001c8
    3244:	00008cb8 	.word	0x00008cb8
    3248:	100008b4 	.word	0x100008b4
    324c:	2009c002 	.word	0x2009c002
    3250:	2009c003 	.word	0x2009c003
    3254:	00008c40 	.word	0x00008c40
    3258:	10000748 	.word	0x10000748
    325c:	100002e7 	.word	0x100002e7
    3260:	100004e7 	.word	0x100004e7
    3264:	000032b1 	.word	0x000032b1
    3268:	10000870 	.word	0x10000870
    326c:	00000219 	.word	0x00000219
    3270:	00008c70 	.word	0x00008c70
    3274:	00008c58 	.word	0x00008c58
    3278:	00008eec 	.word	0x00008eec
    327c:	100008e0 	.word	0x100008e0
    3280:	10000910 	.word	0x10000910
    3284:	10000814 	.word	0x10000814
    3288:	00008f14 	.word	0x00008f14
    328c:	00008cd0 	.word	0x00008cd0
    3290:	00008c88 	.word	0x00008c88
    3294:	00008ef0 	.word	0x00008ef0
    3298:	00008ca0 	.word	0x00008ca0
    329c:	100008c8 	.word	0x100008c8
    32a0:	00008efc 	.word	0x00008efc
    32a4:	10000844 	.word	0x10000844
    32a8:	10000800 	.word	0x10000800
    32ac:	00008f08 	.word	0x00008f08

000032b0 <ros::NodeHandle_<MbedHardware, 25, 25, 512, 512>::~NodeHandle_()>:
    32b0:	b510      	push	{r4, lr}
    32b2:	4604      	mov	r4, r0
    32b4:	4b03      	ldr	r3, [pc, #12]	; (32c4 <ros::NodeHandle_<MbedHardware, 25, 25, 512, 512>::~NodeHandle_()+0x14>)
    32b6:	f840 3b04 	str.w	r3, [r0], #4
    32ba:	f000 fec7 	bl	404c <AjK::MODSERIAL::~MODSERIAL()>
    32be:	4620      	mov	r0, r4
    32c0:	bd10      	pop	{r4, pc}
    32c2:	bf00      	nop
    32c4:	00008cb8 	.word	0x00008cb8

000032c8 <mbed::SerialBase::~SerialBase()>:
    32c8:	4770      	bx	lr
    32ca:	bf00      	nop

000032cc <mbed::SerialHalfDuplex::_putc(int)>:
    32cc:	b538      	push	{r3, r4, r5, lr}
    32ce:	4604      	mov	r4, r0
    32d0:	460d      	mov	r5, r1
    32d2:	b672      	cpsid	i
    32d4:	6d80      	ldr	r0, [r0, #88]	; 0x58
    32d6:	f001 fe25 	bl	4f24 <serial_pinout_tx>
    32da:	4629      	mov	r1, r5
    32dc:	4620      	mov	r0, r4
    32de:	f002 f8f1 	bl	54c4 <mbed::Serial::_putc(int)>
    32e2:	f104 0040 	add.w	r0, r4, #64	; 0x40
    32e6:	f002 fa05 	bl	56f4 <mbed::Stream::getc()>
    32ea:	2100      	movs	r1, #0
    32ec:	4605      	mov	r5, r0
    32ee:	6da0      	ldr	r0, [r4, #88]	; 0x58
    32f0:	f001 fb2a 	bl	4948 <pin_function>
    32f4:	b662      	cpsie	i
    32f6:	4628      	mov	r0, r5
    32f8:	bd38      	pop	{r3, r4, r5, pc}
    32fa:	bf00      	nop

000032fc <non-virtual thunk to mbed::SerialHalfDuplex::_putc(int)>:
    32fc:	f1a0 0040 	sub.w	r0, r0, #64	; 0x40
    3300:	f7ff bfe4 	b.w	32cc <mbed::SerialHalfDuplex::_putc(int)>

00003304 <mbed::SerialHalfDuplex::_getc()>:
    3304:	f002 b8d8 	b.w	54b8 <mbed::Serial::_getc()>

00003308 <non-virtual thunk to mbed::SerialHalfDuplex::_getc()>:
    3308:	f1a0 0040 	sub.w	r0, r0, #64	; 0x40
    330c:	f7ff bffa 	b.w	3304 <mbed::SerialHalfDuplex::_getc()>

00003310 <mbed::SerialBase::~SerialBase()>:
    3310:	b510      	push	{r4, lr}
    3312:	4604      	mov	r4, r0
    3314:	f002 fbc7 	bl	5aa6 <operator delete(void*)>
    3318:	4620      	mov	r0, r4
    331a:	bd10      	pop	{r4, pc}

0000331c <mbed::SerialHalfDuplex::~SerialHalfDuplex()>:
    331c:	b510      	push	{r4, lr}
    331e:	4604      	mov	r4, r0
    3320:	4b06      	ldr	r3, [pc, #24]	; (333c <mbed::SerialHalfDuplex::~SerialHalfDuplex()+0x20>)
    3322:	3040      	adds	r0, #64	; 0x40
    3324:	f103 0118 	add.w	r1, r3, #24
    3328:	f103 024c 	add.w	r2, r3, #76	; 0x4c
    332c:	6023      	str	r3, [r4, #0]
    332e:	6421      	str	r1, [r4, #64]	; 0x40
    3330:	6462      	str	r2, [r4, #68]	; 0x44
    3332:	f002 f9c1 	bl	56b8 <mbed::Stream::~Stream()>
    3336:	4620      	mov	r0, r4
    3338:	bd10      	pop	{r4, pc}
    333a:	bf00      	nop
    333c:	000092c8 	.word	0x000092c8

00003340 <non-virtual thunk to mbed::SerialHalfDuplex::~SerialHalfDuplex()>:
    3340:	f1a0 0040 	sub.w	r0, r0, #64	; 0x40
    3344:	f7ff bfea 	b.w	331c <mbed::SerialHalfDuplex::~SerialHalfDuplex()>

00003348 <non-virtual thunk to mbed::SerialHalfDuplex::~SerialHalfDuplex()>:
    3348:	f1a0 0044 	sub.w	r0, r0, #68	; 0x44
    334c:	f7ff bfe6 	b.w	331c <mbed::SerialHalfDuplex::~SerialHalfDuplex()>

00003350 <mbed::SerialHalfDuplex::~SerialHalfDuplex()>:
    3350:	b510      	push	{r4, lr}
    3352:	4604      	mov	r4, r0
    3354:	4b07      	ldr	r3, [pc, #28]	; (3374 <mbed::SerialHalfDuplex::~SerialHalfDuplex()+0x24>)
    3356:	3040      	adds	r0, #64	; 0x40
    3358:	f103 0118 	add.w	r1, r3, #24
    335c:	f103 024c 	add.w	r2, r3, #76	; 0x4c
    3360:	6023      	str	r3, [r4, #0]
    3362:	6421      	str	r1, [r4, #64]	; 0x40
    3364:	6462      	str	r2, [r4, #68]	; 0x44
    3366:	f002 f9a7 	bl	56b8 <mbed::Stream::~Stream()>
    336a:	4620      	mov	r0, r4
    336c:	f002 fb9b 	bl	5aa6 <operator delete(void*)>
    3370:	4620      	mov	r0, r4
    3372:	bd10      	pop	{r4, pc}
    3374:	000092c8 	.word	0x000092c8

00003378 <non-virtual thunk to mbed::SerialHalfDuplex::~SerialHalfDuplex()>:
    3378:	f1a0 0040 	sub.w	r0, r0, #64	; 0x40
    337c:	e7e8      	b.n	3350 <mbed::SerialHalfDuplex::~SerialHalfDuplex()>
    337e:	bf00      	nop

00003380 <non-virtual thunk to mbed::SerialHalfDuplex::~SerialHalfDuplex()>:
    3380:	f1a0 0044 	sub.w	r0, r0, #68	; 0x44
    3384:	e7e4      	b.n	3350 <mbed::SerialHalfDuplex::~SerialHalfDuplex()>
    3386:	bf00      	nop

00003388 <mbed::SerialHalfDuplex::SerialHalfDuplex(PinName, PinName, char const*)>:
    3388:	b538      	push	{r3, r4, r5, lr}
    338a:	4604      	mov	r4, r0
    338c:	460d      	mov	r5, r1
    338e:	f002 f8d7 	bl	5540 <mbed::Serial::Serial(PinName, PinName, char const*)>
    3392:	4b0b      	ldr	r3, [pc, #44]	; (33c0 <mbed::SerialHalfDuplex::SerialHalfDuplex(PinName, PinName, char const*)+0x38>)
    3394:	65a5      	str	r5, [r4, #88]	; 0x58
    3396:	f103 0220 	add.w	r2, r3, #32
    339a:	f103 0108 	add.w	r1, r3, #8
    339e:	3354      	adds	r3, #84	; 0x54
    33a0:	6422      	str	r2, [r4, #64]	; 0x40
    33a2:	6463      	str	r3, [r4, #68]	; 0x44
    33a4:	6021      	str	r1, [r4, #0]
    33a6:	4628      	mov	r0, r5
    33a8:	f001 fa90 	bl	48cc <gpio_set>
    33ac:	6da0      	ldr	r0, [r4, #88]	; 0x58
    33ae:	2102      	movs	r1, #2
    33b0:	f001 fae6 	bl	4980 <pin_mode>
    33b4:	6da0      	ldr	r0, [r4, #88]	; 0x58
    33b6:	2100      	movs	r1, #0
    33b8:	f001 fac6 	bl	4948 <pin_function>
    33bc:	4620      	mov	r0, r4
    33be:	bd38      	pop	{r3, r4, r5, pc}
    33c0:	00008f40 	.word	0x00008f40
    33c4:	00000000 	.word	0x00000000

000033c8 <MX106::SetCRSpeed(float)>:
    33c8:	b570      	push	{r4, r5, r6, lr}
    33ca:	f021 4300 	bic.w	r3, r1, #2147483648	; 0x80000000
    33ce:	b084      	sub	sp, #16
    33d0:	4604      	mov	r4, r0
    33d2:	4618      	mov	r0, r3
    33d4:	460e      	mov	r6, r1
    33d6:	f002 fce5 	bl	5da4 <__aeabi_f2d>
    33da:	a311      	add	r3, pc, #68	; (adr r3, 3420 <MX106::SetCRSpeed(float)+0x58>)
    33dc:	e9d3 2300 	ldrd	r2, r3, [r3]
    33e0:	f002 fd34 	bl	5e4c <__aeabi_dmul>
    33e4:	f002 ff44 	bl	6270 <__aeabi_d2iz>
    33e8:	2100      	movs	r1, #0
    33ea:	4605      	mov	r5, r0
    33ec:	4630      	mov	r0, r6
    33ee:	f003 fa63 	bl	68b8 <__aeabi_fcmplt>
    33f2:	b108      	cbz	r0, 33f8 <MX106::SetCRSpeed(float)+0x30>
    33f4:	f445 6580 	orr.w	r5, r5, #1024	; 0x400
    33f8:	6823      	ldr	r3, [r4, #0]
    33fa:	ae03      	add	r6, sp, #12
    33fc:	2000      	movs	r0, #0
    33fe:	6861      	ldr	r1, [r4, #4]
    3400:	122a      	asrs	r2, r5, #8
    3402:	9001      	str	r0, [sp, #4]
    3404:	9600      	str	r6, [sp, #0]
    3406:	f88d 500c 	strb.w	r5, [sp, #12]
    340a:	f88d 200d 	strb.w	r2, [sp, #13]
    340e:	6c1d      	ldr	r5, [r3, #64]	; 0x40
    3410:	4620      	mov	r0, r4
    3412:	2220      	movs	r2, #32
    3414:	2302      	movs	r3, #2
    3416:	47a8      	blx	r5
    3418:	b004      	add	sp, #16
    341a:	bd70      	pop	{r4, r5, r6, pc}
    341c:	f3af 8000 	nop.w
    3420:	00000000 	.word	0x00000000
    3424:	408ff800 	.word	0x408ff800

00003428 <MX106::SetCWLimit(int)>:
    3428:	4b0e      	ldr	r3, [pc, #56]	; (3464 <MX106::SetCWLimit(int)+0x3c>)
    342a:	b570      	push	{r4, r5, r6, lr}
    342c:	ebc1 3101 	rsb	r1, r1, r1, lsl #12
    3430:	fb83 3201 	smull	r3, r2, r3, r1
    3434:	b084      	sub	sp, #16
    3436:	17cb      	asrs	r3, r1, #31
    3438:	4411      	add	r1, r2
    343a:	ebc3 2321 	rsb	r3, r3, r1, asr #8
    343e:	6802      	ldr	r2, [r0, #0]
    3440:	ae03      	add	r6, sp, #12
    3442:	2500      	movs	r5, #0
    3444:	6841      	ldr	r1, [r0, #4]
    3446:	f343 2407 	sbfx	r4, r3, #8, #8
    344a:	9600      	str	r6, [sp, #0]
    344c:	9501      	str	r5, [sp, #4]
    344e:	f88d 300c 	strb.w	r3, [sp, #12]
    3452:	f88d 400d 	strb.w	r4, [sp, #13]
    3456:	2302      	movs	r3, #2
    3458:	6c14      	ldr	r4, [r2, #64]	; 0x40
    345a:	2206      	movs	r2, #6
    345c:	47a0      	blx	r4
    345e:	b004      	add	sp, #16
    3460:	bd70      	pop	{r4, r5, r6, pc}
    3462:	bf00      	nop
    3464:	b60b60b7 	.word	0xb60b60b7

00003468 <MX106::SetCCWLimit(int)>:
    3468:	4b0e      	ldr	r3, [pc, #56]	; (34a4 <MX106::SetCCWLimit(int)+0x3c>)
    346a:	b570      	push	{r4, r5, r6, lr}
    346c:	ebc1 3101 	rsb	r1, r1, r1, lsl #12
    3470:	fb83 3201 	smull	r3, r2, r3, r1
    3474:	b084      	sub	sp, #16
    3476:	17cb      	asrs	r3, r1, #31
    3478:	4411      	add	r1, r2
    347a:	ebc3 2321 	rsb	r3, r3, r1, asr #8
    347e:	6802      	ldr	r2, [r0, #0]
    3480:	ae03      	add	r6, sp, #12
    3482:	2500      	movs	r5, #0
    3484:	6841      	ldr	r1, [r0, #4]
    3486:	f343 2407 	sbfx	r4, r3, #8, #8
    348a:	9600      	str	r6, [sp, #0]
    348c:	9501      	str	r5, [sp, #4]
    348e:	f88d 300c 	strb.w	r3, [sp, #12]
    3492:	f88d 400d 	strb.w	r4, [sp, #13]
    3496:	2302      	movs	r3, #2
    3498:	6c14      	ldr	r4, [r2, #64]	; 0x40
    349a:	2208      	movs	r2, #8
    349c:	47a0      	blx	r4
    349e:	b004      	add	sp, #16
    34a0:	bd70      	pop	{r4, r5, r6, pc}
    34a2:	bf00      	nop
    34a4:	b60b60b7 	.word	0xb60b60b7

000034a8 <MX106::SetID(int, int)>:
    34a8:	b510      	push	{r4, lr}
    34aa:	b084      	sub	sp, #16
    34ac:	ab04      	add	r3, sp, #16
    34ae:	f803 2d04 	strb.w	r2, [r3, #-4]!
    34b2:	6804      	ldr	r4, [r0, #0]
    34b4:	2200      	movs	r2, #0
    34b6:	9300      	str	r3, [sp, #0]
    34b8:	9201      	str	r2, [sp, #4]
    34ba:	6c24      	ldr	r4, [r4, #64]	; 0x40
    34bc:	2203      	movs	r2, #3
    34be:	2301      	movs	r3, #1
    34c0:	47a0      	blx	r4
    34c2:	b004      	add	sp, #16
    34c4:	bd10      	pop	{r4, pc}
    34c6:	bf00      	nop

000034c8 <MX106::isMoving()>:
    34c8:	b510      	push	{r4, lr}
    34ca:	b084      	sub	sp, #16
    34cc:	6802      	ldr	r2, [r0, #0]
    34ce:	ac03      	add	r4, sp, #12
    34d0:	6841      	ldr	r1, [r0, #4]
    34d2:	9400      	str	r4, [sp, #0]
    34d4:	6bd4      	ldr	r4, [r2, #60]	; 0x3c
    34d6:	2301      	movs	r3, #1
    34d8:	222e      	movs	r2, #46	; 0x2e
    34da:	47a0      	blx	r4
    34dc:	f89d 000c 	ldrb.w	r0, [sp, #12]
    34e0:	b004      	add	sp, #16
    34e2:	bd10      	pop	{r4, pc}

000034e4 <MX106::GetPosition()>:
    34e4:	b510      	push	{r4, lr}
    34e6:	b084      	sub	sp, #16
    34e8:	6802      	ldr	r2, [r0, #0]
    34ea:	ac03      	add	r4, sp, #12
    34ec:	6841      	ldr	r1, [r0, #4]
    34ee:	9400      	str	r4, [sp, #0]
    34f0:	6bd4      	ldr	r4, [r2, #60]	; 0x3c
    34f2:	2302      	movs	r3, #2
    34f4:	2224      	movs	r2, #36	; 0x24
    34f6:	47a0      	blx	r4
    34f8:	f89d 200c 	ldrb.w	r2, [sp, #12]
    34fc:	f89d 300d 	ldrb.w	r3, [sp, #13]
    3500:	f44f 7096 	mov.w	r0, #300	; 0x12c
    3504:	eb02 2303 	add.w	r3, r2, r3, lsl #8
    3508:	b21b      	sxth	r3, r3
    350a:	fb00 f003 	mul.w	r0, r0, r3
    350e:	2800      	cmp	r0, #0
    3510:	bfb8      	it	lt
    3512:	f200 30ff 	addwlt	r0, r0, #1023	; 0x3ff
    3516:	1280      	asrs	r0, r0, #10
    3518:	f002 ffdc 	bl	64d4 <__aeabi_i2f>
    351c:	b004      	add	sp, #16
    351e:	bd10      	pop	{r4, pc}

00003520 <MX106::GetTemp()>:
    3520:	b510      	push	{r4, lr}
    3522:	b084      	sub	sp, #16
    3524:	6802      	ldr	r2, [r0, #0]
    3526:	ac03      	add	r4, sp, #12
    3528:	6841      	ldr	r1, [r0, #4]
    352a:	9400      	str	r4, [sp, #0]
    352c:	6bd4      	ldr	r4, [r2, #60]	; 0x3c
    352e:	2301      	movs	r3, #1
    3530:	222b      	movs	r2, #43	; 0x2b
    3532:	47a0      	blx	r4
    3534:	f89d 000c 	ldrb.w	r0, [sp, #12]
    3538:	f002 ffc8 	bl	64cc <__aeabi_ui2f>
    353c:	b004      	add	sp, #16
    353e:	bd10      	pop	{r4, pc}

00003540 <MX106::GetVolts()>:
    3540:	b510      	push	{r4, lr}
    3542:	b084      	sub	sp, #16
    3544:	6802      	ldr	r2, [r0, #0]
    3546:	ac03      	add	r4, sp, #12
    3548:	6841      	ldr	r1, [r0, #4]
    354a:	9400      	str	r4, [sp, #0]
    354c:	6bd4      	ldr	r4, [r2, #60]	; 0x3c
    354e:	2301      	movs	r3, #1
    3550:	222a      	movs	r2, #42	; 0x2a
    3552:	47a0      	blx	r4
    3554:	f89d 000c 	ldrb.w	r0, [sp, #12]
    3558:	f002 fc12 	bl	5d80 <__aeabi_i2d>
    355c:	2200      	movs	r2, #0
    355e:	4b03      	ldr	r3, [pc, #12]	; (356c <MX106::GetVolts()+0x2c>)
    3560:	f002 fd9e 	bl	60a0 <__aeabi_ddiv>
    3564:	f002 feac 	bl	62c0 <__aeabi_d2f>
    3568:	b004      	add	sp, #16
    356a:	bd10      	pop	{r4, pc}
    356c:	40240000 	.word	0x40240000

00003570 <MX106::GetCurrent()>:
    3570:	b510      	push	{r4, lr}
    3572:	b084      	sub	sp, #16
    3574:	6802      	ldr	r2, [r0, #0]
    3576:	ac03      	add	r4, sp, #12
    3578:	6841      	ldr	r1, [r0, #4]
    357a:	9400      	str	r4, [sp, #0]
    357c:	6bd4      	ldr	r4, [r2, #60]	; 0x3c
    357e:	2302      	movs	r3, #2
    3580:	2244      	movs	r2, #68	; 0x44
    3582:	47a0      	blx	r4
    3584:	f89d 300c 	ldrb.w	r3, [sp, #12]
    3588:	f89d 000d 	ldrb.w	r0, [sp, #13]
    358c:	eb03 2000 	add.w	r0, r3, r0, lsl #8
    3590:	f6a0 00ff 	subw	r0, r0, #2303	; 0x8ff
    3594:	f002 fbf4 	bl	5d80 <__aeabi_i2d>
    3598:	a305      	add	r3, pc, #20	; (adr r3, 35b0 <MX106::GetCurrent()+0x40>)
    359a:	e9d3 2300 	ldrd	r2, r3, [r3]
    359e:	f002 fc55 	bl	5e4c <__aeabi_dmul>
    35a2:	f002 fe8d 	bl	62c0 <__aeabi_d2f>
    35a6:	b004      	add	sp, #16
    35a8:	bd10      	pop	{r4, pc}
    35aa:	bf00      	nop
    35ac:	f3af 8000 	nop.w
    35b0:	8d4fdf3b 	.word	0x8d4fdf3b
    35b4:	3f726e97 	.word	0x3f726e97

000035b8 <MX106::TorqueEnable(int)>:
    35b8:	b510      	push	{r4, lr}
    35ba:	b084      	sub	sp, #16
    35bc:	ab04      	add	r3, sp, #16
    35be:	f803 1d04 	strb.w	r1, [r3, #-4]!
    35c2:	6804      	ldr	r4, [r0, #0]
    35c4:	2200      	movs	r2, #0
    35c6:	6841      	ldr	r1, [r0, #4]
    35c8:	9300      	str	r3, [sp, #0]
    35ca:	9201      	str	r2, [sp, #4]
    35cc:	6c24      	ldr	r4, [r4, #64]	; 0x40
    35ce:	2218      	movs	r2, #24
    35d0:	2301      	movs	r3, #1
    35d2:	47a0      	blx	r4
    35d4:	b004      	add	sp, #16
    35d6:	bd10      	pop	{r4, pc}

000035d8 <MX106::SetTorqueLimit(float)>:
    35d8:	b570      	push	{r4, r5, r6, lr}
    35da:	4604      	mov	r4, r0
    35dc:	b084      	sub	sp, #16
    35de:	4608      	mov	r0, r1
    35e0:	490c      	ldr	r1, [pc, #48]	; (3614 <MX106::SetTorqueLimit(float)+0x3c>)
    35e2:	f002 ffcb 	bl	657c <__aeabi_fmul>
    35e6:	f003 f98f 	bl	6908 <__aeabi_f2iz>
    35ea:	ae03      	add	r6, sp, #12
    35ec:	6823      	ldr	r3, [r4, #0]
    35ee:	b280      	uxth	r0, r0
    35f0:	2500      	movs	r5, #0
    35f2:	6861      	ldr	r1, [r4, #4]
    35f4:	f340 2207 	sbfx	r2, r0, #8, #8
    35f8:	9600      	str	r6, [sp, #0]
    35fa:	9501      	str	r5, [sp, #4]
    35fc:	f88d 000c 	strb.w	r0, [sp, #12]
    3600:	f88d 200d 	strb.w	r2, [sp, #13]
    3604:	6c1d      	ldr	r5, [r3, #64]	; 0x40
    3606:	4620      	mov	r0, r4
    3608:	2222      	movs	r2, #34	; 0x22
    360a:	2302      	movs	r3, #2
    360c:	47a8      	blx	r5
    360e:	b004      	add	sp, #16
    3610:	bd70      	pop	{r4, r5, r6, pc}
    3612:	bf00      	nop
    3614:	447fc000 	.word	0x447fc000

00003618 <MX106::SetDriveMode(int, int)>:
    3618:	b510      	push	{r4, lr}
    361a:	b084      	sub	sp, #16
    361c:	ab04      	add	r3, sp, #16
    361e:	eb02 0241 	add.w	r2, r2, r1, lsl #1
    3622:	f803 2d04 	strb.w	r2, [r3, #-4]!
    3626:	2400      	movs	r4, #0
    3628:	6802      	ldr	r2, [r0, #0]
    362a:	6841      	ldr	r1, [r0, #4]
    362c:	e88d 0018 	stmia.w	sp, {r3, r4}
    3630:	2301      	movs	r3, #1
    3632:	6c14      	ldr	r4, [r2, #64]	; 0x40
    3634:	220a      	movs	r2, #10
    3636:	47a0      	blx	r4
    3638:	b004      	add	sp, #16
    363a:	bd10      	pop	{r4, pc}

0000363c <MX106::trigger()>:
    363c:	b5f0      	push	{r4, r5, r6, r7, lr}
    363e:	23ff      	movs	r3, #255	; 0xff
    3640:	b085      	sub	sp, #20
    3642:	2502      	movs	r5, #2
    3644:	2404      	movs	r4, #4
    3646:	27fe      	movs	r7, #254	; 0xfe
    3648:	22fb      	movs	r2, #251	; 0xfb
    364a:	f88d 5003 	strb.w	r5, [sp, #3]
    364e:	f88d 4004 	strb.w	r4, [sp, #4]
    3652:	4619      	mov	r1, r3
    3654:	f100 0648 	add.w	r6, r0, #72	; 0x48
    3658:	f88d 3000 	strb.w	r3, [sp]
    365c:	f88d 3001 	strb.w	r3, [sp, #1]
    3660:	f88d 7002 	strb.w	r7, [sp, #2]
    3664:	f88d 2005 	strb.w	r2, [sp, #5]
    3668:	466c      	mov	r4, sp
    366a:	f10d 0505 	add.w	r5, sp, #5
    366e:	e001      	b.n	3674 <MX106::trigger()+0x38>
    3670:	f814 1f01 	ldrb.w	r1, [r4, #1]!
    3674:	4630      	mov	r0, r6
    3676:	f002 f831 	bl	56dc <mbed::Stream::putc(int)>
    367a:	42ac      	cmp	r4, r5
    367c:	d1f8      	bne.n	3670 <MX106::trigger()+0x34>
    367e:	b005      	add	sp, #20
    3680:	bdf0      	pop	{r4, r5, r6, r7, pc}
    3682:	bf00      	nop

00003684 <MX106::read(int, int, int, char*)>:
    3684:	e92d 43f0 	stmdb	sp!, {r4, r5, r6, r7, r8, r9, lr}
    3688:	b2dc      	uxtb	r4, r3
    368a:	b2d2      	uxtb	r2, r2
    368c:	461f      	mov	r7, r3
    368e:	1da3      	adds	r3, r4, #6
    3690:	b2cd      	uxtb	r5, r1
    3692:	4413      	add	r3, r2
    3694:	442b      	add	r3, r5
    3696:	4680      	mov	r8, r0
    3698:	43db      	mvns	r3, r3
    369a:	b089      	sub	sp, #36	; 0x24
    369c:	20ff      	movs	r0, #255	; 0xff
    369e:	f04f 09fe 	mov.w	r9, #254	; 0xfe
    36a2:	f04f 0c04 	mov.w	r12, #4
    36a6:	f04f 0e02 	mov.w	lr, #2
    36aa:	f88d 5002 	strb.w	r5, [sp, #2]
    36ae:	f88d 4006 	strb.w	r4, [sp, #6]
    36b2:	4601      	mov	r1, r0
    36b4:	f88d 2005 	strb.w	r2, [sp, #5]
    36b8:	f88d 3007 	strb.w	r3, [sp, #7]
    36bc:	f108 0648 	add.w	r6, r8, #72	; 0x48
    36c0:	f88d 0000 	strb.w	r0, [sp]
    36c4:	f88d 0001 	strb.w	r0, [sp, #1]
    36c8:	f88d 9014 	strb.w	r9, [sp, #20]
    36cc:	f88d c003 	strb.w	r12, [sp, #3]
    36d0:	f88d e004 	strb.w	lr, [sp, #4]
    36d4:	466c      	mov	r4, sp
    36d6:	f10d 0507 	add.w	r5, sp, #7
    36da:	e001      	b.n	36e0 <MX106::read(int, int, int, char*)+0x5c>
    36dc:	f814 1f01 	ldrb.w	r1, [r4, #1]!
    36e0:	4630      	mov	r0, r6
    36e2:	f001 fffb 	bl	56dc <mbed::Stream::putc(int)>
    36e6:	42ac      	cmp	r4, r5
    36e8:	d1f8      	bne.n	36dc <MX106::read(int, int, int, char*)+0x58>
    36ea:	4815      	ldr	r0, [pc, #84]	; (3740 <MX106::read(int, int, int, char*)+0xbc>)
    36ec:	f001 f862 	bl	47b4 <wait>
    36f0:	f8d8 0004 	ldr.w	r0, [r8, #4]
    36f4:	28fe      	cmp	r0, #254	; 0xfe
    36f6:	d01e      	beq.n	3736 <MX106::read(int, int, int, char*)+0xb2>
    36f8:	3705      	adds	r7, #5
    36fa:	d41f      	bmi.n	373c <MX106::read(int, int, int, char*)+0xb8>
    36fc:	f10d 050f 	add.w	r5, sp, #15
    3700:	2400      	movs	r4, #0
    3702:	4630      	mov	r0, r6
    3704:	f001 fff6 	bl	56f4 <mbed::Stream::getc()>
    3708:	3401      	adds	r4, #1
    370a:	42bc      	cmp	r4, r7
    370c:	f805 0f01 	strb.w	r0, [r5, #1]!
    3710:	ddf7      	ble.n	3702 <MX106::read(int, int, int, char*)+0x7e>
    3712:	f89d 0014 	ldrb.w	r0, [sp, #20]
    3716:	f89d 4013 	ldrb.w	r4, [sp, #19]
    371a:	2c02      	cmp	r4, #2
    371c:	dd0b      	ble.n	3736 <MX106::read(int, int, int, char*)+0xb2>
    371e:	ab08      	add	r3, sp, #32
    3720:	9a10      	ldr	r2, [sp, #64]	; 0x40
    3722:	441c      	add	r4, r3
    3724:	3c0e      	subs	r4, #14
    3726:	ab05      	add	r3, sp, #20
    3728:	3a01      	subs	r2, #1
    372a:	f813 1f01 	ldrb.w	r1, [r3, #1]!
    372e:	42a3      	cmp	r3, r4
    3730:	f802 1f01 	strb.w	r1, [r2, #1]!
    3734:	d1f9      	bne.n	372a <MX106::read(int, int, int, char*)+0xa6>
    3736:	b009      	add	sp, #36	; 0x24
    3738:	e8bd 83f0 	ldmia.w	sp!, {r4, r5, r6, r7, r8, r9, pc}
    373c:	20fe      	movs	r0, #254	; 0xfe
    373e:	e7ea      	b.n	3716 <MX106::read(int, int, int, char*)+0x92>
    3740:	37a7c5ac 	.word	0x37a7c5ac

00003744 <MX106::write(int, int, int, char*, int)>:
    3744:	e92d 41f0 	stmdb	sp!, {r4, r5, r6, r7, r8, lr}
    3748:	1cde      	adds	r6, r3, #3
    374a:	b086      	sub	sp, #24
    374c:	b2c9      	uxtb	r1, r1
    374e:	b2f6      	uxtb	r6, r6
    3750:	9f0d      	ldr	r7, [sp, #52]	; 0x34
    3752:	1874      	adds	r4, r6, r1
    3754:	2f01      	cmp	r7, #1
    3756:	b2e4      	uxtb	r4, r4
    3758:	f88d 100a 	strb.w	r1, [sp, #10]
    375c:	bf0c      	ite	eq
    375e:	1d21      	addeq	r1, r4, #4
    3760:	1ce1      	addne	r1, r4, #3
    3762:	b2d2      	uxtb	r2, r2
    3764:	b2c9      	uxtb	r1, r1
    3766:	f04f 0eff 	mov.w	lr, #255	; 0xff
    376a:	4605      	mov	r5, r0
    376c:	4411      	add	r1, r2
    376e:	bf0c      	ite	eq
    3770:	2004      	moveq	r0, #4
    3772:	2003      	movne	r0, #3
    3774:	2b00      	cmp	r3, #0
    3776:	f88d 600b 	strb.w	r6, [sp, #11]
    377a:	f88d e008 	strb.w	lr, [sp, #8]
    377e:	f88d e009 	strb.w	lr, [sp, #9]
    3782:	9e0c      	ldr	r6, [sp, #48]	; 0x30
    3784:	f88d 000c 	strb.w	r0, [sp, #12]
    3788:	b2c9      	uxtb	r1, r1
    378a:	f88d 200d 	strb.w	r2, [sp, #13]
    378e:	dd0d      	ble.n	37ac <MX106::write(int, int, int, char*, int)+0x68>
    3790:	2000      	movs	r0, #0
    3792:	4602      	mov	r2, r0
    3794:	5cb4      	ldrb	r4, [r6, r2]
    3796:	3201      	adds	r2, #1
    3798:	b2d2      	uxtb	r2, r2
    379a:	af06      	add	r7, sp, #24
    379c:	4438      	add	r0, r7
    379e:	4421      	add	r1, r4
    37a0:	4293      	cmp	r3, r2
    37a2:	f800 4c0a 	strb.w	r4, [r0, #-10]
    37a6:	b2c9      	uxtb	r1, r1
    37a8:	4610      	mov	r0, r2
    37aa:	dcf3      	bgt.n	3794 <MX106::write(int, int, int, char*, int)+0x50>
    37ac:	43c9      	mvns	r1, r1
    37ae:	1d9e      	adds	r6, r3, #6
    37b0:	ab06      	add	r3, sp, #24
    37b2:	4433      	add	r3, r6
    37b4:	2e00      	cmp	r6, #0
    37b6:	f803 1c10 	strb.w	r1, [r3, #-16]
    37ba:	db0c      	blt.n	37d6 <MX106::write(int, int, int, char*, int)+0x92>
    37bc:	f105 0848 	add.w	r8, r5, #72	; 0x48
    37c0:	f10d 0707 	add.w	r7, sp, #7
    37c4:	2400      	movs	r4, #0
    37c6:	3401      	adds	r4, #1
    37c8:	4640      	mov	r0, r8
    37ca:	f817 1f01 	ldrb.w	r1, [r7, #1]!
    37ce:	f001 ff85 	bl	56dc <mbed::Stream::putc(int)>
    37d2:	42a6      	cmp	r6, r4
    37d4:	daf7      	bge.n	37c6 <MX106::write(int, int, int, char*, int)+0x82>
    37d6:	480c      	ldr	r0, [pc, #48]	; (3808 <MX106::write(int, int, int, char*, int)+0xc4>)
    37d8:	f000 ffec 	bl	47b4 <wait>
    37dc:	686b      	ldr	r3, [r5, #4]
    37de:	2000      	movs	r0, #0
    37e0:	2bfe      	cmp	r3, #254	; 0xfe
    37e2:	f88d 0004 	strb.w	r0, [sp, #4]
    37e6:	d00c      	beq.n	3802 <MX106::write(int, int, int, char*, int)+0xbe>
    37e8:	466c      	mov	r4, sp
    37ea:	3548      	adds	r5, #72	; 0x48
    37ec:	f10d 0606 	add.w	r6, sp, #6
    37f0:	4628      	mov	r0, r5
    37f2:	f001 ff7f 	bl	56f4 <mbed::Stream::getc()>
    37f6:	f804 0b01 	strb.w	r0, [r4], #1
    37fa:	42b4      	cmp	r4, r6
    37fc:	d1f8      	bne.n	37f0 <MX106::write(int, int, int, char*, int)+0xac>
    37fe:	f89d 0004 	ldrb.w	r0, [sp, #4]
    3802:	b006      	add	sp, #24
    3804:	e8bd 81f0 	ldmia.w	sp!, {r4, r5, r6, r7, r8, pc}
    3808:	37a7c5ac 	.word	0x37a7c5ac

0000380c <MX106::SetMode(int)>:
    380c:	6803      	ldr	r3, [r0, #0]
    380e:	2901      	cmp	r1, #1
    3810:	b510      	push	{r4, lr}
    3812:	f04f 0100 	mov.w	r1, #0
    3816:	4604      	mov	r4, r0
    3818:	68db      	ldr	r3, [r3, #12]
    381a:	d00d      	beq.n	3838 <MX106::SetMode(int)+0x2c>
    381c:	4798      	blx	r3
    381e:	4620      	mov	r0, r4
    3820:	6823      	ldr	r3, [r4, #0]
    3822:	f44f 71b4 	mov.w	r1, #360	; 0x168
    3826:	691b      	ldr	r3, [r3, #16]
    3828:	4798      	blx	r3
    382a:	6823      	ldr	r3, [r4, #0]
    382c:	4620      	mov	r0, r4
    382e:	689b      	ldr	r3, [r3, #8]
    3830:	2100      	movs	r1, #0
    3832:	4798      	blx	r3
    3834:	2000      	movs	r0, #0
    3836:	bd10      	pop	{r4, pc}
    3838:	4798      	blx	r3
    383a:	6823      	ldr	r3, [r4, #0]
    383c:	4620      	mov	r0, r4
    383e:	691b      	ldr	r3, [r3, #16]
    3840:	2100      	movs	r1, #0
    3842:	e7f1      	b.n	3828 <MX106::SetMode(int)+0x1c>

00003844 <MX106::SetGoal(int, int)>:
    3844:	b5f0      	push	{r4, r5, r6, r7, lr}
    3846:	f1a2 0702 	sub.w	r7, r2, #2
    384a:	fab7 f787 	clz	r7, r7
    384e:	4b18      	ldr	r3, [pc, #96]	; (38b0 <MX106::SetGoal(int, int)+0x6c>)
    3850:	ebc1 3101 	rsb	r1, r1, r1, lsl #12
    3854:	4615      	mov	r5, r2
    3856:	fb83 3201 	smull	r3, r2, r3, r1
    385a:	b085      	sub	sp, #20
    385c:	17cb      	asrs	r3, r1, #31
    385e:	4411      	add	r1, r2
    3860:	ebc3 2321 	rsb	r3, r3, r1, asr #8
    3864:	6802      	ldr	r2, [r0, #0]
    3866:	f10d 0e0c 	add.w	lr, sp, #12
    386a:	097f      	lsrs	r7, r7, #5
    386c:	6841      	ldr	r1, [r0, #4]
    386e:	f343 2607 	sbfx	r6, r3, #8, #8
    3872:	9701      	str	r7, [sp, #4]
    3874:	f8cd e000 	str.w	lr, [sp]
    3878:	f88d 300c 	strb.w	r3, [sp, #12]
    387c:	f88d 600d 	strb.w	r6, [sp, #13]
    3880:	2302      	movs	r3, #2
    3882:	6c16      	ldr	r6, [r2, #64]	; 0x40
    3884:	221e      	movs	r2, #30
    3886:	4604      	mov	r4, r0
    3888:	47b0      	blx	r6
    388a:	2d01      	cmp	r5, #1
    388c:	4606      	mov	r6, r0
    388e:	d002      	beq.n	3896 <MX106::SetGoal(int, int)+0x52>
    3890:	4630      	mov	r0, r6
    3892:	b005      	add	sp, #20
    3894:	bdf0      	pop	{r4, r5, r6, r7, pc}
    3896:	6823      	ldr	r3, [r4, #0]
    3898:	4620      	mov	r0, r4
    389a:	699b      	ldr	r3, [r3, #24]
    389c:	4798      	blx	r3
    389e:	2800      	cmp	r0, #0
    38a0:	d0f6      	beq.n	3890 <MX106::SetGoal(int, int)+0x4c>
    38a2:	6823      	ldr	r3, [r4, #0]
    38a4:	4620      	mov	r0, r4
    38a6:	699b      	ldr	r3, [r3, #24]
    38a8:	4798      	blx	r3
    38aa:	2800      	cmp	r0, #0
    38ac:	d1f3      	bne.n	3896 <MX106::SetGoal(int, int)+0x52>
    38ae:	e7ef      	b.n	3890 <MX106::SetGoal(int, int)+0x4c>
    38b0:	b60b60b7 	.word	0xb60b60b7

000038b4 <MX106::MX106(PinName, PinName, int)>:
    38b4:	b570      	push	{r4, r5, r6, lr}
    38b6:	4604      	mov	r4, r0
    38b8:	4605      	mov	r5, r0
    38ba:	461e      	mov	r6, r3
    38bc:	4806      	ldr	r0, [pc, #24]	; (38d8 <MX106::MX106(PinName, PinName, int)+0x24>)
    38be:	2300      	movs	r3, #0
    38c0:	f844 0b08 	str.w	r0, [r4], #8
    38c4:	4620      	mov	r0, r4
    38c6:	f7ff fd5f 	bl	3388 <mbed::SerialHalfDuplex::SerialHalfDuplex(PinName, PinName, char const*)>
    38ca:	4620      	mov	r0, r4
    38cc:	4903      	ldr	r1, [pc, #12]	; (38dc <MX106::MX106(PinName, PinName, int)+0x28>)
    38ce:	f001 fe87 	bl	55e0 <mbed::SerialBase::baud(int)>
    38d2:	606e      	str	r6, [r5, #4]
    38d4:	4628      	mov	r0, r5
    38d6:	bd70      	pop	{r4, r5, r6, pc}
    38d8:	00008fa8 	.word	0x00008fa8
    38dc:	000f4240 	.word	0x000f4240

000038e0 <MX28::SetCRSpeed(float)>:
    38e0:	b570      	push	{r4, r5, r6, lr}
    38e2:	f021 4300 	bic.w	r3, r1, #2147483648	; 0x80000000
    38e6:	b084      	sub	sp, #16
    38e8:	4604      	mov	r4, r0
    38ea:	4618      	mov	r0, r3
    38ec:	460e      	mov	r6, r1
    38ee:	f002 fa59 	bl	5da4 <__aeabi_f2d>
    38f2:	a311      	add	r3, pc, #68	; (adr r3, 3938 <MX28::SetCRSpeed(float)+0x58>)
    38f4:	e9d3 2300 	ldrd	r2, r3, [r3]
    38f8:	f002 faa8 	bl	5e4c <__aeabi_dmul>
    38fc:	f002 fcb8 	bl	6270 <__aeabi_d2iz>
    3900:	2100      	movs	r1, #0
    3902:	4605      	mov	r5, r0
    3904:	4630      	mov	r0, r6
    3906:	f002 ffd7 	bl	68b8 <__aeabi_fcmplt>
    390a:	b108      	cbz	r0, 3910 <MX28::SetCRSpeed(float)+0x30>
    390c:	f445 6580 	orr.w	r5, r5, #1024	; 0x400
    3910:	6823      	ldr	r3, [r4, #0]
    3912:	ae03      	add	r6, sp, #12
    3914:	2000      	movs	r0, #0
    3916:	6861      	ldr	r1, [r4, #4]
    3918:	122a      	asrs	r2, r5, #8
    391a:	9001      	str	r0, [sp, #4]
    391c:	9600      	str	r6, [sp, #0]
    391e:	f88d 500c 	strb.w	r5, [sp, #12]
    3922:	f88d 200d 	strb.w	r2, [sp, #13]
    3926:	6c1d      	ldr	r5, [r3, #64]	; 0x40
    3928:	4620      	mov	r0, r4
    392a:	2220      	movs	r2, #32
    392c:	2302      	movs	r3, #2
    392e:	47a8      	blx	r5
    3930:	b004      	add	sp, #16
    3932:	bd70      	pop	{r4, r5, r6, pc}
    3934:	f3af 8000 	nop.w
    3938:	00000000 	.word	0x00000000
    393c:	408ff800 	.word	0x408ff800

00003940 <MX28::SetCWLimit(int)>:
    3940:	4b0e      	ldr	r3, [pc, #56]	; (397c <MX28::SetCWLimit(int)+0x3c>)
    3942:	b570      	push	{r4, r5, r6, lr}
    3944:	ebc1 3101 	rsb	r1, r1, r1, lsl #12
    3948:	fb83 3201 	smull	r3, r2, r3, r1
    394c:	b084      	sub	sp, #16
    394e:	17cb      	asrs	r3, r1, #31
    3950:	4411      	add	r1, r2
    3952:	ebc3 2321 	rsb	r3, r3, r1, asr #8
    3956:	6802      	ldr	r2, [r0, #0]
    3958:	ae03      	add	r6, sp, #12
    395a:	2500      	movs	r5, #0
    395c:	6841      	ldr	r1, [r0, #4]
    395e:	f343 2407 	sbfx	r4, r3, #8, #8
    3962:	9600      	str	r6, [sp, #0]
    3964:	9501      	str	r5, [sp, #4]
    3966:	f88d 300c 	strb.w	r3, [sp, #12]
    396a:	f88d 400d 	strb.w	r4, [sp, #13]
    396e:	2302      	movs	r3, #2
    3970:	6c14      	ldr	r4, [r2, #64]	; 0x40
    3972:	2206      	movs	r2, #6
    3974:	47a0      	blx	r4
    3976:	b004      	add	sp, #16
    3978:	bd70      	pop	{r4, r5, r6, pc}
    397a:	bf00      	nop
    397c:	b60b60b7 	.word	0xb60b60b7

00003980 <MX28::SetCCWLimit(int)>:
    3980:	4b0e      	ldr	r3, [pc, #56]	; (39bc <MX28::SetCCWLimit(int)+0x3c>)
    3982:	b570      	push	{r4, r5, r6, lr}
    3984:	ebc1 3101 	rsb	r1, r1, r1, lsl #12
    3988:	fb83 3201 	smull	r3, r2, r3, r1
    398c:	b084      	sub	sp, #16
    398e:	17cb      	asrs	r3, r1, #31
    3990:	4411      	add	r1, r2
    3992:	ebc3 2321 	rsb	r3, r3, r1, asr #8
    3996:	6802      	ldr	r2, [r0, #0]
    3998:	ae03      	add	r6, sp, #12
    399a:	2500      	movs	r5, #0
    399c:	6841      	ldr	r1, [r0, #4]
    399e:	f343 2407 	sbfx	r4, r3, #8, #8
    39a2:	9600      	str	r6, [sp, #0]
    39a4:	9501      	str	r5, [sp, #4]
    39a6:	f88d 300c 	strb.w	r3, [sp, #12]
    39aa:	f88d 400d 	strb.w	r4, [sp, #13]
    39ae:	2302      	movs	r3, #2
    39b0:	6c14      	ldr	r4, [r2, #64]	; 0x40
    39b2:	2208      	movs	r2, #8
    39b4:	47a0      	blx	r4
    39b6:	b004      	add	sp, #16
    39b8:	bd70      	pop	{r4, r5, r6, pc}
    39ba:	bf00      	nop
    39bc:	b60b60b7 	.word	0xb60b60b7

000039c0 <MX28::SetID(int, int)>:
    39c0:	b510      	push	{r4, lr}
    39c2:	b084      	sub	sp, #16
    39c4:	ab04      	add	r3, sp, #16
    39c6:	f803 2d04 	strb.w	r2, [r3, #-4]!
    39ca:	6804      	ldr	r4, [r0, #0]
    39cc:	2200      	movs	r2, #0
    39ce:	9300      	str	r3, [sp, #0]
    39d0:	9201      	str	r2, [sp, #4]
    39d2:	6c24      	ldr	r4, [r4, #64]	; 0x40
    39d4:	2203      	movs	r2, #3
    39d6:	2301      	movs	r3, #1
    39d8:	47a0      	blx	r4
    39da:	b004      	add	sp, #16
    39dc:	bd10      	pop	{r4, pc}
    39de:	bf00      	nop

000039e0 <MX28::isMoving()>:
    39e0:	b510      	push	{r4, lr}
    39e2:	b084      	sub	sp, #16
    39e4:	6802      	ldr	r2, [r0, #0]
    39e6:	ac03      	add	r4, sp, #12
    39e8:	6841      	ldr	r1, [r0, #4]
    39ea:	9400      	str	r4, [sp, #0]
    39ec:	6bd4      	ldr	r4, [r2, #60]	; 0x3c
    39ee:	2301      	movs	r3, #1
    39f0:	222e      	movs	r2, #46	; 0x2e
    39f2:	47a0      	blx	r4
    39f4:	f89d 000c 	ldrb.w	r0, [sp, #12]
    39f8:	b004      	add	sp, #16
    39fa:	bd10      	pop	{r4, pc}

000039fc <MX28::GetPosition()>:
    39fc:	b510      	push	{r4, lr}
    39fe:	b084      	sub	sp, #16
    3a00:	6802      	ldr	r2, [r0, #0]
    3a02:	ac03      	add	r4, sp, #12
    3a04:	6841      	ldr	r1, [r0, #4]
    3a06:	9400      	str	r4, [sp, #0]
    3a08:	6bd4      	ldr	r4, [r2, #60]	; 0x3c
    3a0a:	2302      	movs	r3, #2
    3a0c:	2224      	movs	r2, #36	; 0x24
    3a0e:	47a0      	blx	r4
    3a10:	f89d 200c 	ldrb.w	r2, [sp, #12]
    3a14:	f89d 300d 	ldrb.w	r3, [sp, #13]
    3a18:	f44f 7096 	mov.w	r0, #300	; 0x12c
    3a1c:	eb02 2303 	add.w	r3, r2, r3, lsl #8
    3a20:	b21b      	sxth	r3, r3
    3a22:	fb00 f003 	mul.w	r0, r0, r3
    3a26:	2800      	cmp	r0, #0
    3a28:	bfb8      	it	lt
    3a2a:	f200 30ff 	addwlt	r0, r0, #1023	; 0x3ff
    3a2e:	1280      	asrs	r0, r0, #10
    3a30:	f002 fd50 	bl	64d4 <__aeabi_i2f>
    3a34:	b004      	add	sp, #16
    3a36:	bd10      	pop	{r4, pc}

00003a38 <MX28::GetTemp()>:
    3a38:	b510      	push	{r4, lr}
    3a3a:	b084      	sub	sp, #16
    3a3c:	6802      	ldr	r2, [r0, #0]
    3a3e:	ac03      	add	r4, sp, #12
    3a40:	6841      	ldr	r1, [r0, #4]
    3a42:	9400      	str	r4, [sp, #0]
    3a44:	6bd4      	ldr	r4, [r2, #60]	; 0x3c
    3a46:	2301      	movs	r3, #1
    3a48:	222b      	movs	r2, #43	; 0x2b
    3a4a:	47a0      	blx	r4
    3a4c:	f89d 000c 	ldrb.w	r0, [sp, #12]
    3a50:	f002 fd3c 	bl	64cc <__aeabi_ui2f>
    3a54:	b004      	add	sp, #16
    3a56:	bd10      	pop	{r4, pc}

00003a58 <MX28::GetVolts()>:
    3a58:	b510      	push	{r4, lr}
    3a5a:	b084      	sub	sp, #16
    3a5c:	6802      	ldr	r2, [r0, #0]
    3a5e:	ac03      	add	r4, sp, #12
    3a60:	6841      	ldr	r1, [r0, #4]
    3a62:	9400      	str	r4, [sp, #0]
    3a64:	6bd4      	ldr	r4, [r2, #60]	; 0x3c
    3a66:	2301      	movs	r3, #1
    3a68:	222a      	movs	r2, #42	; 0x2a
    3a6a:	47a0      	blx	r4
    3a6c:	f89d 000c 	ldrb.w	r0, [sp, #12]
    3a70:	f002 f986 	bl	5d80 <__aeabi_i2d>
    3a74:	2200      	movs	r2, #0
    3a76:	4b03      	ldr	r3, [pc, #12]	; (3a84 <MX28::GetVolts()+0x2c>)
    3a78:	f002 fb12 	bl	60a0 <__aeabi_ddiv>
    3a7c:	f002 fc20 	bl	62c0 <__aeabi_d2f>
    3a80:	b004      	add	sp, #16
    3a82:	bd10      	pop	{r4, pc}
    3a84:	40240000 	.word	0x40240000

00003a88 <MX28::GetCurrent()>:
    3a88:	b510      	push	{r4, lr}
    3a8a:	b084      	sub	sp, #16
    3a8c:	6802      	ldr	r2, [r0, #0]
    3a8e:	ac03      	add	r4, sp, #12
    3a90:	6841      	ldr	r1, [r0, #4]
    3a92:	9400      	str	r4, [sp, #0]
    3a94:	6bd4      	ldr	r4, [r2, #60]	; 0x3c
    3a96:	2302      	movs	r3, #2
    3a98:	2244      	movs	r2, #68	; 0x44
    3a9a:	47a0      	blx	r4
    3a9c:	f89d 300c 	ldrb.w	r3, [sp, #12]
    3aa0:	f89d 000d 	ldrb.w	r0, [sp, #13]
    3aa4:	eb03 2000 	add.w	r0, r3, r0, lsl #8
    3aa8:	f6a0 00ff 	subw	r0, r0, #2303	; 0x8ff
    3aac:	f002 f968 	bl	5d80 <__aeabi_i2d>
    3ab0:	a305      	add	r3, pc, #20	; (adr r3, 3ac8 <MX28::GetCurrent()+0x40>)
    3ab2:	e9d3 2300 	ldrd	r2, r3, [r3]
    3ab6:	f002 f9c9 	bl	5e4c <__aeabi_dmul>
    3aba:	f002 fc01 	bl	62c0 <__aeabi_d2f>
    3abe:	b004      	add	sp, #16
    3ac0:	bd10      	pop	{r4, pc}
    3ac2:	bf00      	nop
    3ac4:	f3af 8000 	nop.w
    3ac8:	8d4fdf3b 	.word	0x8d4fdf3b
    3acc:	3f726e97 	.word	0x3f726e97

00003ad0 <MX28::TorqueEnable(int)>:
    3ad0:	b510      	push	{r4, lr}
    3ad2:	b084      	sub	sp, #16
    3ad4:	ab04      	add	r3, sp, #16
    3ad6:	f803 1d04 	strb.w	r1, [r3, #-4]!
    3ada:	6804      	ldr	r4, [r0, #0]
    3adc:	2200      	movs	r2, #0
    3ade:	6841      	ldr	r1, [r0, #4]
    3ae0:	9300      	str	r3, [sp, #0]
    3ae2:	9201      	str	r2, [sp, #4]
    3ae4:	6c24      	ldr	r4, [r4, #64]	; 0x40
    3ae6:	2218      	movs	r2, #24
    3ae8:	2301      	movs	r3, #1
    3aea:	47a0      	blx	r4
    3aec:	b004      	add	sp, #16
    3aee:	bd10      	pop	{r4, pc}

00003af0 <MX28::SetTorqueLimit(float)>:
    3af0:	b570      	push	{r4, r5, r6, lr}
    3af2:	4604      	mov	r4, r0
    3af4:	b084      	sub	sp, #16
    3af6:	4608      	mov	r0, r1
    3af8:	490c      	ldr	r1, [pc, #48]	; (3b2c <MX28::SetTorqueLimit(float)+0x3c>)
    3afa:	f002 fd3f 	bl	657c <__aeabi_fmul>
    3afe:	f002 ff03 	bl	6908 <__aeabi_f2iz>
    3b02:	ae03      	add	r6, sp, #12
    3b04:	6823      	ldr	r3, [r4, #0]
    3b06:	b280      	uxth	r0, r0
    3b08:	2500      	movs	r5, #0
    3b0a:	6861      	ldr	r1, [r4, #4]
    3b0c:	f340 2207 	sbfx	r2, r0, #8, #8
    3b10:	9600      	str	r6, [sp, #0]
    3b12:	9501      	str	r5, [sp, #4]
    3b14:	f88d 000c 	strb.w	r0, [sp, #12]
    3b18:	f88d 200d 	strb.w	r2, [sp, #13]
    3b1c:	6c1d      	ldr	r5, [r3, #64]	; 0x40
    3b1e:	4620      	mov	r0, r4
    3b20:	2222      	movs	r2, #34	; 0x22
    3b22:	2302      	movs	r3, #2
    3b24:	47a8      	blx	r5
    3b26:	b004      	add	sp, #16
    3b28:	bd70      	pop	{r4, r5, r6, pc}
    3b2a:	bf00      	nop
    3b2c:	447fc000 	.word	0x447fc000

00003b30 <MX28::SetDriveMode(int, int)>:
    3b30:	2000      	movs	r0, #0
    3b32:	4770      	bx	lr

00003b34 <MX28::trigger()>:
    3b34:	b5f0      	push	{r4, r5, r6, r7, lr}
    3b36:	23ff      	movs	r3, #255	; 0xff
    3b38:	b085      	sub	sp, #20
    3b3a:	2502      	movs	r5, #2
    3b3c:	2404      	movs	r4, #4
    3b3e:	27fe      	movs	r7, #254	; 0xfe
    3b40:	22fb      	movs	r2, #251	; 0xfb
    3b42:	f88d 5003 	strb.w	r5, [sp, #3]
    3b46:	f88d 4004 	strb.w	r4, [sp, #4]
    3b4a:	4619      	mov	r1, r3
    3b4c:	f100 0648 	add.w	r6, r0, #72	; 0x48
    3b50:	f88d 3000 	strb.w	r3, [sp]
    3b54:	f88d 3001 	strb.w	r3, [sp, #1]
    3b58:	f88d 7002 	strb.w	r7, [sp, #2]
    3b5c:	f88d 2005 	strb.w	r2, [sp, #5]
    3b60:	466c      	mov	r4, sp
    3b62:	f10d 0505 	add.w	r5, sp, #5
    3b66:	e001      	b.n	3b6c <MX28::trigger()+0x38>
    3b68:	f814 1f01 	ldrb.w	r1, [r4, #1]!
    3b6c:	4630      	mov	r0, r6
    3b6e:	f001 fdb5 	bl	56dc <mbed::Stream::putc(int)>
    3b72:	42ac      	cmp	r4, r5
    3b74:	d1f8      	bne.n	3b68 <MX28::trigger()+0x34>
    3b76:	b005      	add	sp, #20
    3b78:	bdf0      	pop	{r4, r5, r6, r7, pc}
    3b7a:	bf00      	nop

00003b7c <MX28::read(int, int, int, char*)>:
    3b7c:	e92d 43f0 	stmdb	sp!, {r4, r5, r6, r7, r8, r9, lr}
    3b80:	b2dc      	uxtb	r4, r3
    3b82:	b2d2      	uxtb	r2, r2
    3b84:	461f      	mov	r7, r3
    3b86:	1da3      	adds	r3, r4, #6
    3b88:	b2cd      	uxtb	r5, r1
    3b8a:	4413      	add	r3, r2
    3b8c:	442b      	add	r3, r5
    3b8e:	4680      	mov	r8, r0
    3b90:	43db      	mvns	r3, r3
    3b92:	b089      	sub	sp, #36	; 0x24
    3b94:	20ff      	movs	r0, #255	; 0xff
    3b96:	f04f 09fe 	mov.w	r9, #254	; 0xfe
    3b9a:	f04f 0c04 	mov.w	r12, #4
    3b9e:	f04f 0e02 	mov.w	lr, #2
    3ba2:	f88d 5002 	strb.w	r5, [sp, #2]
    3ba6:	f88d 4006 	strb.w	r4, [sp, #6]
    3baa:	4601      	mov	r1, r0
    3bac:	f88d 2005 	strb.w	r2, [sp, #5]
    3bb0:	f88d 3007 	strb.w	r3, [sp, #7]
    3bb4:	f108 0648 	add.w	r6, r8, #72	; 0x48
    3bb8:	f88d 0000 	strb.w	r0, [sp]
    3bbc:	f88d 0001 	strb.w	r0, [sp, #1]
    3bc0:	f88d 9014 	strb.w	r9, [sp, #20]
    3bc4:	f88d c003 	strb.w	r12, [sp, #3]
    3bc8:	f88d e004 	strb.w	lr, [sp, #4]
    3bcc:	466c      	mov	r4, sp
    3bce:	f10d 0507 	add.w	r5, sp, #7
    3bd2:	e001      	b.n	3bd8 <MX28::read(int, int, int, char*)+0x5c>
    3bd4:	f814 1f01 	ldrb.w	r1, [r4, #1]!
    3bd8:	4630      	mov	r0, r6
    3bda:	f001 fd7f 	bl	56dc <mbed::Stream::putc(int)>
    3bde:	42ac      	cmp	r4, r5
    3be0:	d1f8      	bne.n	3bd4 <MX28::read(int, int, int, char*)+0x58>
    3be2:	4815      	ldr	r0, [pc, #84]	; (3c38 <MX28::read(int, int, int, char*)+0xbc>)
    3be4:	f000 fde6 	bl	47b4 <wait>
    3be8:	f8d8 0004 	ldr.w	r0, [r8, #4]
    3bec:	28fe      	cmp	r0, #254	; 0xfe
    3bee:	d01e      	beq.n	3c2e <MX28::read(int, int, int, char*)+0xb2>
    3bf0:	3705      	adds	r7, #5
    3bf2:	d41f      	bmi.n	3c34 <MX28::read(int, int, int, char*)+0xb8>
    3bf4:	f10d 050f 	add.w	r5, sp, #15
    3bf8:	2400      	movs	r4, #0
    3bfa:	4630      	mov	r0, r6
    3bfc:	f001 fd7a 	bl	56f4 <mbed::Stream::getc()>
    3c00:	3401      	adds	r4, #1
    3c02:	42bc      	cmp	r4, r7
    3c04:	f805 0f01 	strb.w	r0, [r5, #1]!
    3c08:	ddf7      	ble.n	3bfa <MX28::read(int, int, int, char*)+0x7e>
    3c0a:	f89d 0014 	ldrb.w	r0, [sp, #20]
    3c0e:	f89d 4013 	ldrb.w	r4, [sp, #19]
    3c12:	2c02      	cmp	r4, #2
    3c14:	dd0b      	ble.n	3c2e <MX28::read(int, int, int, char*)+0xb2>
    3c16:	ab08      	add	r3, sp, #32
    3c18:	9a10      	ldr	r2, [sp, #64]	; 0x40
    3c1a:	441c      	add	r4, r3
    3c1c:	3c0e      	subs	r4, #14
    3c1e:	ab05      	add	r3, sp, #20
    3c20:	3a01      	subs	r2, #1
    3c22:	f813 1f01 	ldrb.w	r1, [r3, #1]!
    3c26:	42a3      	cmp	r3, r4
    3c28:	f802 1f01 	strb.w	r1, [r2, #1]!
    3c2c:	d1f9      	bne.n	3c22 <MX28::read(int, int, int, char*)+0xa6>
    3c2e:	b009      	add	sp, #36	; 0x24
    3c30:	e8bd 83f0 	ldmia.w	sp!, {r4, r5, r6, r7, r8, r9, pc}
    3c34:	20fe      	movs	r0, #254	; 0xfe
    3c36:	e7ea      	b.n	3c0e <MX28::read(int, int, int, char*)+0x92>
    3c38:	37a7c5ac 	.word	0x37a7c5ac

00003c3c <MX28::write(int, int, int, char*, int)>:
    3c3c:	e92d 41f0 	stmdb	sp!, {r4, r5, r6, r7, r8, lr}
    3c40:	1cde      	adds	r6, r3, #3
    3c42:	b086      	sub	sp, #24
    3c44:	b2c9      	uxtb	r1, r1
    3c46:	b2f6      	uxtb	r6, r6
    3c48:	9f0d      	ldr	r7, [sp, #52]	; 0x34
    3c4a:	1874      	adds	r4, r6, r1
    3c4c:	2f01      	cmp	r7, #1
    3c4e:	b2e4      	uxtb	r4, r4
    3c50:	f88d 100a 	strb.w	r1, [sp, #10]
    3c54:	bf0c      	ite	eq
    3c56:	1d21      	addeq	r1, r4, #4
    3c58:	1ce1      	addne	r1, r4, #3
    3c5a:	b2d2      	uxtb	r2, r2
    3c5c:	b2c9      	uxtb	r1, r1
    3c5e:	f04f 0eff 	mov.w	lr, #255	; 0xff
    3c62:	4605      	mov	r5, r0
    3c64:	4411      	add	r1, r2
    3c66:	bf0c      	ite	eq
    3c68:	2004      	moveq	r0, #4
    3c6a:	2003      	movne	r0, #3
    3c6c:	2b00      	cmp	r3, #0
    3c6e:	f88d 600b 	strb.w	r6, [sp, #11]
    3c72:	f88d e008 	strb.w	lr, [sp, #8]
    3c76:	f88d e009 	strb.w	lr, [sp, #9]
    3c7a:	9e0c      	ldr	r6, [sp, #48]	; 0x30
    3c7c:	f88d 000c 	strb.w	r0, [sp, #12]
    3c80:	b2c9      	uxtb	r1, r1
    3c82:	f88d 200d 	strb.w	r2, [sp, #13]
    3c86:	dd0d      	ble.n	3ca4 <MX28::write(int, int, int, char*, int)+0x68>
    3c88:	2000      	movs	r0, #0
    3c8a:	4602      	mov	r2, r0
    3c8c:	5cb4      	ldrb	r4, [r6, r2]
    3c8e:	3201      	adds	r2, #1
    3c90:	b2d2      	uxtb	r2, r2
    3c92:	af06      	add	r7, sp, #24
    3c94:	4438      	add	r0, r7
    3c96:	4421      	add	r1, r4
    3c98:	4293      	cmp	r3, r2
    3c9a:	f800 4c0a 	strb.w	r4, [r0, #-10]
    3c9e:	b2c9      	uxtb	r1, r1
    3ca0:	4610      	mov	r0, r2
    3ca2:	dcf3      	bgt.n	3c8c <MX28::write(int, int, int, char*, int)+0x50>
    3ca4:	43c9      	mvns	r1, r1
    3ca6:	1d9e      	adds	r6, r3, #6
    3ca8:	ab06      	add	r3, sp, #24
    3caa:	4433      	add	r3, r6
    3cac:	2e00      	cmp	r6, #0
    3cae:	f803 1c10 	strb.w	r1, [r3, #-16]
    3cb2:	db0c      	blt.n	3cce <MX28::write(int, int, int, char*, int)+0x92>
    3cb4:	f105 0848 	add.w	r8, r5, #72	; 0x48
    3cb8:	f10d 0707 	add.w	r7, sp, #7
    3cbc:	2400      	movs	r4, #0
    3cbe:	3401      	adds	r4, #1
    3cc0:	4640      	mov	r0, r8
    3cc2:	f817 1f01 	ldrb.w	r1, [r7, #1]!
    3cc6:	f001 fd09 	bl	56dc <mbed::Stream::putc(int)>
    3cca:	42a6      	cmp	r6, r4
    3ccc:	daf7      	bge.n	3cbe <MX28::write(int, int, int, char*, int)+0x82>
    3cce:	480c      	ldr	r0, [pc, #48]	; (3d00 <MX28::write(int, int, int, char*, int)+0xc4>)
    3cd0:	f000 fd70 	bl	47b4 <wait>
    3cd4:	686b      	ldr	r3, [r5, #4]
    3cd6:	2000      	movs	r0, #0
    3cd8:	2bfe      	cmp	r3, #254	; 0xfe
    3cda:	f88d 0004 	strb.w	r0, [sp, #4]
    3cde:	d00c      	beq.n	3cfa <MX28::write(int, int, int, char*, int)+0xbe>
    3ce0:	466c      	mov	r4, sp
    3ce2:	3548      	adds	r5, #72	; 0x48
    3ce4:	f10d 0606 	add.w	r6, sp, #6
    3ce8:	4628      	mov	r0, r5
    3cea:	f001 fd03 	bl	56f4 <mbed::Stream::getc()>
    3cee:	f804 0b01 	strb.w	r0, [r4], #1
    3cf2:	42b4      	cmp	r4, r6
    3cf4:	d1f8      	bne.n	3ce8 <MX28::write(int, int, int, char*, int)+0xac>
    3cf6:	f89d 0004 	ldrb.w	r0, [sp, #4]
    3cfa:	b006      	add	sp, #24
    3cfc:	e8bd 81f0 	ldmia.w	sp!, {r4, r5, r6, r7, r8, pc}
    3d00:	37a7c5ac 	.word	0x37a7c5ac

00003d04 <MX28::SetMode(int)>:
    3d04:	6803      	ldr	r3, [r0, #0]
    3d06:	2901      	cmp	r1, #1
    3d08:	b510      	push	{r4, lr}
    3d0a:	f04f 0100 	mov.w	r1, #0
    3d0e:	4604      	mov	r4, r0
    3d10:	68db      	ldr	r3, [r3, #12]
    3d12:	d00d      	beq.n	3d30 <MX28::SetMode(int)+0x2c>
    3d14:	4798      	blx	r3
    3d16:	4620      	mov	r0, r4
    3d18:	6823      	ldr	r3, [r4, #0]
    3d1a:	f44f 71b4 	mov.w	r1, #360	; 0x168
    3d1e:	691b      	ldr	r3, [r3, #16]
    3d20:	4798      	blx	r3
    3d22:	6823      	ldr	r3, [r4, #0]
    3d24:	4620      	mov	r0, r4
    3d26:	689b      	ldr	r3, [r3, #8]
    3d28:	2100      	movs	r1, #0
    3d2a:	4798      	blx	r3
    3d2c:	2000      	movs	r0, #0
    3d2e:	bd10      	pop	{r4, pc}
    3d30:	4798      	blx	r3
    3d32:	6823      	ldr	r3, [r4, #0]
    3d34:	4620      	mov	r0, r4
    3d36:	691b      	ldr	r3, [r3, #16]
    3d38:	2100      	movs	r1, #0
    3d3a:	e7f1      	b.n	3d20 <MX28::SetMode(int)+0x1c>

00003d3c <MX28::SetGoal(int, int)>:
    3d3c:	b5f0      	push	{r4, r5, r6, r7, lr}
    3d3e:	f1a2 0702 	sub.w	r7, r2, #2
    3d42:	fab7 f787 	clz	r7, r7
    3d46:	4b18      	ldr	r3, [pc, #96]	; (3da8 <MX28::SetGoal(int, int)+0x6c>)
    3d48:	ebc1 3101 	rsb	r1, r1, r1, lsl #12
    3d4c:	4615      	mov	r5, r2
    3d4e:	fb83 3201 	smull	r3, r2, r3, r1
    3d52:	b085      	sub	sp, #20
    3d54:	17cb      	asrs	r3, r1, #31
    3d56:	4411      	add	r1, r2
    3d58:	ebc3 2321 	rsb	r3, r3, r1, asr #8
    3d5c:	6802      	ldr	r2, [r0, #0]
    3d5e:	f10d 0e0c 	add.w	lr, sp, #12
    3d62:	097f      	lsrs	r7, r7, #5
    3d64:	6841      	ldr	r1, [r0, #4]
    3d66:	f343 2607 	sbfx	r6, r3, #8, #8
    3d6a:	9701      	str	r7, [sp, #4]
    3d6c:	f8cd e000 	str.w	lr, [sp]
    3d70:	f88d 300c 	strb.w	r3, [sp, #12]
    3d74:	f88d 600d 	strb.w	r6, [sp, #13]
    3d78:	2302      	movs	r3, #2
    3d7a:	6c16      	ldr	r6, [r2, #64]	; 0x40
    3d7c:	221e      	movs	r2, #30
    3d7e:	4604      	mov	r4, r0
    3d80:	47b0      	blx	r6
    3d82:	2d01      	cmp	r5, #1
    3d84:	4606      	mov	r6, r0
    3d86:	d002      	beq.n	3d8e <MX28::SetGoal(int, int)+0x52>
    3d88:	4630      	mov	r0, r6
    3d8a:	b005      	add	sp, #20
    3d8c:	bdf0      	pop	{r4, r5, r6, r7, pc}
    3d8e:	6823      	ldr	r3, [r4, #0]
    3d90:	4620      	mov	r0, r4
    3d92:	699b      	ldr	r3, [r3, #24]
    3d94:	4798      	blx	r3
    3d96:	2800      	cmp	r0, #0
    3d98:	d0f6      	beq.n	3d88 <MX28::SetGoal(int, int)+0x4c>
    3d9a:	6823      	ldr	r3, [r4, #0]
    3d9c:	4620      	mov	r0, r4
    3d9e:	699b      	ldr	r3, [r3, #24]
    3da0:	4798      	blx	r3
    3da2:	2800      	cmp	r0, #0
    3da4:	d1f3      	bne.n	3d8e <MX28::SetGoal(int, int)+0x52>
    3da6:	e7ef      	b.n	3d88 <MX28::SetGoal(int, int)+0x4c>
    3da8:	b60b60b7 	.word	0xb60b60b7

00003dac <MX28::MX28(PinName, PinName, int)>:
    3dac:	b570      	push	{r4, r5, r6, lr}
    3dae:	4604      	mov	r4, r0
    3db0:	4605      	mov	r5, r0
    3db2:	461e      	mov	r6, r3
    3db4:	4806      	ldr	r0, [pc, #24]	; (3dd0 <MX28::MX28(PinName, PinName, int)+0x24>)
    3db6:	2300      	movs	r3, #0
    3db8:	f844 0b08 	str.w	r0, [r4], #8
    3dbc:	4620      	mov	r0, r4
    3dbe:	f7ff fae3 	bl	3388 <mbed::SerialHalfDuplex::SerialHalfDuplex(PinName, PinName, char const*)>
    3dc2:	4620      	mov	r0, r4
    3dc4:	4903      	ldr	r1, [pc, #12]	; (3dd4 <MX28::MX28(PinName, PinName, int)+0x28>)
    3dc6:	f001 fc0b 	bl	55e0 <mbed::SerialBase::baud(int)>
    3dca:	606e      	str	r6, [r5, #4]
    3dcc:	4628      	mov	r0, r5
    3dce:	bd70      	pop	{r4, r5, r6, pc}
    3dd0:	00008ff8 	.word	0x00008ff8
    3dd4:	000f4240 	.word	0x000f4240

00003dd8 <_start>:
    3dd8:	4a07      	ldr	r2, [pc, #28]	; (3df8 <_start+0x20>)
    3dda:	4808      	ldr	r0, [pc, #32]	; (3dfc <_start+0x24>)
    3ddc:	b508      	push	{r3, lr}
    3dde:	2100      	movs	r1, #0
    3de0:	1a12      	subs	r2, r2, r0
    3de2:	f003 f9cf 	bl	7184 <memset>
    3de6:	f3af 8000 	nop.w
    3dea:	f003 f915 	bl	7018 <__libc_init_array>
    3dee:	f001 fdf7 	bl	59e0 <__wrap_main>
    3df2:	f002 fdc3 	bl	697c <exit>
    3df6:	bf00      	nop
    3df8:	10000b50 	.word	0x10000b50
    3dfc:	100001ac 	.word	0x100001ac

00003e00 <__wrap__isatty>:
    3e00:	2802      	cmp	r0, #2
    3e02:	dc01      	bgt.n	3e08 <__wrap__isatty+0x8>
    3e04:	2001      	movs	r0, #1
    3e06:	4770      	bx	lr
    3e08:	f001 bdb2 	b.w	5970 <_isatty>

00003e0c <__wrap_malloc>:
    3e0c:	f3ef 8305 	mrs	r3, IPSR
    3e10:	b103      	cbz	r3, 3e14 <__wrap_malloc+0x8>
    3e12:	be00      	bkpt	0x0000
    3e14:	f003 b972 	b.w	70fc <malloc>

00003e18 <__wrap_realloc>:
    3e18:	f3ef 8305 	mrs	r3, IPSR
    3e1c:	b103      	cbz	r3, 3e20 <__wrap_realloc+0x8>
    3e1e:	be00      	bkpt	0x0000
    3e20:	f003 bec4 	b.w	7bac <realloc>

00003e24 <__wrap_free>:
    3e24:	f3ef 8305 	mrs	r3, IPSR
    3e28:	b103      	cbz	r3, 3e2c <__wrap_free+0x8>
    3e2a:	be00      	bkpt	0x0000
    3e2c:	f003 b96e 	b.w	710c <free>

00003e30 <abort>:
    3e30:	b508      	push	{r3, lr}
    3e32:	2001      	movs	r0, #1
    3e34:	f002 fda2 	bl	697c <exit>

00003e38 <__cxa_pure_virtual>:
    3e38:	b508      	push	{r3, lr}
    3e3a:	f7ff fff9 	bl	3e30 <abort>
    3e3e:	bf00      	nop

00003e40 <ros::normalizeSecNSec(unsigned long&, unsigned long&)>:
    3e40:	b410      	push	{r4}
    3e42:	680c      	ldr	r4, [r1, #0]
    3e44:	4a07      	ldr	r2, [pc, #28]	; (3e64 <ros::normalizeSecNSec(unsigned long&, unsigned long&)+0x24>)
    3e46:	0a63      	lsrs	r3, r4, #9
    3e48:	fba2 2303 	umull	r2, r3, r2, r3
    3e4c:	4a06      	ldr	r2, [pc, #24]	; (3e68 <ros::normalizeSecNSec(unsigned long&, unsigned long&)+0x28>)
    3e4e:	09db      	lsrs	r3, r3, #7
    3e50:	fb02 4213 	mls	r2, r2, r3, r4
    3e54:	6804      	ldr	r4, [r0, #0]
    3e56:	4423      	add	r3, r4
    3e58:	6003      	str	r3, [r0, #0]
    3e5a:	f85d 4b04 	ldr.w	r4, [sp], #4
    3e5e:	600a      	str	r2, [r1, #0]
    3e60:	4770      	bx	lr
    3e62:	bf00      	nop
    3e64:	00044b83 	.word	0x00044b83
    3e68:	3b9aca00 	.word	0x3b9aca00

00003e6c <AjK::MODSERIAL::__getc(bool)>:
    3e6c:	6fc3      	ldr	r3, [r0, #124]	; 0x7c
    3e6e:	b570      	push	{r4, r5, r6, lr}
    3e70:	2b00      	cmp	r3, #0
    3e72:	d02d      	beq.n	3ed0 <AjK::MODSERIAL::__getc(bool)+0x64>
    3e74:	6e42      	ldr	r2, [r0, #100]	; 0x64
    3e76:	2a00      	cmp	r2, #0
    3e78:	d02a      	beq.n	3ed0 <AjK::MODSERIAL::__getc(bool)+0x64>
    3e7a:	2900      	cmp	r1, #0
    3e7c:	d02f      	beq.n	3ede <AjK::MODSERIAL::__getc(bool)+0x72>
    3e7e:	f8d0 3084 	ldr.w	r3, [r0, #132]	; 0x84
    3e82:	2b00      	cmp	r3, #0
    3e84:	d0fb      	beq.n	3e7e <AjK::MODSERIAL::__getc(bool)+0x12>
    3e86:	6f43      	ldr	r3, [r0, #116]	; 0x74
    3e88:	4604      	mov	r4, r0
    3e8a:	5cd5      	ldrb	r5, [r2, r3]
    3e8c:	6f43      	ldr	r3, [r0, #116]	; 0x74
    3e8e:	b2ed      	uxtb	r5, r5
    3e90:	3301      	adds	r3, #1
    3e92:	6743      	str	r3, [r0, #116]	; 0x74
    3e94:	6f42      	ldr	r2, [r0, #116]	; 0x74
    3e96:	6fc3      	ldr	r3, [r0, #124]	; 0x7c
    3e98:	429a      	cmp	r2, r3
    3e9a:	bfa4      	itt	ge
    3e9c:	2300      	movge	r3, #0
    3e9e:	6743      	strge	r3, [r0, #116]	; 0x74
    3ea0:	f8d0 2084 	ldr.w	r2, [r0, #132]	; 0x84
    3ea4:	6fc3      	ldr	r3, [r0, #124]	; 0x7c
    3ea6:	429a      	cmp	r2, r3
    3ea8:	d009      	beq.n	3ebe <AjK::MODSERIAL::__getc(bool)+0x52>
    3eaa:	6dc3      	ldr	r3, [r0, #92]	; 0x5c
    3eac:	685e      	ldr	r6, [r3, #4]
    3eae:	685a      	ldr	r2, [r3, #4]
    3eb0:	f022 0201 	bic.w	r2, r2, #1
    3eb4:	605a      	str	r2, [r3, #4]
    3eb6:	f000 f819 	bl	3eec <AjK::MODSERIAL::isr_rx()>
    3eba:	6de3      	ldr	r3, [r4, #92]	; 0x5c
    3ebc:	605e      	str	r6, [r3, #4]
    3ebe:	b672      	cpsid	i
    3ec0:	f8d4 3084 	ldr.w	r3, [r4, #132]	; 0x84
    3ec4:	3b01      	subs	r3, #1
    3ec6:	f8c4 3084 	str.w	r3, [r4, #132]	; 0x84
    3eca:	b662      	cpsie	i
    3ecc:	4628      	mov	r0, r5
    3ece:	bd70      	pop	{r4, r5, r6, pc}
    3ed0:	6dc2      	ldr	r2, [r0, #92]	; 0x5c
    3ed2:	7d13      	ldrb	r3, [r2, #20]
    3ed4:	07db      	lsls	r3, r3, #31
    3ed6:	d5fc      	bpl.n	3ed2 <AjK::MODSERIAL::__getc(bool)+0x66>
    3ed8:	7810      	ldrb	r0, [r2, #0]
    3eda:	b2c0      	uxtb	r0, r0
    3edc:	bd70      	pop	{r4, r5, r6, pc}
    3ede:	f8d0 3084 	ldr.w	r3, [r0, #132]	; 0x84
    3ee2:	2b00      	cmp	r3, #0
    3ee4:	d1cf      	bne.n	3e86 <AjK::MODSERIAL::__getc(bool)+0x1a>
    3ee6:	f04f 30ff 	mov.w	r0, #4294967295
    3eea:	bd70      	pop	{r4, r5, r6, pc}

00003eec <AjK::MODSERIAL::isr_rx()>:
    3eec:	6dc3      	ldr	r3, [r0, #92]	; 0x5c
    3eee:	b570      	push	{r4, r5, r6, lr}
    3ef0:	2b00      	cmp	r3, #0
    3ef2:	d052      	beq.n	3f9a <AjK::MODSERIAL::isr_rx()+0xae>
    3ef4:	6fc2      	ldr	r2, [r0, #124]	; 0x7c
    3ef6:	2a00      	cmp	r2, #0
    3ef8:	d04f      	beq.n	3f9a <AjK::MODSERIAL::isr_rx()+0xae>
    3efa:	6e42      	ldr	r2, [r0, #100]	; 0x64
    3efc:	2a00      	cmp	r2, #0
    3efe:	d04c      	beq.n	3f9a <AjK::MODSERIAL::isr_rx()+0xae>
    3f00:	4604      	mov	r4, r0
    3f02:	f100 0558 	add.w	r5, r0, #88	; 0x58
    3f06:	2600      	movs	r6, #0
    3f08:	e008      	b.n	3f1c <AjK::MODSERIAL::isr_rx()+0x30>
    3f0a:	4628      	mov	r0, r5
    3f0c:	4798      	blx	r3
    3f0e:	f894 2094 	ldrb.w	r2, [r4, #148]	; 0x94
    3f12:	f894 3061 	ldrb.w	r3, [r4, #97]	; 0x61
    3f16:	429a      	cmp	r2, r3
    3f18:	d039      	beq.n	3f8e <AjK::MODSERIAL::isr_rx()+0xa2>
    3f1a:	6de3      	ldr	r3, [r4, #92]	; 0x5c
    3f1c:	7d1a      	ldrb	r2, [r3, #20]
    3f1e:	07d2      	lsls	r2, r2, #31
    3f20:	d562      	bpl.n	3fe8 <AjK::MODSERIAL::isr_rx()+0xfc>
    3f22:	781b      	ldrb	r3, [r3, #0]
    3f24:	b2db      	uxtb	r3, r3
    3f26:	f884 3061 	strb.w	r3, [r4, #97]	; 0x61
    3f2a:	f8d4 2084 	ldr.w	r2, [r4, #132]	; 0x84
    3f2e:	6fe3      	ldr	r3, [r4, #124]	; 0x7c
    3f30:	429a      	cmp	r2, r3
    3f32:	d04d      	beq.n	3fd0 <AjK::MODSERIAL::isr_rx()+0xe4>
    3f34:	6e62      	ldr	r2, [r4, #100]	; 0x64
    3f36:	b18a      	cbz	r2, 3f5c <AjK::MODSERIAL::isr_rx()+0x70>
    3f38:	6ee1      	ldr	r1, [r4, #108]	; 0x6c
    3f3a:	f894 3061 	ldrb.w	r3, [r4, #97]	; 0x61
    3f3e:	b2db      	uxtb	r3, r3
    3f40:	5453      	strb	r3, [r2, r1]
    3f42:	f8d4 3084 	ldr.w	r3, [r4, #132]	; 0x84
    3f46:	3301      	adds	r3, #1
    3f48:	f8c4 3084 	str.w	r3, [r4, #132]	; 0x84
    3f4c:	6ee3      	ldr	r3, [r4, #108]	; 0x6c
    3f4e:	3301      	adds	r3, #1
    3f50:	66e3      	str	r3, [r4, #108]	; 0x6c
    3f52:	6ee2      	ldr	r2, [r4, #108]	; 0x6c
    3f54:	6fe3      	ldr	r3, [r4, #124]	; 0x7c
    3f56:	429a      	cmp	r2, r3
    3f58:	bfa8      	it	ge
    3f5a:	66e6      	strge	r6, [r4, #108]	; 0x6c
    3f5c:	f8d4 3098 	ldr.w	r3, [r4, #152]	; 0x98
    3f60:	2b00      	cmp	r3, #0
    3f62:	d1d2      	bne.n	3f0a <AjK::MODSERIAL::isr_rx()+0x1e>
    3f64:	f8d4 309c 	ldr.w	r3, [r4, #156]	; 0x9c
    3f68:	2b00      	cmp	r3, #0
    3f6a:	d0d0      	beq.n	3f0e <AjK::MODSERIAL::isr_rx()+0x22>
    3f6c:	f8d4 20a0 	ldr.w	r2, [r4, #160]	; 0xa0
    3f70:	f8d4 00a4 	ldr.w	r0, [r4, #164]	; 0xa4
    3f74:	b32a      	cbz	r2, 3fc2 <AjK::MODSERIAL::isr_rx()+0xd6>
    3f76:	07c1      	lsls	r1, r0, #31
    3f78:	d425      	bmi.n	3fc6 <AjK::MODSERIAL::isr_rx()+0xda>
    3f7a:	eb03 0060 	add.w	r0, r3, r0, asr #1
    3f7e:	4629      	mov	r1, r5
    3f80:	4790      	blx	r2
    3f82:	f894 2094 	ldrb.w	r2, [r4, #148]	; 0x94
    3f86:	f894 3061 	ldrb.w	r3, [r4, #97]	; 0x61
    3f8a:	429a      	cmp	r2, r3
    3f8c:	d1c5      	bne.n	3f1a <AjK::MODSERIAL::isr_rx()+0x2e>
    3f8e:	f8d4 30e8 	ldr.w	r3, [r4, #232]	; 0xe8
    3f92:	b353      	cbz	r3, 3fea <AjK::MODSERIAL::isr_rx()+0xfe>
    3f94:	4628      	mov	r0, r5
    3f96:	4798      	blx	r3
    3f98:	e7bf      	b.n	3f1a <AjK::MODSERIAL::isr_rx()+0x2e>
    3f9a:	f8d0 3098 	ldr.w	r3, [r0, #152]	; 0x98
    3f9e:	f100 0158 	add.w	r1, r0, #88	; 0x58
    3fa2:	2b00      	cmp	r3, #0
    3fa4:	d031      	beq.n	400a <AjK::MODSERIAL::isr_rx()+0x11e>
    3fa6:	e8bd 4070 	ldmia.w	sp!, {r4, r5, r6, lr}
    3faa:	4608      	mov	r0, r1
    3fac:	4718      	bx	r3
    3fae:	f8d4 30bc 	ldr.w	r3, [r4, #188]	; 0xbc
    3fb2:	2b00      	cmp	r3, #0
    3fb4:	d0ab      	beq.n	3f0e <AjK::MODSERIAL::isr_rx()+0x22>
    3fb6:	f8d4 20c0 	ldr.w	r2, [r4, #192]	; 0xc0
    3fba:	f8d4 00c4 	ldr.w	r0, [r4, #196]	; 0xc4
    3fbe:	2a00      	cmp	r2, #0
    3fc0:	d1d9      	bne.n	3f76 <AjK::MODSERIAL::isr_rx()+0x8a>
    3fc2:	07c1      	lsls	r1, r0, #31
    3fc4:	d5a3      	bpl.n	3f0e <AjK::MODSERIAL::isr_rx()+0x22>
    3fc6:	1040      	asrs	r0, r0, #1
    3fc8:	5819      	ldr	r1, [r3, r0]
    3fca:	4418      	add	r0, r3
    3fcc:	588a      	ldr	r2, [r1, r2]
    3fce:	e7d6      	b.n	3f7e <AjK::MODSERIAL::isr_rx()+0x92>
    3fd0:	f894 3061 	ldrb.w	r3, [r4, #97]	; 0x61
    3fd4:	f8d4 20b8 	ldr.w	r2, [r4, #184]	; 0xb8
    3fd8:	b2db      	uxtb	r3, r3
    3fda:	f8c4 308c 	str.w	r3, [r4, #140]	; 0x8c
    3fde:	2a00      	cmp	r2, #0
    3fe0:	d0e5      	beq.n	3fae <AjK::MODSERIAL::isr_rx()+0xc2>
    3fe2:	4628      	mov	r0, r5
    3fe4:	4790      	blx	r2
    3fe6:	e792      	b.n	3f0e <AjK::MODSERIAL::isr_rx()+0x22>
    3fe8:	bd70      	pop	{r4, r5, r6, pc}
    3fea:	f8d4 00ec 	ldr.w	r0, [r4, #236]	; 0xec
    3fee:	2800      	cmp	r0, #0
    3ff0:	d093      	beq.n	3f1a <AjK::MODSERIAL::isr_rx()+0x2e>
    3ff2:	f8d4 20f0 	ldr.w	r2, [r4, #240]	; 0xf0
    3ff6:	f8d4 30f4 	ldr.w	r3, [r4, #244]	; 0xf4
    3ffa:	b1aa      	cbz	r2, 4028 <AjK::MODSERIAL::isr_rx()+0x13c>
    3ffc:	07d9      	lsls	r1, r3, #31
    3ffe:	d416      	bmi.n	402e <AjK::MODSERIAL::isr_rx()+0x142>
    4000:	eb00 0063 	add.w	r0, r0, r3, asr #1
    4004:	4629      	mov	r1, r5
    4006:	4790      	blx	r2
    4008:	e787      	b.n	3f1a <AjK::MODSERIAL::isr_rx()+0x2e>
    400a:	f8d0 309c 	ldr.w	r3, [r0, #156]	; 0x9c
    400e:	b19b      	cbz	r3, 4038 <AjK::MODSERIAL::isr_rx()+0x14c>
    4010:	f8d0 20a0 	ldr.w	r2, [r0, #160]	; 0xa0
    4014:	f8d0 00a4 	ldr.w	r0, [r0, #164]	; 0xa4
    4018:	b1a2      	cbz	r2, 4044 <AjK::MODSERIAL::isr_rx()+0x158>
    401a:	07c4      	lsls	r4, r0, #31
    401c:	d40d      	bmi.n	403a <AjK::MODSERIAL::isr_rx()+0x14e>
    401e:	eb03 0060 	add.w	r0, r3, r0, asr #1
    4022:	e8bd 4070 	ldmia.w	sp!, {r4, r5, r6, lr}
    4026:	4710      	bx	r2
    4028:	07d9      	lsls	r1, r3, #31
    402a:	f57f af76 	bpl.w	3f1a <AjK::MODSERIAL::isr_rx()+0x2e>
    402e:	105b      	asrs	r3, r3, #1
    4030:	58c1      	ldr	r1, [r0, r3]
    4032:	4418      	add	r0, r3
    4034:	588a      	ldr	r2, [r1, r2]
    4036:	e7e5      	b.n	4004 <AjK::MODSERIAL::isr_rx()+0x118>
    4038:	bd70      	pop	{r4, r5, r6, pc}
    403a:	1040      	asrs	r0, r0, #1
    403c:	581c      	ldr	r4, [r3, r0]
    403e:	4418      	add	r0, r3
    4040:	58a2      	ldr	r2, [r4, r2]
    4042:	e7ee      	b.n	4022 <AjK::MODSERIAL::isr_rx()+0x136>
    4044:	07c5      	lsls	r5, r0, #31
    4046:	d4f8      	bmi.n	403a <AjK::MODSERIAL::isr_rx()+0x14e>
    4048:	bd70      	pop	{r4, r5, r6, pc}
    404a:	bf00      	nop

0000404c <AjK::MODSERIAL::~MODSERIAL()>:
    404c:	b5f8      	push	{r3, r4, r5, r6, r7, lr}
    404e:	4604      	mov	r4, r0
    4050:	f890 20f8 	ldrb.w	r2, [r0, #248]	; 0xf8
    4054:	4d14      	ldr	r5, [pc, #80]	; (40a8 <AjK::MODSERIAL::~MODSERIAL()+0x5c>)
    4056:	b253      	sxtb	r3, r2
    4058:	6e40      	ldr	r0, [r0, #100]	; 0x64
    405a:	095b      	lsrs	r3, r3, #5
    405c:	f002 021f 	and.w	r2, r2, #31
    4060:	2101      	movs	r1, #1
    4062:	4e12      	ldr	r6, [pc, #72]	; (40ac <AjK::MODSERIAL::~MODSERIAL()+0x60>)
    4064:	f105 0e18 	add.w	lr, r5, #24
    4068:	f105 074c 	add.w	r7, r5, #76	; 0x4c
    406c:	3320      	adds	r3, #32
    406e:	fa01 f202 	lsl.w	r2, r1, r2
    4072:	6025      	str	r5, [r4, #0]
    4074:	f8c4 e040 	str.w	lr, [r4, #64]	; 0x40
    4078:	6467      	str	r7, [r4, #68]	; 0x44
    407a:	f846 2023 	str.w	r2, [r6, r3, lsl #2]
    407e:	b108      	cbz	r0, 4084 <AjK::MODSERIAL::~MODSERIAL()+0x38>
    4080:	f7ff fed0 	bl	3e24 <__wrap_free>
    4084:	6ea0      	ldr	r0, [r4, #104]	; 0x68
    4086:	b108      	cbz	r0, 408c <AjK::MODSERIAL::~MODSERIAL()+0x40>
    4088:	f7ff fecc 	bl	3e24 <__wrap_free>
    408c:	4b08      	ldr	r3, [pc, #32]	; (40b0 <AjK::MODSERIAL::~MODSERIAL()+0x64>)
    408e:	f104 0040 	add.w	r0, r4, #64	; 0x40
    4092:	f103 0118 	add.w	r1, r3, #24
    4096:	f103 024c 	add.w	r2, r3, #76	; 0x4c
    409a:	6023      	str	r3, [r4, #0]
    409c:	6421      	str	r1, [r4, #64]	; 0x40
    409e:	6462      	str	r2, [r4, #68]	; 0x44
    40a0:	f001 fb0a 	bl	56b8 <mbed::Stream::~Stream()>
    40a4:	4620      	mov	r0, r4
    40a6:	bdf8      	pop	{r3, r4, r5, r6, r7, pc}
    40a8:	00009048 	.word	0x00009048
    40ac:	e000e100 	.word	0xe000e100
    40b0:	000092c8 	.word	0x000092c8

000040b4 <non-virtual thunk to AjK::MODSERIAL::~MODSERIAL()>:
    40b4:	f1a0 0044 	sub.w	r0, r0, #68	; 0x44
    40b8:	f7ff bfc8 	b.w	404c <AjK::MODSERIAL::~MODSERIAL()>

000040bc <non-virtual thunk to AjK::MODSERIAL::~MODSERIAL()>:
    40bc:	f1a0 0040 	sub.w	r0, r0, #64	; 0x40
    40c0:	f7ff bfc4 	b.w	404c <AjK::MODSERIAL::~MODSERIAL()>

000040c4 <AjK::MODSERIAL::~MODSERIAL()>:
    40c4:	b510      	push	{r4, lr}
    40c6:	4604      	mov	r4, r0
    40c8:	f7ff ffc0 	bl	404c <AjK::MODSERIAL::~MODSERIAL()>
    40cc:	4620      	mov	r0, r4
    40ce:	f001 fcea 	bl	5aa6 <operator delete(void*)>
    40d2:	4620      	mov	r0, r4
    40d4:	bd10      	pop	{r4, pc}
    40d6:	bf00      	nop

000040d8 <non-virtual thunk to AjK::MODSERIAL::~MODSERIAL()>:
    40d8:	f1a0 0044 	sub.w	r0, r0, #68	; 0x44
    40dc:	f7ff bff2 	b.w	40c4 <AjK::MODSERIAL::~MODSERIAL()>

000040e0 <non-virtual thunk to AjK::MODSERIAL::~MODSERIAL()>:
    40e0:	f1a0 0040 	sub.w	r0, r0, #64	; 0x40
    40e4:	f7ff bfee 	b.w	40c4 <AjK::MODSERIAL::~MODSERIAL()>

000040e8 <AjK::MODSERIAL::_putc(int)>:
    40e8:	2201      	movs	r2, #1
    40ea:	f000 b85d 	b.w	41a8 <AjK::MODSERIAL::__putc(int, bool)>
    40ee:	bf00      	nop

000040f0 <non-virtual thunk to AjK::MODSERIAL::_putc(int)>:
    40f0:	f1a0 0040 	sub.w	r0, r0, #64	; 0x40
    40f4:	e7f8      	b.n	40e8 <AjK::MODSERIAL::_putc(int)>
    40f6:	bf00      	nop

000040f8 <AjK::MODSERIAL::_getc()>:
    40f8:	2101      	movs	r1, #1
    40fa:	f7ff beb7 	b.w	3e6c <AjK::MODSERIAL::__getc(bool)>
    40fe:	bf00      	nop

00004100 <non-virtual thunk to AjK::MODSERIAL::_getc()>:
    4100:	f1a0 0040 	sub.w	r0, r0, #64	; 0x40
    4104:	e7f8      	b.n	40f8 <AjK::MODSERIAL::_getc()>
    4106:	bf00      	nop

00004108 <AjK::MODSERIAL::MODSERIAL(PinName, PinName, char const*)>:
    4108:	b538      	push	{r3, r4, r5, lr}
    410a:	4604      	mov	r4, r0
    410c:	4615      	mov	r5, r2
    410e:	f001 fa17 	bl	5540 <mbed::Serial::Serial(PinName, PinName, char const*)>
    4112:	4b11      	ldr	r3, [pc, #68]	; (4158 <AjK::MODSERIAL::MODSERIAL(PinName, PinName, char const*)+0x50>)
    4114:	2100      	movs	r1, #0
    4116:	f103 0018 	add.w	r0, r3, #24
    411a:	460a      	mov	r2, r1
    411c:	65a1      	str	r1, [r4, #88]	; 0x58
    411e:	f103 014c 	add.w	r1, r3, #76	; 0x4c
    4122:	6023      	str	r3, [r4, #0]
    4124:	6461      	str	r1, [r4, #68]	; 0x44
    4126:	6420      	str	r0, [r4, #64]	; 0x40
    4128:	f104 03a8 	add.w	r3, r4, #168	; 0xa8
    412c:	f504 7184 	add.w	r1, r4, #264	; 0x108
    4130:	f843 2c10 	str.w	r2, [r3, #-16]
    4134:	f843 2c0c 	str.w	r2, [r3, #-12]
    4138:	f843 2c08 	str.w	r2, [r3, #-8]
    413c:	f843 2c04 	str.w	r2, [r3, #-4]
    4140:	3310      	adds	r3, #16
    4142:	428b      	cmp	r3, r1
    4144:	d1f4      	bne.n	4130 <AjK::MODSERIAL::MODSERIAL(PinName, PinName, char const*)+0x28>
    4146:	f44f 7180 	mov.w	r1, #256	; 0x100
    414a:	4620      	mov	r0, r4
    414c:	462b      	mov	r3, r5
    414e:	460a      	mov	r2, r1
    4150:	f000 f8a2 	bl	4298 <AjK::MODSERIAL::init(int, int, PinName)>
    4154:	4620      	mov	r0, r4
    4156:	bd38      	pop	{r3, r4, r5, pc}
    4158:	00009048 	.word	0x00009048

0000415c <AjK::MODSERIAL::rxBufferEmpty()>:
    415c:	f8d0 0084 	ldr.w	r0, [r0, #132]	; 0x84
    4160:	fab0 f080 	clz	r0, r0
    4164:	0940      	lsrs	r0, r0, #5
    4166:	4770      	bx	lr

00004168 <AjK::MODSERIAL_callback::call(AjK::MODSERIAL_IRQ_INFO*)>:
    4168:	6803      	ldr	r3, [r0, #0]
    416a:	b410      	push	{r4}
    416c:	b11b      	cbz	r3, 4176 <AjK::MODSERIAL_callback::call(AjK::MODSERIAL_IRQ_INFO*)+0xe>
    416e:	4608      	mov	r0, r1
    4170:	f85d 4b04 	ldr.w	r4, [sp], #4
    4174:	4718      	bx	r3
    4176:	6843      	ldr	r3, [r0, #4]
    4178:	b193      	cbz	r3, 41a0 <AjK::MODSERIAL_callback::call(AjK::MODSERIAL_IRQ_INFO*)+0x38>
    417a:	6882      	ldr	r2, [r0, #8]
    417c:	68c0      	ldr	r0, [r0, #12]
    417e:	b132      	cbz	r2, 418e <AjK::MODSERIAL_callback::call(AjK::MODSERIAL_IRQ_INFO*)+0x26>
    4180:	07c4      	lsls	r4, r0, #31
    4182:	d406      	bmi.n	4192 <AjK::MODSERIAL_callback::call(AjK::MODSERIAL_IRQ_INFO*)+0x2a>
    4184:	eb03 0060 	add.w	r0, r3, r0, asr #1
    4188:	f85d 4b04 	ldr.w	r4, [sp], #4
    418c:	4710      	bx	r2
    418e:	07c4      	lsls	r4, r0, #31
    4190:	d506      	bpl.n	41a0 <AjK::MODSERIAL_callback::call(AjK::MODSERIAL_IRQ_INFO*)+0x38>
    4192:	1040      	asrs	r0, r0, #1
    4194:	581c      	ldr	r4, [r3, r0]
    4196:	4418      	add	r0, r3
    4198:	58a2      	ldr	r2, [r4, r2]
    419a:	f85d 4b04 	ldr.w	r4, [sp], #4
    419e:	4710      	bx	r2
    41a0:	f85d 4b04 	ldr.w	r4, [sp], #4
    41a4:	4770      	bx	lr
    41a6:	bf00      	nop

000041a8 <AjK::MODSERIAL::__putc(int, bool)>:
    41a8:	6e83      	ldr	r3, [r0, #104]	; 0x68
    41aa:	b570      	push	{r4, r5, r6, lr}
    41ac:	4604      	mov	r4, r0
    41ae:	460d      	mov	r5, r1
    41b0:	b113      	cbz	r3, 41b8 <AjK::MODSERIAL::__putc(int, bool)+0x10>
    41b2:	f8d0 3080 	ldr.w	r3, [r0, #128]	; 0x80
    41b6:	b93b      	cbnz	r3, 41c8 <AjK::MODSERIAL::__putc(int, bool)+0x20>
    41b8:	6de2      	ldr	r2, [r4, #92]	; 0x5c
    41ba:	7d13      	ldrb	r3, [r2, #20]
    41bc:	0698      	lsls	r0, r3, #26
    41be:	d5fc      	bpl.n	41ba <AjK::MODSERIAL::__putc(int, bool)+0x12>
    41c0:	b2ed      	uxtb	r5, r5
    41c2:	7015      	strb	r5, [r2, #0]
    41c4:	2000      	movs	r0, #0
    41c6:	bd70      	pop	{r4, r5, r6, pc}
    41c8:	6dc3      	ldr	r3, [r0, #92]	; 0x5c
    41ca:	7d19      	ldrb	r1, [r3, #20]
    41cc:	0689      	lsls	r1, r1, #26
    41ce:	d505      	bpl.n	41dc <AjK::MODSERIAL::__putc(int, bool)+0x34>
    41d0:	f8d0 0088 	ldr.w	r0, [r0, #136]	; 0x88
    41d4:	b910      	cbnz	r0, 41dc <AjK::MODSERIAL::__putc(int, bool)+0x34>
    41d6:	b2ed      	uxtb	r5, r5
    41d8:	701d      	strb	r5, [r3, #0]
    41da:	bd70      	pop	{r4, r5, r6, pc}
    41dc:	b1c2      	cbz	r2, 4210 <AjK::MODSERIAL::__putc(int, bool)+0x68>
    41de:	685e      	ldr	r6, [r3, #4]
    41e0:	685a      	ldr	r2, [r3, #4]
    41e2:	f022 0202 	bic.w	r2, r2, #2
    41e6:	605a      	str	r2, [r3, #4]
    41e8:	f8d4 2088 	ldr.w	r2, [r4, #136]	; 0x88
    41ec:	f8d4 3080 	ldr.w	r3, [r4, #128]	; 0x80
    41f0:	429a      	cmp	r2, r3
    41f2:	d109      	bne.n	4208 <AjK::MODSERIAL::__putc(int, bool)+0x60>
    41f4:	4620      	mov	r0, r4
    41f6:	2100      	movs	r1, #0
    41f8:	f000 f8d2 	bl	43a0 <AjK::MODSERIAL::isr_tx(bool)>
    41fc:	f8d4 2088 	ldr.w	r2, [r4, #136]	; 0x88
    4200:	f8d4 3080 	ldr.w	r3, [r4, #128]	; 0x80
    4204:	429a      	cmp	r2, r3
    4206:	d0f5      	beq.n	41f4 <AjK::MODSERIAL::__putc(int, bool)+0x4c>
    4208:	6de3      	ldr	r3, [r4, #92]	; 0x5c
    420a:	605e      	str	r6, [r3, #4]
    420c:	6de3      	ldr	r3, [r4, #92]	; 0x5c
    420e:	e005      	b.n	421c <AjK::MODSERIAL::__putc(int, bool)+0x74>
    4210:	f8d4 1088 	ldr.w	r1, [r4, #136]	; 0x88
    4214:	f8d4 2080 	ldr.w	r2, [r4, #128]	; 0x80
    4218:	4291      	cmp	r1, r2
    421a:	d020      	beq.n	425e <AjK::MODSERIAL::__putc(int, bool)+0xb6>
    421c:	685a      	ldr	r2, [r3, #4]
    421e:	b2ed      	uxtb	r5, r5
    4220:	f022 0202 	bic.w	r2, r2, #2
    4224:	605a      	str	r2, [r3, #4]
    4226:	6f23      	ldr	r3, [r4, #112]	; 0x70
    4228:	6ea2      	ldr	r2, [r4, #104]	; 0x68
    422a:	54d5      	strb	r5, [r2, r3]
    422c:	b672      	cpsid	i
    422e:	f8d4 3088 	ldr.w	r3, [r4, #136]	; 0x88
    4232:	3301      	adds	r3, #1
    4234:	f8c4 3088 	str.w	r3, [r4, #136]	; 0x88
    4238:	b662      	cpsie	i
    423a:	6f23      	ldr	r3, [r4, #112]	; 0x70
    423c:	2000      	movs	r0, #0
    423e:	3301      	adds	r3, #1
    4240:	6723      	str	r3, [r4, #112]	; 0x70
    4242:	6f22      	ldr	r2, [r4, #112]	; 0x70
    4244:	f8d4 3080 	ldr.w	r3, [r4, #128]	; 0x80
    4248:	429a      	cmp	r2, r3
    424a:	bfa8      	it	ge
    424c:	2300      	movge	r3, #0
    424e:	6de2      	ldr	r2, [r4, #92]	; 0x5c
    4250:	bfa8      	it	ge
    4252:	6723      	strge	r3, [r4, #112]	; 0x70
    4254:	6853      	ldr	r3, [r2, #4]
    4256:	f043 0302 	orr.w	r3, r3, #2
    425a:	6053      	str	r3, [r2, #4]
    425c:	bd70      	pop	{r4, r5, r6, pc}
    425e:	f104 00c8 	add.w	r0, r4, #200	; 0xc8
    4262:	f8c4 5090 	str.w	r5, [r4, #144]	; 0x90
    4266:	f104 0158 	add.w	r1, r4, #88	; 0x58
    426a:	f7ff ff7d 	bl	4168 <AjK::MODSERIAL_callback::call(AjK::MODSERIAL_IRQ_INFO*)>
    426e:	f04f 30ff 	mov.w	r0, #4294967295
    4272:	bd70      	pop	{r4, r5, r6, pc}

00004274 <void mbed::FunctionPointerArg1<void, void>::membercaller<AjK::MODSERIAL>(void*, unsigned int*)>:
    4274:	684b      	ldr	r3, [r1, #4]
    4276:	07da      	lsls	r2, r3, #31
    4278:	d505      	bpl.n	4286 <void mbed::FunctionPointerArg1<void, void>::membercaller<AjK::MODSERIAL>(void*, unsigned int*)+0x12>
    427a:	105b      	asrs	r3, r3, #1
    427c:	680a      	ldr	r2, [r1, #0]
    427e:	58c1      	ldr	r1, [r0, r3]
    4280:	4418      	add	r0, r3
    4282:	588a      	ldr	r2, [r1, r2]
    4284:	4710      	bx	r2
    4286:	680a      	ldr	r2, [r1, #0]
    4288:	eb00 0063 	add.w	r0, r0, r3, asr #1
    428c:	4710      	bx	r2
    428e:	bf00      	nop

00004290 <AjK::MODSERIAL::isr_tx()>:
    4290:	2101      	movs	r1, #1
    4292:	f000 b885 	b.w	43a0 <AjK::MODSERIAL::isr_tx(bool)>
    4296:	bf00      	nop

00004298 <AjK::MODSERIAL::init(int, int, PinName)>:
    4298:	b5f8      	push	{r3, r4, r5, r6, r7, lr}
    429a:	4604      	mov	r4, r0
    429c:	f890 50f8 	ldrb.w	r5, [r0, #248]	; 0xf8
    42a0:	2601      	movs	r6, #1
    42a2:	b26b      	sxtb	r3, r5
    42a4:	095b      	lsrs	r3, r3, #5
    42a6:	f005 051f 	and.w	r5, r5, #31
    42aa:	4f38      	ldr	r7, [pc, #224]	; (438c <AjK::MODSERIAL::init(int, int, PinName)+0xf4>)
    42ac:	3320      	adds	r3, #32
    42ae:	fa06 f505 	lsl.w	r5, r6, r5
    42b2:	f847 5023 	str.w	r5, [r7, r3, lsl #2]
    42b6:	4616      	mov	r6, r2
    42b8:	460d      	mov	r5, r1
    42ba:	f000 f90b 	bl	44d4 <AjK::MODSERIAL::setBase()>
    42be:	6de3      	ldr	r3, [r4, #92]	; 0x5c
    42c0:	65a4      	str	r4, [r4, #88]	; 0x58
    42c2:	2b00      	cmp	r3, #0
    42c4:	d05e      	beq.n	4384 <AjK::MODSERIAL::init(int, int, PinName)+0xec>
    42c6:	2e00      	cmp	r6, #0
    42c8:	67e6      	str	r6, [r4, #124]	; 0x7c
    42ca:	dd47      	ble.n	435c <AjK::MODSERIAL::init(int, int, PinName)+0xc4>
    42cc:	6fe0      	ldr	r0, [r4, #124]	; 0x7c
    42ce:	f7ff fd9d 	bl	3e0c <__wrap_malloc>
    42d2:	2100      	movs	r1, #0
    42d4:	66e1      	str	r1, [r4, #108]	; 0x6c
    42d6:	6660      	str	r0, [r4, #100]	; 0x64
    42d8:	6761      	str	r1, [r4, #116]	; 0x74
    42da:	f8c4 1084 	str.w	r1, [r4, #132]	; 0x84
    42de:	f8c4 108c 	str.w	r1, [r4, #140]	; 0x8c
    42e2:	2c00      	cmp	r4, #0
    42e4:	d042      	beq.n	436c <AjK::MODSERIAL::init(int, int, PinName)+0xd4>
    42e6:	4a2a      	ldr	r2, [pc, #168]	; (4390 <AjK::MODSERIAL::init(int, int, PinName)+0xf8>)
    42e8:	4b2a      	ldr	r3, [pc, #168]	; (4394 <AjK::MODSERIAL::init(int, int, PinName)+0xfc>)
    42ea:	1d26      	adds	r6, r4, #4
    42ec:	6122      	str	r2, [r4, #16]
    42ee:	60e4      	str	r4, [r4, #12]
    42f0:	6161      	str	r1, [r4, #20]
    42f2:	6223      	str	r3, [r4, #32]
    42f4:	4630      	mov	r0, r6
    42f6:	2201      	movs	r2, #1
    42f8:	f000 fd9c 	bl	4e34 <serial_irq_set>
    42fc:	2d00      	cmp	r5, #0
    42fe:	f8c4 5080 	str.w	r5, [r4, #128]	; 0x80
    4302:	dd3d      	ble.n	4380 <AjK::MODSERIAL::init(int, int, PinName)+0xe8>
    4304:	f8d4 0080 	ldr.w	r0, [r4, #128]	; 0x80
    4308:	f7ff fd80 	bl	3e0c <__wrap_malloc>
    430c:	4a22      	ldr	r2, [pc, #136]	; (4398 <AjK::MODSERIAL::init(int, int, PinName)+0x100>)
    430e:	2300      	movs	r3, #0
    4310:	6723      	str	r3, [r4, #112]	; 0x70
    4312:	66a0      	str	r0, [r4, #104]	; 0x68
    4314:	67a3      	str	r3, [r4, #120]	; 0x78
    4316:	f8c4 3088 	str.w	r3, [r4, #136]	; 0x88
    431a:	f8c4 3090 	str.w	r3, [r4, #144]	; 0x90
    431e:	b1fa      	cbz	r2, 4360 <AjK::MODSERIAL::init(int, int, PinName)+0xc8>
    4320:	b1f4      	cbz	r4, 4360 <AjK::MODSERIAL::init(int, int, PinName)+0xc8>
    4322:	4d1c      	ldr	r5, [pc, #112]	; (4394 <AjK::MODSERIAL::init(int, int, PinName)+0xfc>)
    4324:	2101      	movs	r1, #1
    4326:	62a2      	str	r2, [r4, #40]	; 0x28
    4328:	6264      	str	r4, [r4, #36]	; 0x24
    432a:	62e3      	str	r3, [r4, #44]	; 0x2c
    432c:	4630      	mov	r0, r6
    432e:	63a5      	str	r5, [r4, #56]	; 0x38
    4330:	460a      	mov	r2, r1
    4332:	f000 fd7f 	bl	4e34 <serial_irq_set>
    4336:	4620      	mov	r0, r4
    4338:	f000 f8f8 	bl	452c <AjK::MODSERIAL::initDevice()>
    433c:	f894 30f8 	ldrb.w	r3, [r4, #248]	; 0xf8
    4340:	2101      	movs	r1, #1
    4342:	b25a      	sxtb	r2, r3
    4344:	f003 031f 	and.w	r3, r3, #31
    4348:	fa01 f303 	lsl.w	r3, r1, r3
    434c:	480f      	ldr	r0, [pc, #60]	; (438c <AjK::MODSERIAL::init(int, int, PinName)+0xf4>)
    434e:	2100      	movs	r1, #0
    4350:	0952      	lsrs	r2, r2, #5
    4352:	f884 1094 	strb.w	r1, [r4, #148]	; 0x94
    4356:	f840 3022 	str.w	r3, [r0, r2, lsl #2]
    435a:	bdf8      	pop	{r3, r4, r5, r6, r7, pc}
    435c:	2000      	movs	r0, #0
    435e:	e7b8      	b.n	42d2 <AjK::MODSERIAL::init(int, int, PinName)+0x3a>
    4360:	4630      	mov	r0, r6
    4362:	2101      	movs	r1, #1
    4364:	2200      	movs	r2, #0
    4366:	f000 fd65 	bl	4e34 <serial_irq_set>
    436a:	e7e4      	b.n	4336 <AjK::MODSERIAL::init(int, int, PinName)+0x9e>
    436c:	2604      	movs	r6, #4
    436e:	4630      	mov	r0, r6
    4370:	4621      	mov	r1, r4
    4372:	4622      	mov	r2, r4
    4374:	f000 fd5e 	bl	4e34 <serial_irq_set>
    4378:	2d00      	cmp	r5, #0
    437a:	f8c4 5080 	str.w	r5, [r4, #128]	; 0x80
    437e:	dcc1      	bgt.n	4304 <AjK::MODSERIAL::init(int, int, PinName)+0x6c>
    4380:	2000      	movs	r0, #0
    4382:	e7c3      	b.n	430c <AjK::MODSERIAL::init(int, int, PinName)+0x74>
    4384:	4805      	ldr	r0, [pc, #20]	; (439c <AjK::MODSERIAL::init(int, int, PinName)+0x104>)
    4386:	f000 f90f 	bl	45a8 <error>
    438a:	e7d4      	b.n	4336 <AjK::MODSERIAL::init(int, int, PinName)+0x9e>
    438c:	e000e100 	.word	0xe000e100
    4390:	00003eed 	.word	0x00003eed
    4394:	00004275 	.word	0x00004275
    4398:	00004291 	.word	0x00004291
    439c:	0000909c 	.word	0x0000909c

000043a0 <AjK::MODSERIAL::isr_tx(bool)>:
    43a0:	6dc3      	ldr	r3, [r0, #92]	; 0x5c
    43a2:	e92d 41f0 	stmdb	sp!, {r4, r5, r6, r7, r8, lr}
    43a6:	2b00      	cmp	r3, #0
    43a8:	d037      	beq.n	441a <AjK::MODSERIAL::isr_tx(bool)+0x7a>
    43aa:	f8d0 3080 	ldr.w	r3, [r0, #128]	; 0x80
    43ae:	2b00      	cmp	r3, #0
    43b0:	d033      	beq.n	441a <AjK::MODSERIAL::isr_tx(bool)+0x7a>
    43b2:	6e83      	ldr	r3, [r0, #104]	; 0x68
    43b4:	2b00      	cmp	r3, #0
    43b6:	d030      	beq.n	441a <AjK::MODSERIAL::isr_tx(bool)+0x7a>
    43b8:	460d      	mov	r5, r1
    43ba:	4604      	mov	r4, r0
    43bc:	2700      	movs	r7, #0
    43be:	f100 0658 	add.w	r6, r0, #88	; 0x58
    43c2:	f8d4 3088 	ldr.w	r3, [r4, #136]	; 0x88
    43c6:	b31b      	cbz	r3, 4410 <AjK::MODSERIAL::isr_tx(bool)+0x70>
    43c8:	6de3      	ldr	r3, [r4, #92]	; 0x5c
    43ca:	7d1a      	ldrb	r2, [r3, #20]
    43cc:	0692      	lsls	r2, r2, #26
    43ce:	d51f      	bpl.n	4410 <AjK::MODSERIAL::isr_tx(bool)+0x70>
    43d0:	6fa2      	ldr	r2, [r4, #120]	; 0x78
    43d2:	6ea1      	ldr	r1, [r4, #104]	; 0x68
    43d4:	5c8a      	ldrb	r2, [r1, r2]
    43d6:	b2d2      	uxtb	r2, r2
    43d8:	f884 2060 	strb.w	r2, [r4, #96]	; 0x60
    43dc:	701a      	strb	r2, [r3, #0]
    43de:	f8d4 3088 	ldr.w	r3, [r4, #136]	; 0x88
    43e2:	3b01      	subs	r3, #1
    43e4:	f8c4 3088 	str.w	r3, [r4, #136]	; 0x88
    43e8:	6fa3      	ldr	r3, [r4, #120]	; 0x78
    43ea:	3301      	adds	r3, #1
    43ec:	67a3      	str	r3, [r4, #120]	; 0x78
    43ee:	6fa2      	ldr	r2, [r4, #120]	; 0x78
    43f0:	f8d4 3080 	ldr.w	r3, [r4, #128]	; 0x80
    43f4:	429a      	cmp	r2, r3
    43f6:	db00      	blt.n	43fa <AjK::MODSERIAL::isr_tx(bool)+0x5a>
    43f8:	67a7      	str	r7, [r4, #120]	; 0x78
    43fa:	2d00      	cmp	r5, #0
    43fc:	d0e1      	beq.n	43c2 <AjK::MODSERIAL::isr_tx(bool)+0x22>
    43fe:	f8d4 30a8 	ldr.w	r3, [r4, #168]	; 0xa8
    4402:	b37b      	cbz	r3, 4464 <AjK::MODSERIAL::isr_tx(bool)+0xc4>
    4404:	4630      	mov	r0, r6
    4406:	4798      	blx	r3
    4408:	f8d4 3088 	ldr.w	r3, [r4, #136]	; 0x88
    440c:	2b00      	cmp	r3, #0
    440e:	d1db      	bne.n	43c8 <AjK::MODSERIAL::isr_tx(bool)+0x28>
    4410:	f8d4 3088 	ldr.w	r3, [r4, #136]	; 0x88
    4414:	b153      	cbz	r3, 442c <AjK::MODSERIAL::isr_tx(bool)+0x8c>
    4416:	e8bd 81f0 	ldmia.w	sp!, {r4, r5, r6, r7, r8, pc}
    441a:	f8d0 30a8 	ldr.w	r3, [r0, #168]	; 0xa8
    441e:	f100 0158 	add.w	r1, r0, #88	; 0x58
    4422:	b37b      	cbz	r3, 4484 <AjK::MODSERIAL::isr_tx(bool)+0xe4>
    4424:	e8bd 41f0 	ldmia.w	sp!, {r4, r5, r6, r7, r8, lr}
    4428:	4608      	mov	r0, r1
    442a:	4718      	bx	r3
    442c:	6de2      	ldr	r2, [r4, #92]	; 0x5c
    442e:	f104 0158 	add.w	r1, r4, #88	; 0x58
    4432:	6853      	ldr	r3, [r2, #4]
    4434:	f023 0302 	bic.w	r3, r3, #2
    4438:	6053      	str	r3, [r2, #4]
    443a:	f8d4 30d8 	ldr.w	r3, [r4, #216]	; 0xd8
    443e:	2b00      	cmp	r3, #0
    4440:	d1f0      	bne.n	4424 <AjK::MODSERIAL::isr_tx(bool)+0x84>
    4442:	f8d4 00dc 	ldr.w	r0, [r4, #220]	; 0xdc
    4446:	2800      	cmp	r0, #0
    4448:	d0e5      	beq.n	4416 <AjK::MODSERIAL::isr_tx(bool)+0x76>
    444a:	f8d4 20e0 	ldr.w	r2, [r4, #224]	; 0xe0
    444e:	f8d4 30e4 	ldr.w	r3, [r4, #228]	; 0xe4
    4452:	2a00      	cmp	r2, #0
    4454:	d035      	beq.n	44c2 <AjK::MODSERIAL::isr_tx(bool)+0x122>
    4456:	07dc      	lsls	r4, r3, #31
    4458:	d429      	bmi.n	44ae <AjK::MODSERIAL::isr_tx(bool)+0x10e>
    445a:	eb00 0063 	add.w	r0, r0, r3, asr #1
    445e:	e8bd 41f0 	ldmia.w	sp!, {r4, r5, r6, r7, r8, lr}
    4462:	4710      	bx	r2
    4464:	f8d4 00ac 	ldr.w	r0, [r4, #172]	; 0xac
    4468:	2800      	cmp	r0, #0
    446a:	d0aa      	beq.n	43c2 <AjK::MODSERIAL::isr_tx(bool)+0x22>
    446c:	f8d4 20b0 	ldr.w	r2, [r4, #176]	; 0xb0
    4470:	f8d4 30b4 	ldr.w	r3, [r4, #180]	; 0xb4
    4474:	b1a2      	cbz	r2, 44a0 <AjK::MODSERIAL::isr_tx(bool)+0x100>
    4476:	07d9      	lsls	r1, r3, #31
    4478:	d414      	bmi.n	44a4 <AjK::MODSERIAL::isr_tx(bool)+0x104>
    447a:	eb00 0063 	add.w	r0, r0, r3, asr #1
    447e:	4631      	mov	r1, r6
    4480:	4790      	blx	r2
    4482:	e79e      	b.n	43c2 <AjK::MODSERIAL::isr_tx(bool)+0x22>
    4484:	f8d0 30ac 	ldr.w	r3, [r0, #172]	; 0xac
    4488:	2b00      	cmp	r3, #0
    448a:	d0c4      	beq.n	4416 <AjK::MODSERIAL::isr_tx(bool)+0x76>
    448c:	f8d0 20b0 	ldr.w	r2, [r0, #176]	; 0xb0
    4490:	f8d0 00b4 	ldr.w	r0, [r0, #180]	; 0xb4
    4494:	b1ca      	cbz	r2, 44ca <AjK::MODSERIAL::isr_tx(bool)+0x12a>
    4496:	07c4      	lsls	r4, r0, #31
    4498:	d40e      	bmi.n	44b8 <AjK::MODSERIAL::isr_tx(bool)+0x118>
    449a:	eb03 0060 	add.w	r0, r3, r0, asr #1
    449e:	e7de      	b.n	445e <AjK::MODSERIAL::isr_tx(bool)+0xbe>
    44a0:	07d9      	lsls	r1, r3, #31
    44a2:	d58e      	bpl.n	43c2 <AjK::MODSERIAL::isr_tx(bool)+0x22>
    44a4:	105b      	asrs	r3, r3, #1
    44a6:	58c1      	ldr	r1, [r0, r3]
    44a8:	4418      	add	r0, r3
    44aa:	588a      	ldr	r2, [r1, r2]
    44ac:	e7e7      	b.n	447e <AjK::MODSERIAL::isr_tx(bool)+0xde>
    44ae:	105b      	asrs	r3, r3, #1
    44b0:	58c4      	ldr	r4, [r0, r3]
    44b2:	4418      	add	r0, r3
    44b4:	58a2      	ldr	r2, [r4, r2]
    44b6:	e7d2      	b.n	445e <AjK::MODSERIAL::isr_tx(bool)+0xbe>
    44b8:	1040      	asrs	r0, r0, #1
    44ba:	581c      	ldr	r4, [r3, r0]
    44bc:	4418      	add	r0, r3
    44be:	58a2      	ldr	r2, [r4, r2]
    44c0:	e7cd      	b.n	445e <AjK::MODSERIAL::isr_tx(bool)+0xbe>
    44c2:	07dd      	lsls	r5, r3, #31
    44c4:	d4f3      	bmi.n	44ae <AjK::MODSERIAL::isr_tx(bool)+0x10e>
    44c6:	e8bd 81f0 	ldmia.w	sp!, {r4, r5, r6, r7, r8, pc}
    44ca:	07c5      	lsls	r5, r0, #31
    44cc:	d4f4      	bmi.n	44b8 <AjK::MODSERIAL::isr_tx(bool)+0x118>
    44ce:	e8bd 81f0 	ldmia.w	sp!, {r4, r5, r6, r7, r8, pc}
    44d2:	bf00      	nop

000044d4 <AjK::MODSERIAL::setBase()>:
    44d4:	6883      	ldr	r3, [r0, #8]
    44d6:	2b03      	cmp	r3, #3
    44d8:	d81b      	bhi.n	4512 <AjK::MODSERIAL::setBase()+0x3e>
    44da:	e8df f003 	tbb	[pc, r3]
    44de:	0e14      	.short	0x0e14
    44e0:	0208      	.short	0x0208
    44e2:	4a0e      	ldr	r2, [pc, #56]	; (451c <AjK::MODSERIAL::setBase()+0x48>)
    44e4:	2308      	movs	r3, #8
    44e6:	65c2      	str	r2, [r0, #92]	; 0x5c
    44e8:	f880 30f8 	strb.w	r3, [r0, #248]	; 0xf8
    44ec:	4770      	bx	lr
    44ee:	4a0c      	ldr	r2, [pc, #48]	; (4520 <AjK::MODSERIAL::setBase()+0x4c>)
    44f0:	2307      	movs	r3, #7
    44f2:	65c2      	str	r2, [r0, #92]	; 0x5c
    44f4:	f880 30f8 	strb.w	r3, [r0, #248]	; 0xf8
    44f8:	4770      	bx	lr
    44fa:	4a0a      	ldr	r2, [pc, #40]	; (4524 <AjK::MODSERIAL::setBase()+0x50>)
    44fc:	2306      	movs	r3, #6
    44fe:	65c2      	str	r2, [r0, #92]	; 0x5c
    4500:	f880 30f8 	strb.w	r3, [r0, #248]	; 0xf8
    4504:	4770      	bx	lr
    4506:	4a08      	ldr	r2, [pc, #32]	; (4528 <AjK::MODSERIAL::setBase()+0x54>)
    4508:	2305      	movs	r3, #5
    450a:	65c2      	str	r2, [r0, #92]	; 0x5c
    450c:	f880 30f8 	strb.w	r3, [r0, #248]	; 0xf8
    4510:	4770      	bx	lr
    4512:	2300      	movs	r3, #0
    4514:	65c3      	str	r3, [r0, #92]	; 0x5c
    4516:	f880 30f8 	strb.w	r3, [r0, #248]	; 0xf8
    451a:	4770      	bx	lr
    451c:	4009c000 	.word	0x4009c000
    4520:	40098000 	.word	0x40098000
    4524:	40010000 	.word	0x40010000
    4528:	4000c000 	.word	0x4000c000

0000452c <AjK::MODSERIAL::initDevice()>:
    452c:	6dc3      	ldr	r3, [r0, #92]	; 0x5c
    452e:	2207      	movs	r2, #7
    4530:	721a      	strb	r2, [r3, #8]
    4532:	4770      	bx	lr

00004534 <mbed_die>:
    4534:	b500      	push	{lr}
    4536:	b099      	sub	sp, #100	; 0x64
    4538:	b672      	cpsid	i
    453a:	4917      	ldr	r1, [pc, #92]	; (4598 <mbed_die+0x64>)
    453c:	4668      	mov	r0, sp
    453e:	f000 f857 	bl	45f0 <gpio_init_out>
    4542:	a806      	add	r0, sp, #24
    4544:	4915      	ldr	r1, [pc, #84]	; (459c <mbed_die+0x68>)
    4546:	f000 f853 	bl	45f0 <gpio_init_out>
    454a:	a80c      	add	r0, sp, #48	; 0x30
    454c:	4914      	ldr	r1, [pc, #80]	; (45a0 <mbed_die+0x6c>)
    454e:	f000 f84f 	bl	45f0 <gpio_init_out>
    4552:	a812      	add	r0, sp, #72	; 0x48
    4554:	4913      	ldr	r1, [pc, #76]	; (45a4 <mbed_die+0x70>)
    4556:	f000 f84b 	bl	45f0 <gpio_init_out>
    455a:	9a03      	ldr	r2, [sp, #12]
    455c:	9901      	ldr	r1, [sp, #4]
    455e:	9b0a      	ldr	r3, [sp, #40]	; 0x28
    4560:	6011      	str	r1, [r2, #0]
    4562:	9907      	ldr	r1, [sp, #28]
    4564:	9a10      	ldr	r2, [sp, #64]	; 0x40
    4566:	6019      	str	r1, [r3, #0]
    4568:	990d      	ldr	r1, [sp, #52]	; 0x34
    456a:	9b15      	ldr	r3, [sp, #84]	; 0x54
    456c:	6011      	str	r1, [r2, #0]
    456e:	9a13      	ldr	r2, [sp, #76]	; 0x4c
    4570:	2096      	movs	r0, #150	; 0x96
    4572:	601a      	str	r2, [r3, #0]
    4574:	f000 f92a 	bl	47cc <wait_ms>
    4578:	9a04      	ldr	r2, [sp, #16]
    457a:	9901      	ldr	r1, [sp, #4]
    457c:	9b09      	ldr	r3, [sp, #36]	; 0x24
    457e:	6011      	str	r1, [r2, #0]
    4580:	9907      	ldr	r1, [sp, #28]
    4582:	9a0f      	ldr	r2, [sp, #60]	; 0x3c
    4584:	6019      	str	r1, [r3, #0]
    4586:	990d      	ldr	r1, [sp, #52]	; 0x34
    4588:	9b16      	ldr	r3, [sp, #88]	; 0x58
    458a:	6011      	str	r1, [r2, #0]
    458c:	9a13      	ldr	r2, [sp, #76]	; 0x4c
    458e:	2096      	movs	r0, #150	; 0x96
    4590:	601a      	str	r2, [r3, #0]
    4592:	f000 f91b 	bl	47cc <wait_ms>
    4596:	e7e0      	b.n	455a <mbed_die+0x26>
    4598:	2009c032 	.word	0x2009c032
    459c:	2009c034 	.word	0x2009c034
    45a0:	2009c035 	.word	0x2009c035
    45a4:	2009c037 	.word	0x2009c037

000045a8 <error>:
    45a8:	b40f      	push	{r0, r1, r2, r3}
    45aa:	b500      	push	{lr}
    45ac:	4a06      	ldr	r2, [pc, #24]	; (45c8 <error+0x20>)
    45ae:	b083      	sub	sp, #12
    45b0:	ab04      	add	r3, sp, #16
    45b2:	f853 1b04 	ldr.w	r1, [r3], #4
    45b6:	6810      	ldr	r0, [r2, #0]
    45b8:	461a      	mov	r2, r3
    45ba:	68c0      	ldr	r0, [r0, #12]
    45bc:	9301      	str	r3, [sp, #4]
    45be:	f002 ffb3 	bl	7528 <vfiprintf>
    45c2:	2001      	movs	r0, #1
    45c4:	f002 f9da 	bl	697c <exit>
    45c8:	10000198 	.word	0x10000198

000045cc <gpio_init_in>:
    45cc:	b538      	push	{r3, r4, r5, lr}
    45ce:	460d      	mov	r5, r1
    45d0:	4604      	mov	r4, r0
    45d2:	f000 f985 	bl	48e0 <gpio_init>
    45d6:	3501      	adds	r5, #1
    45d8:	d009      	beq.n	45ee <gpio_init_in+0x22>
    45da:	4620      	mov	r0, r4
    45dc:	2100      	movs	r1, #0
    45de:	f000 f9a1 	bl	4924 <gpio_dir>
    45e2:	4620      	mov	r0, r4
    45e4:	e8bd 4038 	ldmia.w	sp!, {r3, r4, r5, lr}
    45e8:	2103      	movs	r1, #3
    45ea:	f000 b997 	b.w	491c <gpio_mode>
    45ee:	bd38      	pop	{r3, r4, r5, pc}

000045f0 <gpio_init_out>:
    45f0:	b538      	push	{r3, r4, r5, lr}
    45f2:	460d      	mov	r5, r1
    45f4:	4604      	mov	r4, r0
    45f6:	f000 f973 	bl	48e0 <gpio_init>
    45fa:	3501      	adds	r5, #1
    45fc:	d00c      	beq.n	4618 <gpio_init_out+0x28>
    45fe:	6923      	ldr	r3, [r4, #16]
    4600:	6862      	ldr	r2, [r4, #4]
    4602:	4620      	mov	r0, r4
    4604:	601a      	str	r2, [r3, #0]
    4606:	2101      	movs	r1, #1
    4608:	f000 f98c 	bl	4924 <gpio_dir>
    460c:	4620      	mov	r0, r4
    460e:	e8bd 4038 	ldmia.w	sp!, {r3, r4, r5, lr}
    4612:	2102      	movs	r1, #2
    4614:	f000 b982 	b.w	491c <gpio_mode>
    4618:	bd38      	pop	{r3, r4, r5, pc}
    461a:	bf00      	nop

0000461c <gpio_init_out_ex>:
    461c:	b570      	push	{r4, r5, r6, lr}
    461e:	460d      	mov	r5, r1
    4620:	4616      	mov	r6, r2
    4622:	4604      	mov	r4, r0
    4624:	f000 f95c 	bl	48e0 <gpio_init>
    4628:	3501      	adds	r5, #1
    462a:	d011      	beq.n	4650 <gpio_init_out_ex+0x34>
    462c:	b966      	cbnz	r6, 4648 <gpio_init_out_ex+0x2c>
    462e:	6923      	ldr	r3, [r4, #16]
    4630:	6862      	ldr	r2, [r4, #4]
    4632:	601a      	str	r2, [r3, #0]
    4634:	4620      	mov	r0, r4
    4636:	2101      	movs	r1, #1
    4638:	f000 f974 	bl	4924 <gpio_dir>
    463c:	4620      	mov	r0, r4
    463e:	e8bd 4070 	ldmia.w	sp!, {r4, r5, r6, lr}
    4642:	2102      	movs	r1, #2
    4644:	f000 b96a 	b.w	491c <gpio_mode>
    4648:	68e3      	ldr	r3, [r4, #12]
    464a:	6862      	ldr	r2, [r4, #4]
    464c:	601a      	str	r2, [r3, #0]
    464e:	e7f1      	b.n	4634 <gpio_init_out_ex+0x18>
    4650:	bd70      	pop	{r4, r5, r6, pc}
    4652:	bf00      	nop

00004654 <mbed_interface_connected>:
    4654:	f000 b866 	b.w	4724 <semihost_connected>

00004658 <pinmap_pinout>:
    4658:	1c43      	adds	r3, r0, #1
    465a:	b510      	push	{r4, lr}
    465c:	4604      	mov	r4, r0
    465e:	d018      	beq.n	4692 <pinmap_pinout+0x3a>
    4660:	680b      	ldr	r3, [r1, #0]
    4662:	1c58      	adds	r0, r3, #1
    4664:	d104      	bne.n	4670 <pinmap_pinout+0x18>
    4666:	e00f      	b.n	4688 <pinmap_pinout+0x30>
    4668:	f851 3f0c 	ldr.w	r3, [r1, #12]!
    466c:	1c5a      	adds	r2, r3, #1
    466e:	d00b      	beq.n	4688 <pinmap_pinout+0x30>
    4670:	429c      	cmp	r4, r3
    4672:	d1f9      	bne.n	4668 <pinmap_pinout+0x10>
    4674:	4620      	mov	r0, r4
    4676:	6889      	ldr	r1, [r1, #8]
    4678:	f000 f966 	bl	4948 <pin_function>
    467c:	4620      	mov	r0, r4
    467e:	e8bd 4010 	ldmia.w	sp!, {r4, lr}
    4682:	2102      	movs	r1, #2
    4684:	f000 b97c 	b.w	4980 <pin_mode>
    4688:	4802      	ldr	r0, [pc, #8]	; (4694 <pinmap_pinout+0x3c>)
    468a:	e8bd 4010 	ldmia.w	sp!, {r4, lr}
    468e:	f7ff bf8b 	b.w	45a8 <error>
    4692:	bd10      	pop	{r4, pc}
    4694:	000090cc 	.word	0x000090cc

00004698 <pinmap_merge>:
    4698:	4288      	cmp	r0, r1
    469a:	d00a      	beq.n	46b2 <pinmap_merge+0x1a>
    469c:	1c42      	adds	r2, r0, #1
    469e:	d009      	beq.n	46b4 <pinmap_merge+0x1c>
    46a0:	3101      	adds	r1, #1
    46a2:	d006      	beq.n	46b2 <pinmap_merge+0x1a>
    46a4:	b508      	push	{r3, lr}
    46a6:	4804      	ldr	r0, [pc, #16]	; (46b8 <pinmap_merge+0x20>)
    46a8:	f7ff ff7e 	bl	45a8 <error>
    46ac:	f04f 30ff 	mov.w	r0, #4294967295
    46b0:	bd08      	pop	{r3, pc}
    46b2:	4770      	bx	lr
    46b4:	4608      	mov	r0, r1
    46b6:	4770      	bx	lr
    46b8:	000090e0 	.word	0x000090e0

000046bc <pinmap_find_peripheral>:
    46bc:	680b      	ldr	r3, [r1, #0]
    46be:	1c5a      	adds	r2, r3, #1
    46c0:	d104      	bne.n	46cc <pinmap_find_peripheral+0x10>
    46c2:	e007      	b.n	46d4 <pinmap_find_peripheral+0x18>
    46c4:	f851 3f0c 	ldr.w	r3, [r1, #12]!
    46c8:	1c5a      	adds	r2, r3, #1
    46ca:	d003      	beq.n	46d4 <pinmap_find_peripheral+0x18>
    46cc:	4283      	cmp	r3, r0
    46ce:	d1f9      	bne.n	46c4 <pinmap_find_peripheral+0x8>
    46d0:	6848      	ldr	r0, [r1, #4]
    46d2:	4770      	bx	lr
    46d4:	4618      	mov	r0, r3
    46d6:	4770      	bx	lr

000046d8 <pinmap_peripheral>:
    46d8:	1c42      	adds	r2, r0, #1
    46da:	d00e      	beq.n	46fa <pinmap_peripheral+0x22>
    46dc:	b508      	push	{r3, lr}
    46de:	680b      	ldr	r3, [r1, #0]
    46e0:	1c5a      	adds	r2, r3, #1
    46e2:	d104      	bne.n	46ee <pinmap_peripheral+0x16>
    46e4:	e00a      	b.n	46fc <pinmap_peripheral+0x24>
    46e6:	f851 3f0c 	ldr.w	r3, [r1, #12]!
    46ea:	1c5a      	adds	r2, r3, #1
    46ec:	d006      	beq.n	46fc <pinmap_peripheral+0x24>
    46ee:	4298      	cmp	r0, r3
    46f0:	d1f9      	bne.n	46e6 <pinmap_peripheral+0xe>
    46f2:	6848      	ldr	r0, [r1, #4]
    46f4:	1c41      	adds	r1, r0, #1
    46f6:	d001      	beq.n	46fc <pinmap_peripheral+0x24>
    46f8:	bd08      	pop	{r3, pc}
    46fa:	4770      	bx	lr
    46fc:	4802      	ldr	r0, [pc, #8]	; (4708 <pinmap_peripheral+0x30>)
    46fe:	f7ff ff53 	bl	45a8 <error>
    4702:	f04f 30ff 	mov.w	r0, #4294967295
    4706:	e7f7      	b.n	46f8 <pinmap_peripheral+0x20>
    4708:	000090f4 	.word	0x000090f4

0000470c <semihost_exit>:
    470c:	b530      	push	{r4, r5, lr}
    470e:	b085      	sub	sp, #20
    4710:	2418      	movs	r4, #24
    4712:	466d      	mov	r5, sp
    4714:	4620      	mov	r0, r4
    4716:	4629      	mov	r1, r5
    4718:	beab      	bkpt	0x00ab
    471a:	4604      	mov	r4, r0
    471c:	4620      	mov	r0, r4
    471e:	b005      	add	sp, #20
    4720:	bd30      	pop	{r4, r5, pc}
    4722:	bf00      	nop

00004724 <semihost_connected>:
    4724:	4b02      	ldr	r3, [pc, #8]	; (4730 <semihost_connected+0xc>)
    4726:	6818      	ldr	r0, [r3, #0]
    4728:	f000 0001 	and.w	r0, r0, #1
    472c:	4770      	bx	lr
    472e:	bf00      	nop
    4730:	e000edf0 	.word	0xe000edf0

00004734 <ticker_irq_handler>:
    4734:	6803      	ldr	r3, [r0, #0]
    4736:	b570      	push	{r4, r5, r6, lr}
    4738:	68db      	ldr	r3, [r3, #12]
    473a:	4605      	mov	r5, r0
    473c:	4798      	blx	r3
    473e:	686b      	ldr	r3, [r5, #4]
    4740:	685b      	ldr	r3, [r3, #4]
    4742:	b183      	cbz	r3, 4766 <ticker_irq_handler+0x32>
    4744:	682a      	ldr	r2, [r5, #0]
    4746:	681c      	ldr	r4, [r3, #0]
    4748:	6853      	ldr	r3, [r2, #4]
    474a:	4798      	blx	r3
    474c:	1a20      	subs	r0, r4, r0
    474e:	2800      	cmp	r0, #0
    4750:	686a      	ldr	r2, [r5, #4]
    4752:	dc0d      	bgt.n	4770 <ticker_irq_handler+0x3c>
    4754:	6850      	ldr	r0, [r2, #4]
    4756:	6811      	ldr	r1, [r2, #0]
    4758:	6883      	ldr	r3, [r0, #8]
    475a:	6053      	str	r3, [r2, #4]
    475c:	2900      	cmp	r1, #0
    475e:	d0f0      	beq.n	4742 <ticker_irq_handler+0xe>
    4760:	6840      	ldr	r0, [r0, #4]
    4762:	4788      	blx	r1
    4764:	e7eb      	b.n	473e <ticker_irq_handler+0xa>
    4766:	682b      	ldr	r3, [r5, #0]
    4768:	e8bd 4070 	ldmia.w	sp!, {r4, r5, r6, lr}
    476c:	689b      	ldr	r3, [r3, #8]
    476e:	4718      	bx	r3
    4770:	682b      	ldr	r3, [r5, #0]
    4772:	6852      	ldr	r2, [r2, #4]
    4774:	691b      	ldr	r3, [r3, #16]
    4776:	6810      	ldr	r0, [r2, #0]
    4778:	e8bd 4070 	ldmia.w	sp!, {r4, r5, r6, lr}
    477c:	4718      	bx	r3
    477e:	bf00      	nop

00004780 <ticker_read>:
    4780:	6803      	ldr	r3, [r0, #0]
    4782:	685b      	ldr	r3, [r3, #4]
    4784:	4718      	bx	r3
    4786:	bf00      	nop

00004788 <get_us_ticker_data>:
    4788:	4800      	ldr	r0, [pc, #0]	; (478c <get_us_ticker_data+0x4>)
    478a:	4770      	bx	lr
    478c:	00009148 	.word	0x00009148

00004790 <us_ticker_irq_handler>:
    4790:	4801      	ldr	r0, [pc, #4]	; (4798 <us_ticker_irq_handler+0x8>)
    4792:	f7ff bfcf 	b.w	4734 <ticker_irq_handler>
    4796:	bf00      	nop
    4798:	00009148 	.word	0x00009148

0000479c <wait_us>:
    479c:	b538      	push	{r3, r4, r5, lr}
    479e:	4605      	mov	r5, r0
    47a0:	f000 fd62 	bl	5268 <us_ticker_read>
    47a4:	4604      	mov	r4, r0
    47a6:	f000 fd5f 	bl	5268 <us_ticker_read>
    47aa:	1b00      	subs	r0, r0, r4
    47ac:	42a8      	cmp	r0, r5
    47ae:	d3fa      	bcc.n	47a6 <wait_us+0xa>
    47b0:	bd38      	pop	{r3, r4, r5, pc}
    47b2:	bf00      	nop

000047b4 <wait>:
    47b4:	b508      	push	{r3, lr}
    47b6:	4904      	ldr	r1, [pc, #16]	; (47c8 <wait+0x14>)
    47b8:	f001 fee0 	bl	657c <__aeabi_fmul>
    47bc:	f002 f8a4 	bl	6908 <__aeabi_f2iz>
    47c0:	e8bd 4008 	ldmia.w	sp!, {r3, lr}
    47c4:	f7ff bfea 	b.w	479c <wait_us>
    47c8:	49742400 	.word	0x49742400

000047cc <wait_ms>:
    47cc:	f44f 737a 	mov.w	r3, #1000	; 0x3e8
    47d0:	fb03 f000 	mul.w	r0, r3, r0
    47d4:	f7ff bfe2 	b.w	479c <wait_us>

000047d8 <NVIC_SetVector>:
    47d8:	4b0c      	ldr	r3, [pc, #48]	; (480c <NVIC_SetVector+0x34>)
    47da:	b430      	push	{r4, r5}
    47dc:	689d      	ldr	r5, [r3, #8]
    47de:	689a      	ldr	r2, [r3, #8]
    47e0:	462b      	mov	r3, r5
    47e2:	f1b2 5f80 	cmp.w	r2, #268435456	; 0x10000000
    47e6:	d20c      	bcs.n	4802 <NVIC_SetVector+0x2a>
    47e8:	4a09      	ldr	r2, [pc, #36]	; (4810 <NVIC_SetVector+0x38>)
    47ea:	35c4      	adds	r5, #196	; 0xc4
    47ec:	f853 4b04 	ldr.w	r4, [r3], #4
    47f0:	42ab      	cmp	r3, r5
    47f2:	f842 4f04 	str.w	r4, [r2, #4]!
    47f6:	d1f9      	bne.n	47ec <NVIC_SetVector+0x14>
    47f8:	f04f 5280 	mov.w	r2, #268435456	; 0x10000000
    47fc:	4613      	mov	r3, r2
    47fe:	4c03      	ldr	r4, [pc, #12]	; (480c <NVIC_SetVector+0x34>)
    4800:	60a2      	str	r2, [r4, #8]
    4802:	3010      	adds	r0, #16
    4804:	f843 1020 	str.w	r1, [r3, r0, lsl #2]
    4808:	bc30      	pop	{r4, r5}
    480a:	4770      	bx	lr
    480c:	e000ed00 	.word	0xe000ed00
    4810:	0ffffffc 	.word	0x0ffffffc

00004814 <SystemInit>:
    4814:	4a2b      	ldr	r2, [pc, #172]	; (48c4 <SystemInit+0xb0>)
    4816:	2320      	movs	r3, #32
    4818:	b4f0      	push	{r4, r5, r6, r7}
    481a:	f8c2 31a0 	str.w	r3, [r2, #416]	; 0x1a0
    481e:	f8d2 31a0 	ldr.w	r3, [r2, #416]	; 0x1a0
    4822:	0698      	lsls	r0, r3, #26
    4824:	d445      	bmi.n	48b2 <SystemInit+0x9e>
    4826:	4b27      	ldr	r3, [pc, #156]	; (48c4 <SystemInit+0xb0>)
    4828:	2500      	movs	r5, #0
    482a:	4619      	mov	r1, r3
    482c:	2401      	movs	r4, #1
    482e:	20aa      	movs	r0, #170	; 0xaa
    4830:	2255      	movs	r2, #85	; 0x55
    4832:	2702      	movs	r7, #2
    4834:	260b      	movs	r6, #11
    4836:	f8c3 7104 	str.w	r7, [r3, #260]	; 0x104
    483a:	f8c3 51a8 	str.w	r5, [r3, #424]	; 0x1a8
    483e:	f8c3 51ac 	str.w	r5, [r3, #428]	; 0x1ac
    4842:	f8c3 410c 	str.w	r4, [r3, #268]	; 0x10c
    4846:	f8c3 6084 	str.w	r6, [r3, #132]	; 0x84
    484a:	f8c3 008c 	str.w	r0, [r3, #140]	; 0x8c
    484e:	f8c3 208c 	str.w	r2, [r3, #140]	; 0x8c
    4852:	f8c3 4080 	str.w	r4, [r3, #128]	; 0x80
    4856:	f8c3 008c 	str.w	r0, [r3, #140]	; 0x8c
    485a:	f8c3 208c 	str.w	r2, [r3, #140]	; 0x8c
    485e:	f8d1 3088 	ldr.w	r3, [r1, #136]	; 0x88
    4862:	4a18      	ldr	r2, [pc, #96]	; (48c4 <SystemInit+0xb0>)
    4864:	015b      	lsls	r3, r3, #5
    4866:	d5fa      	bpl.n	485e <SystemInit+0x4a>
    4868:	4611      	mov	r1, r2
    486a:	2403      	movs	r4, #3
    486c:	20aa      	movs	r0, #170	; 0xaa
    486e:	2355      	movs	r3, #85	; 0x55
    4870:	f8c2 4080 	str.w	r4, [r2, #128]	; 0x80
    4874:	f8c2 008c 	str.w	r0, [r2, #140]	; 0x8c
    4878:	f8c2 308c 	str.w	r3, [r2, #140]	; 0x8c
    487c:	f8d1 3088 	ldr.w	r3, [r1, #136]	; 0x88
    4880:	4a10      	ldr	r2, [pc, #64]	; (48c4 <SystemInit+0xb0>)
    4882:	f013 7f40 	tst.w	r3, #50331648	; 0x3000000
    4886:	d0f9      	beq.n	487c <SystemInit+0x68>
    4888:	490f      	ldr	r1, [pc, #60]	; (48c8 <SystemInit+0xb4>)
    488a:	2300      	movs	r3, #0
    488c:	2005      	movs	r0, #5
    488e:	f8c2 0108 	str.w	r0, [r2, #264]	; 0x108
    4892:	f8c2 10c4 	str.w	r1, [r2, #196]	; 0xc4
    4896:	f8c2 31c8 	str.w	r3, [r2, #456]	; 0x1c8
    489a:	6813      	ldr	r3, [r2, #0]
    489c:	bcf0      	pop	{r4, r5, r6, r7}
    489e:	f423 4370 	bic.w	r3, r3, #61440	; 0xf000
    48a2:	f023 033a 	bic.w	r3, r3, #58	; 0x3a
    48a6:	f443 5340 	orr.w	r3, r3, #12288	; 0x3000
    48aa:	f043 033a 	orr.w	r3, r3, #58	; 0x3a
    48ae:	6013      	str	r3, [r2, #0]
    48b0:	4770      	bx	lr
    48b2:	f8d2 31a0 	ldr.w	r3, [r2, #416]	; 0x1a0
    48b6:	0659      	lsls	r1, r3, #25
    48b8:	d4b5      	bmi.n	4826 <SystemInit+0x12>
    48ba:	f8d2 31a0 	ldr.w	r3, [r2, #416]	; 0x1a0
    48be:	0659      	lsls	r1, r3, #25
    48c0:	d5f7      	bpl.n	48b2 <SystemInit+0x9e>
    48c2:	e7b0      	b.n	4826 <SystemInit+0x12>
    48c4:	400fc000 	.word	0x400fc000
    48c8:	042887de 	.word	0x042887de

000048cc <gpio_set>:
    48cc:	b510      	push	{r4, lr}
    48ce:	4604      	mov	r4, r0
    48d0:	2100      	movs	r1, #0
    48d2:	f000 f839 	bl	4948 <pin_function>
    48d6:	f004 041f 	and.w	r4, r4, #31
    48da:	2001      	movs	r0, #1
    48dc:	40a0      	lsls	r0, r4
    48de:	bd10      	pop	{r4, pc}

000048e0 <gpio_init>:
    48e0:	1c4a      	adds	r2, r1, #1
    48e2:	6001      	str	r1, [r0, #0]
    48e4:	d018      	beq.n	4918 <gpio_init+0x38>
    48e6:	b538      	push	{r3, r4, r5, lr}
    48e8:	460c      	mov	r4, r1
    48ea:	4605      	mov	r5, r0
    48ec:	4608      	mov	r0, r1
    48ee:	2100      	movs	r1, #0
    48f0:	f000 f82a 	bl	4948 <pin_function>
    48f4:	f024 011f 	bic.w	r1, r4, #31
    48f8:	f004 021f 	and.w	r2, r4, #31
    48fc:	2301      	movs	r3, #1
    48fe:	4093      	lsls	r3, r2
    4900:	f101 0418 	add.w	r4, r1, #24
    4904:	f101 001c 	add.w	r0, r1, #28
    4908:	f101 0214 	add.w	r2, r1, #20
    490c:	60a9      	str	r1, [r5, #8]
    490e:	606b      	str	r3, [r5, #4]
    4910:	60ec      	str	r4, [r5, #12]
    4912:	6128      	str	r0, [r5, #16]
    4914:	616a      	str	r2, [r5, #20]
    4916:	bd38      	pop	{r3, r4, r5, pc}
    4918:	4770      	bx	lr
    491a:	bf00      	nop

0000491c <gpio_mode>:
    491c:	6800      	ldr	r0, [r0, #0]
    491e:	f000 b82f 	b.w	4980 <pin_mode>
    4922:	bf00      	nop

00004924 <gpio_dir>:
    4924:	b141      	cbz	r1, 4938 <gpio_dir+0x14>
    4926:	2901      	cmp	r1, #1
    4928:	d105      	bne.n	4936 <gpio_dir+0x12>
    492a:	6882      	ldr	r2, [r0, #8]
    492c:	6843      	ldr	r3, [r0, #4]
    492e:	6811      	ldr	r1, [r2, #0]
    4930:	430b      	orrs	r3, r1
    4932:	6013      	str	r3, [r2, #0]
    4934:	4770      	bx	lr
    4936:	4770      	bx	lr
    4938:	6882      	ldr	r2, [r0, #8]
    493a:	6841      	ldr	r1, [r0, #4]
    493c:	6813      	ldr	r3, [r2, #0]
    493e:	ea23 0301 	bic.w	r3, r3, r1
    4942:	6013      	str	r3, [r2, #0]
    4944:	4770      	bx	lr
    4946:	bf00      	nop

00004948 <pin_function>:
    4948:	f100 4060 	add.w	r0, r0, #3758096384	; 0xe0000000
    494c:	f5a0 201c 	sub.w	r0, r0, #638976	; 0x9c000
    4950:	0903      	lsrs	r3, r0, #4
    4952:	009b      	lsls	r3, r3, #2
    4954:	f103 4380 	add.w	r3, r3, #1073741824	; 0x40000000
    4958:	f503 3330 	add.w	r3, r3, #180224	; 0x2c000
    495c:	f000 000f 	and.w	r0, r0, #15
    4960:	b410      	push	{r4}
    4962:	0040      	lsls	r0, r0, #1
    4964:	681c      	ldr	r4, [r3, #0]
    4966:	2203      	movs	r2, #3
    4968:	4082      	lsls	r2, r0
    496a:	ea24 0202 	bic.w	r2, r4, r2
    496e:	601a      	str	r2, [r3, #0]
    4970:	681a      	ldr	r2, [r3, #0]
    4972:	4081      	lsls	r1, r0
    4974:	430a      	orrs	r2, r1
    4976:	601a      	str	r2, [r3, #0]
    4978:	f85d 4b04 	ldr.w	r4, [sp], #4
    497c:	4770      	bx	lr
    497e:	bf00      	nop

00004980 <pin_mode>:
    4980:	f100 4060 	add.w	r0, r0, #3758096384	; 0xe0000000
    4984:	f5a0 201c 	sub.w	r0, r0, #638976	; 0x9c000
    4988:	0943      	lsrs	r3, r0, #5
    498a:	009b      	lsls	r3, r3, #2
    498c:	f103 4380 	add.w	r3, r3, #1073741824	; 0x40000000
    4990:	f503 3330 	add.w	r3, r3, #180224	; 0x2c000
    4994:	b430      	push	{r4, r5}
    4996:	f000 021f 	and.w	r2, r0, #31
    499a:	6e9c      	ldr	r4, [r3, #104]	; 0x68
    499c:	f3c1 0580 	ubfx	r5, r1, #2, #1
    49a0:	fa05 f202 	lsl.w	r2, r5, r2
    49a4:	ea24 0402 	bic.w	r4, r4, r2
    49a8:	669c      	str	r4, [r3, #104]	; 0x68
    49aa:	6e9c      	ldr	r4, [r3, #104]	; 0x68
    49ac:	4322      	orrs	r2, r4
    49ae:	669a      	str	r2, [r3, #104]	; 0x68
    49b0:	b995      	cbnz	r5, 49d8 <pin_mode+0x58>
    49b2:	0903      	lsrs	r3, r0, #4
    49b4:	009b      	lsls	r3, r3, #2
    49b6:	f103 4380 	add.w	r3, r3, #1073741824	; 0x40000000
    49ba:	f503 3330 	add.w	r3, r3, #180224	; 0x2c000
    49be:	f000 000f 	and.w	r0, r0, #15
    49c2:	6c1c      	ldr	r4, [r3, #64]	; 0x40
    49c4:	0040      	lsls	r0, r0, #1
    49c6:	2203      	movs	r2, #3
    49c8:	4082      	lsls	r2, r0
    49ca:	ea24 0202 	bic.w	r2, r4, r2
    49ce:	641a      	str	r2, [r3, #64]	; 0x40
    49d0:	6c1a      	ldr	r2, [r3, #64]	; 0x40
    49d2:	4081      	lsls	r1, r0
    49d4:	4311      	orrs	r1, r2
    49d6:	6419      	str	r1, [r3, #64]	; 0x40
    49d8:	bc30      	pop	{r4, r5}
    49da:	4770      	bx	lr

000049dc <uart2_irq>:
    49dc:	4b17      	ldr	r3, [pc, #92]	; (4a3c <uart2_irq+0x60>)
    49de:	6899      	ldr	r1, [r3, #8]
    49e0:	f3c1 0142 	ubfx	r1, r1, #1, #3
    49e4:	2901      	cmp	r1, #1
    49e6:	d018      	beq.n	4a1a <uart2_irq+0x3e>
    49e8:	2902      	cmp	r1, #2
    49ea:	d114      	bne.n	4a16 <uart2_irq+0x3a>
    49ec:	4a14      	ldr	r2, [pc, #80]	; (4a40 <uart2_irq+0x64>)
    49ee:	6f51      	ldr	r1, [r2, #116]	; 0x74
    49f0:	3101      	adds	r1, #1
    49f2:	d006      	beq.n	4a02 <uart2_irq+0x26>
    49f4:	f8d2 1080 	ldr.w	r1, [r2, #128]	; 0x80
    49f8:	6f90      	ldr	r0, [r2, #120]	; 0x78
    49fa:	6008      	str	r0, [r1, #0]
    49fc:	f892 10a6 	ldrb.w	r1, [r2, #166]	; 0xa6
    4a00:	b191      	cbz	r1, 4a28 <uart2_irq+0x4c>
    4a02:	6f10      	ldr	r0, [r2, #112]	; 0x70
    4a04:	4b0e      	ldr	r3, [pc, #56]	; (4a40 <uart2_irq+0x64>)
    4a06:	b1b8      	cbz	r0, 4a38 <uart2_irq+0x5c>
    4a08:	f893 30a6 	ldrb.w	r3, [r3, #166]	; 0xa6
    4a0c:	b123      	cbz	r3, 4a18 <uart2_irq+0x3c>
    4a0e:	4b0d      	ldr	r3, [pc, #52]	; (4a44 <uart2_irq+0x68>)
    4a10:	2100      	movs	r1, #0
    4a12:	681b      	ldr	r3, [r3, #0]
    4a14:	4718      	bx	r3
    4a16:	4770      	bx	lr
    4a18:	4770      	bx	lr
    4a1a:	4b09      	ldr	r3, [pc, #36]	; (4a40 <uart2_irq+0x64>)
    4a1c:	6f18      	ldr	r0, [r3, #112]	; 0x70
    4a1e:	2800      	cmp	r0, #0
    4a20:	d0fa      	beq.n	4a18 <uart2_irq+0x3c>
    4a22:	4b08      	ldr	r3, [pc, #32]	; (4a44 <uart2_irq+0x68>)
    4a24:	681b      	ldr	r3, [r3, #0]
    4a26:	4718      	bx	r3
    4a28:	6859      	ldr	r1, [r3, #4]
    4a2a:	f021 0101 	bic.w	r1, r1, #1
    4a2e:	6059      	str	r1, [r3, #4]
    4a30:	6f10      	ldr	r0, [r2, #112]	; 0x70
    4a32:	4b03      	ldr	r3, [pc, #12]	; (4a40 <uart2_irq+0x64>)
    4a34:	2800      	cmp	r0, #0
    4a36:	d1e7      	bne.n	4a08 <uart2_irq+0x2c>
    4a38:	4770      	bx	lr
    4a3a:	bf00      	nop
    4a3c:	40098000 	.word	0x40098000
    4a40:	10000950 	.word	0x10000950
    4a44:	1000094c 	.word	0x1000094c

00004a48 <serial_irq_set_internal>:
    4a48:	b570      	push	{r4, r5, r6, lr}
    4a4a:	6803      	ldr	r3, [r0, #0]
    4a4c:	4c28      	ldr	r4, [pc, #160]	; (4af0 <serial_irq_set_internal+0xa8>)
    4a4e:	42a3      	cmp	r3, r4
    4a50:	d047      	beq.n	4ae2 <serial_irq_set_internal+0x9a>
    4a52:	dd3f      	ble.n	4ad4 <serial_irq_set_internal+0x8c>
    4a54:	4c27      	ldr	r4, [pc, #156]	; (4af4 <serial_irq_set_internal+0xac>)
    4a56:	42a3      	cmp	r3, r4
    4a58:	d029      	beq.n	4aae <serial_irq_set_internal+0x66>
    4a5a:	f504 4480 	add.w	r4, r4, #16384	; 0x4000
    4a5e:	42a3      	cmp	r3, r4
    4a60:	d142      	bne.n	4ae8 <serial_irq_set_internal+0xa0>
    4a62:	4c25      	ldr	r4, [pc, #148]	; (4af8 <serial_irq_set_internal+0xb0>)
    4a64:	2608      	movs	r6, #8
    4a66:	bb32      	cbnz	r2, 4ab6 <serial_irq_set_internal+0x6e>
    4a68:	2901      	cmp	r1, #1
    4a6a:	d00b      	beq.n	4a84 <serial_irq_set_internal+0x3c>
    4a6c:	6842      	ldr	r2, [r0, #4]
    4a6e:	4c23      	ldr	r4, [pc, #140]	; (4afc <serial_irq_set_internal+0xb4>)
    4a70:	ebc2 02c2 	rsb	r2, r2, r2, lsl #3
    4a74:	eb04 02c2 	add.w	r2, r4, r2, lsl #3
    4a78:	f892 4036 	ldrb.w	r4, [r2, #54]	; 0x36
    4a7c:	3230      	adds	r2, #48	; 0x30
    4a7e:	7952      	ldrb	r2, [r2, #5]
    4a80:	42d4      	cmn	r4, r2
    4a82:	d113      	bne.n	4aac <serial_irq_set_internal+0x64>
    4a84:	fab1 f481 	clz	r4, r1
    4a88:	685d      	ldr	r5, [r3, #4]
    4a8a:	2201      	movs	r2, #1
    4a8c:	fa02 f101 	lsl.w	r1, r2, r1
    4a90:	ea25 0101 	bic.w	r1, r5, r1
    4a94:	6059      	str	r1, [r3, #4]
    4a96:	6803      	ldr	r3, [r0, #0]
    4a98:	0964      	lsrs	r4, r4, #5
    4a9a:	685b      	ldr	r3, [r3, #4]
    4a9c:	fa02 f104 	lsl.w	r1, r2, r4
    4aa0:	4219      	tst	r1, r3
    4aa2:	d103      	bne.n	4aac <serial_irq_set_internal+0x64>
    4aa4:	4b16      	ldr	r3, [pc, #88]	; (4b00 <serial_irq_set_internal+0xb8>)
    4aa6:	40b2      	lsls	r2, r6
    4aa8:	f8c3 2080 	str.w	r2, [r3, #128]	; 0x80
    4aac:	bd70      	pop	{r4, r5, r6, pc}
    4aae:	4c15      	ldr	r4, [pc, #84]	; (4b04 <serial_irq_set_internal+0xbc>)
    4ab0:	2607      	movs	r6, #7
    4ab2:	2a00      	cmp	r2, #0
    4ab4:	d0d8      	beq.n	4a68 <serial_irq_set_internal+0x20>
    4ab6:	685a      	ldr	r2, [r3, #4]
    4ab8:	2501      	movs	r5, #1
    4aba:	fa05 f101 	lsl.w	r1, r5, r1
    4abe:	430a      	orrs	r2, r1
    4ac0:	b276      	sxtb	r6, r6
    4ac2:	605a      	str	r2, [r3, #4]
    4ac4:	4621      	mov	r1, r4
    4ac6:	4630      	mov	r0, r6
    4ac8:	f7ff fe86 	bl	47d8 <NVIC_SetVector>
    4acc:	4b0c      	ldr	r3, [pc, #48]	; (4b00 <serial_irq_set_internal+0xb8>)
    4ace:	40b5      	lsls	r5, r6
    4ad0:	601d      	str	r5, [r3, #0]
    4ad2:	bd70      	pop	{r4, r5, r6, pc}
    4ad4:	f5a4 4480 	sub.w	r4, r4, #16384	; 0x4000
    4ad8:	42a3      	cmp	r3, r4
    4ada:	d105      	bne.n	4ae8 <serial_irq_set_internal+0xa0>
    4adc:	4c0a      	ldr	r4, [pc, #40]	; (4b08 <serial_irq_set_internal+0xc0>)
    4ade:	2605      	movs	r6, #5
    4ae0:	e7c1      	b.n	4a66 <serial_irq_set_internal+0x1e>
    4ae2:	4c0a      	ldr	r4, [pc, #40]	; (4b0c <serial_irq_set_internal+0xc4>)
    4ae4:	2606      	movs	r6, #6
    4ae6:	e7be      	b.n	4a66 <serial_irq_set_internal+0x1e>
    4ae8:	2400      	movs	r4, #0
    4aea:	4626      	mov	r6, r4
    4aec:	e7bb      	b.n	4a66 <serial_irq_set_internal+0x1e>
    4aee:	bf00      	nop
    4af0:	40010000 	.word	0x40010000
    4af4:	40098000 	.word	0x40098000
    4af8:	00004b11 	.word	0x00004b11
    4afc:	10000950 	.word	0x10000950
    4b00:	e000e100 	.word	0xe000e100
    4b04:	000049dd 	.word	0x000049dd
    4b08:	00004b85 	.word	0x00004b85
    4b0c:	00004bed 	.word	0x00004bed

00004b10 <uart3_irq>:
    4b10:	4b19      	ldr	r3, [pc, #100]	; (4b78 <uart3_irq+0x68>)
    4b12:	6899      	ldr	r1, [r3, #8]
    4b14:	f3c1 0142 	ubfx	r1, r1, #1, #3
    4b18:	2901      	cmp	r1, #1
    4b1a:	d01b      	beq.n	4b54 <uart3_irq+0x44>
    4b1c:	2902      	cmp	r1, #2
    4b1e:	d117      	bne.n	4b50 <uart3_irq+0x40>
    4b20:	4a16      	ldr	r2, [pc, #88]	; (4b7c <uart3_irq+0x6c>)
    4b22:	f8d2 10ac 	ldr.w	r1, [r2, #172]	; 0xac
    4b26:	3101      	adds	r1, #1
    4b28:	d007      	beq.n	4b3a <uart3_irq+0x2a>
    4b2a:	f8d2 10b8 	ldr.w	r1, [r2, #184]	; 0xb8
    4b2e:	f8d2 00b0 	ldr.w	r0, [r2, #176]	; 0xb0
    4b32:	6008      	str	r0, [r1, #0]
    4b34:	f892 10de 	ldrb.w	r1, [r2, #222]	; 0xde
    4b38:	b1a1      	cbz	r1, 4b64 <uart3_irq+0x54>
    4b3a:	f8d2 00a8 	ldr.w	r0, [r2, #168]	; 0xa8
    4b3e:	4b0f      	ldr	r3, [pc, #60]	; (4b7c <uart3_irq+0x6c>)
    4b40:	b1c8      	cbz	r0, 4b76 <uart3_irq+0x66>
    4b42:	f893 30de 	ldrb.w	r3, [r3, #222]	; 0xde
    4b46:	b123      	cbz	r3, 4b52 <uart3_irq+0x42>
    4b48:	4b0d      	ldr	r3, [pc, #52]	; (4b80 <uart3_irq+0x70>)
    4b4a:	2100      	movs	r1, #0
    4b4c:	681b      	ldr	r3, [r3, #0]
    4b4e:	4718      	bx	r3
    4b50:	4770      	bx	lr
    4b52:	4770      	bx	lr
    4b54:	4b09      	ldr	r3, [pc, #36]	; (4b7c <uart3_irq+0x6c>)
    4b56:	f8d3 00a8 	ldr.w	r0, [r3, #168]	; 0xa8
    4b5a:	2800      	cmp	r0, #0
    4b5c:	d0f9      	beq.n	4b52 <uart3_irq+0x42>
    4b5e:	4b08      	ldr	r3, [pc, #32]	; (4b80 <uart3_irq+0x70>)
    4b60:	681b      	ldr	r3, [r3, #0]
    4b62:	4718      	bx	r3
    4b64:	6859      	ldr	r1, [r3, #4]
    4b66:	f021 0101 	bic.w	r1, r1, #1
    4b6a:	6059      	str	r1, [r3, #4]
    4b6c:	f8d2 00a8 	ldr.w	r0, [r2, #168]	; 0xa8
    4b70:	4b02      	ldr	r3, [pc, #8]	; (4b7c <uart3_irq+0x6c>)
    4b72:	2800      	cmp	r0, #0
    4b74:	d1e5      	bne.n	4b42 <uart3_irq+0x32>
    4b76:	4770      	bx	lr
    4b78:	4009c000 	.word	0x4009c000
    4b7c:	10000950 	.word	0x10000950
    4b80:	1000094c 	.word	0x1000094c

00004b84 <uart0_irq>:
    4b84:	4b16      	ldr	r3, [pc, #88]	; (4be0 <uart0_irq+0x5c>)
    4b86:	6899      	ldr	r1, [r3, #8]
    4b88:	f3c1 0142 	ubfx	r1, r1, #1, #3
    4b8c:	2901      	cmp	r1, #1
    4b8e:	d017      	beq.n	4bc0 <uart0_irq+0x3c>
    4b90:	2902      	cmp	r1, #2
    4b92:	d113      	bne.n	4bbc <uart0_irq+0x38>
    4b94:	4a13      	ldr	r2, [pc, #76]	; (4be4 <uart0_irq+0x60>)
    4b96:	6851      	ldr	r1, [r2, #4]
    4b98:	3101      	adds	r1, #1
    4b9a:	d005      	beq.n	4ba8 <uart0_irq+0x24>
    4b9c:	6911      	ldr	r1, [r2, #16]
    4b9e:	6890      	ldr	r0, [r2, #8]
    4ba0:	6008      	str	r0, [r1, #0]
    4ba2:	f892 1036 	ldrb.w	r1, [r2, #54]	; 0x36
    4ba6:	b191      	cbz	r1, 4bce <uart0_irq+0x4a>
    4ba8:	6810      	ldr	r0, [r2, #0]
    4baa:	4b0e      	ldr	r3, [pc, #56]	; (4be4 <uart0_irq+0x60>)
    4bac:	b1b8      	cbz	r0, 4bde <uart0_irq+0x5a>
    4bae:	f893 3036 	ldrb.w	r3, [r3, #54]	; 0x36
    4bb2:	b123      	cbz	r3, 4bbe <uart0_irq+0x3a>
    4bb4:	4b0c      	ldr	r3, [pc, #48]	; (4be8 <uart0_irq+0x64>)
    4bb6:	2100      	movs	r1, #0
    4bb8:	681b      	ldr	r3, [r3, #0]
    4bba:	4718      	bx	r3
    4bbc:	4770      	bx	lr
    4bbe:	4770      	bx	lr
    4bc0:	4b08      	ldr	r3, [pc, #32]	; (4be4 <uart0_irq+0x60>)
    4bc2:	6818      	ldr	r0, [r3, #0]
    4bc4:	2800      	cmp	r0, #0
    4bc6:	d0fa      	beq.n	4bbe <uart0_irq+0x3a>
    4bc8:	4b07      	ldr	r3, [pc, #28]	; (4be8 <uart0_irq+0x64>)
    4bca:	681b      	ldr	r3, [r3, #0]
    4bcc:	4718      	bx	r3
    4bce:	6859      	ldr	r1, [r3, #4]
    4bd0:	f021 0101 	bic.w	r1, r1, #1
    4bd4:	6059      	str	r1, [r3, #4]
    4bd6:	6810      	ldr	r0, [r2, #0]
    4bd8:	4b02      	ldr	r3, [pc, #8]	; (4be4 <uart0_irq+0x60>)
    4bda:	2800      	cmp	r0, #0
    4bdc:	d1e7      	bne.n	4bae <uart0_irq+0x2a>
    4bde:	4770      	bx	lr
    4be0:	4000c000 	.word	0x4000c000
    4be4:	10000950 	.word	0x10000950
    4be8:	1000094c 	.word	0x1000094c

00004bec <uart1_irq>:
    4bec:	4b16      	ldr	r3, [pc, #88]	; (4c48 <uart1_irq+0x5c>)
    4bee:	6899      	ldr	r1, [r3, #8]
    4bf0:	f3c1 0142 	ubfx	r1, r1, #1, #3
    4bf4:	2901      	cmp	r1, #1
    4bf6:	d017      	beq.n	4c28 <uart1_irq+0x3c>
    4bf8:	2902      	cmp	r1, #2
    4bfa:	d113      	bne.n	4c24 <uart1_irq+0x38>
    4bfc:	4a13      	ldr	r2, [pc, #76]	; (4c4c <uart1_irq+0x60>)
    4bfe:	6bd1      	ldr	r1, [r2, #60]	; 0x3c
    4c00:	3101      	adds	r1, #1
    4c02:	d005      	beq.n	4c10 <uart1_irq+0x24>
    4c04:	6c91      	ldr	r1, [r2, #72]	; 0x48
    4c06:	6c10      	ldr	r0, [r2, #64]	; 0x40
    4c08:	6008      	str	r0, [r1, #0]
    4c0a:	f892 106e 	ldrb.w	r1, [r2, #110]	; 0x6e
    4c0e:	b191      	cbz	r1, 4c36 <uart1_irq+0x4a>
    4c10:	6b90      	ldr	r0, [r2, #56]	; 0x38
    4c12:	4b0e      	ldr	r3, [pc, #56]	; (4c4c <uart1_irq+0x60>)
    4c14:	b1b8      	cbz	r0, 4c46 <uart1_irq+0x5a>
    4c16:	f893 306e 	ldrb.w	r3, [r3, #110]	; 0x6e
    4c1a:	b123      	cbz	r3, 4c26 <uart1_irq+0x3a>
    4c1c:	4b0c      	ldr	r3, [pc, #48]	; (4c50 <uart1_irq+0x64>)
    4c1e:	2100      	movs	r1, #0
    4c20:	681b      	ldr	r3, [r3, #0]
    4c22:	4718      	bx	r3
    4c24:	4770      	bx	lr
    4c26:	4770      	bx	lr
    4c28:	4b08      	ldr	r3, [pc, #32]	; (4c4c <uart1_irq+0x60>)
    4c2a:	6b98      	ldr	r0, [r3, #56]	; 0x38
    4c2c:	2800      	cmp	r0, #0
    4c2e:	d0fa      	beq.n	4c26 <uart1_irq+0x3a>
    4c30:	4b07      	ldr	r3, [pc, #28]	; (4c50 <uart1_irq+0x64>)
    4c32:	681b      	ldr	r3, [r3, #0]
    4c34:	4718      	bx	r3
    4c36:	6859      	ldr	r1, [r3, #4]
    4c38:	f021 0101 	bic.w	r1, r1, #1
    4c3c:	6059      	str	r1, [r3, #4]
    4c3e:	6b90      	ldr	r0, [r2, #56]	; 0x38
    4c40:	4b02      	ldr	r3, [pc, #8]	; (4c4c <uart1_irq+0x60>)
    4c42:	2800      	cmp	r0, #0
    4c44:	d1e7      	bne.n	4c16 <uart1_irq+0x2a>
    4c46:	4770      	bx	lr
    4c48:	40010000 	.word	0x40010000
    4c4c:	10000950 	.word	0x10000950
    4c50:	1000094c 	.word	0x1000094c

00004c54 <serial_baud>:
    4c54:	e92d 4ff0 	stmdb	sp!, {r4, r5, r6, r7, r8, r9, r10, r11, lr}
    4c58:	6802      	ldr	r2, [r0, #0]
    4c5a:	4b6a      	ldr	r3, [pc, #424]	; (4e04 <serial_baud+0x1b0>)
    4c5c:	b089      	sub	sp, #36	; 0x24
    4c5e:	429a      	cmp	r2, r3
    4c60:	9007      	str	r0, [sp, #28]
    4c62:	9206      	str	r2, [sp, #24]
    4c64:	f000 80bc 	beq.w	4de0 <serial_baud+0x18c>
    4c68:	f340 80a7 	ble.w	4dba <serial_baud+0x166>
    4c6c:	4b66      	ldr	r3, [pc, #408]	; (4e08 <serial_baud+0x1b4>)
    4c6e:	9806      	ldr	r0, [sp, #24]
    4c70:	4298      	cmp	r0, r3
    4c72:	f000 8089 	beq.w	4d88 <serial_baud+0x134>
    4c76:	f503 4380 	add.w	r3, r3, #16384	; 0x4000
    4c7a:	4298      	cmp	r0, r3
    4c7c:	d10c      	bne.n	4c98 <serial_baud+0x44>
    4c7e:	4b63      	ldr	r3, [pc, #396]	; (4e0c <serial_baud+0x1b8>)
    4c80:	f8d3 21ac 	ldr.w	r2, [r3, #428]	; 0x1ac
    4c84:	f422 2240 	bic.w	r2, r2, #786432	; 0xc0000
    4c88:	f8c3 21ac 	str.w	r2, [r3, #428]	; 0x1ac
    4c8c:	f8d3 21ac 	ldr.w	r2, [r3, #428]	; 0x1ac
    4c90:	f442 2280 	orr.w	r2, r2, #262144	; 0x40000
    4c94:	f8c3 21ac 	str.w	r2, [r3, #428]	; 0x1ac
    4c98:	4a5d      	ldr	r2, [pc, #372]	; (4e10 <serial_baud+0x1bc>)
    4c9a:	010b      	lsls	r3, r1, #4
    4c9c:	6812      	ldr	r2, [r2, #0]
    4c9e:	fbb2 f0f3 	udiv	r0, r2, r3
    4ca2:	fb03 2310 	mls	r3, r3, r0, r2
    4ca6:	9203      	str	r2, [sp, #12]
    4ca8:	b280      	uxth	r0, r0
    4caa:	2b00      	cmp	r3, #0
    4cac:	f000 8083 	beq.w	4db6 <serial_baud+0x162>
    4cb0:	9b03      	ldr	r3, [sp, #12]
    4cb2:	f04f 0801 	mov.w	r8, #1
    4cb6:	005a      	lsls	r2, r3, #1
    4cb8:	009c      	lsls	r4, r3, #2
    4cba:	4694      	mov	r12, r2
    4cbc:	46a2      	mov	r10, r4
    4cbe:	46c3      	mov	r11, r8
    4cc0:	468e      	mov	lr, r1
    4cc2:	4699      	mov	r9, r3
    4cc4:	2300      	movs	r3, #0
    4cc6:	9204      	str	r2, [sp, #16]
    4cc8:	9405      	str	r4, [sp, #20]
    4cca:	9000      	str	r0, [sp, #0]
    4ccc:	9102      	str	r1, [sp, #8]
    4cce:	9301      	str	r3, [sp, #4]
    4cd0:	2400      	movs	r4, #0
    4cd2:	4625      	mov	r5, r4
    4cd4:	9e02      	ldr	r6, [sp, #8]
    4cd6:	fa5f f788 	uxtb.w	r7, r8
    4cda:	f1bc 0f00 	cmp.w	r12, #0
    4cde:	bfb5      	itete	lt
    4ce0:	fbbc f0f6 	udivlt	r0, r12, r6
    4ce4:	fbba f0f6 	udivge	r0, r10, r6
    4ce8:	0900      	lsrlt	r0, r0, #4
    4cea:	0940      	lsrge	r0, r0, #5
    4cec:	3001      	adds	r0, #1
    4cee:	f3c0 004f 	ubfx	r0, r0, #1, #16
    4cf2:	eb08 0204 	add.w	r2, r8, r4
    4cf6:	2800      	cmp	r0, #0
    4cf8:	d154      	bne.n	4da4 <serial_baud+0x150>
    4cfa:	2c00      	cmp	r4, #0
    4cfc:	d07e      	beq.n	4dfc <serial_baud+0x1a8>
    4cfe:	2002      	movs	r0, #2
    4d00:	4603      	mov	r3, r0
    4d02:	fb03 f302 	mul.w	r3, r3, r2
    4d06:	00db      	lsls	r3, r3, #3
    4d08:	fbb9 f3f3 	udiv	r3, r9, r3
    4d0c:	3301      	adds	r3, #1
    4d0e:	ebc1 0353 	rsb	r3, r1, r3, lsr #1
    4d12:	2b00      	cmp	r3, #0
    4d14:	bfb8      	it	lt
    4d16:	425b      	neglt	r3, r3
    4d18:	4573      	cmp	r3, lr
    4d1a:	da05      	bge.n	4d28 <serial_baud+0xd4>
    4d1c:	428b      	cmp	r3, r1
    4d1e:	d046      	beq.n	4dae <serial_baud+0x15a>
    4d20:	469e      	mov	lr, r3
    4d22:	46bb      	mov	r11, r7
    4d24:	e88d 0021 	stmia.w	sp, {r0, r5}
    4d28:	3401      	adds	r4, #1
    4d2a:	b2e5      	uxtb	r5, r4
    4d2c:	42bd      	cmp	r5, r7
    4d2e:	440e      	add	r6, r1
    4d30:	d3d3      	bcc.n	4cda <serial_baud+0x86>
    4d32:	9b03      	ldr	r3, [sp, #12]
    4d34:	f108 0801 	add.w	r8, r8, #1
    4d38:	4499      	add	r9, r3
    4d3a:	9b04      	ldr	r3, [sp, #16]
    4d3c:	f1b8 0f10 	cmp.w	r8, #16
    4d40:	449c      	add	r12, r3
    4d42:	9b05      	ldr	r3, [sp, #20]
    4d44:	449a      	add	r10, r3
    4d46:	9b02      	ldr	r3, [sp, #8]
    4d48:	440b      	add	r3, r1
    4d4a:	9302      	str	r3, [sp, #8]
    4d4c:	d1c0      	bne.n	4cd0 <serial_baud+0x7c>
    4d4e:	9b01      	ldr	r3, [sp, #4]
    4d50:	9800      	ldr	r0, [sp, #0]
    4d52:	ea43 150b 	orr.w	r5, r3, r11, lsl #4
    4d56:	b2ed      	uxtb	r5, r5
    4d58:	9906      	ldr	r1, [sp, #24]
    4d5a:	f3c0 2207 	ubfx	r2, r0, #8, #8
    4d5e:	7b0b      	ldrb	r3, [r1, #12]
    4d60:	b2c0      	uxtb	r0, r0
    4d62:	f043 0380 	orr.w	r3, r3, #128	; 0x80
    4d66:	730b      	strb	r3, [r1, #12]
    4d68:	9907      	ldr	r1, [sp, #28]
    4d6a:	680b      	ldr	r3, [r1, #0]
    4d6c:	711a      	strb	r2, [r3, #4]
    4d6e:	680b      	ldr	r3, [r1, #0]
    4d70:	7018      	strb	r0, [r3, #0]
    4d72:	680b      	ldr	r3, [r1, #0]
    4d74:	f883 5028 	strb.w	r5, [r3, #40]	; 0x28
    4d78:	680a      	ldr	r2, [r1, #0]
    4d7a:	7b13      	ldrb	r3, [r2, #12]
    4d7c:	f003 037f 	and.w	r3, r3, #127	; 0x7f
    4d80:	7313      	strb	r3, [r2, #12]
    4d82:	b009      	add	sp, #36	; 0x24
    4d84:	e8bd 8ff0 	ldmia.w	sp!, {r4, r5, r6, r7, r8, r9, r10, r11, pc}
    4d88:	4b20      	ldr	r3, [pc, #128]	; (4e0c <serial_baud+0x1b8>)
    4d8a:	f8d3 21ac 	ldr.w	r2, [r3, #428]	; 0x1ac
    4d8e:	f422 3240 	bic.w	r2, r2, #196608	; 0x30000
    4d92:	f8c3 21ac 	str.w	r2, [r3, #428]	; 0x1ac
    4d96:	f8d3 21ac 	ldr.w	r2, [r3, #428]	; 0x1ac
    4d9a:	f442 3280 	orr.w	r2, r2, #65536	; 0x10000
    4d9e:	f8c3 21ac 	str.w	r2, [r3, #428]	; 0x1ac
    4da2:	e779      	b.n	4c98 <serial_baud+0x44>
    4da4:	2c00      	cmp	r4, #0
    4da6:	d0ab      	beq.n	4d00 <serial_baud+0xac>
    4da8:	2801      	cmp	r0, #1
    4daa:	d8a9      	bhi.n	4d00 <serial_baud+0xac>
    4dac:	e7a7      	b.n	4cfe <serial_baud+0xaa>
    4dae:	ea45 1507 	orr.w	r5, r5, r7, lsl #4
    4db2:	b2ed      	uxtb	r5, r5
    4db4:	e7d0      	b.n	4d58 <serial_baud+0x104>
    4db6:	2510      	movs	r5, #16
    4db8:	e7ce      	b.n	4d58 <serial_baud+0x104>
    4dba:	f5a3 4380 	sub.w	r3, r3, #16384	; 0x4000
    4dbe:	429a      	cmp	r2, r3
    4dc0:	f47f af6a 	bne.w	4c98 <serial_baud+0x44>
    4dc4:	4b11      	ldr	r3, [pc, #68]	; (4e0c <serial_baud+0x1b8>)
    4dc6:	f8d3 21a8 	ldr.w	r2, [r3, #424]	; 0x1a8
    4dca:	f022 02c0 	bic.w	r2, r2, #192	; 0xc0
    4dce:	f8c3 21a8 	str.w	r2, [r3, #424]	; 0x1a8
    4dd2:	f8d3 21a8 	ldr.w	r2, [r3, #424]	; 0x1a8
    4dd6:	f042 0240 	orr.w	r2, r2, #64	; 0x40
    4dda:	f8c3 21a8 	str.w	r2, [r3, #424]	; 0x1a8
    4dde:	e75b      	b.n	4c98 <serial_baud+0x44>
    4de0:	4b0a      	ldr	r3, [pc, #40]	; (4e0c <serial_baud+0x1b8>)
    4de2:	f8d3 21a8 	ldr.w	r2, [r3, #424]	; 0x1a8
    4de6:	f422 7240 	bic.w	r2, r2, #768	; 0x300
    4dea:	f8c3 21a8 	str.w	r2, [r3, #424]	; 0x1a8
    4dee:	f8d3 21a8 	ldr.w	r2, [r3, #424]	; 0x1a8
    4df2:	f442 7280 	orr.w	r2, r2, #256	; 0x100
    4df6:	f8c3 21a8 	str.w	r2, [r3, #424]	; 0x1a8
    4dfa:	e74d      	b.n	4c98 <serial_baud+0x44>
    4dfc:	2001      	movs	r0, #1
    4dfe:	4603      	mov	r3, r0
    4e00:	e77f      	b.n	4d02 <serial_baud+0xae>
    4e02:	bf00      	nop
    4e04:	40010000 	.word	0x40010000
    4e08:	40098000 	.word	0x40098000
    4e0c:	400fc000 	.word	0x400fc000
    4e10:	10000130 	.word	0x10000130

00004e14 <serial_irq_handler>:
    4e14:	6843      	ldr	r3, [r0, #4]
    4e16:	b410      	push	{r4}
    4e18:	4804      	ldr	r0, [pc, #16]	; (4e2c <serial_irq_handler+0x18>)
    4e1a:	4c05      	ldr	r4, [pc, #20]	; (4e30 <serial_irq_handler+0x1c>)
    4e1c:	ebc3 03c3 	rsb	r3, r3, r3, lsl #3
    4e20:	f844 2033 	str.w	r2, [r4, r3, lsl #3]
    4e24:	6001      	str	r1, [r0, #0]
    4e26:	f85d 4b04 	ldr.w	r4, [sp], #4
    4e2a:	4770      	bx	lr
    4e2c:	1000094c 	.word	0x1000094c
    4e30:	10000950 	.word	0x10000950

00004e34 <serial_irq_set>:
    4e34:	b961      	cbnz	r1, 4e50 <serial_irq_set+0x1c>
    4e36:	6843      	ldr	r3, [r0, #4]
    4e38:	b410      	push	{r4}
    4e3a:	4c06      	ldr	r4, [pc, #24]	; (4e54 <serial_irq_set+0x20>)
    4e3c:	ebc3 03c3 	rsb	r3, r3, r3, lsl #3
    4e40:	eb04 03c3 	add.w	r3, r4, r3, lsl #3
    4e44:	f883 2036 	strb.w	r2, [r3, #54]	; 0x36
    4e48:	f85d 4b04 	ldr.w	r4, [sp], #4
    4e4c:	f7ff bdfc 	b.w	4a48 <serial_irq_set_internal>
    4e50:	f7ff bdfa 	b.w	4a48 <serial_irq_set_internal>
    4e54:	10000950 	.word	0x10000950

00004e58 <serial_getc>:
    4e58:	6802      	ldr	r2, [r0, #0]
    4e5a:	7d13      	ldrb	r3, [r2, #20]
    4e5c:	07db      	lsls	r3, r3, #31
    4e5e:	d5fc      	bpl.n	4e5a <serial_getc+0x2>
    4e60:	6843      	ldr	r3, [r0, #4]
    4e62:	4909      	ldr	r1, [pc, #36]	; (4e88 <serial_getc+0x30>)
    4e64:	ebc3 03c3 	rsb	r3, r3, r3, lsl #3
    4e68:	eb01 03c3 	add.w	r3, r1, r3, lsl #3
    4e6c:	6859      	ldr	r1, [r3, #4]
    4e6e:	7810      	ldrb	r0, [r2, #0]
    4e70:	3101      	adds	r1, #1
    4e72:	b2c0      	uxtb	r0, r0
    4e74:	d006      	beq.n	4e84 <serial_getc+0x2c>
    4e76:	6959      	ldr	r1, [r3, #20]
    4e78:	689b      	ldr	r3, [r3, #8]
    4e7a:	600b      	str	r3, [r1, #0]
    4e7c:	6853      	ldr	r3, [r2, #4]
    4e7e:	f043 0301 	orr.w	r3, r3, #1
    4e82:	6053      	str	r3, [r2, #4]
    4e84:	4770      	bx	lr
    4e86:	bf00      	nop
    4e88:	10000950 	.word	0x10000950

00004e8c <serial_writable>:
    4e8c:	6843      	ldr	r3, [r0, #4]
    4e8e:	4a17      	ldr	r2, [pc, #92]	; (4eec <serial_writable+0x60>)
    4e90:	ebc3 03c3 	rsb	r3, r3, r3, lsl #3
    4e94:	00db      	lsls	r3, r3, #3
    4e96:	18d1      	adds	r1, r2, r3
    4e98:	b410      	push	{r4}
    4e9a:	69cc      	ldr	r4, [r1, #28]
    4e9c:	3401      	adds	r4, #1
    4e9e:	d011      	beq.n	4ec4 <serial_writable+0x38>
    4ea0:	460b      	mov	r3, r1
    4ea2:	6b0a      	ldr	r2, [r1, #48]	; 0x30
    4ea4:	331c      	adds	r3, #28
    4ea6:	685b      	ldr	r3, [r3, #4]
    4ea8:	6812      	ldr	r2, [r2, #0]
    4eaa:	421a      	tst	r2, r3
    4eac:	d003      	beq.n	4eb6 <serial_writable+0x2a>
    4eae:	2000      	movs	r0, #0
    4eb0:	f85d 4b04 	ldr.w	r4, [sp], #4
    4eb4:	4770      	bx	lr
    4eb6:	6803      	ldr	r3, [r0, #0]
    4eb8:	f85d 4b04 	ldr.w	r4, [sp], #4
    4ebc:	7d18      	ldrb	r0, [r3, #20]
    4ebe:	f3c0 1080 	ubfx	r0, r0, #6, #1
    4ec2:	4770      	bx	lr
    4ec4:	6803      	ldr	r3, [r0, #0]
    4ec6:	7d1b      	ldrb	r3, [r3, #20]
    4ec8:	069b      	lsls	r3, r3, #26
    4eca:	d408      	bmi.n	4ede <serial_writable+0x52>
    4ecc:	f891 0034 	ldrb.w	r0, [r1, #52]	; 0x34
    4ed0:	f85d 4b04 	ldr.w	r4, [sp], #4
    4ed4:	280f      	cmp	r0, #15
    4ed6:	bf8c      	ite	hi
    4ed8:	2000      	movhi	r0, #0
    4eda:	2001      	movls	r0, #1
    4edc:	4770      	bx	lr
    4ede:	2300      	movs	r3, #0
    4ee0:	f881 3034 	strb.w	r3, [r1, #52]	; 0x34
    4ee4:	2001      	movs	r0, #1
    4ee6:	f85d 4b04 	ldr.w	r4, [sp], #4
    4eea:	4770      	bx	lr
    4eec:	10000950 	.word	0x10000950

00004ef0 <serial_putc>:
    4ef0:	b538      	push	{r3, r4, r5, lr}
    4ef2:	4604      	mov	r4, r0
    4ef4:	460d      	mov	r5, r1
    4ef6:	4620      	mov	r0, r4
    4ef8:	f7ff ffc8 	bl	4e8c <serial_writable>
    4efc:	2800      	cmp	r0, #0
    4efe:	d0fa      	beq.n	4ef6 <serial_putc+0x6>
    4f00:	6823      	ldr	r3, [r4, #0]
    4f02:	b2ed      	uxtb	r5, r5
    4f04:	701d      	strb	r5, [r3, #0]
    4f06:	6863      	ldr	r3, [r4, #4]
    4f08:	4a05      	ldr	r2, [pc, #20]	; (4f20 <serial_putc+0x30>)
    4f0a:	ebc3 03c3 	rsb	r3, r3, r3, lsl #3
    4f0e:	eb02 03c3 	add.w	r3, r2, r3, lsl #3
    4f12:	f893 2034 	ldrb.w	r2, [r3, #52]	; 0x34
    4f16:	3201      	adds	r2, #1
    4f18:	f883 2034 	strb.w	r2, [r3, #52]	; 0x34
    4f1c:	bd38      	pop	{r3, r4, r5, pc}
    4f1e:	bf00      	nop
    4f20:	10000950 	.word	0x10000950

00004f24 <serial_pinout_tx>:
    4f24:	4901      	ldr	r1, [pc, #4]	; (4f2c <serial_pinout_tx+0x8>)
    4f26:	f7ff bb97 	b.w	4658 <pinmap_pinout>
    4f2a:	bf00      	nop
    4f2c:	000091e0 	.word	0x000091e0

00004f30 <serial_set_flow_control>:
    4f30:	e92d 4ff0 	stmdb	sp!, {r4, r5, r6, r7, r8, r9, r10, r11, lr}
    4f34:	4604      	mov	r4, r0
    4f36:	4846      	ldr	r0, [pc, #280]	; (5050 <serial_set_flow_control+0x120>)
    4f38:	6825      	ldr	r5, [r4, #0]
    4f3a:	b083      	sub	sp, #12
    4f3c:	4285      	cmp	r5, r0
    4f3e:	460f      	mov	r7, r1
    4f40:	4691      	mov	r9, r2
    4f42:	9301      	str	r3, [sp, #4]
    4f44:	d043      	beq.n	4fce <serial_set_flow_control+0x9e>
    4f46:	f8d4 a004 	ldr.w	r10, [r4, #4]
    4f4a:	2500      	movs	r5, #0
    4f4c:	4653      	mov	r3, r10
    4f4e:	4e41      	ldr	r6, [pc, #260]	; (5054 <serial_set_flow_control+0x124>)
    4f50:	ea4f 08ca 	mov.w	r8, r10, lsl #3
    4f54:	ebc3 03c3 	rsb	r3, r3, r3, lsl #3
    4f58:	ebca 0e08 	rsb	lr, r10, r8
    4f5c:	2000      	movs	r0, #0
    4f5e:	eb06 0ece 	add.w	lr, r6, lr, lsl #3
    4f62:	f04f 3bff 	mov.w	r11, #4294967295
    4f66:	eb06 03c3 	add.w	r3, r6, r3, lsl #3
    4f6a:	4601      	mov	r1, r0
    4f6c:	4602      	mov	r2, r0
    4f6e:	f883 0035 	strb.w	r0, [r3, #53]	; 0x35
    4f72:	f8ce b01c 	str.w	r11, [lr, #28]
    4f76:	4620      	mov	r0, r4
    4f78:	f8ce b004 	str.w	r11, [lr, #4]
    4f7c:	f7ff fd64 	bl	4a48 <serial_irq_set_internal>
    4f80:	b917      	cbnz	r7, 4f88 <serial_set_flow_control+0x58>
    4f82:	b003      	add	sp, #12
    4f84:	e8bd 8ff0 	ldmia.w	sp!, {r4, r5, r6, r7, r8, r9, r10, r11, pc}
    4f88:	4933      	ldr	r1, [pc, #204]	; (5058 <serial_set_flow_control+0x128>)
    4f8a:	4648      	mov	r0, r9
    4f8c:	f7ff fb96 	bl	46bc <pinmap_find_peripheral>
    4f90:	4932      	ldr	r1, [pc, #200]	; (505c <serial_set_flow_control+0x12c>)
    4f92:	4683      	mov	r11, r0
    4f94:	9801      	ldr	r0, [sp, #4]
    4f96:	f7ff fb91 	bl	46bc <pinmap_find_peripheral>
    4f9a:	1ebb      	subs	r3, r7, #2
    4f9c:	2b01      	cmp	r3, #1
    4f9e:	d937      	bls.n	5010 <serial_set_flow_control+0xe0>
    4fa0:	2f01      	cmp	r7, #1
    4fa2:	d1ee      	bne.n	4f82 <serial_set_flow_control+0x52>
    4fa4:	f1b9 3fff 	cmp.w	r9, #4294967295
    4fa8:	d0eb      	beq.n	4f82 <serial_set_flow_control+0x52>
    4faa:	4b29      	ldr	r3, [pc, #164]	; (5050 <serial_set_flow_control+0x120>)
    4fac:	6822      	ldr	r2, [r4, #0]
    4fae:	2107      	movs	r1, #7
    4fb0:	459b      	cmp	r11, r3
    4fb2:	7211      	strb	r1, [r2, #8]
    4fb4:	d113      	bne.n	4fde <serial_set_flow_control+0xae>
    4fb6:	b195      	cbz	r5, 4fde <serial_set_flow_control+0xae>
    4fb8:	4648      	mov	r0, r9
    4fba:	7c2b      	ldrb	r3, [r5, #16]
    4fbc:	4926      	ldr	r1, [pc, #152]	; (5058 <serial_set_flow_control+0x128>)
    4fbe:	f043 0340 	orr.w	r3, r3, #64	; 0x40
    4fc2:	742b      	strb	r3, [r5, #16]
    4fc4:	b003      	add	sp, #12
    4fc6:	e8bd 4ff0 	ldmia.w	sp!, {r4, r5, r6, r7, r8, r9, r10, r11, lr}
    4fca:	f7ff bb45 	b.w	4658 <pinmap_pinout>
    4fce:	7c2b      	ldrb	r3, [r5, #16]
    4fd0:	f8d4 a004 	ldr.w	r10, [r4, #4]
    4fd4:	f003 033f 	and.w	r3, r3, #63	; 0x3f
    4fd8:	742b      	strb	r3, [r5, #16]
    4fda:	6863      	ldr	r3, [r4, #4]
    4fdc:	e7b7      	b.n	4f4e <serial_set_flow_control+0x1e>
    4fde:	ebca 0808 	rsb	r8, r10, r8
    4fe2:	eb06 00c8 	add.w	r0, r6, r8, lsl #3
    4fe6:	4649      	mov	r1, r9
    4fe8:	2501      	movs	r5, #1
    4fea:	3004      	adds	r0, #4
    4fec:	2200      	movs	r2, #0
    4fee:	f7ff fb15 	bl	461c <gpio_init_out_ex>
    4ff2:	4620      	mov	r0, r4
    4ff4:	462a      	mov	r2, r5
    4ff6:	6863      	ldr	r3, [r4, #4]
    4ff8:	2100      	movs	r1, #0
    4ffa:	ebc3 03c3 	rsb	r3, r3, r3, lsl #3
    4ffe:	eb06 06c3 	add.w	r6, r6, r3, lsl #3
    5002:	f886 5035 	strb.w	r5, [r6, #53]	; 0x35
    5006:	b003      	add	sp, #12
    5008:	e8bd 4ff0 	ldmia.w	sp!, {r4, r5, r6, r7, r8, r9, r10, r11, lr}
    500c:	f7ff bd1c 	b.w	4a48 <serial_irq_set_internal>
    5010:	9b01      	ldr	r3, [sp, #4]
    5012:	3301      	adds	r3, #1
    5014:	d00a      	beq.n	502c <serial_set_flow_control+0xfc>
    5016:	4b0e      	ldr	r3, [pc, #56]	; (5050 <serial_set_flow_control+0x120>)
    5018:	4298      	cmp	r0, r3
    501a:	d00d      	beq.n	5038 <serial_set_flow_control+0x108>
    501c:	ebca 0008 	rsb	r0, r10, r8
    5020:	eb06 00c0 	add.w	r0, r6, r0, lsl #3
    5024:	9901      	ldr	r1, [sp, #4]
    5026:	301c      	adds	r0, #28
    5028:	f7ff fad0 	bl	45cc <gpio_init_in>
    502c:	2f03      	cmp	r7, #3
    502e:	d1a8      	bne.n	4f82 <serial_set_flow_control+0x52>
    5030:	f1b9 3fff 	cmp.w	r9, #4294967295
    5034:	d1b9      	bne.n	4faa <serial_set_flow_control+0x7a>
    5036:	e7a4      	b.n	4f82 <serial_set_flow_control+0x52>
    5038:	2d00      	cmp	r5, #0
    503a:	d0ef      	beq.n	501c <serial_set_flow_control+0xec>
    503c:	7c2b      	ldrb	r3, [r5, #16]
    503e:	9801      	ldr	r0, [sp, #4]
    5040:	f043 0380 	orr.w	r3, r3, #128	; 0x80
    5044:	742b      	strb	r3, [r5, #16]
    5046:	4905      	ldr	r1, [pc, #20]	; (505c <serial_set_flow_control+0x12c>)
    5048:	f7ff fb06 	bl	4658 <pinmap_pinout>
    504c:	e7ee      	b.n	502c <serial_set_flow_control+0xfc>
    504e:	bf00      	nop
    5050:	40010000 	.word	0x40010000
    5054:	10000950 	.word	0x10000950
    5058:	00009150 	.word	0x00009150
    505c:	0000924c 	.word	0x0000924c

00005060 <serial_init>:
    5060:	e92d 41f0 	stmdb	sp!, {r4, r5, r6, r7, r8, lr}
    5064:	4605      	mov	r5, r0
    5066:	460f      	mov	r7, r1
    5068:	4608      	mov	r0, r1
    506a:	4959      	ldr	r1, [pc, #356]	; (51d0 <serial_init+0x170>)
    506c:	4616      	mov	r6, r2
    506e:	f7ff fb33 	bl	46d8 <pinmap_peripheral>
    5072:	4958      	ldr	r1, [pc, #352]	; (51d4 <serial_init+0x174>)
    5074:	4604      	mov	r4, r0
    5076:	4630      	mov	r0, r6
    5078:	f7ff fb2e 	bl	46d8 <pinmap_peripheral>
    507c:	4601      	mov	r1, r0
    507e:	4620      	mov	r0, r4
    5080:	f7ff fb0a 	bl	4698 <pinmap_merge>
    5084:	4b54      	ldr	r3, [pc, #336]	; (51d8 <serial_init+0x178>)
    5086:	4604      	mov	r4, r0
    5088:	4298      	cmp	r0, r3
    508a:	6028      	str	r0, [r5, #0]
    508c:	d07f      	beq.n	518e <serial_init+0x12e>
    508e:	d96f      	bls.n	5170 <serial_init+0x110>
    5090:	4b52      	ldr	r3, [pc, #328]	; (51dc <serial_init+0x17c>)
    5092:	4298      	cmp	r0, r3
    5094:	d04b      	beq.n	512e <serial_init+0xce>
    5096:	f503 4380 	add.w	r3, r3, #16384	; 0x4000
    509a:	4298      	cmp	r0, r3
    509c:	d106      	bne.n	50ac <serial_init+0x4c>
    509e:	4a50      	ldr	r2, [pc, #320]	; (51e0 <serial_init+0x180>)
    50a0:	f8d2 30c4 	ldr.w	r3, [r2, #196]	; 0xc4
    50a4:	f043 7300 	orr.w	r3, r3, #33554432	; 0x2000000
    50a8:	f8c2 30c4 	str.w	r3, [r2, #196]	; 0xc4
    50ac:	2301      	movs	r3, #1
    50ae:	7223      	strb	r3, [r4, #8]
    50b0:	682b      	ldr	r3, [r5, #0]
    50b2:	f04f 0800 	mov.w	r8, #0
    50b6:	f8c3 8004 	str.w	r8, [r3, #4]
    50ba:	4628      	mov	r0, r5
    50bc:	f44f 5116 	mov.w	r1, #9600	; 0x2580
    50c0:	f7ff fdc8 	bl	4c54 <serial_baud>
    50c4:	682b      	ldr	r3, [r5, #0]
    50c6:	2203      	movs	r2, #3
    50c8:	731a      	strb	r2, [r3, #12]
    50ca:	4638      	mov	r0, r7
    50cc:	4940      	ldr	r1, [pc, #256]	; (51d0 <serial_init+0x170>)
    50ce:	f7ff fac3 	bl	4658 <pinmap_pinout>
    50d2:	4630      	mov	r0, r6
    50d4:	493f      	ldr	r1, [pc, #252]	; (51d4 <serial_init+0x174>)
    50d6:	f7ff fabf 	bl	4658 <pinmap_pinout>
    50da:	1c7a      	adds	r2, r7, #1
    50dc:	d003      	beq.n	50e6 <serial_init+0x86>
    50de:	4638      	mov	r0, r7
    50e0:	4641      	mov	r1, r8
    50e2:	f7ff fc4d 	bl	4980 <pin_mode>
    50e6:	1c73      	adds	r3, r6, #1
    50e8:	d003      	beq.n	50f2 <serial_init+0x92>
    50ea:	4630      	mov	r0, r6
    50ec:	2100      	movs	r1, #0
    50ee:	f7ff fc47 	bl	4980 <pin_mode>
    50f2:	4b39      	ldr	r3, [pc, #228]	; (51d8 <serial_init+0x178>)
    50f4:	429c      	cmp	r4, r3
    50f6:	d047      	beq.n	5188 <serial_init+0x128>
    50f8:	d921      	bls.n	513e <serial_init+0xde>
    50fa:	4b38      	ldr	r3, [pc, #224]	; (51dc <serial_init+0x17c>)
    50fc:	429c      	cmp	r4, r3
    50fe:	d063      	beq.n	51c8 <serial_init+0x168>
    5100:	f503 4380 	add.w	r3, r3, #16384	; 0x4000
    5104:	429c      	cmp	r4, r3
    5106:	d14a      	bne.n	519e <serial_init+0x13e>
    5108:	2303      	movs	r3, #3
    510a:	606b      	str	r3, [r5, #4]
    510c:	4c35      	ldr	r4, [pc, #212]	; (51e4 <serial_init+0x184>)
    510e:	ebc3 03c3 	rsb	r3, r3, r3, lsl #3
    5112:	f04f 36ff 	mov.w	r6, #4294967295
    5116:	eb04 04c3 	add.w	r4, r4, r3, lsl #3
    511a:	4628      	mov	r0, r5
    511c:	4632      	mov	r2, r6
    511e:	4633      	mov	r3, r6
    5120:	6066      	str	r6, [r4, #4]
    5122:	61e6      	str	r6, [r4, #28]
    5124:	2100      	movs	r1, #0
    5126:	e8bd 41f0 	ldmia.w	sp!, {r4, r5, r6, r7, r8, lr}
    512a:	f7ff bf01 	b.w	4f30 <serial_set_flow_control>
    512e:	4a2c      	ldr	r2, [pc, #176]	; (51e0 <serial_init+0x180>)
    5130:	f8d2 30c4 	ldr.w	r3, [r2, #196]	; 0xc4
    5134:	f043 7380 	orr.w	r3, r3, #16777216	; 0x1000000
    5138:	f8c2 30c4 	str.w	r3, [r2, #196]	; 0xc4
    513c:	e7b6      	b.n	50ac <serial_init+0x4c>
    513e:	f5a3 4380 	sub.w	r3, r3, #16384	; 0x4000
    5142:	429c      	cmp	r4, r3
    5144:	d12b      	bne.n	519e <serial_init+0x13e>
    5146:	4e27      	ldr	r6, [pc, #156]	; (51e4 <serial_init+0x184>)
    5148:	f04f 34ff 	mov.w	r4, #4294967295
    514c:	2100      	movs	r1, #0
    514e:	6069      	str	r1, [r5, #4]
    5150:	4622      	mov	r2, r4
    5152:	4623      	mov	r3, r4
    5154:	4628      	mov	r0, r5
    5156:	6074      	str	r4, [r6, #4]
    5158:	61f4      	str	r4, [r6, #28]
    515a:	f7ff fee9 	bl	4f30 <serial_set_flow_control>
    515e:	4b22      	ldr	r3, [pc, #136]	; (51e8 <serial_init+0x188>)
    5160:	2201      	movs	r2, #1
    5162:	601a      	str	r2, [r3, #0]
    5164:	6828      	ldr	r0, [r5, #0]
    5166:	6869      	ldr	r1, [r5, #4]
    5168:	4b20      	ldr	r3, [pc, #128]	; (51ec <serial_init+0x18c>)
    516a:	c303      	stmia	r3!, {r0, r1}
    516c:	e8bd 81f0 	ldmia.w	sp!, {r4, r5, r6, r7, r8, pc}
    5170:	f5a3 4380 	sub.w	r3, r3, #16384	; 0x4000
    5174:	4298      	cmp	r0, r3
    5176:	d199      	bne.n	50ac <serial_init+0x4c>
    5178:	4a19      	ldr	r2, [pc, #100]	; (51e0 <serial_init+0x180>)
    517a:	f8d2 30c4 	ldr.w	r3, [r2, #196]	; 0xc4
    517e:	f043 0308 	orr.w	r3, r3, #8
    5182:	f8c2 30c4 	str.w	r3, [r2, #196]	; 0xc4
    5186:	e791      	b.n	50ac <serial_init+0x4c>
    5188:	2301      	movs	r3, #1
    518a:	606b      	str	r3, [r5, #4]
    518c:	e7be      	b.n	510c <serial_init+0xac>
    518e:	4a14      	ldr	r2, [pc, #80]	; (51e0 <serial_init+0x180>)
    5190:	f8d2 30c4 	ldr.w	r3, [r2, #196]	; 0xc4
    5194:	f043 0310 	orr.w	r3, r3, #16
    5198:	f8c2 30c4 	str.w	r3, [r2, #196]	; 0xc4
    519c:	e786      	b.n	50ac <serial_init+0x4c>
    519e:	686e      	ldr	r6, [r5, #4]
    51a0:	4b10      	ldr	r3, [pc, #64]	; (51e4 <serial_init+0x184>)
    51a2:	ebc6 06c6 	rsb	r6, r6, r6, lsl #3
    51a6:	f04f 37ff 	mov.w	r7, #4294967295
    51aa:	eb03 06c6 	add.w	r6, r3, r6, lsl #3
    51ae:	463a      	mov	r2, r7
    51b0:	463b      	mov	r3, r7
    51b2:	4628      	mov	r0, r5
    51b4:	2100      	movs	r1, #0
    51b6:	6077      	str	r7, [r6, #4]
    51b8:	61f7      	str	r7, [r6, #28]
    51ba:	f7ff feb9 	bl	4f30 <serial_set_flow_control>
    51be:	4b0c      	ldr	r3, [pc, #48]	; (51f0 <serial_init+0x190>)
    51c0:	429c      	cmp	r4, r3
    51c2:	d0cc      	beq.n	515e <serial_init+0xfe>
    51c4:	e8bd 81f0 	ldmia.w	sp!, {r4, r5, r6, r7, r8, pc}
    51c8:	2302      	movs	r3, #2
    51ca:	606b      	str	r3, [r5, #4]
    51cc:	e79e      	b.n	510c <serial_init+0xac>
    51ce:	bf00      	nop
    51d0:	000091e0 	.word	0x000091e0
    51d4:	00009174 	.word	0x00009174
    51d8:	40010000 	.word	0x40010000
    51dc:	40098000 	.word	0x40098000
    51e0:	400fc000 	.word	0x400fc000
    51e4:	10000950 	.word	0x10000950
    51e8:	10000948 	.word	0x10000948
    51ec:	10000b44 	.word	0x10000b44
    51f0:	4000c000 	.word	0x4000c000

000051f4 <us_ticker_init.part.0>:
    51f4:	b538      	push	{r3, r4, r5, lr}
    51f6:	4912      	ldr	r1, [pc, #72]	; (5240 <us_ticker_init.part.0+0x4c>)
    51f8:	4b12      	ldr	r3, [pc, #72]	; (5244 <us_ticker_init.part.0+0x50>)
    51fa:	2401      	movs	r4, #1
    51fc:	601c      	str	r4, [r3, #0]
    51fe:	f8d1 30c4 	ldr.w	r3, [r1, #196]	; 0xc4
    5202:	4a11      	ldr	r2, [pc, #68]	; (5248 <us_ticker_init.part.0+0x54>)
    5204:	f443 0300 	orr.w	r3, r3, #8388608	; 0x800000
    5208:	4810      	ldr	r0, [pc, #64]	; (524c <us_ticker_init.part.0+0x58>)
    520a:	2500      	movs	r5, #0
    520c:	f8c1 30c4 	str.w	r3, [r1, #196]	; 0xc4
    5210:	6715      	str	r5, [r2, #112]	; 0x70
    5212:	6803      	ldr	r3, [r0, #0]
    5214:	f101 7143 	add.w	r1, r1, #51118080	; 0x30c0000
    5218:	f501 51f4 	add.w	r1, r1, #7808	; 0x1e80
    521c:	3103      	adds	r1, #3
    521e:	089b      	lsrs	r3, r3, #2
    5220:	fba1 1303 	umull	r1, r3, r1, r3
    5224:	0c9b      	lsrs	r3, r3, #18
    5226:	3b01      	subs	r3, #1
    5228:	2102      	movs	r1, #2
    522a:	6051      	str	r1, [r2, #4]
    522c:	2004      	movs	r0, #4
    522e:	60d3      	str	r3, [r2, #12]
    5230:	4907      	ldr	r1, [pc, #28]	; (5250 <us_ticker_init.part.0+0x5c>)
    5232:	6054      	str	r4, [r2, #4]
    5234:	f7ff fad0 	bl	47d8 <NVIC_SetVector>
    5238:	4b06      	ldr	r3, [pc, #24]	; (5254 <us_ticker_init.part.0+0x60>)
    523a:	2210      	movs	r2, #16
    523c:	601a      	str	r2, [r3, #0]
    523e:	bd38      	pop	{r3, r4, r5, pc}
    5240:	400fc000 	.word	0x400fc000
    5244:	10000a30 	.word	0x10000a30
    5248:	40094000 	.word	0x40094000
    524c:	10000130 	.word	0x10000130
    5250:	00004791 	.word	0x00004791
    5254:	e000e100 	.word	0xe000e100

00005258 <us_ticker_init>:
    5258:	4b02      	ldr	r3, [pc, #8]	; (5264 <us_ticker_init+0xc>)
    525a:	681b      	ldr	r3, [r3, #0]
    525c:	b103      	cbz	r3, 5260 <us_ticker_init+0x8>
    525e:	4770      	bx	lr
    5260:	f7ff bfc8 	b.w	51f4 <us_ticker_init.part.0>
    5264:	10000a30 	.word	0x10000a30

00005268 <us_ticker_read>:
    5268:	b508      	push	{r3, lr}
    526a:	4b04      	ldr	r3, [pc, #16]	; (527c <us_ticker_read+0x14>)
    526c:	681b      	ldr	r3, [r3, #0]
    526e:	b90b      	cbnz	r3, 5274 <us_ticker_read+0xc>
    5270:	f7ff ffc0 	bl	51f4 <us_ticker_init.part.0>
    5274:	4b02      	ldr	r3, [pc, #8]	; (5280 <us_ticker_read+0x18>)
    5276:	6898      	ldr	r0, [r3, #8]
    5278:	bd08      	pop	{r3, pc}
    527a:	bf00      	nop
    527c:	10000a30 	.word	0x10000a30
    5280:	40094000 	.word	0x40094000

00005284 <us_ticker_set_interrupt>:
    5284:	4b03      	ldr	r3, [pc, #12]	; (5294 <us_ticker_set_interrupt+0x10>)
    5286:	6198      	str	r0, [r3, #24]
    5288:	695a      	ldr	r2, [r3, #20]
    528a:	f042 0201 	orr.w	r2, r2, #1
    528e:	615a      	str	r2, [r3, #20]
    5290:	4770      	bx	lr
    5292:	bf00      	nop
    5294:	40094000 	.word	0x40094000

00005298 <us_ticker_disable_interrupt>:
    5298:	4a02      	ldr	r2, [pc, #8]	; (52a4 <us_ticker_disable_interrupt+0xc>)
    529a:	6953      	ldr	r3, [r2, #20]
    529c:	f023 0301 	bic.w	r3, r3, #1
    52a0:	6153      	str	r3, [r2, #20]
    52a2:	4770      	bx	lr
    52a4:	40094000 	.word	0x40094000

000052a8 <us_ticker_clear_interrupt>:
    52a8:	4b01      	ldr	r3, [pc, #4]	; (52b0 <us_ticker_clear_interrupt+0x8>)
    52aa:	2201      	movs	r2, #1
    52ac:	601a      	str	r2, [r3, #0]
    52ae:	4770      	bx	lr
    52b0:	40094000 	.word	0x40094000

000052b4 <mbed::FileBase::~FileBase()>:
    52b4:	4a09      	ldr	r2, [pc, #36]	; (52dc <mbed::FileBase::~FileBase()+0x28>)
    52b6:	6883      	ldr	r3, [r0, #8]
    52b8:	6002      	str	r2, [r0, #0]
    52ba:	b153      	cbz	r3, 52d2 <mbed::FileBase::~FileBase()+0x1e>
    52bc:	4b08      	ldr	r3, [pc, #32]	; (52e0 <mbed::FileBase::~FileBase()+0x2c>)
    52be:	681a      	ldr	r2, [r3, #0]
    52c0:	4282      	cmp	r2, r0
    52c2:	d101      	bne.n	52c8 <mbed::FileBase::~FileBase()+0x14>
    52c4:	e006      	b.n	52d4 <mbed::FileBase::~FileBase()+0x20>
    52c6:	461a      	mov	r2, r3
    52c8:	6853      	ldr	r3, [r2, #4]
    52ca:	4283      	cmp	r3, r0
    52cc:	d1fb      	bne.n	52c6 <mbed::FileBase::~FileBase()+0x12>
    52ce:	6843      	ldr	r3, [r0, #4]
    52d0:	6053      	str	r3, [r2, #4]
    52d2:	4770      	bx	lr
    52d4:	6842      	ldr	r2, [r0, #4]
    52d6:	601a      	str	r2, [r3, #0]
    52d8:	4770      	bx	lr
    52da:	bf00      	nop
    52dc:	00009278 	.word	0x00009278
    52e0:	10000a34 	.word	0x10000a34

000052e4 <mbed::FileBase::~FileBase()>:
    52e4:	4a0c      	ldr	r2, [pc, #48]	; (5318 <mbed::FileBase::~FileBase()+0x34>)
    52e6:	6883      	ldr	r3, [r0, #8]
    52e8:	b510      	push	{r4, lr}
    52ea:	4604      	mov	r4, r0
    52ec:	6002      	str	r2, [r0, #0]
    52ee:	b153      	cbz	r3, 5306 <mbed::FileBase::~FileBase()+0x22>
    52f0:	4b0a      	ldr	r3, [pc, #40]	; (531c <mbed::FileBase::~FileBase()+0x38>)
    52f2:	681a      	ldr	r2, [r3, #0]
    52f4:	4290      	cmp	r0, r2
    52f6:	d101      	bne.n	52fc <mbed::FileBase::~FileBase()+0x18>
    52f8:	e00a      	b.n	5310 <mbed::FileBase::~FileBase()+0x2c>
    52fa:	461a      	mov	r2, r3
    52fc:	6853      	ldr	r3, [r2, #4]
    52fe:	429c      	cmp	r4, r3
    5300:	d1fb      	bne.n	52fa <mbed::FileBase::~FileBase()+0x16>
    5302:	6863      	ldr	r3, [r4, #4]
    5304:	6053      	str	r3, [r2, #4]
    5306:	4620      	mov	r0, r4
    5308:	f000 fbcd 	bl	5aa6 <operator delete(void*)>
    530c:	4620      	mov	r0, r4
    530e:	bd10      	pop	{r4, pc}
    5310:	6842      	ldr	r2, [r0, #4]
    5312:	601a      	str	r2, [r3, #0]
    5314:	e7f7      	b.n	5306 <mbed::FileBase::~FileBase()+0x22>
    5316:	bf00      	nop
    5318:	00009278 	.word	0x00009278
    531c:	10000a34 	.word	0x10000a34

00005320 <mbed::FileBase::FileBase(char const*, mbed::PathType)>:
    5320:	b410      	push	{r4}
    5322:	4c07      	ldr	r4, [pc, #28]	; (5340 <mbed::FileBase::FileBase(char const*, mbed::PathType)+0x20>)
    5324:	2300      	movs	r3, #0
    5326:	7302      	strb	r2, [r0, #12]
    5328:	6081      	str	r1, [r0, #8]
    532a:	6004      	str	r4, [r0, #0]
    532c:	6043      	str	r3, [r0, #4]
    532e:	b119      	cbz	r1, 5338 <mbed::FileBase::FileBase(char const*, mbed::PathType)+0x18>
    5330:	4b04      	ldr	r3, [pc, #16]	; (5344 <mbed::FileBase::FileBase(char const*, mbed::PathType)+0x24>)
    5332:	681a      	ldr	r2, [r3, #0]
    5334:	6018      	str	r0, [r3, #0]
    5336:	6042      	str	r2, [r0, #4]
    5338:	f85d 4b04 	ldr.w	r4, [sp], #4
    533c:	4770      	bx	lr
    533e:	bf00      	nop
    5340:	00009278 	.word	0x00009278
    5344:	10000a34 	.word	0x10000a34

00005348 <mbed::FileBase::lookup(char const*, unsigned int)>:
    5348:	b5f8      	push	{r3, r4, r5, r6, r7, lr}
    534a:	4b0b      	ldr	r3, [pc, #44]	; (5378 <mbed::FileBase::lookup(char const*, unsigned int)+0x30>)
    534c:	4607      	mov	r7, r0
    534e:	681c      	ldr	r4, [r3, #0]
    5350:	460e      	mov	r6, r1
    5352:	b17c      	cbz	r4, 5374 <mbed::FileBase::lookup(char const*, unsigned int)+0x2c>
    5354:	68a5      	ldr	r5, [r4, #8]
    5356:	b155      	cbz	r5, 536e <mbed::FileBase::lookup(char const*, unsigned int)+0x26>
    5358:	4628      	mov	r0, r5
    535a:	4639      	mov	r1, r7
    535c:	4632      	mov	r2, r6
    535e:	f002 fe62 	bl	8026 <strncmp>
    5362:	b920      	cbnz	r0, 536e <mbed::FileBase::lookup(char const*, unsigned int)+0x26>
    5364:	4628      	mov	r0, r5
    5366:	f002 fe56 	bl	8016 <strlen>
    536a:	42b0      	cmp	r0, r6
    536c:	d002      	beq.n	5374 <mbed::FileBase::lookup(char const*, unsigned int)+0x2c>
    536e:	6864      	ldr	r4, [r4, #4]
    5370:	2c00      	cmp	r4, #0
    5372:	d1ef      	bne.n	5354 <mbed::FileBase::lookup(char const*, unsigned int)+0xc>
    5374:	4620      	mov	r0, r4
    5376:	bdf8      	pop	{r3, r4, r5, r6, r7, pc}
    5378:	10000a34 	.word	0x10000a34

0000537c <mbed::FileBase::getPathType()>:
    537c:	7b00      	ldrb	r0, [r0, #12]
    537e:	4770      	bx	lr

00005380 <mbed::FileHandle::flen()>:
    5380:	6803      	ldr	r3, [r0, #0]
    5382:	b570      	push	{r4, r5, r6, lr}
    5384:	691b      	ldr	r3, [r3, #16]
    5386:	2100      	movs	r1, #0
    5388:	2201      	movs	r2, #1
    538a:	4604      	mov	r4, r0
    538c:	4798      	blx	r3
    538e:	1c43      	adds	r3, r0, #1
    5390:	4606      	mov	r6, r0
    5392:	d00e      	beq.n	53b2 <mbed::FileHandle::flen()+0x32>
    5394:	6823      	ldr	r3, [r4, #0]
    5396:	4620      	mov	r0, r4
    5398:	691b      	ldr	r3, [r3, #16]
    539a:	2100      	movs	r1, #0
    539c:	2202      	movs	r2, #2
    539e:	4798      	blx	r3
    53a0:	4605      	mov	r5, r0
    53a2:	6823      	ldr	r3, [r4, #0]
    53a4:	4631      	mov	r1, r6
    53a6:	691b      	ldr	r3, [r3, #16]
    53a8:	4620      	mov	r0, r4
    53aa:	2200      	movs	r2, #0
    53ac:	4798      	blx	r3
    53ae:	4628      	mov	r0, r5
    53b0:	bd70      	pop	{r4, r5, r6, pc}
    53b2:	bd70      	pop	{r4, r5, r6, pc}

000053b4 <mbed::FileLike::FileLike(char const*)>:
    53b4:	b510      	push	{r4, lr}
    53b6:	4604      	mov	r4, r0
    53b8:	4b06      	ldr	r3, [pc, #24]	; (53d4 <mbed::FileLike::FileLike(char const*)+0x20>)
    53ba:	2200      	movs	r2, #0
    53bc:	f840 3b04 	str.w	r3, [r0], #4
    53c0:	f7ff ffae 	bl	5320 <mbed::FileBase::FileBase(char const*, mbed::PathType)>
    53c4:	4b04      	ldr	r3, [pc, #16]	; (53d8 <mbed::FileLike::FileLike(char const*)+0x24>)
    53c6:	4620      	mov	r0, r4
    53c8:	f103 0208 	add.w	r2, r3, #8
    53cc:	3334      	adds	r3, #52	; 0x34
    53ce:	e884 000c 	stmia.w	r4, {r2, r3}
    53d2:	bd10      	pop	{r4, pc}
    53d4:	000093a0 	.word	0x000093a0
    53d8:	00009280 	.word	0x00009280

000053dc <mbed::FileLike::~FileLike()>:
    53dc:	b510      	push	{r4, lr}
    53de:	4604      	mov	r4, r0
    53e0:	4b06      	ldr	r3, [pc, #24]	; (53fc <mbed::FileLike::~FileLike()+0x20>)
    53e2:	f103 0208 	add.w	r2, r3, #8
    53e6:	3334      	adds	r3, #52	; 0x34
    53e8:	6022      	str	r2, [r4, #0]
    53ea:	f840 3f04 	str.w	r3, [r0, #4]!
    53ee:	f7ff ff61 	bl	52b4 <mbed::FileBase::~FileBase()>
    53f2:	4620      	mov	r0, r4
    53f4:	f000 f9ca 	bl	578c <mbed::FileHandle::~FileHandle()>
    53f8:	4620      	mov	r0, r4
    53fa:	bd10      	pop	{r4, pc}
    53fc:	00009280 	.word	0x00009280

00005400 <mbed::FilePath::FilePath(char const*)>:
    5400:	b538      	push	{r3, r4, r5, lr}
    5402:	2300      	movs	r3, #0
    5404:	6003      	str	r3, [r0, #0]
    5406:	6043      	str	r3, [r0, #4]
    5408:	780a      	ldrb	r2, [r1, #0]
    540a:	4604      	mov	r4, r0
    540c:	2a2f      	cmp	r2, #47	; 0x2f
    540e:	d001      	beq.n	5414 <mbed::FilePath::FilePath(char const*)+0x14>
    5410:	4620      	mov	r0, r4
    5412:	bd38      	pop	{r3, r4, r5, pc}
    5414:	784a      	ldrb	r2, [r1, #1]
    5416:	2a00      	cmp	r2, #0
    5418:	d0fa      	beq.n	5410 <mbed::FilePath::FilePath(char const*)+0x10>
    541a:	1c48      	adds	r0, r1, #1
    541c:	6020      	str	r0, [r4, #0]
    541e:	784d      	ldrb	r5, [r1, #1]
    5420:	2d2f      	cmp	r5, #47	; 0x2f
    5422:	d013      	beq.n	544c <mbed::FilePath::FilePath(char const*)+0x4c>
    5424:	b185      	cbz	r5, 5448 <mbed::FilePath::FilePath(char const*)+0x48>
    5426:	4603      	mov	r3, r0
    5428:	e000      	b.n	542c <mbed::FilePath::FilePath(char const*)+0x2c>
    542a:	b16a      	cbz	r2, 5448 <mbed::FilePath::FilePath(char const*)+0x48>
    542c:	1a5d      	subs	r5, r3, r1
    542e:	3301      	adds	r3, #1
    5430:	6023      	str	r3, [r4, #0]
    5432:	781a      	ldrb	r2, [r3, #0]
    5434:	2a2f      	cmp	r2, #47	; 0x2f
    5436:	d1f8      	bne.n	542a <mbed::FilePath::FilePath(char const*)+0x2a>
    5438:	4629      	mov	r1, r5
    543a:	3301      	adds	r3, #1
    543c:	6023      	str	r3, [r4, #0]
    543e:	f7ff ff83 	bl	5348 <mbed::FileBase::lookup(char const*, unsigned int)>
    5442:	6060      	str	r0, [r4, #4]
    5444:	4620      	mov	r0, r4
    5446:	bd38      	pop	{r3, r4, r5, pc}
    5448:	4629      	mov	r1, r5
    544a:	e7f8      	b.n	543e <mbed::FilePath::FilePath(char const*)+0x3e>
    544c:	4619      	mov	r1, r3
    544e:	4603      	mov	r3, r0
    5450:	e7f3      	b.n	543a <mbed::FilePath::FilePath(char const*)+0x3a>
    5452:	bf00      	nop

00005454 <mbed::FilePath::fileName()>:
    5454:	6800      	ldr	r0, [r0, #0]
    5456:	4770      	bx	lr

00005458 <mbed::FilePath::fileSystem()>:
    5458:	6843      	ldr	r3, [r0, #4]
    545a:	b143      	cbz	r3, 546e <mbed::FilePath::fileSystem()+0x16>
    545c:	b510      	push	{r4, lr}
    545e:	4604      	mov	r4, r0
    5460:	4618      	mov	r0, r3
    5462:	f7ff ff8b 	bl	537c <mbed::FileBase::getPathType()>
    5466:	2801      	cmp	r0, #1
    5468:	d103      	bne.n	5472 <mbed::FilePath::fileSystem()+0x1a>
    546a:	6860      	ldr	r0, [r4, #4]
    546c:	bd10      	pop	{r4, pc}
    546e:	2000      	movs	r0, #0
    5470:	4770      	bx	lr
    5472:	2000      	movs	r0, #0
    5474:	bd10      	pop	{r4, pc}
    5476:	bf00      	nop

00005478 <mbed::FilePath::isFile()>:
    5478:	6840      	ldr	r0, [r0, #4]
    547a:	b130      	cbz	r0, 548a <mbed::FilePath::isFile()+0x12>
    547c:	b508      	push	{r3, lr}
    547e:	f7ff ff7d 	bl	537c <mbed::FileBase::getPathType()>
    5482:	fab0 f080 	clz	r0, r0
    5486:	0940      	lsrs	r0, r0, #5
    5488:	bd08      	pop	{r3, pc}
    548a:	4770      	bx	lr

0000548c <mbed::FilePath::file()>:
    548c:	6843      	ldr	r3, [r0, #4]
    548e:	b14b      	cbz	r3, 54a4 <mbed::FilePath::file()+0x18>
    5490:	b510      	push	{r4, lr}
    5492:	4604      	mov	r4, r0
    5494:	4618      	mov	r0, r3
    5496:	f7ff ff71 	bl	537c <mbed::FileBase::getPathType()>
    549a:	b928      	cbnz	r0, 54a8 <mbed::FilePath::file()+0x1c>
    549c:	6860      	ldr	r0, [r4, #4]
    549e:	b118      	cbz	r0, 54a8 <mbed::FilePath::file()+0x1c>
    54a0:	3804      	subs	r0, #4
    54a2:	bd10      	pop	{r4, pc}
    54a4:	2000      	movs	r0, #0
    54a6:	4770      	bx	lr
    54a8:	2000      	movs	r0, #0
    54aa:	bd10      	pop	{r4, pc}

000054ac <mbed::FilePath::exists()>:
    54ac:	6840      	ldr	r0, [r0, #4]
    54ae:	3000      	adds	r0, #0
    54b0:	bf18      	it	ne
    54b2:	2001      	movne	r0, #1
    54b4:	4770      	bx	lr
    54b6:	bf00      	nop

000054b8 <mbed::Serial::_getc()>:
    54b8:	f000 b89a 	b.w	55f0 <mbed::SerialBase::_base_getc()>

000054bc <non-virtual thunk to mbed::Serial::_getc()>:
    54bc:	f1a0 0040 	sub.w	r0, r0, #64	; 0x40
    54c0:	f7ff bffa 	b.w	54b8 <mbed::Serial::_getc()>

000054c4 <mbed::Serial::_putc(int)>:
    54c4:	f000 b898 	b.w	55f8 <mbed::SerialBase::_base_putc(int)>

000054c8 <non-virtual thunk to mbed::Serial::_putc(int)>:
    54c8:	f1a0 0040 	sub.w	r0, r0, #64	; 0x40
    54cc:	f7ff bffa 	b.w	54c4 <mbed::Serial::_putc(int)>

000054d0 <mbed::Serial::~Serial()>:
    54d0:	b510      	push	{r4, lr}
    54d2:	4604      	mov	r4, r0
    54d4:	4b06      	ldr	r3, [pc, #24]	; (54f0 <mbed::Serial::~Serial()+0x20>)
    54d6:	3040      	adds	r0, #64	; 0x40
    54d8:	f103 0108 	add.w	r1, r3, #8
    54dc:	f103 0220 	add.w	r2, r3, #32
    54e0:	3354      	adds	r3, #84	; 0x54
    54e2:	6021      	str	r1, [r4, #0]
    54e4:	6422      	str	r2, [r4, #64]	; 0x40
    54e6:	6463      	str	r3, [r4, #68]	; 0x44
    54e8:	f000 f8e6 	bl	56b8 <mbed::Stream::~Stream()>
    54ec:	4620      	mov	r0, r4
    54ee:	bd10      	pop	{r4, pc}
    54f0:	000092c0 	.word	0x000092c0

000054f4 <non-virtual thunk to mbed::Serial::~Serial()>:
    54f4:	f1a0 0040 	sub.w	r0, r0, #64	; 0x40
    54f8:	f7ff bfea 	b.w	54d0 <mbed::Serial::~Serial()>

000054fc <non-virtual thunk to mbed::Serial::~Serial()>:
    54fc:	f1a0 0044 	sub.w	r0, r0, #68	; 0x44
    5500:	f7ff bfe6 	b.w	54d0 <mbed::Serial::~Serial()>

00005504 <mbed::Serial::~Serial()>:
    5504:	b510      	push	{r4, lr}
    5506:	4604      	mov	r4, r0
    5508:	4b08      	ldr	r3, [pc, #32]	; (552c <mbed::Serial::~Serial()+0x28>)
    550a:	3040      	adds	r0, #64	; 0x40
    550c:	f103 0108 	add.w	r1, r3, #8
    5510:	f103 0220 	add.w	r2, r3, #32
    5514:	3354      	adds	r3, #84	; 0x54
    5516:	6021      	str	r1, [r4, #0]
    5518:	6422      	str	r2, [r4, #64]	; 0x40
    551a:	6463      	str	r3, [r4, #68]	; 0x44
    551c:	f000 f8cc 	bl	56b8 <mbed::Stream::~Stream()>
    5520:	4620      	mov	r0, r4
    5522:	f000 fac0 	bl	5aa6 <operator delete(void*)>
    5526:	4620      	mov	r0, r4
    5528:	bd10      	pop	{r4, pc}
    552a:	bf00      	nop
    552c:	000092c0 	.word	0x000092c0

00005530 <non-virtual thunk to mbed::Serial::~Serial()>:
    5530:	f1a0 0040 	sub.w	r0, r0, #64	; 0x40
    5534:	e7e6      	b.n	5504 <mbed::Serial::~Serial()>
    5536:	bf00      	nop

00005538 <non-virtual thunk to mbed::Serial::~Serial()>:
    5538:	f1a0 0044 	sub.w	r0, r0, #68	; 0x44
    553c:	e7e2      	b.n	5504 <mbed::Serial::~Serial()>
    553e:	bf00      	nop

00005540 <mbed::Serial::Serial(PinName, PinName, char const*)>:
    5540:	b538      	push	{r3, r4, r5, lr}
    5542:	4604      	mov	r4, r0
    5544:	461d      	mov	r5, r3
    5546:	f000 f82d 	bl	55a4 <mbed::SerialBase::SerialBase(PinName, PinName)>
    554a:	4629      	mov	r1, r5
    554c:	f104 0040 	add.w	r0, r4, #64	; 0x40
    5550:	f000 f890 	bl	5674 <mbed::Stream::Stream(char const*)>
    5554:	4b05      	ldr	r3, [pc, #20]	; (556c <mbed::Serial::Serial(PinName, PinName, char const*)+0x2c>)
    5556:	4620      	mov	r0, r4
    5558:	f103 0108 	add.w	r1, r3, #8
    555c:	f103 0220 	add.w	r2, r3, #32
    5560:	3354      	adds	r3, #84	; 0x54
    5562:	6021      	str	r1, [r4, #0]
    5564:	6422      	str	r2, [r4, #64]	; 0x40
    5566:	6463      	str	r3, [r4, #68]	; 0x44
    5568:	bd38      	pop	{r3, r4, r5, pc}
    556a:	bf00      	nop
    556c:	000092c0 	.word	0x000092c0

00005570 <mbed::SerialBase::_irq_handler(unsigned long, SerialIrq)>:
    5570:	1c4a      	adds	r2, r1, #1
    5572:	eb02 0242 	add.w	r2, r2, r2, lsl #1
    5576:	eb00 02c2 	add.w	r2, r0, r2, lsl #3
    557a:	6893      	ldr	r3, [r2, #8]
    557c:	b153      	cbz	r3, 5594 <mbed::SerialBase::_irq_handler(unsigned long, SerialIrq)+0x24>
    557e:	eb01 0141 	add.w	r1, r1, r1, lsl #1
    5582:	00c9      	lsls	r1, r1, #3
    5584:	1842      	adds	r2, r0, r1
    5586:	68d2      	ldr	r2, [r2, #12]
    5588:	b11a      	cbz	r2, 5592 <mbed::SerialBase::_irq_handler(unsigned long, SerialIrq)+0x22>
    558a:	4401      	add	r1, r0
    558c:	3110      	adds	r1, #16
    558e:	4610      	mov	r0, r2
    5590:	4718      	bx	r3
    5592:	4770      	bx	lr
    5594:	eb01 0341 	add.w	r3, r1, r1, lsl #1
    5598:	eb00 01c3 	add.w	r1, r0, r3, lsl #3
    559c:	68cb      	ldr	r3, [r1, #12]
    559e:	2b00      	cmp	r3, #0
    55a0:	d0f7      	beq.n	5592 <mbed::SerialBase::_irq_handler(unsigned long, SerialIrq)+0x22>
    55a2:	4718      	bx	r3

000055a4 <mbed::SerialBase::SerialBase(PinName, PinName)>:
    55a4:	b570      	push	{r4, r5, r6, lr}
    55a6:	4604      	mov	r4, r0
    55a8:	4e0b      	ldr	r6, [pc, #44]	; (55d8 <mbed::SerialBase::SerialBase(PinName, PinName)+0x34>)
    55aa:	2300      	movs	r3, #0
    55ac:	1d25      	adds	r5, r4, #4
    55ae:	f44f 5016 	mov.w	r0, #9600	; 0x2580
    55b2:	63e0      	str	r0, [r4, #60]	; 0x3c
    55b4:	6063      	str	r3, [r4, #4]
    55b6:	4628      	mov	r0, r5
    55b8:	60a3      	str	r3, [r4, #8]
    55ba:	60e3      	str	r3, [r4, #12]
    55bc:	6223      	str	r3, [r4, #32]
    55be:	6263      	str	r3, [r4, #36]	; 0x24
    55c0:	63a3      	str	r3, [r4, #56]	; 0x38
    55c2:	6026      	str	r6, [r4, #0]
    55c4:	f7ff fd4c 	bl	5060 <serial_init>
    55c8:	4628      	mov	r0, r5
    55ca:	4622      	mov	r2, r4
    55cc:	4903      	ldr	r1, [pc, #12]	; (55dc <mbed::SerialBase::SerialBase(PinName, PinName)+0x38>)
    55ce:	f7ff fc21 	bl	4e14 <serial_irq_handler>
    55d2:	4620      	mov	r0, r4
    55d4:	bd70      	pop	{r4, r5, r6, pc}
    55d6:	bf00      	nop
    55d8:	00009328 	.word	0x00009328
    55dc:	00005571 	.word	0x00005571

000055e0 <mbed::SerialBase::baud(int)>:
    55e0:	b538      	push	{r3, r4, r5, lr}
    55e2:	4604      	mov	r4, r0
    55e4:	460d      	mov	r5, r1
    55e6:	3004      	adds	r0, #4
    55e8:	f7ff fb34 	bl	4c54 <serial_baud>
    55ec:	63e5      	str	r5, [r4, #60]	; 0x3c
    55ee:	bd38      	pop	{r3, r4, r5, pc}

000055f0 <mbed::SerialBase::_base_getc()>:
    55f0:	3004      	adds	r0, #4
    55f2:	f7ff bc31 	b.w	4e58 <serial_getc>
    55f6:	bf00      	nop

000055f8 <mbed::SerialBase::_base_putc(int)>:
    55f8:	b510      	push	{r4, lr}
    55fa:	460c      	mov	r4, r1
    55fc:	3004      	adds	r0, #4
    55fe:	f7ff fc77 	bl	4ef0 <serial_putc>
    5602:	4620      	mov	r0, r4
    5604:	bd10      	pop	{r4, pc}
    5606:	bf00      	nop

00005608 <mbed::Stream::close()>:
    5608:	2000      	movs	r0, #0
    560a:	4770      	bx	lr

0000560c <mbed::Stream::write(void const*, unsigned int)>:
    560c:	b5f8      	push	{r3, r4, r5, r6, r7, lr}
    560e:	188e      	adds	r6, r1, r2
    5610:	42b1      	cmp	r1, r6
    5612:	460f      	mov	r7, r1
    5614:	d00e      	beq.n	5634 <mbed::Stream::write(void const*, unsigned int)+0x28>
    5616:	4605      	mov	r5, r0
    5618:	460c      	mov	r4, r1
    561a:	e001      	b.n	5620 <mbed::Stream::write(void const*, unsigned int)+0x14>
    561c:	42a6      	cmp	r6, r4
    561e:	d007      	beq.n	5630 <mbed::Stream::write(void const*, unsigned int)+0x24>
    5620:	682b      	ldr	r3, [r5, #0]
    5622:	4628      	mov	r0, r5
    5624:	6a5b      	ldr	r3, [r3, #36]	; 0x24
    5626:	f814 1b01 	ldrb.w	r1, [r4], #1
    562a:	4798      	blx	r3
    562c:	3001      	adds	r0, #1
    562e:	d1f5      	bne.n	561c <mbed::Stream::write(void const*, unsigned int)+0x10>
    5630:	1be0      	subs	r0, r4, r7
    5632:	bdf8      	pop	{r3, r4, r5, r6, r7, pc}
    5634:	460c      	mov	r4, r1
    5636:	e7fb      	b.n	5630 <mbed::Stream::write(void const*, unsigned int)+0x24>

00005638 <mbed::Stream::read(void*, unsigned int)>:
    5638:	b5f8      	push	{r3, r4, r5, r6, r7, lr}
    563a:	188e      	adds	r6, r1, r2
    563c:	42b1      	cmp	r1, r6
    563e:	460f      	mov	r7, r1
    5640:	d00e      	beq.n	5660 <mbed::Stream::read(void*, unsigned int)+0x28>
    5642:	4605      	mov	r5, r0
    5644:	460c      	mov	r4, r1
    5646:	e003      	b.n	5650 <mbed::Stream::read(void*, unsigned int)+0x18>
    5648:	f804 0b01 	strb.w	r0, [r4], #1
    564c:	42a6      	cmp	r6, r4
    564e:	d005      	beq.n	565c <mbed::Stream::read(void*, unsigned int)+0x24>
    5650:	682b      	ldr	r3, [r5, #0]
    5652:	4628      	mov	r0, r5
    5654:	6a9b      	ldr	r3, [r3, #40]	; 0x28
    5656:	4798      	blx	r3
    5658:	1c43      	adds	r3, r0, #1
    565a:	d1f5      	bne.n	5648 <mbed::Stream::read(void*, unsigned int)+0x10>
    565c:	1be0      	subs	r0, r4, r7
    565e:	bdf8      	pop	{r3, r4, r5, r6, r7, pc}
    5660:	460c      	mov	r4, r1
    5662:	e7fb      	b.n	565c <mbed::Stream::read(void*, unsigned int)+0x24>

00005664 <mbed::Stream::lseek(long, int)>:
    5664:	2000      	movs	r0, #0
    5666:	4770      	bx	lr

00005668 <mbed::Stream::isatty()>:
    5668:	2000      	movs	r0, #0
    566a:	4770      	bx	lr

0000566c <mbed::Stream::fsync()>:
    566c:	2000      	movs	r0, #0
    566e:	4770      	bx	lr

00005670 <mbed::Stream::flen()>:
    5670:	2000      	movs	r0, #0
    5672:	4770      	bx	lr

00005674 <mbed::Stream::Stream(char const*)>:
    5674:	b510      	push	{r4, lr}
    5676:	4604      	mov	r4, r0
    5678:	b084      	sub	sp, #16
    567a:	f7ff fe9b 	bl	53b4 <mbed::FileLike::FileLike(char const*)>
    567e:	4b0b      	ldr	r3, [pc, #44]	; (56ac <mbed::Stream::Stream(char const*)+0x38>)
    5680:	2200      	movs	r2, #0
    5682:	f103 0108 	add.w	r1, r3, #8
    5686:	333c      	adds	r3, #60	; 0x3c
    5688:	e884 000a 	stmia.w	r4, {r1, r3}
    568c:	6162      	str	r2, [r4, #20]
    568e:	a801      	add	r0, sp, #4
    5690:	4622      	mov	r2, r4
    5692:	4907      	ldr	r1, [pc, #28]	; (56b0 <mbed::Stream::Stream(char const*)+0x3c>)
    5694:	f002 fc22 	bl	7edc <siprintf>
    5698:	4906      	ldr	r1, [pc, #24]	; (56b4 <mbed::Stream::Stream(char const*)+0x40>)
    569a:	a801      	add	r0, sp, #4
    569c:	f001 fbbc 	bl	6e18 <fopen>
    56a0:	6160      	str	r0, [r4, #20]
    56a2:	f000 f9d3 	bl	5a4c <mbed::mbed_set_unbuffered_stream(__sFILE*)>
    56a6:	4620      	mov	r0, r4
    56a8:	b004      	add	sp, #16
    56aa:	bd10      	pop	{r4, pc}
    56ac:	00009330 	.word	0x00009330
    56b0:	00009374 	.word	0x00009374
    56b4:	00009378 	.word	0x00009378

000056b8 <mbed::Stream::~Stream()>:
    56b8:	b510      	push	{r4, lr}
    56ba:	4604      	mov	r4, r0
    56bc:	4b06      	ldr	r3, [pc, #24]	; (56d8 <mbed::Stream::~Stream()+0x20>)
    56be:	6940      	ldr	r0, [r0, #20]
    56c0:	f103 0208 	add.w	r2, r3, #8
    56c4:	333c      	adds	r3, #60	; 0x3c
    56c6:	e884 000c 	stmia.w	r4, {r2, r3}
    56ca:	f001 f9bd 	bl	6a48 <fclose>
    56ce:	4620      	mov	r0, r4
    56d0:	f7ff fe84 	bl	53dc <mbed::FileLike::~FileLike()>
    56d4:	4620      	mov	r0, r4
    56d6:	bd10      	pop	{r4, pc}
    56d8:	00009330 	.word	0x00009330

000056dc <mbed::Stream::putc(int)>:
    56dc:	b538      	push	{r3, r4, r5, lr}
    56de:	460d      	mov	r5, r1
    56e0:	4604      	mov	r4, r0
    56e2:	6940      	ldr	r0, [r0, #20]
    56e4:	f001 fa66 	bl	6bb4 <fflush>
    56e8:	4628      	mov	r0, r5
    56ea:	6961      	ldr	r1, [r4, #20]
    56ec:	e8bd 4038 	ldmia.w	sp!, {r3, r4, r5, lr}
    56f0:	f001 bbc0 	b.w	6e74 <fputc>

000056f4 <mbed::Stream::getc()>:
    56f4:	b510      	push	{r4, lr}
    56f6:	4604      	mov	r4, r0
    56f8:	6940      	ldr	r0, [r0, #20]
    56fa:	f001 fa5b 	bl	6bb4 <fflush>
    56fe:	6960      	ldr	r0, [r4, #20]
    5700:	e8bd 4010 	ldmia.w	sp!, {r4, lr}
    5704:	f000 b9a6 	b.w	5a54 <mbed::mbed_getc(__sFILE*)>

00005708 <mbed::Timer::slicetime() [clone .part.0]>:
    5708:	b510      	push	{r4, lr}
    570a:	4604      	mov	r4, r0
    570c:	68c0      	ldr	r0, [r0, #12]
    570e:	f7ff f837 	bl	4780 <ticker_read>
    5712:	6863      	ldr	r3, [r4, #4]
    5714:	1ac0      	subs	r0, r0, r3
    5716:	bd10      	pop	{r4, pc}

00005718 <mbed::Timer::Timer()>:
    5718:	b538      	push	{r3, r4, r5, lr}
    571a:	2500      	movs	r5, #0
    571c:	6005      	str	r5, [r0, #0]
    571e:	6045      	str	r5, [r0, #4]
    5720:	6085      	str	r5, [r0, #8]
    5722:	4604      	mov	r4, r0
    5724:	f7ff f830 	bl	4788 <get_us_ticker_data>
    5728:	60e0      	str	r0, [r4, #12]
    572a:	f7ff f829 	bl	4780 <ticker_read>
    572e:	60a5      	str	r5, [r4, #8]
    5730:	6060      	str	r0, [r4, #4]
    5732:	4620      	mov	r0, r4
    5734:	bd38      	pop	{r3, r4, r5, pc}
    5736:	bf00      	nop

00005738 <mbed::Timer::start()>:
    5738:	6803      	ldr	r3, [r0, #0]
    573a:	b103      	cbz	r3, 573e <mbed::Timer::start()+0x6>
    573c:	4770      	bx	lr
    573e:	b510      	push	{r4, lr}
    5740:	4604      	mov	r4, r0
    5742:	68c0      	ldr	r0, [r0, #12]
    5744:	f7ff f81c 	bl	4780 <ticker_read>
    5748:	2301      	movs	r3, #1
    574a:	6060      	str	r0, [r4, #4]
    574c:	6023      	str	r3, [r4, #0]
    574e:	bd10      	pop	{r4, pc}

00005750 <mbed::Timer::read_ms()>:
    5750:	6803      	ldr	r3, [r0, #0]
    5752:	b510      	push	{r4, lr}
    5754:	6884      	ldr	r4, [r0, #8]
    5756:	b113      	cbz	r3, 575e <mbed::Timer::read_ms()+0xe>
    5758:	f7ff ffd6 	bl	5708 <mbed::Timer::slicetime() [clone .part.0]>
    575c:	4603      	mov	r3, r0
    575e:	4804      	ldr	r0, [pc, #16]	; (5770 <mbed::Timer::read_ms()+0x20>)
    5760:	4423      	add	r3, r4
    5762:	fb80 2003 	smull	r2, r0, r0, r3
    5766:	17db      	asrs	r3, r3, #31
    5768:	ebc3 10a0 	rsb	r0, r3, r0, asr #6
    576c:	bd10      	pop	{r4, pc}
    576e:	bf00      	nop
    5770:	10624dd3 	.word	0x10624dd3

00005774 <init_serial() [clone .part.0]>:
    5774:	4802      	ldr	r0, [pc, #8]	; (5780 <init_serial() [clone .part.0]+0xc>)
    5776:	4903      	ldr	r1, [pc, #12]	; (5784 <init_serial() [clone .part.0]+0x10>)
    5778:	4a03      	ldr	r2, [pc, #12]	; (5788 <init_serial() [clone .part.0]+0x14>)
    577a:	f7ff bc71 	b.w	5060 <serial_init>
    577e:	bf00      	nop
    5780:	10000b44 	.word	0x10000b44
    5784:	2009c002 	.word	0x2009c002
    5788:	2009c003 	.word	0x2009c003

0000578c <mbed::FileHandle::~FileHandle()>:
    578c:	4a08      	ldr	r2, [pc, #32]	; (57b0 <mbed::FileHandle::~FileHandle()+0x24>)
    578e:	4b09      	ldr	r3, [pc, #36]	; (57b4 <mbed::FileHandle::~FileHandle()+0x28>)
    5790:	b410      	push	{r4}
    5792:	6002      	str	r2, [r0, #0]
    5794:	f503 7180 	add.w	r1, r3, #256	; 0x100
    5798:	2400      	movs	r4, #0
    579a:	f853 2f04 	ldr.w	r2, [r3, #4]!
    579e:	4282      	cmp	r2, r0
    57a0:	bf08      	it	eq
    57a2:	601c      	streq	r4, [r3, #0]
    57a4:	428b      	cmp	r3, r1
    57a6:	d1f8      	bne.n	579a <mbed::FileHandle::~FileHandle()+0xe>
    57a8:	f85d 4b04 	ldr.w	r4, [sp], #4
    57ac:	4770      	bx	lr
    57ae:	bf00      	nop
    57b0:	000093a0 	.word	0x000093a0
    57b4:	10000a34 	.word	0x10000a34

000057b8 <_open>:
    57b8:	b5f0      	push	{r4, r5, r6, r7, lr}
    57ba:	460e      	mov	r6, r1
    57bc:	b085      	sub	sp, #20
    57be:	4937      	ldr	r1, [pc, #220]	; (589c <_open+0xe4>)
    57c0:	4605      	mov	r5, r0
    57c2:	f002 fc1e 	bl	8002 <strcmp>
    57c6:	b928      	cbnz	r0, 57d4 <_open+0x1c>
    57c8:	4b35      	ldr	r3, [pc, #212]	; (58a0 <_open+0xe8>)
    57ca:	681b      	ldr	r3, [r3, #0]
    57cc:	2b00      	cmp	r3, #0
    57ce:	d042      	beq.n	5856 <_open+0x9e>
    57d0:	b005      	add	sp, #20
    57d2:	bdf0      	pop	{r4, r5, r6, r7, pc}
    57d4:	4628      	mov	r0, r5
    57d6:	4933      	ldr	r1, [pc, #204]	; (58a4 <_open+0xec>)
    57d8:	f002 fc13 	bl	8002 <strcmp>
    57dc:	b930      	cbnz	r0, 57ec <_open+0x34>
    57de:	4b30      	ldr	r3, [pc, #192]	; (58a0 <_open+0xe8>)
    57e0:	681b      	ldr	r3, [r3, #0]
    57e2:	2b00      	cmp	r3, #0
    57e4:	d042      	beq.n	586c <_open+0xb4>
    57e6:	2001      	movs	r0, #1
    57e8:	b005      	add	sp, #20
    57ea:	bdf0      	pop	{r4, r5, r6, r7, pc}
    57ec:	4628      	mov	r0, r5
    57ee:	492e      	ldr	r1, [pc, #184]	; (58a8 <_open+0xf0>)
    57f0:	f002 fc07 	bl	8002 <strcmp>
    57f4:	2800      	cmp	r0, #0
    57f6:	d034      	beq.n	5862 <_open+0xaa>
    57f8:	4b2c      	ldr	r3, [pc, #176]	; (58ac <_open+0xf4>)
    57fa:	2400      	movs	r4, #0
    57fc:	e002      	b.n	5804 <_open+0x4c>
    57fe:	3401      	adds	r4, #1
    5800:	2c40      	cmp	r4, #64	; 0x40
    5802:	d03c      	beq.n	587e <_open+0xc6>
    5804:	f853 2f04 	ldr.w	r2, [r3, #4]!
    5808:	2a00      	cmp	r2, #0
    580a:	d1f8      	bne.n	57fe <_open+0x46>
    580c:	782b      	ldrb	r3, [r5, #0]
    580e:	2b3a      	cmp	r3, #58	; 0x3a
    5810:	d03c      	beq.n	588c <_open+0xd4>
    5812:	4629      	mov	r1, r5
    5814:	a802      	add	r0, sp, #8
    5816:	f7ff fdf3 	bl	5400 <mbed::FilePath::FilePath(char const*)>
    581a:	a802      	add	r0, sp, #8
    581c:	f7ff fe46 	bl	54ac <mbed::FilePath::exists()>
    5820:	b368      	cbz	r0, 587e <_open+0xc6>
    5822:	a802      	add	r0, sp, #8
    5824:	f7ff fe28 	bl	5478 <mbed::FilePath::isFile()>
    5828:	bb20      	cbnz	r0, 5874 <_open+0xbc>
    582a:	a802      	add	r0, sp, #8
    582c:	f7ff fe14 	bl	5458 <mbed::FilePath::fileSystem()>
    5830:	4605      	mov	r5, r0
    5832:	b320      	cbz	r0, 587e <_open+0xc6>
    5834:	6803      	ldr	r3, [r0, #0]
    5836:	a802      	add	r0, sp, #8
    5838:	689f      	ldr	r7, [r3, #8]
    583a:	f7ff fe0b 	bl	5454 <mbed::FilePath::fileName()>
    583e:	4632      	mov	r2, r6
    5840:	4601      	mov	r1, r0
    5842:	4628      	mov	r0, r5
    5844:	47b8      	blx	r7
    5846:	4603      	mov	r3, r0
    5848:	b1cb      	cbz	r3, 587e <_open+0xc6>
    584a:	4a19      	ldr	r2, [pc, #100]	; (58b0 <_open+0xf8>)
    584c:	1ce0      	adds	r0, r4, #3
    584e:	f842 3024 	str.w	r3, [r2, r4, lsl #2]
    5852:	b005      	add	sp, #20
    5854:	bdf0      	pop	{r4, r5, r6, r7, pc}
    5856:	9001      	str	r0, [sp, #4]
    5858:	f7ff ff8c 	bl	5774 <init_serial() [clone .part.0]>
    585c:	9801      	ldr	r0, [sp, #4]
    585e:	b005      	add	sp, #20
    5860:	bdf0      	pop	{r4, r5, r6, r7, pc}
    5862:	4b0f      	ldr	r3, [pc, #60]	; (58a0 <_open+0xe8>)
    5864:	681b      	ldr	r3, [r3, #0]
    5866:	b16b      	cbz	r3, 5884 <_open+0xcc>
    5868:	2002      	movs	r0, #2
    586a:	e7b1      	b.n	57d0 <_open+0x18>
    586c:	f7ff ff82 	bl	5774 <init_serial() [clone .part.0]>
    5870:	2001      	movs	r0, #1
    5872:	e7ad      	b.n	57d0 <_open+0x18>
    5874:	a802      	add	r0, sp, #8
    5876:	f7ff fe09 	bl	548c <mbed::FilePath::file()>
    587a:	4603      	mov	r3, r0
    587c:	e7e4      	b.n	5848 <_open+0x90>
    587e:	f04f 30ff 	mov.w	r0, #4294967295
    5882:	e7a5      	b.n	57d0 <_open+0x18>
    5884:	f7ff ff76 	bl	5774 <init_serial() [clone .part.0]>
    5888:	2002      	movs	r0, #2
    588a:	e7a1      	b.n	57d0 <_open+0x18>
    588c:	4628      	mov	r0, r5
    588e:	4909      	ldr	r1, [pc, #36]	; (58b4 <_open+0xfc>)
    5890:	aa02      	add	r2, sp, #8
    5892:	f002 fb47 	bl	7f24 <siscanf>
    5896:	9b02      	ldr	r3, [sp, #8]
    5898:	e7d6      	b.n	5848 <_open+0x90>
    589a:	bf00      	nop
    589c:	0000937c 	.word	0x0000937c
    58a0:	10000948 	.word	0x10000948
    58a4:	0000938c 	.word	0x0000938c
    58a8:	00009384 	.word	0x00009384
    58ac:	10000a34 	.word	0x10000a34
    58b0:	10000a38 	.word	0x10000a38
    58b4:	00009374 	.word	0x00009374

000058b8 <_close>:
    58b8:	2802      	cmp	r0, #2
    58ba:	dd0a      	ble.n	58d2 <_close+0x1a>
    58bc:	4a07      	ldr	r2, [pc, #28]	; (58dc <_close+0x24>)
    58be:	1ec3      	subs	r3, r0, #3
    58c0:	f852 0023 	ldr.w	r0, [r2, r3, lsl #2]
    58c4:	2100      	movs	r1, #0
    58c6:	f842 1023 	str.w	r1, [r2, r3, lsl #2]
    58ca:	b120      	cbz	r0, 58d6 <_close+0x1e>
    58cc:	6803      	ldr	r3, [r0, #0]
    58ce:	685b      	ldr	r3, [r3, #4]
    58d0:	4718      	bx	r3
    58d2:	2000      	movs	r0, #0
    58d4:	4770      	bx	lr
    58d6:	f04f 30ff 	mov.w	r0, #4294967295
    58da:	4770      	bx	lr
    58dc:	10000a38 	.word	0x10000a38

000058e0 <_write>:
    58e0:	2802      	cmp	r0, #2
    58e2:	dc12      	bgt.n	590a <_write+0x2a>
    58e4:	4b0e      	ldr	r3, [pc, #56]	; (5920 <_write+0x40>)
    58e6:	b570      	push	{r4, r5, r6, lr}
    58e8:	681b      	ldr	r3, [r3, #0]
    58ea:	460c      	mov	r4, r1
    58ec:	4616      	mov	r6, r2
    58ee:	b90b      	cbnz	r3, 58f4 <_write+0x14>
    58f0:	f7ff ff40 	bl	5774 <init_serial() [clone .part.0]>
    58f4:	19a5      	adds	r5, r4, r6
    58f6:	b136      	cbz	r6, 5906 <_write+0x26>
    58f8:	f814 1b01 	ldrb.w	r1, [r4], #1
    58fc:	4809      	ldr	r0, [pc, #36]	; (5924 <_write+0x44>)
    58fe:	f7ff faf7 	bl	4ef0 <serial_putc>
    5902:	42ac      	cmp	r4, r5
    5904:	d1f8      	bne.n	58f8 <_write+0x18>
    5906:	4630      	mov	r0, r6
    5908:	bd70      	pop	{r4, r5, r6, pc}
    590a:	4b07      	ldr	r3, [pc, #28]	; (5928 <_write+0x48>)
    590c:	3803      	subs	r0, #3
    590e:	f853 0020 	ldr.w	r0, [r3, r0, lsl #2]
    5912:	b110      	cbz	r0, 591a <_write+0x3a>
    5914:	6803      	ldr	r3, [r0, #0]
    5916:	681b      	ldr	r3, [r3, #0]
    5918:	4718      	bx	r3
    591a:	f04f 30ff 	mov.w	r0, #4294967295
    591e:	4770      	bx	lr
    5920:	10000948 	.word	0x10000948
    5924:	10000b44 	.word	0x10000b44
    5928:	10000a38 	.word	0x10000a38

0000592c <_read>:
    592c:	2802      	cmp	r0, #2
    592e:	dc0d      	bgt.n	594c <_read+0x20>
    5930:	4b0c      	ldr	r3, [pc, #48]	; (5964 <_read+0x38>)
    5932:	b510      	push	{r4, lr}
    5934:	681b      	ldr	r3, [r3, #0]
    5936:	460c      	mov	r4, r1
    5938:	b90b      	cbnz	r3, 593e <_read+0x12>
    593a:	f7ff ff1b 	bl	5774 <init_serial() [clone .part.0]>
    593e:	480a      	ldr	r0, [pc, #40]	; (5968 <_read+0x3c>)
    5940:	f7ff fa8a 	bl	4e58 <serial_getc>
    5944:	2301      	movs	r3, #1
    5946:	7020      	strb	r0, [r4, #0]
    5948:	4618      	mov	r0, r3
    594a:	bd10      	pop	{r4, pc}
    594c:	4b07      	ldr	r3, [pc, #28]	; (596c <_read+0x40>)
    594e:	3803      	subs	r0, #3
    5950:	f853 0020 	ldr.w	r0, [r3, r0, lsl #2]
    5954:	b110      	cbz	r0, 595c <_read+0x30>
    5956:	6803      	ldr	r3, [r0, #0]
    5958:	689b      	ldr	r3, [r3, #8]
    595a:	4718      	bx	r3
    595c:	f04f 33ff 	mov.w	r3, #4294967295
    5960:	4618      	mov	r0, r3
    5962:	4770      	bx	lr
    5964:	10000948 	.word	0x10000948
    5968:	10000b44 	.word	0x10000b44
    596c:	10000a38 	.word	0x10000a38

00005970 <_isatty>:
    5970:	2802      	cmp	r0, #2
    5972:	dd07      	ble.n	5984 <_isatty+0x14>
    5974:	4b06      	ldr	r3, [pc, #24]	; (5990 <_isatty+0x20>)
    5976:	3803      	subs	r0, #3
    5978:	f853 0020 	ldr.w	r0, [r3, r0, lsl #2]
    597c:	b120      	cbz	r0, 5988 <_isatty+0x18>
    597e:	6803      	ldr	r3, [r0, #0]
    5980:	68db      	ldr	r3, [r3, #12]
    5982:	4718      	bx	r3
    5984:	2001      	movs	r0, #1
    5986:	4770      	bx	lr
    5988:	f04f 30ff 	mov.w	r0, #4294967295
    598c:	4770      	bx	lr
    598e:	bf00      	nop
    5990:	10000a38 	.word	0x10000a38

00005994 <_lseek>:
    5994:	2802      	cmp	r0, #2
    5996:	dd07      	ble.n	59a8 <_lseek+0x14>
    5998:	4b06      	ldr	r3, [pc, #24]	; (59b4 <_lseek+0x20>)
    599a:	3803      	subs	r0, #3
    599c:	f853 0020 	ldr.w	r0, [r3, r0, lsl #2]
    59a0:	b120      	cbz	r0, 59ac <_lseek+0x18>
    59a2:	6803      	ldr	r3, [r0, #0]
    59a4:	691b      	ldr	r3, [r3, #16]
    59a6:	4718      	bx	r3
    59a8:	2000      	movs	r0, #0
    59aa:	4770      	bx	lr
    59ac:	f04f 30ff 	mov.w	r0, #4294967295
    59b0:	4770      	bx	lr
    59b2:	bf00      	nop
    59b4:	10000a38 	.word	0x10000a38

000059b8 <_fstat>:
    59b8:	2802      	cmp	r0, #2
    59ba:	b508      	push	{r3, lr}
    59bc:	d804      	bhi.n	59c8 <_fstat+0x10>
    59be:	f44f 5300 	mov.w	r3, #8192	; 0x2000
    59c2:	604b      	str	r3, [r1, #4]
    59c4:	2000      	movs	r0, #0
    59c6:	bd08      	pop	{r3, pc}
    59c8:	f000 ffd2 	bl	6970 <__errno>
    59cc:	2309      	movs	r3, #9
    59ce:	6003      	str	r3, [r0, #0]
    59d0:	f04f 30ff 	mov.w	r0, #4294967295
    59d4:	bd08      	pop	{r3, pc}
    59d6:	bf00      	nop

000059d8 <mbed_main>:
    59d8:	4770      	bx	lr
    59da:	bf00      	nop

000059dc <mbed_sdk_init>:
    59dc:	4770      	bx	lr
    59de:	bf00      	nop

000059e0 <__wrap_main>:
    59e0:	b508      	push	{r3, lr}
    59e2:	f7ff fffb 	bl	59dc <mbed_sdk_init>
    59e6:	f7ff fff7 	bl	59d8 <mbed_main>
    59ea:	e8bd 4008 	ldmia.w	sp!, {r3, lr}
    59ee:	f7fc bb27 	b.w	2040 <main>
    59f2:	bf00      	nop

000059f4 <_sbrk>:
    59f4:	4a07      	ldr	r2, [pc, #28]	; (5a14 <_sbrk+0x20>)
    59f6:	6813      	ldr	r3, [r2, #0]
    59f8:	1819      	adds	r1, r3, r0
    59fa:	f3ef 8008 	mrs	r0, MSP
    59fe:	4281      	cmp	r1, r0
    5a00:	d202      	bcs.n	5a08 <_sbrk+0x14>
    5a02:	4618      	mov	r0, r3
    5a04:	6011      	str	r1, [r2, #0]
    5a06:	4770      	bx	lr
    5a08:	4b03      	ldr	r3, [pc, #12]	; (5a18 <_sbrk+0x24>)
    5a0a:	220c      	movs	r2, #12
    5a0c:	601a      	str	r2, [r3, #0]
    5a0e:	f04f 30ff 	mov.w	r0, #4294967295
    5a12:	4770      	bx	lr
    5a14:	10000134 	.word	0x10000134
    5a18:	10000b4c 	.word	0x10000b4c

00005a1c <_exit>:
    5a1c:	4c0a      	ldr	r4, [pc, #40]	; (5a48 <_exit+0x2c>)
    5a1e:	b508      	push	{r3, lr}
    5a20:	6823      	ldr	r3, [r4, #0]
    5a22:	4605      	mov	r5, r0
    5a24:	6898      	ldr	r0, [r3, #8]
    5a26:	f001 f8c5 	bl	6bb4 <fflush>
    5a2a:	6823      	ldr	r3, [r4, #0]
    5a2c:	68d8      	ldr	r0, [r3, #12]
    5a2e:	f001 f8c1 	bl	6bb4 <fflush>
    5a32:	f7fe fe0f 	bl	4654 <mbed_interface_connected>
    5a36:	b920      	cbnz	r0, 5a42 <_exit+0x26>
    5a38:	b905      	cbnz	r5, 5a3c <_exit+0x20>
    5a3a:	e7fe      	b.n	5a3a <_exit+0x1e>
    5a3c:	f7fe fd7a 	bl	4534 <mbed_die>
    5a40:	e7fb      	b.n	5a3a <_exit+0x1e>
    5a42:	f7fe fe63 	bl	470c <semihost_exit>
    5a46:	e7f7      	b.n	5a38 <_exit+0x1c>
    5a48:	10000198 	.word	0x10000198

00005a4c <mbed::mbed_set_unbuffered_stream(__sFILE*)>:
    5a4c:	2100      	movs	r1, #0
    5a4e:	f002 b9b4 	b.w	7dba <setbuf>
    5a52:	bf00      	nop

00005a54 <mbed::mbed_getc(__sFILE*)>:
    5a54:	f001 b8ec 	b.w	6c30 <fgetc>

00005a58 <Reset_Handler>:
    5a58:	4906      	ldr	r1, [pc, #24]	; (5a74 <Reset_Handler+0x1c>)
    5a5a:	4a07      	ldr	r2, [pc, #28]	; (5a78 <Reset_Handler+0x20>)
    5a5c:	4b07      	ldr	r3, [pc, #28]	; (5a7c <Reset_Handler+0x24>)
    5a5e:	429a      	cmp	r2, r3
    5a60:	bfbe      	ittt	lt
    5a62:	f851 0b04 	ldrlt.w	r0, [r1], #4
    5a66:	f842 0b04 	strlt.w	r0, [r2], #4
    5a6a:	e7f8      	blt.n	5a5e <Reset_Handler+0x6>
    5a6c:	4804      	ldr	r0, [pc, #16]	; (5a80 <Reset_Handler+0x28>)
    5a6e:	4780      	blx	r0
    5a70:	4804      	ldr	r0, [pc, #16]	; (5a84 <Reset_Handler+0x2c>)
    5a72:	4700      	bx	r0
    5a74:	000095c0 	.word	0x000095c0
    5a78:	100000c8 	.word	0x100000c8
    5a7c:	100001ac 	.word	0x100001ac
    5a80:	00004815 	.word	0x00004815
    5a84:	00003dd9 	.word	0x00003dd9

00005a88 <NMI_Handler>:
    5a88:	e7fe      	b.n	5a88 <NMI_Handler>

00005a8a <HardFault_Handler>:
    5a8a:	e7fe      	b.n	5a8a <HardFault_Handler>

00005a8c <MemManage_Handler>:
    5a8c:	e7fe      	b.n	5a8c <MemManage_Handler>

00005a8e <BusFault_Handler>:
    5a8e:	e7fe      	b.n	5a8e <BusFault_Handler>

00005a90 <UsageFault_Handler>:
    5a90:	e7fe      	b.n	5a90 <UsageFault_Handler>

00005a92 <SVC_Handler>:
    5a92:	e7fe      	b.n	5a92 <SVC_Handler>

00005a94 <DebugMon_Handler>:
    5a94:	e7fe      	b.n	5a94 <DebugMon_Handler>

00005a96 <PendSV_Handler>:
    5a96:	e7fe      	b.n	5a96 <PendSV_Handler>

00005a98 <SysTick_Handler>:
    5a98:	e7fe      	b.n	5a98 <SysTick_Handler>

00005a9a <ADC_IRQHandler>:
    5a9a:	e7fe      	b.n	5a9a <ADC_IRQHandler>

00005a9c <__aeabi_atexit>:
    5a9c:	4603      	mov	r3, r0
    5a9e:	4608      	mov	r0, r1
    5aa0:	4619      	mov	r1, r3
    5aa2:	f000 bf57 	b.w	6954 <__cxa_atexit>

00005aa6 <operator delete(void*)>:
    5aa6:	f7fe b9bd 	b.w	3e24 <__wrap_free>

00005aaa <operator new(unsigned int)>:
    5aaa:	b510      	push	{r4, lr}
    5aac:	2800      	cmp	r0, #0
    5aae:	bf14      	ite	ne
    5ab0:	4604      	movne	r4, r0
    5ab2:	2401      	moveq	r4, #1
    5ab4:	4620      	mov	r0, r4
    5ab6:	f7fe f9a9 	bl	3e0c <__wrap_malloc>
    5aba:	b930      	cbnz	r0, 5aca <operator new(unsigned int)+0x20>
    5abc:	f000 f806 	bl	5acc <std::get_new_handler()>
    5ac0:	b908      	cbnz	r0, 5ac6 <operator new(unsigned int)+0x1c>
    5ac2:	f7fe f9b5 	bl	3e30 <abort>
    5ac6:	4780      	blx	r0
    5ac8:	e7f4      	b.n	5ab4 <operator new(unsigned int)+0xa>
    5aca:	bd10      	pop	{r4, pc}

00005acc <std::get_new_handler()>:
    5acc:	4b02      	ldr	r3, [pc, #8]	; (5ad8 <std::get_new_handler()+0xc>)
    5ace:	6818      	ldr	r0, [r3, #0]
    5ad0:	f3bf 8f5f 	dmb	sy
    5ad4:	4770      	bx	lr
    5ad6:	bf00      	nop
    5ad8:	10000b38 	.word	0x10000b38

00005adc <__aeabi_drsub>:
    5adc:	f081 4100 	eor.w	r1, r1, #2147483648	; 0x80000000
    5ae0:	e002      	b.n	5ae8 <__adddf3>
    5ae2:	bf00      	nop

00005ae4 <__aeabi_dsub>:
    5ae4:	f083 4300 	eor.w	r3, r3, #2147483648	; 0x80000000

00005ae8 <__adddf3>:
    5ae8:	b530      	push	{r4, r5, lr}
    5aea:	ea4f 0441 	mov.w	r4, r1, lsl #1
    5aee:	ea4f 0543 	mov.w	r5, r3, lsl #1
    5af2:	ea94 0f05 	teq	r4, r5
    5af6:	bf08      	it	eq
    5af8:	ea90 0f02 	teqeq	r0, r2
    5afc:	bf1f      	itttt	ne
    5afe:	ea54 0c00 	orrsne.w	r12, r4, r0
    5b02:	ea55 0c02 	orrsne.w	r12, r5, r2
    5b06:	ea7f 5c64 	mvnsne.w	r12, r4, asr #21
    5b0a:	ea7f 5c65 	mvnsne.w	r12, r5, asr #21
    5b0e:	f000 80e2 	beq.w	5cd6 <__adddf3+0x1ee>
    5b12:	ea4f 5454 	mov.w	r4, r4, lsr #21
    5b16:	ebd4 5555 	rsbs	r5, r4, r5, lsr #21
    5b1a:	bfb8      	it	lt
    5b1c:	426d      	neglt	r5, r5
    5b1e:	dd0c      	ble.n	5b3a <__adddf3+0x52>
    5b20:	442c      	add	r4, r5
    5b22:	ea80 0202 	eor.w	r2, r0, r2
    5b26:	ea81 0303 	eor.w	r3, r1, r3
    5b2a:	ea82 0000 	eor.w	r0, r2, r0
    5b2e:	ea83 0101 	eor.w	r1, r3, r1
    5b32:	ea80 0202 	eor.w	r2, r0, r2
    5b36:	ea81 0303 	eor.w	r3, r1, r3
    5b3a:	2d36      	cmp	r5, #54	; 0x36
    5b3c:	bf88      	it	hi
    5b3e:	bd30      	pophi	{r4, r5, pc}
    5b40:	f011 4f00 	tst.w	r1, #2147483648	; 0x80000000
    5b44:	ea4f 3101 	mov.w	r1, r1, lsl #12
    5b48:	f44f 1c80 	mov.w	r12, #1048576	; 0x100000
    5b4c:	ea4c 3111 	orr.w	r1, r12, r1, lsr #12
    5b50:	d002      	beq.n	5b58 <__adddf3+0x70>
    5b52:	4240      	negs	r0, r0
    5b54:	eb61 0141 	sbc.w	r1, r1, r1, lsl #1
    5b58:	f013 4f00 	tst.w	r3, #2147483648	; 0x80000000
    5b5c:	ea4f 3303 	mov.w	r3, r3, lsl #12
    5b60:	ea4c 3313 	orr.w	r3, r12, r3, lsr #12
    5b64:	d002      	beq.n	5b6c <__adddf3+0x84>
    5b66:	4252      	negs	r2, r2
    5b68:	eb63 0343 	sbc.w	r3, r3, r3, lsl #1
    5b6c:	ea94 0f05 	teq	r4, r5
    5b70:	f000 80a7 	beq.w	5cc2 <__adddf3+0x1da>
    5b74:	f1a4 0401 	sub.w	r4, r4, #1
    5b78:	f1d5 0e20 	rsbs	lr, r5, #32
    5b7c:	db0d      	blt.n	5b9a <__adddf3+0xb2>
    5b7e:	fa02 fc0e 	lsl.w	r12, r2, lr
    5b82:	fa22 f205 	lsr.w	r2, r2, r5
    5b86:	1880      	adds	r0, r0, r2
    5b88:	f141 0100 	adc.w	r1, r1, #0
    5b8c:	fa03 f20e 	lsl.w	r2, r3, lr
    5b90:	1880      	adds	r0, r0, r2
    5b92:	fa43 f305 	asr.w	r3, r3, r5
    5b96:	4159      	adcs	r1, r3
    5b98:	e00e      	b.n	5bb8 <__adddf3+0xd0>
    5b9a:	f1a5 0520 	sub.w	r5, r5, #32
    5b9e:	f10e 0e20 	add.w	lr, lr, #32
    5ba2:	2a01      	cmp	r2, #1
    5ba4:	fa03 fc0e 	lsl.w	r12, r3, lr
    5ba8:	bf28      	it	cs
    5baa:	f04c 0c02 	orrcs.w	r12, r12, #2
    5bae:	fa43 f305 	asr.w	r3, r3, r5
    5bb2:	18c0      	adds	r0, r0, r3
    5bb4:	eb51 71e3 	adcs.w	r1, r1, r3, asr #31
    5bb8:	f001 4500 	and.w	r5, r1, #2147483648	; 0x80000000
    5bbc:	d507      	bpl.n	5bce <__adddf3+0xe6>
    5bbe:	f04f 0e00 	mov.w	lr, #0
    5bc2:	f1dc 0c00 	rsbs	r12, r12, #0
    5bc6:	eb7e 0000 	sbcs.w	r0, lr, r0
    5bca:	eb6e 0101 	sbc.w	r1, lr, r1
    5bce:	f5b1 1f80 	cmp.w	r1, #1048576	; 0x100000
    5bd2:	d31b      	bcc.n	5c0c <__adddf3+0x124>
    5bd4:	f5b1 1f00 	cmp.w	r1, #2097152	; 0x200000
    5bd8:	d30c      	bcc.n	5bf4 <__adddf3+0x10c>
    5bda:	0849      	lsrs	r1, r1, #1
    5bdc:	ea5f 0030 	movs.w	r0, r0, rrx
    5be0:	ea4f 0c3c 	mov.w	r12, r12, rrx
    5be4:	f104 0401 	add.w	r4, r4, #1
    5be8:	ea4f 5244 	mov.w	r2, r4, lsl #21
    5bec:	f512 0f80 	cmn.w	r2, #4194304	; 0x400000
    5bf0:	f080 809a 	bcs.w	5d28 <__adddf3+0x240>
    5bf4:	f1bc 4f00 	cmp.w	r12, #2147483648	; 0x80000000
    5bf8:	bf08      	it	eq
    5bfa:	ea5f 0c50 	movseq.w	r12, r0, lsr #1
    5bfe:	f150 0000 	adcs.w	r0, r0, #0
    5c02:	eb41 5104 	adc.w	r1, r1, r4, lsl #20
    5c06:	ea41 0105 	orr.w	r1, r1, r5
    5c0a:	bd30      	pop	{r4, r5, pc}
    5c0c:	ea5f 0c4c 	movs.w	r12, r12, lsl #1
    5c10:	4140      	adcs	r0, r0
    5c12:	eb41 0101 	adc.w	r1, r1, r1
    5c16:	f411 1f80 	tst.w	r1, #1048576	; 0x100000
    5c1a:	f1a4 0401 	sub.w	r4, r4, #1
    5c1e:	d1e9      	bne.n	5bf4 <__adddf3+0x10c>
    5c20:	f091 0f00 	teq	r1, #0
    5c24:	bf04      	itt	eq
    5c26:	4601      	moveq	r1, r0
    5c28:	2000      	moveq	r0, #0
    5c2a:	fab1 f381 	clz	r3, r1
    5c2e:	bf08      	it	eq
    5c30:	3320      	addeq	r3, #32
    5c32:	f1a3 030b 	sub.w	r3, r3, #11
    5c36:	f1b3 0220 	subs.w	r2, r3, #32
    5c3a:	da0c      	bge.n	5c56 <__adddf3+0x16e>
    5c3c:	320c      	adds	r2, #12
    5c3e:	dd08      	ble.n	5c52 <__adddf3+0x16a>
    5c40:	f102 0c14 	add.w	r12, r2, #20
    5c44:	f1c2 020c 	rsb	r2, r2, #12
    5c48:	fa01 f00c 	lsl.w	r0, r1, r12
    5c4c:	fa21 f102 	lsr.w	r1, r1, r2
    5c50:	e00c      	b.n	5c6c <__adddf3+0x184>
    5c52:	f102 0214 	add.w	r2, r2, #20
    5c56:	bfd8      	it	le
    5c58:	f1c2 0c20 	rsble	r12, r2, #32
    5c5c:	fa01 f102 	lsl.w	r1, r1, r2
    5c60:	fa20 fc0c 	lsr.w	r12, r0, r12
    5c64:	bfdc      	itt	le
    5c66:	ea41 010c 	orrle.w	r1, r1, r12
    5c6a:	4090      	lslle	r0, r2
    5c6c:	1ae4      	subs	r4, r4, r3
    5c6e:	bfa2      	ittt	ge
    5c70:	eb01 5104 	addge.w	r1, r1, r4, lsl #20
    5c74:	4329      	orrge	r1, r5
    5c76:	bd30      	popge	{r4, r5, pc}
    5c78:	ea6f 0404 	mvn.w	r4, r4
    5c7c:	3c1f      	subs	r4, #31
    5c7e:	da1c      	bge.n	5cba <__adddf3+0x1d2>
    5c80:	340c      	adds	r4, #12
    5c82:	dc0e      	bgt.n	5ca2 <__adddf3+0x1ba>
    5c84:	f104 0414 	add.w	r4, r4, #20
    5c88:	f1c4 0220 	rsb	r2, r4, #32
    5c8c:	fa20 f004 	lsr.w	r0, r0, r4
    5c90:	fa01 f302 	lsl.w	r3, r1, r2
    5c94:	ea40 0003 	orr.w	r0, r0, r3
    5c98:	fa21 f304 	lsr.w	r3, r1, r4
    5c9c:	ea45 0103 	orr.w	r1, r5, r3
    5ca0:	bd30      	pop	{r4, r5, pc}
    5ca2:	f1c4 040c 	rsb	r4, r4, #12
    5ca6:	f1c4 0220 	rsb	r2, r4, #32
    5caa:	fa20 f002 	lsr.w	r0, r0, r2
    5cae:	fa01 f304 	lsl.w	r3, r1, r4
    5cb2:	ea40 0003 	orr.w	r0, r0, r3
    5cb6:	4629      	mov	r1, r5
    5cb8:	bd30      	pop	{r4, r5, pc}
    5cba:	fa21 f004 	lsr.w	r0, r1, r4
    5cbe:	4629      	mov	r1, r5
    5cc0:	bd30      	pop	{r4, r5, pc}
    5cc2:	f094 0f00 	teq	r4, #0
    5cc6:	f483 1380 	eor.w	r3, r3, #1048576	; 0x100000
    5cca:	bf06      	itte	eq
    5ccc:	f481 1180 	eoreq.w	r1, r1, #1048576	; 0x100000
    5cd0:	3401      	addeq	r4, #1
    5cd2:	3d01      	subne	r5, #1
    5cd4:	e74e      	b.n	5b74 <__adddf3+0x8c>
    5cd6:	ea7f 5c64 	mvns.w	r12, r4, asr #21
    5cda:	bf18      	it	ne
    5cdc:	ea7f 5c65 	mvnsne.w	r12, r5, asr #21
    5ce0:	d029      	beq.n	5d36 <__adddf3+0x24e>
    5ce2:	ea94 0f05 	teq	r4, r5
    5ce6:	bf08      	it	eq
    5ce8:	ea90 0f02 	teqeq	r0, r2
    5cec:	d005      	beq.n	5cfa <__adddf3+0x212>
    5cee:	ea54 0c00 	orrs.w	r12, r4, r0
    5cf2:	bf04      	itt	eq
    5cf4:	4619      	moveq	r1, r3
    5cf6:	4610      	moveq	r0, r2
    5cf8:	bd30      	pop	{r4, r5, pc}
    5cfa:	ea91 0f03 	teq	r1, r3
    5cfe:	bf1e      	ittt	ne
    5d00:	2100      	movne	r1, #0
    5d02:	2000      	movne	r0, #0
    5d04:	bd30      	popne	{r4, r5, pc}
    5d06:	ea5f 5c54 	movs.w	r12, r4, lsr #21
    5d0a:	d105      	bne.n	5d18 <__adddf3+0x230>
    5d0c:	0040      	lsls	r0, r0, #1
    5d0e:	4149      	adcs	r1, r1
    5d10:	bf28      	it	cs
    5d12:	f041 4100 	orrcs.w	r1, r1, #2147483648	; 0x80000000
    5d16:	bd30      	pop	{r4, r5, pc}
    5d18:	f514 0480 	adds.w	r4, r4, #4194304	; 0x400000
    5d1c:	bf3c      	itt	cc
    5d1e:	f501 1180 	addcc.w	r1, r1, #1048576	; 0x100000
    5d22:	bd30      	popcc	{r4, r5, pc}
    5d24:	f001 4500 	and.w	r5, r1, #2147483648	; 0x80000000
    5d28:	f045 41fe 	orr.w	r1, r5, #2130706432	; 0x7f000000
    5d2c:	f441 0170 	orr.w	r1, r1, #15728640	; 0xf00000
    5d30:	f04f 0000 	mov.w	r0, #0
    5d34:	bd30      	pop	{r4, r5, pc}
    5d36:	ea7f 5c64 	mvns.w	r12, r4, asr #21
    5d3a:	bf1a      	itte	ne
    5d3c:	4619      	movne	r1, r3
    5d3e:	4610      	movne	r0, r2
    5d40:	ea7f 5c65 	mvnseq.w	r12, r5, asr #21
    5d44:	bf1c      	itt	ne
    5d46:	460b      	movne	r3, r1
    5d48:	4602      	movne	r2, r0
    5d4a:	ea50 3401 	orrs.w	r4, r0, r1, lsl #12
    5d4e:	bf06      	itte	eq
    5d50:	ea52 3503 	orrseq.w	r5, r2, r3, lsl #12
    5d54:	ea91 0f03 	teqeq	r1, r3
    5d58:	f441 2100 	orrne.w	r1, r1, #524288	; 0x80000
    5d5c:	bd30      	pop	{r4, r5, pc}
    5d5e:	bf00      	nop

00005d60 <__aeabi_ui2d>:
    5d60:	f090 0f00 	teq	r0, #0
    5d64:	bf04      	itt	eq
    5d66:	2100      	moveq	r1, #0
    5d68:	4770      	bxeq	lr
    5d6a:	b530      	push	{r4, r5, lr}
    5d6c:	f44f 6480 	mov.w	r4, #1024	; 0x400
    5d70:	f104 0432 	add.w	r4, r4, #50	; 0x32
    5d74:	f04f 0500 	mov.w	r5, #0
    5d78:	f04f 0100 	mov.w	r1, #0
    5d7c:	e750      	b.n	5c20 <__adddf3+0x138>
    5d7e:	bf00      	nop

00005d80 <__aeabi_i2d>:
    5d80:	f090 0f00 	teq	r0, #0
    5d84:	bf04      	itt	eq
    5d86:	2100      	moveq	r1, #0
    5d88:	4770      	bxeq	lr
    5d8a:	b530      	push	{r4, r5, lr}
    5d8c:	f44f 6480 	mov.w	r4, #1024	; 0x400
    5d90:	f104 0432 	add.w	r4, r4, #50	; 0x32
    5d94:	f010 4500 	ands.w	r5, r0, #2147483648	; 0x80000000
    5d98:	bf48      	it	mi
    5d9a:	4240      	negmi	r0, r0
    5d9c:	f04f 0100 	mov.w	r1, #0
    5da0:	e73e      	b.n	5c20 <__adddf3+0x138>
    5da2:	bf00      	nop

00005da4 <__aeabi_f2d>:
    5da4:	0042      	lsls	r2, r0, #1
    5da6:	ea4f 01e2 	mov.w	r1, r2, asr #3
    5daa:	ea4f 0131 	mov.w	r1, r1, rrx
    5dae:	ea4f 7002 	mov.w	r0, r2, lsl #28
    5db2:	bf1f      	itttt	ne
    5db4:	f012 437f 	andsne.w	r3, r2, #4278190080	; 0xff000000
    5db8:	f093 4f7f 	teqne	r3, #4278190080	; 0xff000000
    5dbc:	f081 5160 	eorne.w	r1, r1, #939524096	; 0x38000000
    5dc0:	4770      	bxne	lr
    5dc2:	f092 0f00 	teq	r2, #0
    5dc6:	bf14      	ite	ne
    5dc8:	f093 4f7f 	teqne	r3, #4278190080	; 0xff000000
    5dcc:	4770      	bxeq	lr
    5dce:	b530      	push	{r4, r5, lr}
    5dd0:	f44f 7460 	mov.w	r4, #896	; 0x380
    5dd4:	f001 4500 	and.w	r5, r1, #2147483648	; 0x80000000
    5dd8:	f021 4100 	bic.w	r1, r1, #2147483648	; 0x80000000
    5ddc:	e720      	b.n	5c20 <__adddf3+0x138>
    5dde:	bf00      	nop

00005de0 <__aeabi_ul2d>:
    5de0:	ea50 0201 	orrs.w	r2, r0, r1
    5de4:	bf08      	it	eq
    5de6:	4770      	bxeq	lr
    5de8:	b530      	push	{r4, r5, lr}
    5dea:	f04f 0500 	mov.w	r5, #0
    5dee:	e00a      	b.n	5e06 <__aeabi_l2d+0x16>

00005df0 <__aeabi_l2d>:
    5df0:	ea50 0201 	orrs.w	r2, r0, r1
    5df4:	bf08      	it	eq
    5df6:	4770      	bxeq	lr
    5df8:	b530      	push	{r4, r5, lr}
    5dfa:	f011 4500 	ands.w	r5, r1, #2147483648	; 0x80000000
    5dfe:	d502      	bpl.n	5e06 <__aeabi_l2d+0x16>
    5e00:	4240      	negs	r0, r0
    5e02:	eb61 0141 	sbc.w	r1, r1, r1, lsl #1
    5e06:	f44f 6480 	mov.w	r4, #1024	; 0x400
    5e0a:	f104 0432 	add.w	r4, r4, #50	; 0x32
    5e0e:	ea5f 5c91 	movs.w	r12, r1, lsr #22
    5e12:	f43f aedc 	beq.w	5bce <__adddf3+0xe6>
    5e16:	f04f 0203 	mov.w	r2, #3
    5e1a:	ea5f 0cdc 	movs.w	r12, r12, lsr #3
    5e1e:	bf18      	it	ne
    5e20:	3203      	addne	r2, #3
    5e22:	ea5f 0cdc 	movs.w	r12, r12, lsr #3
    5e26:	bf18      	it	ne
    5e28:	3203      	addne	r2, #3
    5e2a:	eb02 02dc 	add.w	r2, r2, r12, lsr #3
    5e2e:	f1c2 0320 	rsb	r3, r2, #32
    5e32:	fa00 fc03 	lsl.w	r12, r0, r3
    5e36:	fa20 f002 	lsr.w	r0, r0, r2
    5e3a:	fa01 fe03 	lsl.w	lr, r1, r3
    5e3e:	ea40 000e 	orr.w	r0, r0, lr
    5e42:	fa21 f102 	lsr.w	r1, r1, r2
    5e46:	4414      	add	r4, r2
    5e48:	e6c1      	b.n	5bce <__adddf3+0xe6>
    5e4a:	bf00      	nop

00005e4c <__aeabi_dmul>:
    5e4c:	b570      	push	{r4, r5, r6, lr}
    5e4e:	f04f 0cff 	mov.w	r12, #255	; 0xff
    5e52:	f44c 6ce0 	orr.w	r12, r12, #1792	; 0x700
    5e56:	ea1c 5411 	ands.w	r4, r12, r1, lsr #20
    5e5a:	bf1d      	ittte	ne
    5e5c:	ea1c 5513 	andsne.w	r5, r12, r3, lsr #20
    5e60:	ea94 0f0c 	teqne	r4, r12
    5e64:	ea95 0f0c 	teqne	r5, r12
    5e68:	f000 f8de 	bleq	6028 <__aeabi_dmul+0x1dc>
    5e6c:	442c      	add	r4, r5
    5e6e:	ea81 0603 	eor.w	r6, r1, r3
    5e72:	ea21 514c 	bic.w	r1, r1, r12, lsl #21
    5e76:	ea23 534c 	bic.w	r3, r3, r12, lsl #21
    5e7a:	ea50 3501 	orrs.w	r5, r0, r1, lsl #12
    5e7e:	bf18      	it	ne
    5e80:	ea52 3503 	orrsne.w	r5, r2, r3, lsl #12
    5e84:	f441 1180 	orr.w	r1, r1, #1048576	; 0x100000
    5e88:	f443 1380 	orr.w	r3, r3, #1048576	; 0x100000
    5e8c:	d038      	beq.n	5f00 <__aeabi_dmul+0xb4>
    5e8e:	fba0 ce02 	umull	r12, lr, r0, r2
    5e92:	f04f 0500 	mov.w	r5, #0
    5e96:	fbe1 e502 	umlal	lr, r5, r1, r2
    5e9a:	f006 4200 	and.w	r2, r6, #2147483648	; 0x80000000
    5e9e:	fbe0 e503 	umlal	lr, r5, r0, r3
    5ea2:	f04f 0600 	mov.w	r6, #0
    5ea6:	fbe1 5603 	umlal	r5, r6, r1, r3
    5eaa:	f09c 0f00 	teq	r12, #0
    5eae:	bf18      	it	ne
    5eb0:	f04e 0e01 	orrne.w	lr, lr, #1
    5eb4:	f1a4 04ff 	sub.w	r4, r4, #255	; 0xff
    5eb8:	f5b6 7f00 	cmp.w	r6, #512	; 0x200
    5ebc:	f564 7440 	sbc.w	r4, r4, #768	; 0x300
    5ec0:	d204      	bcs.n	5ecc <__aeabi_dmul+0x80>
    5ec2:	ea5f 0e4e 	movs.w	lr, lr, lsl #1
    5ec6:	416d      	adcs	r5, r5
    5ec8:	eb46 0606 	adc.w	r6, r6, r6
    5ecc:	ea42 21c6 	orr.w	r1, r2, r6, lsl #11
    5ed0:	ea41 5155 	orr.w	r1, r1, r5, lsr #21
    5ed4:	ea4f 20c5 	mov.w	r0, r5, lsl #11
    5ed8:	ea40 505e 	orr.w	r0, r0, lr, lsr #21
    5edc:	ea4f 2ece 	mov.w	lr, lr, lsl #11
    5ee0:	f1b4 0cfd 	subs.w	r12, r4, #253	; 0xfd
    5ee4:	bf88      	it	hi
    5ee6:	f5bc 6fe0 	cmphi.w	r12, #1792	; 0x700
    5eea:	d81e      	bhi.n	5f2a <__aeabi_dmul+0xde>
    5eec:	f1be 4f00 	cmp.w	lr, #2147483648	; 0x80000000
    5ef0:	bf08      	it	eq
    5ef2:	ea5f 0e50 	movseq.w	lr, r0, lsr #1
    5ef6:	f150 0000 	adcs.w	r0, r0, #0
    5efa:	eb41 5104 	adc.w	r1, r1, r4, lsl #20
    5efe:	bd70      	pop	{r4, r5, r6, pc}
    5f00:	f006 4600 	and.w	r6, r6, #2147483648	; 0x80000000
    5f04:	ea46 0101 	orr.w	r1, r6, r1
    5f08:	ea40 0002 	orr.w	r0, r0, r2
    5f0c:	ea81 0103 	eor.w	r1, r1, r3
    5f10:	ebb4 045c 	subs.w	r4, r4, r12, lsr #1
    5f14:	bfc2      	ittt	gt
    5f16:	ebd4 050c 	rsbsgt	r5, r4, r12
    5f1a:	ea41 5104 	orrgt.w	r1, r1, r4, lsl #20
    5f1e:	bd70      	popgt	{r4, r5, r6, pc}
    5f20:	f441 1180 	orr.w	r1, r1, #1048576	; 0x100000
    5f24:	f04f 0e00 	mov.w	lr, #0
    5f28:	3c01      	subs	r4, #1
    5f2a:	f300 80ab 	bgt.w	6084 <__aeabi_dmul+0x238>
    5f2e:	f114 0f36 	cmn.w	r4, #54	; 0x36
    5f32:	bfde      	ittt	le
    5f34:	2000      	movle	r0, #0
    5f36:	f001 4100 	andle.w	r1, r1, #2147483648	; 0x80000000
    5f3a:	bd70      	pople	{r4, r5, r6, pc}
    5f3c:	f1c4 0400 	rsb	r4, r4, #0
    5f40:	3c20      	subs	r4, #32
    5f42:	da35      	bge.n	5fb0 <__aeabi_dmul+0x164>
    5f44:	340c      	adds	r4, #12
    5f46:	dc1b      	bgt.n	5f80 <__aeabi_dmul+0x134>
    5f48:	f104 0414 	add.w	r4, r4, #20
    5f4c:	f1c4 0520 	rsb	r5, r4, #32
    5f50:	fa00 f305 	lsl.w	r3, r0, r5
    5f54:	fa20 f004 	lsr.w	r0, r0, r4
    5f58:	fa01 f205 	lsl.w	r2, r1, r5
    5f5c:	ea40 0002 	orr.w	r0, r0, r2
    5f60:	f001 4200 	and.w	r2, r1, #2147483648	; 0x80000000
    5f64:	f021 4100 	bic.w	r1, r1, #2147483648	; 0x80000000
    5f68:	eb10 70d3 	adds.w	r0, r0, r3, lsr #31
    5f6c:	fa21 f604 	lsr.w	r6, r1, r4
    5f70:	eb42 0106 	adc.w	r1, r2, r6
    5f74:	ea5e 0e43 	orrs.w	lr, lr, r3, lsl #1
    5f78:	bf08      	it	eq
    5f7a:	ea20 70d3 	biceq.w	r0, r0, r3, lsr #31
    5f7e:	bd70      	pop	{r4, r5, r6, pc}
    5f80:	f1c4 040c 	rsb	r4, r4, #12
    5f84:	f1c4 0520 	rsb	r5, r4, #32
    5f88:	fa00 f304 	lsl.w	r3, r0, r4
    5f8c:	fa20 f005 	lsr.w	r0, r0, r5
    5f90:	fa01 f204 	lsl.w	r2, r1, r4
    5f94:	ea40 0002 	orr.w	r0, r0, r2
    5f98:	f001 4100 	and.w	r1, r1, #2147483648	; 0x80000000
    5f9c:	eb10 70d3 	adds.w	r0, r0, r3, lsr #31
    5fa0:	f141 0100 	adc.w	r1, r1, #0
    5fa4:	ea5e 0e43 	orrs.w	lr, lr, r3, lsl #1
    5fa8:	bf08      	it	eq
    5faa:	ea20 70d3 	biceq.w	r0, r0, r3, lsr #31
    5fae:	bd70      	pop	{r4, r5, r6, pc}
    5fb0:	f1c4 0520 	rsb	r5, r4, #32
    5fb4:	fa00 f205 	lsl.w	r2, r0, r5
    5fb8:	ea4e 0e02 	orr.w	lr, lr, r2
    5fbc:	fa20 f304 	lsr.w	r3, r0, r4
    5fc0:	fa01 f205 	lsl.w	r2, r1, r5
    5fc4:	ea43 0302 	orr.w	r3, r3, r2
    5fc8:	fa21 f004 	lsr.w	r0, r1, r4
    5fcc:	f001 4100 	and.w	r1, r1, #2147483648	; 0x80000000
    5fd0:	fa21 f204 	lsr.w	r2, r1, r4
    5fd4:	ea20 0002 	bic.w	r0, r0, r2
    5fd8:	eb00 70d3 	add.w	r0, r0, r3, lsr #31
    5fdc:	ea5e 0e43 	orrs.w	lr, lr, r3, lsl #1
    5fe0:	bf08      	it	eq
    5fe2:	ea20 70d3 	biceq.w	r0, r0, r3, lsr #31
    5fe6:	bd70      	pop	{r4, r5, r6, pc}
    5fe8:	f094 0f00 	teq	r4, #0
    5fec:	d10f      	bne.n	600e <__aeabi_dmul+0x1c2>
    5fee:	f001 4600 	and.w	r6, r1, #2147483648	; 0x80000000
    5ff2:	0040      	lsls	r0, r0, #1
    5ff4:	eb41 0101 	adc.w	r1, r1, r1
    5ff8:	f411 1f80 	tst.w	r1, #1048576	; 0x100000
    5ffc:	bf08      	it	eq
    5ffe:	3c01      	subeq	r4, #1
    6000:	d0f7      	beq.n	5ff2 <__aeabi_dmul+0x1a6>
    6002:	ea41 0106 	orr.w	r1, r1, r6
    6006:	f095 0f00 	teq	r5, #0
    600a:	bf18      	it	ne
    600c:	4770      	bxne	lr
    600e:	f003 4600 	and.w	r6, r3, #2147483648	; 0x80000000
    6012:	0052      	lsls	r2, r2, #1
    6014:	eb43 0303 	adc.w	r3, r3, r3
    6018:	f413 1f80 	tst.w	r3, #1048576	; 0x100000
    601c:	bf08      	it	eq
    601e:	3d01      	subeq	r5, #1
    6020:	d0f7      	beq.n	6012 <__aeabi_dmul+0x1c6>
    6022:	ea43 0306 	orr.w	r3, r3, r6
    6026:	4770      	bx	lr
    6028:	ea94 0f0c 	teq	r4, r12
    602c:	ea0c 5513 	and.w	r5, r12, r3, lsr #20
    6030:	bf18      	it	ne
    6032:	ea95 0f0c 	teqne	r5, r12
    6036:	d00c      	beq.n	6052 <__aeabi_dmul+0x206>
    6038:	ea50 0641 	orrs.w	r6, r0, r1, lsl #1
    603c:	bf18      	it	ne
    603e:	ea52 0643 	orrsne.w	r6, r2, r3, lsl #1
    6042:	d1d1      	bne.n	5fe8 <__aeabi_dmul+0x19c>
    6044:	ea81 0103 	eor.w	r1, r1, r3
    6048:	f001 4100 	and.w	r1, r1, #2147483648	; 0x80000000
    604c:	f04f 0000 	mov.w	r0, #0
    6050:	bd70      	pop	{r4, r5, r6, pc}
    6052:	ea50 0641 	orrs.w	r6, r0, r1, lsl #1
    6056:	bf06      	itte	eq
    6058:	4610      	moveq	r0, r2
    605a:	4619      	moveq	r1, r3
    605c:	ea52 0643 	orrsne.w	r6, r2, r3, lsl #1
    6060:	d019      	beq.n	6096 <__aeabi_dmul+0x24a>
    6062:	ea94 0f0c 	teq	r4, r12
    6066:	d102      	bne.n	606e <__aeabi_dmul+0x222>
    6068:	ea50 3601 	orrs.w	r6, r0, r1, lsl #12
    606c:	d113      	bne.n	6096 <__aeabi_dmul+0x24a>
    606e:	ea95 0f0c 	teq	r5, r12
    6072:	d105      	bne.n	6080 <__aeabi_dmul+0x234>
    6074:	ea52 3603 	orrs.w	r6, r2, r3, lsl #12
    6078:	bf1c      	itt	ne
    607a:	4610      	movne	r0, r2
    607c:	4619      	movne	r1, r3
    607e:	d10a      	bne.n	6096 <__aeabi_dmul+0x24a>
    6080:	ea81 0103 	eor.w	r1, r1, r3
    6084:	f001 4100 	and.w	r1, r1, #2147483648	; 0x80000000
    6088:	f041 41fe 	orr.w	r1, r1, #2130706432	; 0x7f000000
    608c:	f441 0170 	orr.w	r1, r1, #15728640	; 0xf00000
    6090:	f04f 0000 	mov.w	r0, #0
    6094:	bd70      	pop	{r4, r5, r6, pc}
    6096:	f041 41fe 	orr.w	r1, r1, #2130706432	; 0x7f000000
    609a:	f441 0178 	orr.w	r1, r1, #16252928	; 0xf80000
    609e:	bd70      	pop	{r4, r5, r6, pc}

000060a0 <__aeabi_ddiv>:
    60a0:	b570      	push	{r4, r5, r6, lr}
    60a2:	f04f 0cff 	mov.w	r12, #255	; 0xff
    60a6:	f44c 6ce0 	orr.w	r12, r12, #1792	; 0x700
    60aa:	ea1c 5411 	ands.w	r4, r12, r1, lsr #20
    60ae:	bf1d      	ittte	ne
    60b0:	ea1c 5513 	andsne.w	r5, r12, r3, lsr #20
    60b4:	ea94 0f0c 	teqne	r4, r12
    60b8:	ea95 0f0c 	teqne	r5, r12
    60bc:	f000 f8a7 	bleq	620e <__aeabi_ddiv+0x16e>
    60c0:	eba4 0405 	sub.w	r4, r4, r5
    60c4:	ea81 0e03 	eor.w	lr, r1, r3
    60c8:	ea52 3503 	orrs.w	r5, r2, r3, lsl #12
    60cc:	ea4f 3101 	mov.w	r1, r1, lsl #12
    60d0:	f000 8088 	beq.w	61e4 <__aeabi_ddiv+0x144>
    60d4:	ea4f 3303 	mov.w	r3, r3, lsl #12
    60d8:	f04f 5580 	mov.w	r5, #268435456	; 0x10000000
    60dc:	ea45 1313 	orr.w	r3, r5, r3, lsr #4
    60e0:	ea43 6312 	orr.w	r3, r3, r2, lsr #24
    60e4:	ea4f 2202 	mov.w	r2, r2, lsl #8
    60e8:	ea45 1511 	orr.w	r5, r5, r1, lsr #4
    60ec:	ea45 6510 	orr.w	r5, r5, r0, lsr #24
    60f0:	ea4f 2600 	mov.w	r6, r0, lsl #8
    60f4:	f00e 4100 	and.w	r1, lr, #2147483648	; 0x80000000
    60f8:	429d      	cmp	r5, r3
    60fa:	bf08      	it	eq
    60fc:	4296      	cmpeq	r6, r2
    60fe:	f144 04fd 	adc.w	r4, r4, #253	; 0xfd
    6102:	f504 7440 	add.w	r4, r4, #768	; 0x300
    6106:	d202      	bcs.n	610e <__aeabi_ddiv+0x6e>
    6108:	085b      	lsrs	r3, r3, #1
    610a:	ea4f 0232 	mov.w	r2, r2, rrx
    610e:	1ab6      	subs	r6, r6, r2
    6110:	eb65 0503 	sbc.w	r5, r5, r3
    6114:	085b      	lsrs	r3, r3, #1
    6116:	ea4f 0232 	mov.w	r2, r2, rrx
    611a:	f44f 1080 	mov.w	r0, #1048576	; 0x100000
    611e:	f44f 2c00 	mov.w	r12, #524288	; 0x80000
    6122:	ebb6 0e02 	subs.w	lr, r6, r2
    6126:	eb75 0e03 	sbcs.w	lr, r5, r3
    612a:	bf22      	ittt	cs
    612c:	1ab6      	subcs	r6, r6, r2
    612e:	4675      	movcs	r5, lr
    6130:	ea40 000c 	orrcs.w	r0, r0, r12
    6134:	085b      	lsrs	r3, r3, #1
    6136:	ea4f 0232 	mov.w	r2, r2, rrx
    613a:	ebb6 0e02 	subs.w	lr, r6, r2
    613e:	eb75 0e03 	sbcs.w	lr, r5, r3
    6142:	bf22      	ittt	cs
    6144:	1ab6      	subcs	r6, r6, r2
    6146:	4675      	movcs	r5, lr
    6148:	ea40 005c 	orrcs.w	r0, r0, r12, lsr #1
    614c:	085b      	lsrs	r3, r3, #1
    614e:	ea4f 0232 	mov.w	r2, r2, rrx
    6152:	ebb6 0e02 	subs.w	lr, r6, r2
    6156:	eb75 0e03 	sbcs.w	lr, r5, r3
    615a:	bf22      	ittt	cs
    615c:	1ab6      	subcs	r6, r6, r2
    615e:	4675      	movcs	r5, lr
    6160:	ea40 009c 	orrcs.w	r0, r0, r12, lsr #2
    6164:	085b      	lsrs	r3, r3, #1
    6166:	ea4f 0232 	mov.w	r2, r2, rrx
    616a:	ebb6 0e02 	subs.w	lr, r6, r2
    616e:	eb75 0e03 	sbcs.w	lr, r5, r3
    6172:	bf22      	ittt	cs
    6174:	1ab6      	subcs	r6, r6, r2
    6176:	4675      	movcs	r5, lr
    6178:	ea40 00dc 	orrcs.w	r0, r0, r12, lsr #3
    617c:	ea55 0e06 	orrs.w	lr, r5, r6
    6180:	d018      	beq.n	61b4 <__aeabi_ddiv+0x114>
    6182:	ea4f 1505 	mov.w	r5, r5, lsl #4
    6186:	ea45 7516 	orr.w	r5, r5, r6, lsr #28
    618a:	ea4f 1606 	mov.w	r6, r6, lsl #4
    618e:	ea4f 03c3 	mov.w	r3, r3, lsl #3
    6192:	ea43 7352 	orr.w	r3, r3, r2, lsr #29
    6196:	ea4f 02c2 	mov.w	r2, r2, lsl #3
    619a:	ea5f 1c1c 	movs.w	r12, r12, lsr #4
    619e:	d1c0      	bne.n	6122 <__aeabi_ddiv+0x82>
    61a0:	f411 1f80 	tst.w	r1, #1048576	; 0x100000
    61a4:	d10b      	bne.n	61be <__aeabi_ddiv+0x11e>
    61a6:	ea41 0100 	orr.w	r1, r1, r0
    61aa:	f04f 0000 	mov.w	r0, #0
    61ae:	f04f 4c00 	mov.w	r12, #2147483648	; 0x80000000
    61b2:	e7b6      	b.n	6122 <__aeabi_ddiv+0x82>
    61b4:	f411 1f80 	tst.w	r1, #1048576	; 0x100000
    61b8:	bf04      	itt	eq
    61ba:	4301      	orreq	r1, r0
    61bc:	2000      	moveq	r0, #0
    61be:	f1b4 0cfd 	subs.w	r12, r4, #253	; 0xfd
    61c2:	bf88      	it	hi
    61c4:	f5bc 6fe0 	cmphi.w	r12, #1792	; 0x700
    61c8:	f63f aeaf 	bhi.w	5f2a <__aeabi_dmul+0xde>
    61cc:	ebb5 0c03 	subs.w	r12, r5, r3
    61d0:	bf04      	itt	eq
    61d2:	ebb6 0c02 	subseq.w	r12, r6, r2
    61d6:	ea5f 0c50 	movseq.w	r12, r0, lsr #1
    61da:	f150 0000 	adcs.w	r0, r0, #0
    61de:	eb41 5104 	adc.w	r1, r1, r4, lsl #20
    61e2:	bd70      	pop	{r4, r5, r6, pc}
    61e4:	f00e 4e00 	and.w	lr, lr, #2147483648	; 0x80000000
    61e8:	ea4e 3111 	orr.w	r1, lr, r1, lsr #12
    61ec:	eb14 045c 	adds.w	r4, r4, r12, lsr #1
    61f0:	bfc2      	ittt	gt
    61f2:	ebd4 050c 	rsbsgt	r5, r4, r12
    61f6:	ea41 5104 	orrgt.w	r1, r1, r4, lsl #20
    61fa:	bd70      	popgt	{r4, r5, r6, pc}
    61fc:	f441 1180 	orr.w	r1, r1, #1048576	; 0x100000
    6200:	f04f 0e00 	mov.w	lr, #0
    6204:	3c01      	subs	r4, #1
    6206:	e690      	b.n	5f2a <__aeabi_dmul+0xde>
    6208:	ea45 0e06 	orr.w	lr, r5, r6
    620c:	e68d      	b.n	5f2a <__aeabi_dmul+0xde>
    620e:	ea0c 5513 	and.w	r5, r12, r3, lsr #20
    6212:	ea94 0f0c 	teq	r4, r12
    6216:	bf08      	it	eq
    6218:	ea95 0f0c 	teqeq	r5, r12
    621c:	f43f af3b 	beq.w	6096 <__aeabi_dmul+0x24a>
    6220:	ea94 0f0c 	teq	r4, r12
    6224:	d10a      	bne.n	623c <__aeabi_ddiv+0x19c>
    6226:	ea50 3401 	orrs.w	r4, r0, r1, lsl #12
    622a:	f47f af34 	bne.w	6096 <__aeabi_dmul+0x24a>
    622e:	ea95 0f0c 	teq	r5, r12
    6232:	f47f af25 	bne.w	6080 <__aeabi_dmul+0x234>
    6236:	4610      	mov	r0, r2
    6238:	4619      	mov	r1, r3
    623a:	e72c      	b.n	6096 <__aeabi_dmul+0x24a>
    623c:	ea95 0f0c 	teq	r5, r12
    6240:	d106      	bne.n	6250 <__aeabi_ddiv+0x1b0>
    6242:	ea52 3503 	orrs.w	r5, r2, r3, lsl #12
    6246:	f43f aefd 	beq.w	6044 <__aeabi_dmul+0x1f8>
    624a:	4610      	mov	r0, r2
    624c:	4619      	mov	r1, r3
    624e:	e722      	b.n	6096 <__aeabi_dmul+0x24a>
    6250:	ea50 0641 	orrs.w	r6, r0, r1, lsl #1
    6254:	bf18      	it	ne
    6256:	ea52 0643 	orrsne.w	r6, r2, r3, lsl #1
    625a:	f47f aec5 	bne.w	5fe8 <__aeabi_dmul+0x19c>
    625e:	ea50 0441 	orrs.w	r4, r0, r1, lsl #1
    6262:	f47f af0d 	bne.w	6080 <__aeabi_dmul+0x234>
    6266:	ea52 0543 	orrs.w	r5, r2, r3, lsl #1
    626a:	f47f aeeb 	bne.w	6044 <__aeabi_dmul+0x1f8>
    626e:	e712      	b.n	6096 <__aeabi_dmul+0x24a>

00006270 <__aeabi_d2iz>:
    6270:	ea4f 0241 	mov.w	r2, r1, lsl #1
    6274:	f512 1200 	adds.w	r2, r2, #2097152	; 0x200000
    6278:	d215      	bcs.n	62a6 <__aeabi_d2iz+0x36>
    627a:	d511      	bpl.n	62a0 <__aeabi_d2iz+0x30>
    627c:	f46f 7378 	mvn.w	r3, #992	; 0x3e0
    6280:	ebb3 5262 	subs.w	r2, r3, r2, asr #21
    6284:	d912      	bls.n	62ac <__aeabi_d2iz+0x3c>
    6286:	ea4f 23c1 	mov.w	r3, r1, lsl #11
    628a:	f043 4300 	orr.w	r3, r3, #2147483648	; 0x80000000
    628e:	ea43 5350 	orr.w	r3, r3, r0, lsr #21
    6292:	f011 4f00 	tst.w	r1, #2147483648	; 0x80000000
    6296:	fa23 f002 	lsr.w	r0, r3, r2
    629a:	bf18      	it	ne
    629c:	4240      	negne	r0, r0
    629e:	4770      	bx	lr
    62a0:	f04f 0000 	mov.w	r0, #0
    62a4:	4770      	bx	lr
    62a6:	ea50 3001 	orrs.w	r0, r0, r1, lsl #12
    62aa:	d105      	bne.n	62b8 <__aeabi_d2iz+0x48>
    62ac:	f011 4000 	ands.w	r0, r1, #2147483648	; 0x80000000
    62b0:	bf08      	it	eq
    62b2:	f06f 4000 	mvneq.w	r0, #2147483648	; 0x80000000
    62b6:	4770      	bx	lr
    62b8:	f04f 0000 	mov.w	r0, #0
    62bc:	4770      	bx	lr
    62be:	bf00      	nop

000062c0 <__aeabi_d2f>:
    62c0:	ea4f 0241 	mov.w	r2, r1, lsl #1
    62c4:	f1b2 43e0 	subs.w	r3, r2, #1879048192	; 0x70000000
    62c8:	bf24      	itt	cs
    62ca:	f5b3 1c00 	subscs.w	r12, r3, #2097152	; 0x200000
    62ce:	f1dc 5cfe 	rsbscs	r12, r12, #532676608	; 0x1fc00000
    62d2:	d90d      	bls.n	62f0 <__aeabi_d2f+0x30>
    62d4:	f001 4c00 	and.w	r12, r1, #2147483648	; 0x80000000
    62d8:	ea4f 02c0 	mov.w	r2, r0, lsl #3
    62dc:	ea4c 7050 	orr.w	r0, r12, r0, lsr #29
    62e0:	f1b2 4f00 	cmp.w	r2, #2147483648	; 0x80000000
    62e4:	eb40 0083 	adc.w	r0, r0, r3, lsl #2
    62e8:	bf08      	it	eq
    62ea:	f020 0001 	biceq.w	r0, r0, #1
    62ee:	4770      	bx	lr
    62f0:	f011 4f80 	tst.w	r1, #1073741824	; 0x40000000
    62f4:	d121      	bne.n	633a <__aeabi_d2f+0x7a>
    62f6:	f113 7238 	adds.w	r2, r3, #48234496	; 0x2e00000
    62fa:	bfbc      	itt	lt
    62fc:	f001 4000 	andlt.w	r0, r1, #2147483648	; 0x80000000
    6300:	4770      	bxlt	lr
    6302:	f441 1180 	orr.w	r1, r1, #1048576	; 0x100000
    6306:	ea4f 5252 	mov.w	r2, r2, lsr #21
    630a:	f1c2 0218 	rsb	r2, r2, #24
    630e:	f1c2 0c20 	rsb	r12, r2, #32
    6312:	fa10 f30c 	lsls.w	r3, r0, r12
    6316:	fa20 f002 	lsr.w	r0, r0, r2
    631a:	bf18      	it	ne
    631c:	f040 0001 	orrne.w	r0, r0, #1
    6320:	ea4f 23c1 	mov.w	r3, r1, lsl #11
    6324:	ea4f 23d3 	mov.w	r3, r3, lsr #11
    6328:	fa03 fc0c 	lsl.w	r12, r3, r12
    632c:	ea40 000c 	orr.w	r0, r0, r12
    6330:	fa23 f302 	lsr.w	r3, r3, r2
    6334:	ea4f 0343 	mov.w	r3, r3, lsl #1
    6338:	e7cc      	b.n	62d4 <__aeabi_d2f+0x14>
    633a:	ea7f 5362 	mvns.w	r3, r2, asr #21
    633e:	d107      	bne.n	6350 <__aeabi_d2f+0x90>
    6340:	ea50 3301 	orrs.w	r3, r0, r1, lsl #12
    6344:	bf1e      	ittt	ne
    6346:	f04f 40fe 	movne.w	r0, #2130706432	; 0x7f000000
    634a:	f440 0040 	orrne.w	r0, r0, #12582912	; 0xc00000
    634e:	4770      	bxne	lr
    6350:	f001 4000 	and.w	r0, r1, #2147483648	; 0x80000000
    6354:	f040 40fe 	orr.w	r0, r0, #2130706432	; 0x7f000000
    6358:	f440 0000 	orr.w	r0, r0, #8388608	; 0x800000
    635c:	4770      	bx	lr
    635e:	bf00      	nop

00006360 <__aeabi_frsub>:
    6360:	f080 4000 	eor.w	r0, r0, #2147483648	; 0x80000000
    6364:	e002      	b.n	636c <__addsf3>
    6366:	bf00      	nop

00006368 <__aeabi_fsub>:
    6368:	f081 4100 	eor.w	r1, r1, #2147483648	; 0x80000000

0000636c <__addsf3>:
    636c:	0042      	lsls	r2, r0, #1
    636e:	bf1f      	itttt	ne
    6370:	ea5f 0341 	movsne.w	r3, r1, lsl #1
    6374:	ea92 0f03 	teqne	r2, r3
    6378:	ea7f 6c22 	mvnsne.w	r12, r2, asr #24
    637c:	ea7f 6c23 	mvnsne.w	r12, r3, asr #24
    6380:	d06a      	beq.n	6458 <__addsf3+0xec>
    6382:	ea4f 6212 	mov.w	r2, r2, lsr #24
    6386:	ebd2 6313 	rsbs	r3, r2, r3, lsr #24
    638a:	bfc1      	itttt	gt
    638c:	18d2      	addgt	r2, r2, r3
    638e:	4041      	eorgt	r1, r0
    6390:	4048      	eorgt	r0, r1
    6392:	4041      	eorgt	r1, r0
    6394:	bfb8      	it	lt
    6396:	425b      	neglt	r3, r3
    6398:	2b19      	cmp	r3, #25
    639a:	bf88      	it	hi
    639c:	4770      	bxhi	lr
    639e:	f010 4f00 	tst.w	r0, #2147483648	; 0x80000000
    63a2:	f440 0000 	orr.w	r0, r0, #8388608	; 0x800000
    63a6:	f020 407f 	bic.w	r0, r0, #4278190080	; 0xff000000
    63aa:	bf18      	it	ne
    63ac:	4240      	negne	r0, r0
    63ae:	f011 4f00 	tst.w	r1, #2147483648	; 0x80000000
    63b2:	f441 0100 	orr.w	r1, r1, #8388608	; 0x800000
    63b6:	f021 417f 	bic.w	r1, r1, #4278190080	; 0xff000000
    63ba:	bf18      	it	ne
    63bc:	4249      	negne	r1, r1
    63be:	ea92 0f03 	teq	r2, r3
    63c2:	d03f      	beq.n	6444 <__addsf3+0xd8>
    63c4:	f1a2 0201 	sub.w	r2, r2, #1
    63c8:	fa41 fc03 	asr.w	r12, r1, r3
    63cc:	eb10 000c 	adds.w	r0, r0, r12
    63d0:	f1c3 0320 	rsb	r3, r3, #32
    63d4:	fa01 f103 	lsl.w	r1, r1, r3
    63d8:	f000 4300 	and.w	r3, r0, #2147483648	; 0x80000000
    63dc:	d502      	bpl.n	63e4 <__addsf3+0x78>
    63de:	4249      	negs	r1, r1
    63e0:	eb60 0040 	sbc.w	r0, r0, r0, lsl #1
    63e4:	f5b0 0f00 	cmp.w	r0, #8388608	; 0x800000
    63e8:	d313      	bcc.n	6412 <__addsf3+0xa6>
    63ea:	f1b0 7f80 	cmp.w	r0, #16777216	; 0x1000000
    63ee:	d306      	bcc.n	63fe <__addsf3+0x92>
    63f0:	0840      	lsrs	r0, r0, #1
    63f2:	ea4f 0131 	mov.w	r1, r1, rrx
    63f6:	f102 0201 	add.w	r2, r2, #1
    63fa:	2afe      	cmp	r2, #254	; 0xfe
    63fc:	d251      	bcs.n	64a2 <__addsf3+0x136>
    63fe:	f1b1 4f00 	cmp.w	r1, #2147483648	; 0x80000000
    6402:	eb40 50c2 	adc.w	r0, r0, r2, lsl #23
    6406:	bf08      	it	eq
    6408:	f020 0001 	biceq.w	r0, r0, #1
    640c:	ea40 0003 	orr.w	r0, r0, r3
    6410:	4770      	bx	lr
    6412:	0049      	lsls	r1, r1, #1
    6414:	eb40 0000 	adc.w	r0, r0, r0
    6418:	f410 0f00 	tst.w	r0, #8388608	; 0x800000
    641c:	f1a2 0201 	sub.w	r2, r2, #1
    6420:	d1ed      	bne.n	63fe <__addsf3+0x92>
    6422:	fab0 fc80 	clz	r12, r0
    6426:	f1ac 0c08 	sub.w	r12, r12, #8
    642a:	ebb2 020c 	subs.w	r2, r2, r12
    642e:	fa00 f00c 	lsl.w	r0, r0, r12
    6432:	bfaa      	itet	ge
    6434:	eb00 50c2 	addge.w	r0, r0, r2, lsl #23
    6438:	4252      	neglt	r2, r2
    643a:	4318      	orrge	r0, r3
    643c:	bfbc      	itt	lt
    643e:	40d0      	lsrlt	r0, r2
    6440:	4318      	orrlt	r0, r3
    6442:	4770      	bx	lr
    6444:	f092 0f00 	teq	r2, #0
    6448:	f481 0100 	eor.w	r1, r1, #8388608	; 0x800000
    644c:	bf06      	itte	eq
    644e:	f480 0000 	eoreq.w	r0, r0, #8388608	; 0x800000
    6452:	3201      	addeq	r2, #1
    6454:	3b01      	subne	r3, #1
    6456:	e7b5      	b.n	63c4 <__addsf3+0x58>
    6458:	ea4f 0341 	mov.w	r3, r1, lsl #1
    645c:	ea7f 6c22 	mvns.w	r12, r2, asr #24
    6460:	bf18      	it	ne
    6462:	ea7f 6c23 	mvnsne.w	r12, r3, asr #24
    6466:	d021      	beq.n	64ac <__addsf3+0x140>
    6468:	ea92 0f03 	teq	r2, r3
    646c:	d004      	beq.n	6478 <__addsf3+0x10c>
    646e:	f092 0f00 	teq	r2, #0
    6472:	bf08      	it	eq
    6474:	4608      	moveq	r0, r1
    6476:	4770      	bx	lr
    6478:	ea90 0f01 	teq	r0, r1
    647c:	bf1c      	itt	ne
    647e:	2000      	movne	r0, #0
    6480:	4770      	bxne	lr
    6482:	f012 4f7f 	tst.w	r2, #4278190080	; 0xff000000
    6486:	d104      	bne.n	6492 <__addsf3+0x126>
    6488:	0040      	lsls	r0, r0, #1
    648a:	bf28      	it	cs
    648c:	f040 4000 	orrcs.w	r0, r0, #2147483648	; 0x80000000
    6490:	4770      	bx	lr
    6492:	f112 7200 	adds.w	r2, r2, #33554432	; 0x2000000
    6496:	bf3c      	itt	cc
    6498:	f500 0000 	addcc.w	r0, r0, #8388608	; 0x800000
    649c:	4770      	bxcc	lr
    649e:	f000 4300 	and.w	r3, r0, #2147483648	; 0x80000000
    64a2:	f043 40fe 	orr.w	r0, r3, #2130706432	; 0x7f000000
    64a6:	f440 0000 	orr.w	r0, r0, #8388608	; 0x800000
    64aa:	4770      	bx	lr
    64ac:	ea7f 6222 	mvns.w	r2, r2, asr #24
    64b0:	bf16      	itet	ne
    64b2:	4608      	movne	r0, r1
    64b4:	ea7f 6323 	mvnseq.w	r3, r3, asr #24
    64b8:	4601      	movne	r1, r0
    64ba:	0242      	lsls	r2, r0, #9
    64bc:	bf06      	itte	eq
    64be:	ea5f 2341 	movseq.w	r3, r1, lsl #9
    64c2:	ea90 0f01 	teqeq	r0, r1
    64c6:	f440 0080 	orrne.w	r0, r0, #4194304	; 0x400000
    64ca:	4770      	bx	lr

000064cc <__aeabi_ui2f>:
    64cc:	f04f 0300 	mov.w	r3, #0
    64d0:	e004      	b.n	64dc <__aeabi_i2f+0x8>
    64d2:	bf00      	nop

000064d4 <__aeabi_i2f>:
    64d4:	f010 4300 	ands.w	r3, r0, #2147483648	; 0x80000000
    64d8:	bf48      	it	mi
    64da:	4240      	negmi	r0, r0
    64dc:	ea5f 0c00 	movs.w	r12, r0
    64e0:	bf08      	it	eq
    64e2:	4770      	bxeq	lr
    64e4:	f043 4396 	orr.w	r3, r3, #1258291200	; 0x4b000000
    64e8:	4601      	mov	r1, r0
    64ea:	f04f 0000 	mov.w	r0, #0
    64ee:	e01c      	b.n	652a <__aeabi_l2f+0x2a>

000064f0 <__aeabi_ul2f>:
    64f0:	ea50 0201 	orrs.w	r2, r0, r1
    64f4:	bf08      	it	eq
    64f6:	4770      	bxeq	lr
    64f8:	f04f 0300 	mov.w	r3, #0
    64fc:	e00a      	b.n	6514 <__aeabi_l2f+0x14>
    64fe:	bf00      	nop

00006500 <__aeabi_l2f>:
    6500:	ea50 0201 	orrs.w	r2, r0, r1
    6504:	bf08      	it	eq
    6506:	4770      	bxeq	lr
    6508:	f011 4300 	ands.w	r3, r1, #2147483648	; 0x80000000
    650c:	d502      	bpl.n	6514 <__aeabi_l2f+0x14>
    650e:	4240      	negs	r0, r0
    6510:	eb61 0141 	sbc.w	r1, r1, r1, lsl #1
    6514:	ea5f 0c01 	movs.w	r12, r1
    6518:	bf02      	ittt	eq
    651a:	4684      	moveq	r12, r0
    651c:	4601      	moveq	r1, r0
    651e:	2000      	moveq	r0, #0
    6520:	f043 43b6 	orr.w	r3, r3, #1526726656	; 0x5b000000
    6524:	bf08      	it	eq
    6526:	f1a3 5380 	subeq.w	r3, r3, #268435456	; 0x10000000
    652a:	f5a3 0300 	sub.w	r3, r3, #8388608	; 0x800000
    652e:	fabc f28c 	clz	r2, r12
    6532:	3a08      	subs	r2, #8
    6534:	eba3 53c2 	sub.w	r3, r3, r2, lsl #23
    6538:	db10      	blt.n	655c <__aeabi_l2f+0x5c>
    653a:	fa01 fc02 	lsl.w	r12, r1, r2
    653e:	4463      	add	r3, r12
    6540:	fa00 fc02 	lsl.w	r12, r0, r2
    6544:	f1c2 0220 	rsb	r2, r2, #32
    6548:	f1bc 4f00 	cmp.w	r12, #2147483648	; 0x80000000
    654c:	fa20 f202 	lsr.w	r2, r0, r2
    6550:	eb43 0002 	adc.w	r0, r3, r2
    6554:	bf08      	it	eq
    6556:	f020 0001 	biceq.w	r0, r0, #1
    655a:	4770      	bx	lr
    655c:	f102 0220 	add.w	r2, r2, #32
    6560:	fa01 fc02 	lsl.w	r12, r1, r2
    6564:	f1c2 0220 	rsb	r2, r2, #32
    6568:	ea50 004c 	orrs.w	r0, r0, r12, lsl #1
    656c:	fa21 f202 	lsr.w	r2, r1, r2
    6570:	eb43 0002 	adc.w	r0, r3, r2
    6574:	bf08      	it	eq
    6576:	ea20 70dc 	biceq.w	r0, r0, r12, lsr #31
    657a:	4770      	bx	lr

0000657c <__aeabi_fmul>:
    657c:	f04f 0cff 	mov.w	r12, #255	; 0xff
    6580:	ea1c 52d0 	ands.w	r2, r12, r0, lsr #23
    6584:	bf1e      	ittt	ne
    6586:	ea1c 53d1 	andsne.w	r3, r12, r1, lsr #23
    658a:	ea92 0f0c 	teqne	r2, r12
    658e:	ea93 0f0c 	teqne	r3, r12
    6592:	d06f      	beq.n	6674 <__aeabi_fmul+0xf8>
    6594:	441a      	add	r2, r3
    6596:	ea80 0c01 	eor.w	r12, r0, r1
    659a:	0240      	lsls	r0, r0, #9
    659c:	bf18      	it	ne
    659e:	ea5f 2141 	movsne.w	r1, r1, lsl #9
    65a2:	d01e      	beq.n	65e2 <__aeabi_fmul+0x66>
    65a4:	f04f 6300 	mov.w	r3, #134217728	; 0x8000000
    65a8:	ea43 1050 	orr.w	r0, r3, r0, lsr #5
    65ac:	ea43 1151 	orr.w	r1, r3, r1, lsr #5
    65b0:	fba0 3101 	umull	r3, r1, r0, r1
    65b4:	f00c 4000 	and.w	r0, r12, #2147483648	; 0x80000000
    65b8:	f5b1 0f00 	cmp.w	r1, #8388608	; 0x800000
    65bc:	bf3e      	ittt	cc
    65be:	0049      	lslcc	r1, r1, #1
    65c0:	ea41 71d3 	orrcc.w	r1, r1, r3, lsr #31
    65c4:	005b      	lslcc	r3, r3, #1
    65c6:	ea40 0001 	orr.w	r0, r0, r1
    65ca:	f162 027f 	sbc.w	r2, r2, #127	; 0x7f
    65ce:	2afd      	cmp	r2, #253	; 0xfd
    65d0:	d81d      	bhi.n	660e <__aeabi_fmul+0x92>
    65d2:	f1b3 4f00 	cmp.w	r3, #2147483648	; 0x80000000
    65d6:	eb40 50c2 	adc.w	r0, r0, r2, lsl #23
    65da:	bf08      	it	eq
    65dc:	f020 0001 	biceq.w	r0, r0, #1
    65e0:	4770      	bx	lr
    65e2:	f090 0f00 	teq	r0, #0
    65e6:	f00c 4c00 	and.w	r12, r12, #2147483648	; 0x80000000
    65ea:	bf08      	it	eq
    65ec:	0249      	lsleq	r1, r1, #9
    65ee:	ea4c 2050 	orr.w	r0, r12, r0, lsr #9
    65f2:	ea40 2051 	orr.w	r0, r0, r1, lsr #9
    65f6:	3a7f      	subs	r2, #127	; 0x7f
    65f8:	bfc2      	ittt	gt
    65fa:	f1d2 03ff 	rsbsgt	r3, r2, #255	; 0xff
    65fe:	ea40 50c2 	orrgt.w	r0, r0, r2, lsl #23
    6602:	4770      	bxgt	lr
    6604:	f440 0000 	orr.w	r0, r0, #8388608	; 0x800000
    6608:	f04f 0300 	mov.w	r3, #0
    660c:	3a01      	subs	r2, #1
    660e:	dc5d      	bgt.n	66cc <__aeabi_fmul+0x150>
    6610:	f112 0f19 	cmn.w	r2, #25
    6614:	bfdc      	itt	le
    6616:	f000 4000 	andle.w	r0, r0, #2147483648	; 0x80000000
    661a:	4770      	bxle	lr
    661c:	f1c2 0200 	rsb	r2, r2, #0
    6620:	0041      	lsls	r1, r0, #1
    6622:	fa21 f102 	lsr.w	r1, r1, r2
    6626:	f1c2 0220 	rsb	r2, r2, #32
    662a:	fa00 fc02 	lsl.w	r12, r0, r2
    662e:	ea5f 0031 	movs.w	r0, r1, rrx
    6632:	f140 0000 	adc.w	r0, r0, #0
    6636:	ea53 034c 	orrs.w	r3, r3, r12, lsl #1
    663a:	bf08      	it	eq
    663c:	ea20 70dc 	biceq.w	r0, r0, r12, lsr #31
    6640:	4770      	bx	lr
    6642:	f092 0f00 	teq	r2, #0
    6646:	f000 4c00 	and.w	r12, r0, #2147483648	; 0x80000000
    664a:	bf02      	ittt	eq
    664c:	0040      	lsleq	r0, r0, #1
    664e:	f410 0f00 	tsteq.w	r0, #8388608	; 0x800000
    6652:	3a01      	subeq	r2, #1
    6654:	d0f9      	beq.n	664a <__aeabi_fmul+0xce>
    6656:	ea40 000c 	orr.w	r0, r0, r12
    665a:	f093 0f00 	teq	r3, #0
    665e:	f001 4c00 	and.w	r12, r1, #2147483648	; 0x80000000
    6662:	bf02      	ittt	eq
    6664:	0049      	lsleq	r1, r1, #1
    6666:	f411 0f00 	tsteq.w	r1, #8388608	; 0x800000
    666a:	3b01      	subeq	r3, #1
    666c:	d0f9      	beq.n	6662 <__aeabi_fmul+0xe6>
    666e:	ea41 010c 	orr.w	r1, r1, r12
    6672:	e78f      	b.n	6594 <__aeabi_fmul+0x18>
    6674:	ea0c 53d1 	and.w	r3, r12, r1, lsr #23
    6678:	ea92 0f0c 	teq	r2, r12
    667c:	bf18      	it	ne
    667e:	ea93 0f0c 	teqne	r3, r12
    6682:	d00a      	beq.n	669a <__aeabi_fmul+0x11e>
    6684:	f030 4c00 	bics.w	r12, r0, #2147483648	; 0x80000000
    6688:	bf18      	it	ne
    668a:	f031 4c00 	bicsne.w	r12, r1, #2147483648	; 0x80000000
    668e:	d1d8      	bne.n	6642 <__aeabi_fmul+0xc6>
    6690:	ea80 0001 	eor.w	r0, r0, r1
    6694:	f000 4000 	and.w	r0, r0, #2147483648	; 0x80000000
    6698:	4770      	bx	lr
    669a:	f090 0f00 	teq	r0, #0
    669e:	bf17      	itett	ne
    66a0:	f090 4f00 	teqne	r0, #2147483648	; 0x80000000
    66a4:	4608      	moveq	r0, r1
    66a6:	f091 0f00 	teqne	r1, #0
    66aa:	f091 4f00 	teqne	r1, #2147483648	; 0x80000000
    66ae:	d014      	beq.n	66da <__aeabi_fmul+0x15e>
    66b0:	ea92 0f0c 	teq	r2, r12
    66b4:	d101      	bne.n	66ba <__aeabi_fmul+0x13e>
    66b6:	0242      	lsls	r2, r0, #9
    66b8:	d10f      	bne.n	66da <__aeabi_fmul+0x15e>
    66ba:	ea93 0f0c 	teq	r3, r12
    66be:	d103      	bne.n	66c8 <__aeabi_fmul+0x14c>
    66c0:	024b      	lsls	r3, r1, #9
    66c2:	bf18      	it	ne
    66c4:	4608      	movne	r0, r1
    66c6:	d108      	bne.n	66da <__aeabi_fmul+0x15e>
    66c8:	ea80 0001 	eor.w	r0, r0, r1
    66cc:	f000 4000 	and.w	r0, r0, #2147483648	; 0x80000000
    66d0:	f040 40fe 	orr.w	r0, r0, #2130706432	; 0x7f000000
    66d4:	f440 0000 	orr.w	r0, r0, #8388608	; 0x800000
    66d8:	4770      	bx	lr
    66da:	f040 40fe 	orr.w	r0, r0, #2130706432	; 0x7f000000
    66de:	f440 0040 	orr.w	r0, r0, #12582912	; 0xc00000
    66e2:	4770      	bx	lr

000066e4 <__aeabi_fdiv>:
    66e4:	f04f 0cff 	mov.w	r12, #255	; 0xff
    66e8:	ea1c 52d0 	ands.w	r2, r12, r0, lsr #23
    66ec:	bf1e      	ittt	ne
    66ee:	ea1c 53d1 	andsne.w	r3, r12, r1, lsr #23
    66f2:	ea92 0f0c 	teqne	r2, r12
    66f6:	ea93 0f0c 	teqne	r3, r12
    66fa:	d069      	beq.n	67d0 <__aeabi_fdiv+0xec>
    66fc:	eba2 0203 	sub.w	r2, r2, r3
    6700:	ea80 0c01 	eor.w	r12, r0, r1
    6704:	0249      	lsls	r1, r1, #9
    6706:	ea4f 2040 	mov.w	r0, r0, lsl #9
    670a:	d037      	beq.n	677c <__aeabi_fdiv+0x98>
    670c:	f04f 5380 	mov.w	r3, #268435456	; 0x10000000
    6710:	ea43 1111 	orr.w	r1, r3, r1, lsr #4
    6714:	ea43 1310 	orr.w	r3, r3, r0, lsr #4
    6718:	f00c 4000 	and.w	r0, r12, #2147483648	; 0x80000000
    671c:	428b      	cmp	r3, r1
    671e:	bf38      	it	cc
    6720:	005b      	lslcc	r3, r3, #1
    6722:	f142 027d 	adc.w	r2, r2, #125	; 0x7d
    6726:	f44f 0c00 	mov.w	r12, #8388608	; 0x800000
    672a:	428b      	cmp	r3, r1
    672c:	bf24      	itt	cs
    672e:	1a5b      	subcs	r3, r3, r1
    6730:	ea40 000c 	orrcs.w	r0, r0, r12
    6734:	ebb3 0f51 	cmp.w	r3, r1, lsr #1
    6738:	bf24      	itt	cs
    673a:	eba3 0351 	subcs.w	r3, r3, r1, lsr #1
    673e:	ea40 005c 	orrcs.w	r0, r0, r12, lsr #1
    6742:	ebb3 0f91 	cmp.w	r3, r1, lsr #2
    6746:	bf24      	itt	cs
    6748:	eba3 0391 	subcs.w	r3, r3, r1, lsr #2
    674c:	ea40 009c 	orrcs.w	r0, r0, r12, lsr #2
    6750:	ebb3 0fd1 	cmp.w	r3, r1, lsr #3
    6754:	bf24      	itt	cs
    6756:	eba3 03d1 	subcs.w	r3, r3, r1, lsr #3
    675a:	ea40 00dc 	orrcs.w	r0, r0, r12, lsr #3
    675e:	011b      	lsls	r3, r3, #4
    6760:	bf18      	it	ne
    6762:	ea5f 1c1c 	movsne.w	r12, r12, lsr #4
    6766:	d1e0      	bne.n	672a <__aeabi_fdiv+0x46>
    6768:	2afd      	cmp	r2, #253	; 0xfd
    676a:	f63f af50 	bhi.w	660e <__aeabi_fmul+0x92>
    676e:	428b      	cmp	r3, r1
    6770:	eb40 50c2 	adc.w	r0, r0, r2, lsl #23
    6774:	bf08      	it	eq
    6776:	f020 0001 	biceq.w	r0, r0, #1
    677a:	4770      	bx	lr
    677c:	f00c 4c00 	and.w	r12, r12, #2147483648	; 0x80000000
    6780:	ea4c 2050 	orr.w	r0, r12, r0, lsr #9
    6784:	327f      	adds	r2, #127	; 0x7f
    6786:	bfc2      	ittt	gt
    6788:	f1d2 03ff 	rsbsgt	r3, r2, #255	; 0xff
    678c:	ea40 50c2 	orrgt.w	r0, r0, r2, lsl #23
    6790:	4770      	bxgt	lr
    6792:	f440 0000 	orr.w	r0, r0, #8388608	; 0x800000
    6796:	f04f 0300 	mov.w	r3, #0
    679a:	3a01      	subs	r2, #1
    679c:	e737      	b.n	660e <__aeabi_fmul+0x92>
    679e:	f092 0f00 	teq	r2, #0
    67a2:	f000 4c00 	and.w	r12, r0, #2147483648	; 0x80000000
    67a6:	bf02      	ittt	eq
    67a8:	0040      	lsleq	r0, r0, #1
    67aa:	f410 0f00 	tsteq.w	r0, #8388608	; 0x800000
    67ae:	3a01      	subeq	r2, #1
    67b0:	d0f9      	beq.n	67a6 <__aeabi_fdiv+0xc2>
    67b2:	ea40 000c 	orr.w	r0, r0, r12
    67b6:	f093 0f00 	teq	r3, #0
    67ba:	f001 4c00 	and.w	r12, r1, #2147483648	; 0x80000000
    67be:	bf02      	ittt	eq
    67c0:	0049      	lsleq	r1, r1, #1
    67c2:	f411 0f00 	tsteq.w	r1, #8388608	; 0x800000
    67c6:	3b01      	subeq	r3, #1
    67c8:	d0f9      	beq.n	67be <__aeabi_fdiv+0xda>
    67ca:	ea41 010c 	orr.w	r1, r1, r12
    67ce:	e795      	b.n	66fc <__aeabi_fdiv+0x18>
    67d0:	ea0c 53d1 	and.w	r3, r12, r1, lsr #23
    67d4:	ea92 0f0c 	teq	r2, r12
    67d8:	d108      	bne.n	67ec <__aeabi_fdiv+0x108>
    67da:	0242      	lsls	r2, r0, #9
    67dc:	f47f af7d 	bne.w	66da <__aeabi_fmul+0x15e>
    67e0:	ea93 0f0c 	teq	r3, r12
    67e4:	f47f af70 	bne.w	66c8 <__aeabi_fmul+0x14c>
    67e8:	4608      	mov	r0, r1
    67ea:	e776      	b.n	66da <__aeabi_fmul+0x15e>
    67ec:	ea93 0f0c 	teq	r3, r12
    67f0:	d104      	bne.n	67fc <__aeabi_fdiv+0x118>
    67f2:	024b      	lsls	r3, r1, #9
    67f4:	f43f af4c 	beq.w	6690 <__aeabi_fmul+0x114>
    67f8:	4608      	mov	r0, r1
    67fa:	e76e      	b.n	66da <__aeabi_fmul+0x15e>
    67fc:	f030 4c00 	bics.w	r12, r0, #2147483648	; 0x80000000
    6800:	bf18      	it	ne
    6802:	f031 4c00 	bicsne.w	r12, r1, #2147483648	; 0x80000000
    6806:	d1ca      	bne.n	679e <__aeabi_fdiv+0xba>
    6808:	f030 4200 	bics.w	r2, r0, #2147483648	; 0x80000000
    680c:	f47f af5c 	bne.w	66c8 <__aeabi_fmul+0x14c>
    6810:	f031 4300 	bics.w	r3, r1, #2147483648	; 0x80000000
    6814:	f47f af3c 	bne.w	6690 <__aeabi_fmul+0x114>
    6818:	e75f      	b.n	66da <__aeabi_fmul+0x15e>
    681a:	bf00      	nop

0000681c <__gesf2>:
    681c:	f04f 3cff 	mov.w	r12, #4294967295
    6820:	e006      	b.n	6830 <__cmpsf2+0x4>
    6822:	bf00      	nop

00006824 <__lesf2>:
    6824:	f04f 0c01 	mov.w	r12, #1
    6828:	e002      	b.n	6830 <__cmpsf2+0x4>
    682a:	bf00      	nop

0000682c <__cmpsf2>:
    682c:	f04f 0c01 	mov.w	r12, #1
    6830:	f84d cd04 	str.w	r12, [sp, #-4]!
    6834:	ea4f 0240 	mov.w	r2, r0, lsl #1
    6838:	ea4f 0341 	mov.w	r3, r1, lsl #1
    683c:	ea7f 6c22 	mvns.w	r12, r2, asr #24
    6840:	bf18      	it	ne
    6842:	ea7f 6c23 	mvnsne.w	r12, r3, asr #24
    6846:	d011      	beq.n	686c <__cmpsf2+0x40>
    6848:	b001      	add	sp, #4
    684a:	ea52 0c53 	orrs.w	r12, r2, r3, lsr #1
    684e:	bf18      	it	ne
    6850:	ea90 0f01 	teqne	r0, r1
    6854:	bf58      	it	pl
    6856:	ebb2 0003 	subspl.w	r0, r2, r3
    685a:	bf88      	it	hi
    685c:	17c8      	asrhi	r0, r1, #31
    685e:	bf38      	it	cc
    6860:	ea6f 70e1 	mvncc.w	r0, r1, asr #31
    6864:	bf18      	it	ne
    6866:	f040 0001 	orrne.w	r0, r0, #1
    686a:	4770      	bx	lr
    686c:	ea7f 6c22 	mvns.w	r12, r2, asr #24
    6870:	d102      	bne.n	6878 <__cmpsf2+0x4c>
    6872:	ea5f 2c40 	movs.w	r12, r0, lsl #9
    6876:	d105      	bne.n	6884 <__cmpsf2+0x58>
    6878:	ea7f 6c23 	mvns.w	r12, r3, asr #24
    687c:	d1e4      	bne.n	6848 <__cmpsf2+0x1c>
    687e:	ea5f 2c41 	movs.w	r12, r1, lsl #9
    6882:	d0e1      	beq.n	6848 <__cmpsf2+0x1c>
    6884:	f85d 0b04 	ldr.w	r0, [sp], #4
    6888:	4770      	bx	lr
    688a:	bf00      	nop

0000688c <__aeabi_cfrcmple>:
    688c:	4684      	mov	r12, r0
    688e:	4608      	mov	r0, r1
    6890:	4661      	mov	r1, r12
    6892:	e7ff      	b.n	6894 <__aeabi_cfcmpeq>

00006894 <__aeabi_cfcmpeq>:
    6894:	b50f      	push	{r0, r1, r2, r3, lr}
    6896:	f7ff ffc9 	bl	682c <__cmpsf2>
    689a:	2800      	cmp	r0, #0
    689c:	bf48      	it	mi
    689e:	f110 0f00 	cmnmi.w	r0, #0
    68a2:	bd0f      	pop	{r0, r1, r2, r3, pc}

000068a4 <__aeabi_fcmpeq>:
    68a4:	f84d ed08 	str.w	lr, [sp, #-8]!
    68a8:	f7ff fff4 	bl	6894 <__aeabi_cfcmpeq>
    68ac:	bf0c      	ite	eq
    68ae:	2001      	moveq	r0, #1
    68b0:	2000      	movne	r0, #0
    68b2:	f85d fb08 	ldr.w	pc, [sp], #8
    68b6:	bf00      	nop

000068b8 <__aeabi_fcmplt>:
    68b8:	f84d ed08 	str.w	lr, [sp, #-8]!
    68bc:	f7ff ffea 	bl	6894 <__aeabi_cfcmpeq>
    68c0:	bf34      	ite	cc
    68c2:	2001      	movcc	r0, #1
    68c4:	2000      	movcs	r0, #0
    68c6:	f85d fb08 	ldr.w	pc, [sp], #8
    68ca:	bf00      	nop

000068cc <__aeabi_fcmple>:
    68cc:	f84d ed08 	str.w	lr, [sp, #-8]!
    68d0:	f7ff ffe0 	bl	6894 <__aeabi_cfcmpeq>
    68d4:	bf94      	ite	ls
    68d6:	2001      	movls	r0, #1
    68d8:	2000      	movhi	r0, #0
    68da:	f85d fb08 	ldr.w	pc, [sp], #8
    68de:	bf00      	nop

000068e0 <__aeabi_fcmpge>:
    68e0:	f84d ed08 	str.w	lr, [sp, #-8]!
    68e4:	f7ff ffd2 	bl	688c <__aeabi_cfrcmple>
    68e8:	bf94      	ite	ls
    68ea:	2001      	movls	r0, #1
    68ec:	2000      	movhi	r0, #0
    68ee:	f85d fb08 	ldr.w	pc, [sp], #8
    68f2:	bf00      	nop

000068f4 <__aeabi_fcmpgt>:
    68f4:	f84d ed08 	str.w	lr, [sp, #-8]!
    68f8:	f7ff ffc8 	bl	688c <__aeabi_cfrcmple>
    68fc:	bf34      	ite	cc
    68fe:	2001      	movcc	r0, #1
    6900:	2000      	movcs	r0, #0
    6902:	f85d fb08 	ldr.w	pc, [sp], #8
    6906:	bf00      	nop

00006908 <__aeabi_f2iz>:
    6908:	ea4f 0240 	mov.w	r2, r0, lsl #1
    690c:	f1b2 4ffe 	cmp.w	r2, #2130706432	; 0x7f000000
    6910:	d30f      	bcc.n	6932 <__aeabi_f2iz+0x2a>
    6912:	f04f 039e 	mov.w	r3, #158	; 0x9e
    6916:	ebb3 6212 	subs.w	r2, r3, r2, lsr #24
    691a:	d90d      	bls.n	6938 <__aeabi_f2iz+0x30>
    691c:	ea4f 2300 	mov.w	r3, r0, lsl #8
    6920:	f043 4300 	orr.w	r3, r3, #2147483648	; 0x80000000
    6924:	f010 4f00 	tst.w	r0, #2147483648	; 0x80000000
    6928:	fa23 f002 	lsr.w	r0, r3, r2
    692c:	bf18      	it	ne
    692e:	4240      	negne	r0, r0
    6930:	4770      	bx	lr
    6932:	f04f 0000 	mov.w	r0, #0
    6936:	4770      	bx	lr
    6938:	f112 0f61 	cmn.w	r2, #97	; 0x61
    693c:	d101      	bne.n	6942 <__aeabi_f2iz+0x3a>
    693e:	0242      	lsls	r2, r0, #9
    6940:	d105      	bne.n	694e <__aeabi_f2iz+0x46>
    6942:	f010 4000 	ands.w	r0, r0, #2147483648	; 0x80000000
    6946:	bf08      	it	eq
    6948:	f06f 4000 	mvneq.w	r0, #2147483648	; 0x80000000
    694c:	4770      	bx	lr
    694e:	f04f 0000 	mov.w	r0, #0
    6952:	4770      	bx	lr

00006954 <__cxa_atexit>:
    6954:	b538      	push	{r3, r4, r5, lr}
    6956:	4605      	mov	r5, r0
    6958:	4804      	ldr	r0, [pc, #16]	; (696c <__cxa_atexit+0x18>)
    695a:	460c      	mov	r4, r1
    695c:	4613      	mov	r3, r2
    695e:	b120      	cbz	r0, 696a <__cxa_atexit+0x16>
    6960:	2002      	movs	r0, #2
    6962:	4629      	mov	r1, r5
    6964:	4622      	mov	r2, r4
    6966:	f3af 8000 	nop.w
    696a:	bd38      	pop	{r3, r4, r5, pc}
    696c:	00000000 	.word	0x00000000

00006970 <__errno>:
    6970:	4b01      	ldr	r3, [pc, #4]	; (6978 <__errno+0x8>)
    6972:	6818      	ldr	r0, [r3, #0]
    6974:	4770      	bx	lr
    6976:	bf00      	nop
    6978:	10000198 	.word	0x10000198

0000697c <exit>:
    697c:	b508      	push	{r3, lr}
    697e:	4b07      	ldr	r3, [pc, #28]	; (699c <exit+0x20>)
    6980:	4604      	mov	r4, r0
    6982:	b113      	cbz	r3, 698a <exit+0xe>
    6984:	2100      	movs	r1, #0
    6986:	f3af 8000 	nop.w
    698a:	4b05      	ldr	r3, [pc, #20]	; (69a0 <exit+0x24>)
    698c:	6818      	ldr	r0, [r3, #0]
    698e:	6a83      	ldr	r3, [r0, #40]	; 0x28
    6990:	b103      	cbz	r3, 6994 <exit+0x18>
    6992:	4798      	blx	r3
    6994:	4620      	mov	r0, r4
    6996:	f7ff f841 	bl	5a1c <_exit>
    699a:	bf00      	nop
    699c:	00000000 	.word	0x00000000
    69a0:	00009434 	.word	0x00009434

000069a4 <_fclose_r>:
    69a4:	b570      	push	{r4, r5, r6, lr}
    69a6:	4605      	mov	r5, r0
    69a8:	460c      	mov	r4, r1
    69aa:	b909      	cbnz	r1, 69b0 <_fclose_r+0xc>
    69ac:	2000      	movs	r0, #0
    69ae:	bd70      	pop	{r4, r5, r6, pc}
    69b0:	b118      	cbz	r0, 69ba <_fclose_r+0x16>
    69b2:	6983      	ldr	r3, [r0, #24]
    69b4:	b90b      	cbnz	r3, 69ba <_fclose_r+0x16>
    69b6:	f000 f983 	bl	6cc0 <__sinit>
    69ba:	4b20      	ldr	r3, [pc, #128]	; (6a3c <_fclose_r+0x98>)
    69bc:	429c      	cmp	r4, r3
    69be:	d101      	bne.n	69c4 <_fclose_r+0x20>
    69c0:	686c      	ldr	r4, [r5, #4]
    69c2:	e008      	b.n	69d6 <_fclose_r+0x32>
    69c4:	4b1e      	ldr	r3, [pc, #120]	; (6a40 <_fclose_r+0x9c>)
    69c6:	429c      	cmp	r4, r3
    69c8:	d101      	bne.n	69ce <_fclose_r+0x2a>
    69ca:	68ac      	ldr	r4, [r5, #8]
    69cc:	e003      	b.n	69d6 <_fclose_r+0x32>
    69ce:	4b1d      	ldr	r3, [pc, #116]	; (6a44 <_fclose_r+0xa0>)
    69d0:	429c      	cmp	r4, r3
    69d2:	bf08      	it	eq
    69d4:	68ec      	ldreq	r4, [r5, #12]
    69d6:	f9b4 300c 	ldrsh.w	r3, [r4, #12]
    69da:	2b00      	cmp	r3, #0
    69dc:	d0e6      	beq.n	69ac <_fclose_r+0x8>
    69de:	4628      	mov	r0, r5
    69e0:	4621      	mov	r1, r4
    69e2:	f000 f839 	bl	6a58 <__sflush_r>
    69e6:	6b23      	ldr	r3, [r4, #48]	; 0x30
    69e8:	4606      	mov	r6, r0
    69ea:	b133      	cbz	r3, 69fa <_fclose_r+0x56>
    69ec:	4628      	mov	r0, r5
    69ee:	6a21      	ldr	r1, [r4, #32]
    69f0:	4798      	blx	r3
    69f2:	2800      	cmp	r0, #0
    69f4:	bfb8      	it	lt
    69f6:	f04f 36ff 	movlt.w	r6, #4294967295
    69fa:	89a3      	ldrh	r3, [r4, #12]
    69fc:	061b      	lsls	r3, r3, #24
    69fe:	d503      	bpl.n	6a08 <_fclose_r+0x64>
    6a00:	4628      	mov	r0, r5
    6a02:	6921      	ldr	r1, [r4, #16]
    6a04:	f000 fbc6 	bl	7194 <_free_r>
    6a08:	6b61      	ldr	r1, [r4, #52]	; 0x34
    6a0a:	b141      	cbz	r1, 6a1e <_fclose_r+0x7a>
    6a0c:	f104 0344 	add.w	r3, r4, #68	; 0x44
    6a10:	4299      	cmp	r1, r3
    6a12:	d002      	beq.n	6a1a <_fclose_r+0x76>
    6a14:	4628      	mov	r0, r5
    6a16:	f000 fbbd 	bl	7194 <_free_r>
    6a1a:	2300      	movs	r3, #0
    6a1c:	6363      	str	r3, [r4, #52]	; 0x34
    6a1e:	6ca1      	ldr	r1, [r4, #72]	; 0x48
    6a20:	b121      	cbz	r1, 6a2c <_fclose_r+0x88>
    6a22:	4628      	mov	r0, r5
    6a24:	f000 fbb6 	bl	7194 <_free_r>
    6a28:	2300      	movs	r3, #0
    6a2a:	64a3      	str	r3, [r4, #72]	; 0x48
    6a2c:	f000 f9b2 	bl	6d94 <__sfp_lock_acquire>
    6a30:	2300      	movs	r3, #0
    6a32:	81a3      	strh	r3, [r4, #12]
    6a34:	f000 f9af 	bl	6d96 <__sfp_lock_release>
    6a38:	4630      	mov	r0, r6
    6a3a:	bd70      	pop	{r4, r5, r6, pc}
    6a3c:	000093d0 	.word	0x000093d0
    6a40:	000093f0 	.word	0x000093f0
    6a44:	00009410 	.word	0x00009410

00006a48 <fclose>:
    6a48:	4b02      	ldr	r3, [pc, #8]	; (6a54 <fclose+0xc>)
    6a4a:	4601      	mov	r1, r0
    6a4c:	6818      	ldr	r0, [r3, #0]
    6a4e:	f7ff bfa9 	b.w	69a4 <_fclose_r>
    6a52:	bf00      	nop
    6a54:	10000198 	.word	0x10000198

00006a58 <__sflush_r>:
    6a58:	898a      	ldrh	r2, [r1, #12]
    6a5a:	e92d 41f0 	stmdb	sp!, {r4, r5, r6, r7, r8, lr}
    6a5e:	4605      	mov	r5, r0
    6a60:	0710      	lsls	r0, r2, #28
    6a62:	460c      	mov	r4, r1
    6a64:	d457      	bmi.n	6b16 <__sflush_r+0xbe>
    6a66:	684b      	ldr	r3, [r1, #4]
    6a68:	2b00      	cmp	r3, #0
    6a6a:	dc02      	bgt.n	6a72 <__sflush_r+0x1a>
    6a6c:	6c0b      	ldr	r3, [r1, #64]	; 0x40
    6a6e:	2b00      	cmp	r3, #0
    6a70:	dd18      	ble.n	6aa4 <__sflush_r+0x4c>
    6a72:	6ae6      	ldr	r6, [r4, #44]	; 0x2c
    6a74:	b1b6      	cbz	r6, 6aa4 <__sflush_r+0x4c>
    6a76:	f402 5280 	and.w	r2, r2, #4096	; 0x1000
    6a7a:	2300      	movs	r3, #0
    6a7c:	b292      	uxth	r2, r2
    6a7e:	682f      	ldr	r7, [r5, #0]
    6a80:	602b      	str	r3, [r5, #0]
    6a82:	b10a      	cbz	r2, 6a88 <__sflush_r+0x30>
    6a84:	6d62      	ldr	r2, [r4, #84]	; 0x54
    6a86:	e010      	b.n	6aaa <__sflush_r+0x52>
    6a88:	6a21      	ldr	r1, [r4, #32]
    6a8a:	4628      	mov	r0, r5
    6a8c:	2301      	movs	r3, #1
    6a8e:	47b0      	blx	r6
    6a90:	1c41      	adds	r1, r0, #1
    6a92:	4602      	mov	r2, r0
    6a94:	d109      	bne.n	6aaa <__sflush_r+0x52>
    6a96:	682b      	ldr	r3, [r5, #0]
    6a98:	b13b      	cbz	r3, 6aaa <__sflush_r+0x52>
    6a9a:	2b1d      	cmp	r3, #29
    6a9c:	d001      	beq.n	6aa2 <__sflush_r+0x4a>
    6a9e:	2b16      	cmp	r3, #22
    6aa0:	d146      	bne.n	6b30 <__sflush_r+0xd8>
    6aa2:	602f      	str	r7, [r5, #0]
    6aa4:	2000      	movs	r0, #0
    6aa6:	e8bd 81f0 	ldmia.w	sp!, {r4, r5, r6, r7, r8, pc}
    6aaa:	89a3      	ldrh	r3, [r4, #12]
    6aac:	075b      	lsls	r3, r3, #29
    6aae:	d505      	bpl.n	6abc <__sflush_r+0x64>
    6ab0:	6863      	ldr	r3, [r4, #4]
    6ab2:	1ad2      	subs	r2, r2, r3
    6ab4:	6b63      	ldr	r3, [r4, #52]	; 0x34
    6ab6:	b10b      	cbz	r3, 6abc <__sflush_r+0x64>
    6ab8:	6c23      	ldr	r3, [r4, #64]	; 0x40
    6aba:	1ad2      	subs	r2, r2, r3
    6abc:	6ae6      	ldr	r6, [r4, #44]	; 0x2c
    6abe:	2300      	movs	r3, #0
    6ac0:	4628      	mov	r0, r5
    6ac2:	6a21      	ldr	r1, [r4, #32]
    6ac4:	47b0      	blx	r6
    6ac6:	1c46      	adds	r6, r0, #1
    6ac8:	89a3      	ldrh	r3, [r4, #12]
    6aca:	d105      	bne.n	6ad8 <__sflush_r+0x80>
    6acc:	682a      	ldr	r2, [r5, #0]
    6ace:	b11a      	cbz	r2, 6ad8 <__sflush_r+0x80>
    6ad0:	2a1d      	cmp	r2, #29
    6ad2:	d001      	beq.n	6ad8 <__sflush_r+0x80>
    6ad4:	2a16      	cmp	r2, #22
    6ad6:	d119      	bne.n	6b0c <__sflush_r+0xb4>
    6ad8:	2200      	movs	r2, #0
    6ada:	6062      	str	r2, [r4, #4]
    6adc:	6922      	ldr	r2, [r4, #16]
    6ade:	04d9      	lsls	r1, r3, #19
    6ae0:	6022      	str	r2, [r4, #0]
    6ae2:	d504      	bpl.n	6aee <__sflush_r+0x96>
    6ae4:	1c42      	adds	r2, r0, #1
    6ae6:	d101      	bne.n	6aec <__sflush_r+0x94>
    6ae8:	682b      	ldr	r3, [r5, #0]
    6aea:	b903      	cbnz	r3, 6aee <__sflush_r+0x96>
    6aec:	6560      	str	r0, [r4, #84]	; 0x54
    6aee:	6b61      	ldr	r1, [r4, #52]	; 0x34
    6af0:	602f      	str	r7, [r5, #0]
    6af2:	2900      	cmp	r1, #0
    6af4:	d0d6      	beq.n	6aa4 <__sflush_r+0x4c>
    6af6:	f104 0344 	add.w	r3, r4, #68	; 0x44
    6afa:	4299      	cmp	r1, r3
    6afc:	d002      	beq.n	6b04 <__sflush_r+0xac>
    6afe:	4628      	mov	r0, r5
    6b00:	f000 fb48 	bl	7194 <_free_r>
    6b04:	2000      	movs	r0, #0
    6b06:	6360      	str	r0, [r4, #52]	; 0x34
    6b08:	e8bd 81f0 	ldmia.w	sp!, {r4, r5, r6, r7, r8, pc}
    6b0c:	f043 0340 	orr.w	r3, r3, #64	; 0x40
    6b10:	81a3      	strh	r3, [r4, #12]
    6b12:	e8bd 81f0 	ldmia.w	sp!, {r4, r5, r6, r7, r8, pc}
    6b16:	690f      	ldr	r7, [r1, #16]
    6b18:	2f00      	cmp	r7, #0
    6b1a:	d0c3      	beq.n	6aa4 <__sflush_r+0x4c>
    6b1c:	0793      	lsls	r3, r2, #30
    6b1e:	680e      	ldr	r6, [r1, #0]
    6b20:	bf0c      	ite	eq
    6b22:	694b      	ldreq	r3, [r1, #20]
    6b24:	2300      	movne	r3, #0
    6b26:	ebc7 0806 	rsb	r8, r7, r6
    6b2a:	600f      	str	r7, [r1, #0]
    6b2c:	608b      	str	r3, [r1, #8]
    6b2e:	e012      	b.n	6b56 <__sflush_r+0xfe>
    6b30:	89a3      	ldrh	r3, [r4, #12]
    6b32:	f04f 30ff 	mov.w	r0, #4294967295
    6b36:	f043 0340 	orr.w	r3, r3, #64	; 0x40
    6b3a:	81a3      	strh	r3, [r4, #12]
    6b3c:	e8bd 81f0 	ldmia.w	sp!, {r4, r5, r6, r7, r8, pc}
    6b40:	4628      	mov	r0, r5
    6b42:	6a21      	ldr	r1, [r4, #32]
    6b44:	463a      	mov	r2, r7
    6b46:	4643      	mov	r3, r8
    6b48:	6aa6      	ldr	r6, [r4, #40]	; 0x28
    6b4a:	47b0      	blx	r6
    6b4c:	2800      	cmp	r0, #0
    6b4e:	ddef      	ble.n	6b30 <__sflush_r+0xd8>
    6b50:	4407      	add	r7, r0
    6b52:	ebc0 0808 	rsb	r8, r0, r8
    6b56:	f1b8 0f00 	cmp.w	r8, #0
    6b5a:	dcf1      	bgt.n	6b40 <__sflush_r+0xe8>
    6b5c:	e7a2      	b.n	6aa4 <__sflush_r+0x4c>
	...

00006b60 <_fflush_r>:
    6b60:	b538      	push	{r3, r4, r5, lr}
    6b62:	690b      	ldr	r3, [r1, #16]
    6b64:	4605      	mov	r5, r0
    6b66:	460c      	mov	r4, r1
    6b68:	b1db      	cbz	r3, 6ba2 <_fflush_r+0x42>
    6b6a:	b118      	cbz	r0, 6b74 <_fflush_r+0x14>
    6b6c:	6983      	ldr	r3, [r0, #24]
    6b6e:	b90b      	cbnz	r3, 6b74 <_fflush_r+0x14>
    6b70:	f000 f8a6 	bl	6cc0 <__sinit>
    6b74:	4b0c      	ldr	r3, [pc, #48]	; (6ba8 <_fflush_r+0x48>)
    6b76:	429c      	cmp	r4, r3
    6b78:	d101      	bne.n	6b7e <_fflush_r+0x1e>
    6b7a:	686c      	ldr	r4, [r5, #4]
    6b7c:	e008      	b.n	6b90 <_fflush_r+0x30>
    6b7e:	4b0b      	ldr	r3, [pc, #44]	; (6bac <_fflush_r+0x4c>)
    6b80:	429c      	cmp	r4, r3
    6b82:	d101      	bne.n	6b88 <_fflush_r+0x28>
    6b84:	68ac      	ldr	r4, [r5, #8]
    6b86:	e003      	b.n	6b90 <_fflush_r+0x30>
    6b88:	4b09      	ldr	r3, [pc, #36]	; (6bb0 <_fflush_r+0x50>)
    6b8a:	429c      	cmp	r4, r3
    6b8c:	bf08      	it	eq
    6b8e:	68ec      	ldreq	r4, [r5, #12]
    6b90:	f9b4 300c 	ldrsh.w	r3, [r4, #12]
    6b94:	b12b      	cbz	r3, 6ba2 <_fflush_r+0x42>
    6b96:	4628      	mov	r0, r5
    6b98:	4621      	mov	r1, r4
    6b9a:	e8bd 4038 	ldmia.w	sp!, {r3, r4, r5, lr}
    6b9e:	f7ff bf5b 	b.w	6a58 <__sflush_r>
    6ba2:	2000      	movs	r0, #0
    6ba4:	bd38      	pop	{r3, r4, r5, pc}
    6ba6:	bf00      	nop
    6ba8:	000093d0 	.word	0x000093d0
    6bac:	000093f0 	.word	0x000093f0
    6bb0:	00009410 	.word	0x00009410

00006bb4 <fflush>:
    6bb4:	4601      	mov	r1, r0
    6bb6:	b920      	cbnz	r0, 6bc2 <fflush+0xe>
    6bb8:	4b04      	ldr	r3, [pc, #16]	; (6bcc <fflush+0x18>)
    6bba:	4905      	ldr	r1, [pc, #20]	; (6bd0 <fflush+0x1c>)
    6bbc:	6818      	ldr	r0, [r3, #0]
    6bbe:	f000 ba0d 	b.w	6fdc <_fwalk_reent>
    6bc2:	4b04      	ldr	r3, [pc, #16]	; (6bd4 <fflush+0x20>)
    6bc4:	6818      	ldr	r0, [r3, #0]
    6bc6:	f7ff bfcb 	b.w	6b60 <_fflush_r>
    6bca:	bf00      	nop
    6bcc:	00009434 	.word	0x00009434
    6bd0:	00006b61 	.word	0x00006b61
    6bd4:	10000198 	.word	0x10000198

00006bd8 <_fgetc_r>:
    6bd8:	b538      	push	{r3, r4, r5, lr}
    6bda:	460c      	mov	r4, r1
    6bdc:	4605      	mov	r5, r0
    6bde:	b118      	cbz	r0, 6be8 <_fgetc_r+0x10>
    6be0:	6983      	ldr	r3, [r0, #24]
    6be2:	b90b      	cbnz	r3, 6be8 <_fgetc_r+0x10>
    6be4:	f000 f86c 	bl	6cc0 <__sinit>
    6be8:	4b0e      	ldr	r3, [pc, #56]	; (6c24 <_fgetc_r+0x4c>)
    6bea:	429c      	cmp	r4, r3
    6bec:	d101      	bne.n	6bf2 <_fgetc_r+0x1a>
    6bee:	686c      	ldr	r4, [r5, #4]
    6bf0:	e008      	b.n	6c04 <_fgetc_r+0x2c>
    6bf2:	4b0d      	ldr	r3, [pc, #52]	; (6c28 <_fgetc_r+0x50>)
    6bf4:	429c      	cmp	r4, r3
    6bf6:	d101      	bne.n	6bfc <_fgetc_r+0x24>
    6bf8:	68ac      	ldr	r4, [r5, #8]
    6bfa:	e003      	b.n	6c04 <_fgetc_r+0x2c>
    6bfc:	4b0b      	ldr	r3, [pc, #44]	; (6c2c <_fgetc_r+0x54>)
    6bfe:	429c      	cmp	r4, r3
    6c00:	bf08      	it	eq
    6c02:	68ec      	ldreq	r4, [r5, #12]
    6c04:	6863      	ldr	r3, [r4, #4]
    6c06:	3b01      	subs	r3, #1
    6c08:	2b00      	cmp	r3, #0
    6c0a:	6063      	str	r3, [r4, #4]
    6c0c:	da05      	bge.n	6c1a <_fgetc_r+0x42>
    6c0e:	4628      	mov	r0, r5
    6c10:	4621      	mov	r1, r4
    6c12:	e8bd 4038 	ldmia.w	sp!, {r3, r4, r5, lr}
    6c16:	f001 b863 	b.w	7ce0 <__srget_r>
    6c1a:	6823      	ldr	r3, [r4, #0]
    6c1c:	1c5a      	adds	r2, r3, #1
    6c1e:	6022      	str	r2, [r4, #0]
    6c20:	7818      	ldrb	r0, [r3, #0]
    6c22:	bd38      	pop	{r3, r4, r5, pc}
    6c24:	000093d0 	.word	0x000093d0
    6c28:	000093f0 	.word	0x000093f0
    6c2c:	00009410 	.word	0x00009410

00006c30 <fgetc>:
    6c30:	4b02      	ldr	r3, [pc, #8]	; (6c3c <fgetc+0xc>)
    6c32:	4601      	mov	r1, r0
    6c34:	6818      	ldr	r0, [r3, #0]
    6c36:	f7ff bfcf 	b.w	6bd8 <_fgetc_r>
    6c3a:	bf00      	nop
    6c3c:	10000198 	.word	0x10000198

00006c40 <_cleanup_r>:
    6c40:	4901      	ldr	r1, [pc, #4]	; (6c48 <_cleanup_r+0x8>)
    6c42:	f000 b9cb 	b.w	6fdc <_fwalk_reent>
    6c46:	bf00      	nop
    6c48:	00006b61 	.word	0x00006b61

00006c4c <std.isra.0>:
    6c4c:	b510      	push	{r4, lr}
    6c4e:	4604      	mov	r4, r0
    6c50:	2300      	movs	r3, #0
    6c52:	6003      	str	r3, [r0, #0]
    6c54:	6043      	str	r3, [r0, #4]
    6c56:	6083      	str	r3, [r0, #8]
    6c58:	8181      	strh	r1, [r0, #12]
    6c5a:	6643      	str	r3, [r0, #100]	; 0x64
    6c5c:	81c2      	strh	r2, [r0, #14]
    6c5e:	6103      	str	r3, [r0, #16]
    6c60:	6143      	str	r3, [r0, #20]
    6c62:	6183      	str	r3, [r0, #24]
    6c64:	4619      	mov	r1, r3
    6c66:	305c      	adds	r0, #92	; 0x5c
    6c68:	2208      	movs	r2, #8
    6c6a:	f000 fa8b 	bl	7184 <memset>
    6c6e:	4b05      	ldr	r3, [pc, #20]	; (6c84 <std.isra.0+0x38>)
    6c70:	6224      	str	r4, [r4, #32]
    6c72:	6263      	str	r3, [r4, #36]	; 0x24
    6c74:	4b04      	ldr	r3, [pc, #16]	; (6c88 <std.isra.0+0x3c>)
    6c76:	62a3      	str	r3, [r4, #40]	; 0x28
    6c78:	4b04      	ldr	r3, [pc, #16]	; (6c8c <std.isra.0+0x40>)
    6c7a:	62e3      	str	r3, [r4, #44]	; 0x2c
    6c7c:	4b04      	ldr	r3, [pc, #16]	; (6c90 <std.isra.0+0x44>)
    6c7e:	6323      	str	r3, [r4, #48]	; 0x30
    6c80:	bd10      	pop	{r4, pc}
    6c82:	bf00      	nop
    6c84:	00007f79 	.word	0x00007f79
    6c88:	00007f9f 	.word	0x00007f9f
    6c8c:	00007fd7 	.word	0x00007fd7
    6c90:	00007ffb 	.word	0x00007ffb

00006c94 <__sfmoreglue>:
    6c94:	b570      	push	{r4, r5, r6, lr}
    6c96:	2368      	movs	r3, #104	; 0x68
    6c98:	1e4d      	subs	r5, r1, #1
    6c9a:	435d      	muls	r5, r3
    6c9c:	460e      	mov	r6, r1
    6c9e:	f105 0174 	add.w	r1, r5, #116	; 0x74
    6ca2:	f000 fabb 	bl	721c <_malloc_r>
    6ca6:	4604      	mov	r4, r0
    6ca8:	b140      	cbz	r0, 6cbc <__sfmoreglue+0x28>
    6caa:	2100      	movs	r1, #0
    6cac:	e880 0042 	stmia.w	r0, {r1, r6}
    6cb0:	300c      	adds	r0, #12
    6cb2:	60a0      	str	r0, [r4, #8]
    6cb4:	f105 0268 	add.w	r2, r5, #104	; 0x68
    6cb8:	f000 fa64 	bl	7184 <memset>
    6cbc:	4620      	mov	r0, r4
    6cbe:	bd70      	pop	{r4, r5, r6, pc}

00006cc0 <__sinit>:
    6cc0:	6983      	ldr	r3, [r0, #24]
    6cc2:	b510      	push	{r4, lr}
    6cc4:	4604      	mov	r4, r0
    6cc6:	bb33      	cbnz	r3, 6d16 <__sinit+0x56>
    6cc8:	6483      	str	r3, [r0, #72]	; 0x48
    6cca:	64c3      	str	r3, [r0, #76]	; 0x4c
    6ccc:	6503      	str	r3, [r0, #80]	; 0x50
    6cce:	4b12      	ldr	r3, [pc, #72]	; (6d18 <__sinit+0x58>)
    6cd0:	4a12      	ldr	r2, [pc, #72]	; (6d1c <__sinit+0x5c>)
    6cd2:	681b      	ldr	r3, [r3, #0]
    6cd4:	6282      	str	r2, [r0, #40]	; 0x28
    6cd6:	4298      	cmp	r0, r3
    6cd8:	bf04      	itt	eq
    6cda:	2301      	moveq	r3, #1
    6cdc:	6183      	streq	r3, [r0, #24]
    6cde:	f000 f81f 	bl	6d20 <__sfp>
    6ce2:	6060      	str	r0, [r4, #4]
    6ce4:	4620      	mov	r0, r4
    6ce6:	f000 f81b 	bl	6d20 <__sfp>
    6cea:	60a0      	str	r0, [r4, #8]
    6cec:	4620      	mov	r0, r4
    6cee:	f000 f817 	bl	6d20 <__sfp>
    6cf2:	2104      	movs	r1, #4
    6cf4:	60e0      	str	r0, [r4, #12]
    6cf6:	2200      	movs	r2, #0
    6cf8:	6860      	ldr	r0, [r4, #4]
    6cfa:	f7ff ffa7 	bl	6c4c <std.isra.0>
    6cfe:	68a0      	ldr	r0, [r4, #8]
    6d00:	2109      	movs	r1, #9
    6d02:	2201      	movs	r2, #1
    6d04:	f7ff ffa2 	bl	6c4c <std.isra.0>
    6d08:	68e0      	ldr	r0, [r4, #12]
    6d0a:	2112      	movs	r1, #18
    6d0c:	2202      	movs	r2, #2
    6d0e:	f7ff ff9d 	bl	6c4c <std.isra.0>
    6d12:	2301      	movs	r3, #1
    6d14:	61a3      	str	r3, [r4, #24]
    6d16:	bd10      	pop	{r4, pc}
    6d18:	00009434 	.word	0x00009434
    6d1c:	00006c41 	.word	0x00006c41

00006d20 <__sfp>:
    6d20:	b5f8      	push	{r3, r4, r5, r6, r7, lr}
    6d22:	4b1b      	ldr	r3, [pc, #108]	; (6d90 <__sfp+0x70>)
    6d24:	4607      	mov	r7, r0
    6d26:	681e      	ldr	r6, [r3, #0]
    6d28:	69b3      	ldr	r3, [r6, #24]
    6d2a:	b913      	cbnz	r3, 6d32 <__sfp+0x12>
    6d2c:	4630      	mov	r0, r6
    6d2e:	f7ff ffc7 	bl	6cc0 <__sinit>
    6d32:	3648      	adds	r6, #72	; 0x48
    6d34:	68b4      	ldr	r4, [r6, #8]
    6d36:	6873      	ldr	r3, [r6, #4]
    6d38:	3b01      	subs	r3, #1
    6d3a:	d404      	bmi.n	6d46 <__sfp+0x26>
    6d3c:	f9b4 500c 	ldrsh.w	r5, [r4, #12]
    6d40:	b175      	cbz	r5, 6d60 <__sfp+0x40>
    6d42:	3468      	adds	r4, #104	; 0x68
    6d44:	e7f8      	b.n	6d38 <__sfp+0x18>
    6d46:	6833      	ldr	r3, [r6, #0]
    6d48:	b92b      	cbnz	r3, 6d56 <__sfp+0x36>
    6d4a:	4638      	mov	r0, r7
    6d4c:	2104      	movs	r1, #4
    6d4e:	f7ff ffa1 	bl	6c94 <__sfmoreglue>
    6d52:	6030      	str	r0, [r6, #0]
    6d54:	b108      	cbz	r0, 6d5a <__sfp+0x3a>
    6d56:	6836      	ldr	r6, [r6, #0]
    6d58:	e7ec      	b.n	6d34 <__sfp+0x14>
    6d5a:	230c      	movs	r3, #12
    6d5c:	603b      	str	r3, [r7, #0]
    6d5e:	bdf8      	pop	{r3, r4, r5, r6, r7, pc}
    6d60:	f64f 73ff 	movw	r3, #65535	; 0xffff
    6d64:	81e3      	strh	r3, [r4, #14]
    6d66:	2301      	movs	r3, #1
    6d68:	81a3      	strh	r3, [r4, #12]
    6d6a:	6665      	str	r5, [r4, #100]	; 0x64
    6d6c:	6025      	str	r5, [r4, #0]
    6d6e:	60a5      	str	r5, [r4, #8]
    6d70:	6065      	str	r5, [r4, #4]
    6d72:	6125      	str	r5, [r4, #16]
    6d74:	6165      	str	r5, [r4, #20]
    6d76:	61a5      	str	r5, [r4, #24]
    6d78:	f104 005c 	add.w	r0, r4, #92	; 0x5c
    6d7c:	4629      	mov	r1, r5
    6d7e:	2208      	movs	r2, #8
    6d80:	f000 fa00 	bl	7184 <memset>
    6d84:	6365      	str	r5, [r4, #52]	; 0x34
    6d86:	63a5      	str	r5, [r4, #56]	; 0x38
    6d88:	64a5      	str	r5, [r4, #72]	; 0x48
    6d8a:	64e5      	str	r5, [r4, #76]	; 0x4c
    6d8c:	4620      	mov	r0, r4
    6d8e:	bdf8      	pop	{r3, r4, r5, r6, r7, pc}
    6d90:	00009434 	.word	0x00009434

00006d94 <__sfp_lock_acquire>:
    6d94:	4770      	bx	lr

00006d96 <__sfp_lock_release>:
    6d96:	4770      	bx	lr

00006d98 <_fopen_r>:
    6d98:	b5f7      	push	{r0, r1, r2, r4, r5, r6, r7, lr}
    6d9a:	460f      	mov	r7, r1
    6d9c:	4611      	mov	r1, r2
    6d9e:	aa01      	add	r2, sp, #4
    6da0:	4605      	mov	r5, r0
    6da2:	f001 fb77 	bl	8494 <__sflags>
    6da6:	4606      	mov	r6, r0
    6da8:	b908      	cbnz	r0, 6dae <_fopen_r+0x16>
    6daa:	2000      	movs	r0, #0
    6dac:	e029      	b.n	6e02 <_fopen_r+0x6a>
    6dae:	4628      	mov	r0, r5
    6db0:	f7ff ffb6 	bl	6d20 <__sfp>
    6db4:	4604      	mov	r4, r0
    6db6:	2800      	cmp	r0, #0
    6db8:	d0f7      	beq.n	6daa <_fopen_r+0x12>
    6dba:	4628      	mov	r0, r5
    6dbc:	4639      	mov	r1, r7
    6dbe:	9a01      	ldr	r2, [sp, #4]
    6dc0:	f44f 73db 	mov.w	r3, #438	; 0x1b6
    6dc4:	f000 fea4 	bl	7b10 <_open_r>
    6dc8:	2800      	cmp	r0, #0
    6dca:	da06      	bge.n	6dda <_fopen_r+0x42>
    6dcc:	2500      	movs	r5, #0
    6dce:	f7ff ffe1 	bl	6d94 <__sfp_lock_acquire>
    6dd2:	81a5      	strh	r5, [r4, #12]
    6dd4:	f7ff ffdf 	bl	6d96 <__sfp_lock_release>
    6dd8:	e7e7      	b.n	6daa <_fopen_r+0x12>
    6dda:	4b0b      	ldr	r3, [pc, #44]	; (6e08 <_fopen_r+0x70>)
    6ddc:	81e0      	strh	r0, [r4, #14]
    6dde:	6263      	str	r3, [r4, #36]	; 0x24
    6de0:	4b0a      	ldr	r3, [pc, #40]	; (6e0c <_fopen_r+0x74>)
    6de2:	81a6      	strh	r6, [r4, #12]
    6de4:	62a3      	str	r3, [r4, #40]	; 0x28
    6de6:	4b0a      	ldr	r3, [pc, #40]	; (6e10 <_fopen_r+0x78>)
    6de8:	6224      	str	r4, [r4, #32]
    6dea:	62e3      	str	r3, [r4, #44]	; 0x2c
    6dec:	4b09      	ldr	r3, [pc, #36]	; (6e14 <_fopen_r+0x7c>)
    6dee:	6323      	str	r3, [r4, #48]	; 0x30
    6df0:	05f3      	lsls	r3, r6, #23
    6df2:	d505      	bpl.n	6e00 <_fopen_r+0x68>
    6df4:	4628      	mov	r0, r5
    6df6:	4621      	mov	r1, r4
    6df8:	2200      	movs	r2, #0
    6dfa:	2302      	movs	r3, #2
    6dfc:	f000 f844 	bl	6e88 <_fseek_r>
    6e00:	4620      	mov	r0, r4
    6e02:	b003      	add	sp, #12
    6e04:	bdf0      	pop	{r4, r5, r6, r7, pc}
    6e06:	bf00      	nop
    6e08:	00007f79 	.word	0x00007f79
    6e0c:	00007f9f 	.word	0x00007f9f
    6e10:	00007fd7 	.word	0x00007fd7
    6e14:	00007ffb 	.word	0x00007ffb

00006e18 <fopen>:
    6e18:	4603      	mov	r3, r0
    6e1a:	460a      	mov	r2, r1
    6e1c:	4902      	ldr	r1, [pc, #8]	; (6e28 <fopen+0x10>)
    6e1e:	6808      	ldr	r0, [r1, #0]
    6e20:	4619      	mov	r1, r3
    6e22:	f7ff bfb9 	b.w	6d98 <_fopen_r>
    6e26:	bf00      	nop
    6e28:	10000198 	.word	0x10000198

00006e2c <_fputc_r>:
    6e2c:	b570      	push	{r4, r5, r6, lr}
    6e2e:	460e      	mov	r6, r1
    6e30:	4614      	mov	r4, r2
    6e32:	4605      	mov	r5, r0
    6e34:	b118      	cbz	r0, 6e3e <_fputc_r+0x12>
    6e36:	6983      	ldr	r3, [r0, #24]
    6e38:	b90b      	cbnz	r3, 6e3e <_fputc_r+0x12>
    6e3a:	f7ff ff41 	bl	6cc0 <__sinit>
    6e3e:	4b0a      	ldr	r3, [pc, #40]	; (6e68 <_fputc_r+0x3c>)
    6e40:	429c      	cmp	r4, r3
    6e42:	d101      	bne.n	6e48 <_fputc_r+0x1c>
    6e44:	686c      	ldr	r4, [r5, #4]
    6e46:	e008      	b.n	6e5a <_fputc_r+0x2e>
    6e48:	4b08      	ldr	r3, [pc, #32]	; (6e6c <_fputc_r+0x40>)
    6e4a:	429c      	cmp	r4, r3
    6e4c:	d101      	bne.n	6e52 <_fputc_r+0x26>
    6e4e:	68ac      	ldr	r4, [r5, #8]
    6e50:	e003      	b.n	6e5a <_fputc_r+0x2e>
    6e52:	4b07      	ldr	r3, [pc, #28]	; (6e70 <_fputc_r+0x44>)
    6e54:	429c      	cmp	r4, r3
    6e56:	bf08      	it	eq
    6e58:	68ec      	ldreq	r4, [r5, #12]
    6e5a:	4628      	mov	r0, r5
    6e5c:	4631      	mov	r1, r6
    6e5e:	4622      	mov	r2, r4
    6e60:	e8bd 4070 	ldmia.w	sp!, {r4, r5, r6, lr}
    6e64:	f000 be66 	b.w	7b34 <_putc_r>
    6e68:	000093d0 	.word	0x000093d0
    6e6c:	000093f0 	.word	0x000093f0
    6e70:	00009410 	.word	0x00009410

00006e74 <fputc>:
    6e74:	4603      	mov	r3, r0
    6e76:	460a      	mov	r2, r1
    6e78:	4902      	ldr	r1, [pc, #8]	; (6e84 <fputc+0x10>)
    6e7a:	6808      	ldr	r0, [r1, #0]
    6e7c:	4619      	mov	r1, r3
    6e7e:	f7ff bfd5 	b.w	6e2c <_fputc_r>
    6e82:	bf00      	nop
    6e84:	10000198 	.word	0x10000198

00006e88 <_fseek_r>:
    6e88:	f000 b800 	b.w	6e8c <_fseeko_r>

00006e8c <_fseeko_r>:
    6e8c:	e92d 43f8 	stmdb	sp!, {r3, r4, r5, r6, r7, r8, r9, lr}
    6e90:	460c      	mov	r4, r1
    6e92:	4690      	mov	r8, r2
    6e94:	461e      	mov	r6, r3
    6e96:	4605      	mov	r5, r0
    6e98:	b118      	cbz	r0, 6ea2 <_fseeko_r+0x16>
    6e9a:	6983      	ldr	r3, [r0, #24]
    6e9c:	b90b      	cbnz	r3, 6ea2 <_fseeko_r+0x16>
    6e9e:	f7ff ff0f 	bl	6cc0 <__sinit>
    6ea2:	4b3d      	ldr	r3, [pc, #244]	; (6f98 <_fseeko_r+0x10c>)
    6ea4:	429c      	cmp	r4, r3
    6ea6:	d101      	bne.n	6eac <_fseeko_r+0x20>
    6ea8:	686c      	ldr	r4, [r5, #4]
    6eaa:	e008      	b.n	6ebe <_fseeko_r+0x32>
    6eac:	4b3b      	ldr	r3, [pc, #236]	; (6f9c <_fseeko_r+0x110>)
    6eae:	429c      	cmp	r4, r3
    6eb0:	d101      	bne.n	6eb6 <_fseeko_r+0x2a>
    6eb2:	68ac      	ldr	r4, [r5, #8]
    6eb4:	e003      	b.n	6ebe <_fseeko_r+0x32>
    6eb6:	4b3a      	ldr	r3, [pc, #232]	; (6fa0 <_fseeko_r+0x114>)
    6eb8:	429c      	cmp	r4, r3
    6eba:	bf08      	it	eq
    6ebc:	68ec      	ldreq	r4, [r5, #12]
    6ebe:	89a3      	ldrh	r3, [r4, #12]
    6ec0:	f403 7384 	and.w	r3, r3, #264	; 0x108
    6ec4:	f5b3 7f84 	cmp.w	r3, #264	; 0x108
    6ec8:	d103      	bne.n	6ed2 <_fseeko_r+0x46>
    6eca:	4628      	mov	r0, r5
    6ecc:	4621      	mov	r1, r4
    6ece:	f7ff fe47 	bl	6b60 <_fflush_r>
    6ed2:	6ae7      	ldr	r7, [r4, #44]	; 0x2c
    6ed4:	b90f      	cbnz	r7, 6eda <_fseeko_r+0x4e>
    6ed6:	231d      	movs	r3, #29
    6ed8:	e02b      	b.n	6f32 <_fseeko_r+0xa6>
    6eda:	2e01      	cmp	r6, #1
    6edc:	d004      	beq.n	6ee8 <_fseeko_r+0x5c>
    6ede:	2e02      	cmp	r6, #2
    6ee0:	d02b      	beq.n	6f3a <_fseeko_r+0xae>
    6ee2:	b356      	cbz	r6, 6f3a <_fseeko_r+0xae>
    6ee4:	2316      	movs	r3, #22
    6ee6:	e024      	b.n	6f32 <_fseeko_r+0xa6>
    6ee8:	4628      	mov	r0, r5
    6eea:	4621      	mov	r1, r4
    6eec:	f7ff fe38 	bl	6b60 <_fflush_r>
    6ef0:	89a2      	ldrh	r2, [r4, #12]
    6ef2:	f402 5280 	and.w	r2, r2, #4096	; 0x1000
    6ef6:	b292      	uxth	r2, r2
    6ef8:	b10a      	cbz	r2, 6efe <_fseeko_r+0x72>
    6efa:	6d60      	ldr	r0, [r4, #84]	; 0x54
    6efc:	e005      	b.n	6f0a <_fseeko_r+0x7e>
    6efe:	6a21      	ldr	r1, [r4, #32]
    6f00:	4628      	mov	r0, r5
    6f02:	4633      	mov	r3, r6
    6f04:	47b8      	blx	r7
    6f06:	1c41      	adds	r1, r0, #1
    6f08:	d014      	beq.n	6f34 <_fseeko_r+0xa8>
    6f0a:	89a3      	ldrh	r3, [r4, #12]
    6f0c:	075a      	lsls	r2, r3, #29
    6f0e:	d506      	bpl.n	6f1e <_fseeko_r+0x92>
    6f10:	6863      	ldr	r3, [r4, #4]
    6f12:	1ac0      	subs	r0, r0, r3
    6f14:	6b63      	ldr	r3, [r4, #52]	; 0x34
    6f16:	b14b      	cbz	r3, 6f2c <_fseeko_r+0xa0>
    6f18:	6c23      	ldr	r3, [r4, #64]	; 0x40
    6f1a:	1ac0      	subs	r0, r0, r3
    6f1c:	e006      	b.n	6f2c <_fseeko_r+0xa0>
    6f1e:	071b      	lsls	r3, r3, #28
    6f20:	d504      	bpl.n	6f2c <_fseeko_r+0xa0>
    6f22:	6823      	ldr	r3, [r4, #0]
    6f24:	b113      	cbz	r3, 6f2c <_fseeko_r+0xa0>
    6f26:	6922      	ldr	r2, [r4, #16]
    6f28:	1a9b      	subs	r3, r3, r2
    6f2a:	4418      	add	r0, r3
    6f2c:	4480      	add	r8, r0
    6f2e:	2600      	movs	r6, #0
    6f30:	e003      	b.n	6f3a <_fseeko_r+0xae>
    6f32:	602b      	str	r3, [r5, #0]
    6f34:	f04f 39ff 	mov.w	r9, #4294967295
    6f38:	e02b      	b.n	6f92 <_fseeko_r+0x106>
    6f3a:	6923      	ldr	r3, [r4, #16]
    6f3c:	b91b      	cbnz	r3, 6f46 <_fseeko_r+0xba>
    6f3e:	4628      	mov	r0, r5
    6f40:	4621      	mov	r1, r4
    6f42:	f000 f88f 	bl	7064 <__smakebuf_r>
    6f46:	4628      	mov	r0, r5
    6f48:	4621      	mov	r1, r4
    6f4a:	f7ff fe09 	bl	6b60 <_fflush_r>
    6f4e:	4681      	mov	r9, r0
    6f50:	2800      	cmp	r0, #0
    6f52:	d1ef      	bne.n	6f34 <_fseeko_r+0xa8>
    6f54:	4628      	mov	r0, r5
    6f56:	6a21      	ldr	r1, [r4, #32]
    6f58:	4642      	mov	r2, r8
    6f5a:	4633      	mov	r3, r6
    6f5c:	47b8      	blx	r7
    6f5e:	3001      	adds	r0, #1
    6f60:	d0e8      	beq.n	6f34 <_fseeko_r+0xa8>
    6f62:	6b61      	ldr	r1, [r4, #52]	; 0x34
    6f64:	b141      	cbz	r1, 6f78 <_fseeko_r+0xec>
    6f66:	f104 0344 	add.w	r3, r4, #68	; 0x44
    6f6a:	4299      	cmp	r1, r3
    6f6c:	d002      	beq.n	6f74 <_fseeko_r+0xe8>
    6f6e:	4628      	mov	r0, r5
    6f70:	f000 f910 	bl	7194 <_free_r>
    6f74:	2300      	movs	r3, #0
    6f76:	6363      	str	r3, [r4, #52]	; 0x34
    6f78:	6923      	ldr	r3, [r4, #16]
    6f7a:	2100      	movs	r1, #0
    6f7c:	6023      	str	r3, [r4, #0]
    6f7e:	89a3      	ldrh	r3, [r4, #12]
    6f80:	6061      	str	r1, [r4, #4]
    6f82:	f423 6302 	bic.w	r3, r3, #2080	; 0x820
    6f86:	81a3      	strh	r3, [r4, #12]
    6f88:	f104 005c 	add.w	r0, r4, #92	; 0x5c
    6f8c:	2208      	movs	r2, #8
    6f8e:	f000 f8f9 	bl	7184 <memset>
    6f92:	4648      	mov	r0, r9
    6f94:	e8bd 83f8 	ldmia.w	sp!, {r3, r4, r5, r6, r7, r8, r9, pc}
    6f98:	000093d0 	.word	0x000093d0
    6f9c:	000093f0 	.word	0x000093f0
    6fa0:	00009410 	.word	0x00009410

00006fa4 <_fwalk>:
    6fa4:	e92d 41f0 	stmdb	sp!, {r4, r5, r6, r7, r8, lr}
    6fa8:	4688      	mov	r8, r1
    6faa:	f100 0448 	add.w	r4, r0, #72	; 0x48
    6fae:	2600      	movs	r6, #0
    6fb0:	b18c      	cbz	r4, 6fd6 <_fwalk+0x32>
    6fb2:	68a5      	ldr	r5, [r4, #8]
    6fb4:	6867      	ldr	r7, [r4, #4]
    6fb6:	3f01      	subs	r7, #1
    6fb8:	d40b      	bmi.n	6fd2 <_fwalk+0x2e>
    6fba:	89ab      	ldrh	r3, [r5, #12]
    6fbc:	2b01      	cmp	r3, #1
    6fbe:	d906      	bls.n	6fce <_fwalk+0x2a>
    6fc0:	f9b5 300e 	ldrsh.w	r3, [r5, #14]
    6fc4:	3301      	adds	r3, #1
    6fc6:	d002      	beq.n	6fce <_fwalk+0x2a>
    6fc8:	4628      	mov	r0, r5
    6fca:	47c0      	blx	r8
    6fcc:	4306      	orrs	r6, r0
    6fce:	3568      	adds	r5, #104	; 0x68
    6fd0:	e7f1      	b.n	6fb6 <_fwalk+0x12>
    6fd2:	6824      	ldr	r4, [r4, #0]
    6fd4:	e7ec      	b.n	6fb0 <_fwalk+0xc>
    6fd6:	4630      	mov	r0, r6
    6fd8:	e8bd 81f0 	ldmia.w	sp!, {r4, r5, r6, r7, r8, pc}

00006fdc <_fwalk_reent>:
    6fdc:	e92d 43f8 	stmdb	sp!, {r3, r4, r5, r6, r7, r8, r9, lr}
    6fe0:	4680      	mov	r8, r0
    6fe2:	4689      	mov	r9, r1
    6fe4:	f100 0448 	add.w	r4, r0, #72	; 0x48
    6fe8:	2600      	movs	r6, #0
    6fea:	b194      	cbz	r4, 7012 <_fwalk_reent+0x36>
    6fec:	68a5      	ldr	r5, [r4, #8]
    6fee:	6867      	ldr	r7, [r4, #4]
    6ff0:	3f01      	subs	r7, #1
    6ff2:	d40c      	bmi.n	700e <_fwalk_reent+0x32>
    6ff4:	89ab      	ldrh	r3, [r5, #12]
    6ff6:	2b01      	cmp	r3, #1
    6ff8:	d907      	bls.n	700a <_fwalk_reent+0x2e>
    6ffa:	f9b5 300e 	ldrsh.w	r3, [r5, #14]
    6ffe:	3301      	adds	r3, #1
    7000:	d003      	beq.n	700a <_fwalk_reent+0x2e>
    7002:	4640      	mov	r0, r8
    7004:	4629      	mov	r1, r5
    7006:	47c8      	blx	r9
    7008:	4306      	orrs	r6, r0
    700a:	3568      	adds	r5, #104	; 0x68
    700c:	e7f0      	b.n	6ff0 <_fwalk_reent+0x14>
    700e:	6824      	ldr	r4, [r4, #0]
    7010:	e7eb      	b.n	6fea <_fwalk_reent+0xe>
    7012:	4630      	mov	r0, r6
    7014:	e8bd 83f8 	ldmia.w	sp!, {r3, r4, r5, r6, r7, r8, r9, pc}

00007018 <__libc_init_array>:
    7018:	4b0e      	ldr	r3, [pc, #56]	; (7054 <__libc_init_array+0x3c>)
    701a:	b570      	push	{r4, r5, r6, lr}
    701c:	461e      	mov	r6, r3
    701e:	4c0e      	ldr	r4, [pc, #56]	; (7058 <__libc_init_array+0x40>)
    7020:	2500      	movs	r5, #0
    7022:	1ae4      	subs	r4, r4, r3
    7024:	10a4      	asrs	r4, r4, #2
    7026:	42a5      	cmp	r5, r4
    7028:	d004      	beq.n	7034 <__libc_init_array+0x1c>
    702a:	f856 3025 	ldr.w	r3, [r6, r5, lsl #2]
    702e:	4798      	blx	r3
    7030:	3501      	adds	r5, #1
    7032:	e7f8      	b.n	7026 <__libc_init_array+0xe>
    7034:	f001 fdd0 	bl	8bd8 <_init>
    7038:	4b08      	ldr	r3, [pc, #32]	; (705c <__libc_init_array+0x44>)
    703a:	4c09      	ldr	r4, [pc, #36]	; (7060 <__libc_init_array+0x48>)
    703c:	461e      	mov	r6, r3
    703e:	1ae4      	subs	r4, r4, r3
    7040:	10a4      	asrs	r4, r4, #2
    7042:	2500      	movs	r5, #0
    7044:	42a5      	cmp	r5, r4
    7046:	d004      	beq.n	7052 <__libc_init_array+0x3a>
    7048:	f856 3025 	ldr.w	r3, [r6, r5, lsl #2]
    704c:	4798      	blx	r3
    704e:	3501      	adds	r5, #1
    7050:	e7f8      	b.n	7044 <__libc_init_array+0x2c>
    7052:	bd70      	pop	{r4, r5, r6, pc}
    7054:	100001a0 	.word	0x100001a0
    7058:	100001a0 	.word	0x100001a0
    705c:	100001a0 	.word	0x100001a0
    7060:	100001a8 	.word	0x100001a8

00007064 <__smakebuf_r>:
    7064:	b5f0      	push	{r4, r5, r6, r7, lr}
    7066:	898b      	ldrh	r3, [r1, #12]
    7068:	b091      	sub	sp, #68	; 0x44
    706a:	079d      	lsls	r5, r3, #30
    706c:	4606      	mov	r6, r0
    706e:	460c      	mov	r4, r1
    7070:	d425      	bmi.n	70be <__smakebuf_r+0x5a>
    7072:	f9b1 100e 	ldrsh.w	r1, [r1, #14]
    7076:	2900      	cmp	r1, #0
    7078:	da08      	bge.n	708c <__smakebuf_r+0x28>
    707a:	89a3      	ldrh	r3, [r4, #12]
    707c:	2500      	movs	r5, #0
    707e:	f013 0f80 	tst.w	r3, #128	; 0x80
    7082:	bf14      	ite	ne
    7084:	2740      	movne	r7, #64	; 0x40
    7086:	f44f 6780 	moveq.w	r7, #1024	; 0x400
    708a:	e00d      	b.n	70a8 <__smakebuf_r+0x44>
    708c:	aa01      	add	r2, sp, #4
    708e:	f001 fa39 	bl	8504 <_fstat_r>
    7092:	2800      	cmp	r0, #0
    7094:	dbf1      	blt.n	707a <__smakebuf_r+0x16>
    7096:	9d02      	ldr	r5, [sp, #8]
    7098:	f44f 6780 	mov.w	r7, #1024	; 0x400
    709c:	f405 4570 	and.w	r5, r5, #61440	; 0xf000
    70a0:	f5a5 5100 	sub.w	r1, r5, #8192	; 0x2000
    70a4:	424d      	negs	r5, r1
    70a6:	414d      	adcs	r5, r1
    70a8:	4630      	mov	r0, r6
    70aa:	4639      	mov	r1, r7
    70ac:	f000 f8b6 	bl	721c <_malloc_r>
    70b0:	b960      	cbnz	r0, 70cc <__smakebuf_r+0x68>
    70b2:	89a3      	ldrh	r3, [r4, #12]
    70b4:	059a      	lsls	r2, r3, #22
    70b6:	d41d      	bmi.n	70f4 <__smakebuf_r+0x90>
    70b8:	f043 0302 	orr.w	r3, r3, #2
    70bc:	81a3      	strh	r3, [r4, #12]
    70be:	f104 0347 	add.w	r3, r4, #71	; 0x47
    70c2:	6023      	str	r3, [r4, #0]
    70c4:	6123      	str	r3, [r4, #16]
    70c6:	2301      	movs	r3, #1
    70c8:	6163      	str	r3, [r4, #20]
    70ca:	e013      	b.n	70f4 <__smakebuf_r+0x90>
    70cc:	4b0a      	ldr	r3, [pc, #40]	; (70f8 <__smakebuf_r+0x94>)
    70ce:	62b3      	str	r3, [r6, #40]	; 0x28
    70d0:	89a3      	ldrh	r3, [r4, #12]
    70d2:	6020      	str	r0, [r4, #0]
    70d4:	f043 0380 	orr.w	r3, r3, #128	; 0x80
    70d8:	81a3      	strh	r3, [r4, #12]
    70da:	6120      	str	r0, [r4, #16]
    70dc:	6167      	str	r7, [r4, #20]
    70de:	b14d      	cbz	r5, 70f4 <__smakebuf_r+0x90>
    70e0:	4630      	mov	r0, r6
    70e2:	f9b4 100e 	ldrsh.w	r1, [r4, #14]
    70e6:	f001 fa1f 	bl	8528 <_isatty_r>
    70ea:	b118      	cbz	r0, 70f4 <__smakebuf_r+0x90>
    70ec:	89a3      	ldrh	r3, [r4, #12]
    70ee:	f043 0301 	orr.w	r3, r3, #1
    70f2:	81a3      	strh	r3, [r4, #12]
    70f4:	b011      	add	sp, #68	; 0x44
    70f6:	bdf0      	pop	{r4, r5, r6, r7, pc}
    70f8:	00006c41 	.word	0x00006c41

000070fc <malloc>:
    70fc:	4b02      	ldr	r3, [pc, #8]	; (7108 <malloc+0xc>)
    70fe:	4601      	mov	r1, r0
    7100:	6818      	ldr	r0, [r3, #0]
    7102:	f000 b88b 	b.w	721c <_malloc_r>
    7106:	bf00      	nop
    7108:	10000198 	.word	0x10000198

0000710c <free>:
    710c:	4b02      	ldr	r3, [pc, #8]	; (7118 <free+0xc>)
    710e:	4601      	mov	r1, r0
    7110:	6818      	ldr	r0, [r3, #0]
    7112:	f000 b83f 	b.w	7194 <_free_r>
    7116:	bf00      	nop
    7118:	10000198 	.word	0x10000198

0000711c <memchr>:
    711c:	b510      	push	{r4, lr}
    711e:	b2c9      	uxtb	r1, r1
    7120:	4402      	add	r2, r0
    7122:	4290      	cmp	r0, r2
    7124:	4603      	mov	r3, r0
    7126:	d005      	beq.n	7134 <memchr+0x18>
    7128:	781c      	ldrb	r4, [r3, #0]
    712a:	3001      	adds	r0, #1
    712c:	428c      	cmp	r4, r1
    712e:	d1f8      	bne.n	7122 <memchr+0x6>
    7130:	4618      	mov	r0, r3
    7132:	bd10      	pop	{r4, pc}
    7134:	2000      	movs	r0, #0
    7136:	bd10      	pop	{r4, pc}

00007138 <memcpy>:
    7138:	b510      	push	{r4, lr}
    713a:	1e43      	subs	r3, r0, #1
    713c:	440a      	add	r2, r1
    713e:	4291      	cmp	r1, r2
    7140:	d004      	beq.n	714c <memcpy+0x14>
    7142:	f811 4b01 	ldrb.w	r4, [r1], #1
    7146:	f803 4f01 	strb.w	r4, [r3, #1]!
    714a:	e7f8      	b.n	713e <memcpy+0x6>
    714c:	bd10      	pop	{r4, pc}

0000714e <memmove>:
    714e:	4281      	cmp	r1, r0
    7150:	b510      	push	{r4, lr}
    7152:	eb01 0302 	add.w	r3, r1, r2
    7156:	d301      	bcc.n	715c <memmove+0xe>
    7158:	1e42      	subs	r2, r0, #1
    715a:	e00b      	b.n	7174 <memmove+0x26>
    715c:	4298      	cmp	r0, r3
    715e:	d2fb      	bcs.n	7158 <memmove+0xa>
    7160:	1881      	adds	r1, r0, r2
    7162:	1ad2      	subs	r2, r2, r3
    7164:	42d3      	cmn	r3, r2
    7166:	d004      	beq.n	7172 <memmove+0x24>
    7168:	f813 4d01 	ldrb.w	r4, [r3, #-1]!
    716c:	f801 4d01 	strb.w	r4, [r1, #-1]!
    7170:	e7f8      	b.n	7164 <memmove+0x16>
    7172:	bd10      	pop	{r4, pc}
    7174:	4299      	cmp	r1, r3
    7176:	d004      	beq.n	7182 <memmove+0x34>
    7178:	f811 4b01 	ldrb.w	r4, [r1], #1
    717c:	f802 4f01 	strb.w	r4, [r2, #1]!
    7180:	e7f8      	b.n	7174 <memmove+0x26>
    7182:	bd10      	pop	{r4, pc}

00007184 <memset>:
    7184:	4603      	mov	r3, r0
    7186:	4402      	add	r2, r0
    7188:	4293      	cmp	r3, r2
    718a:	d002      	beq.n	7192 <memset+0xe>
    718c:	f803 1b01 	strb.w	r1, [r3], #1
    7190:	e7fa      	b.n	7188 <memset+0x4>
    7192:	4770      	bx	lr

00007194 <_free_r>:
    7194:	b530      	push	{r4, r5, lr}
    7196:	2900      	cmp	r1, #0
    7198:	d03c      	beq.n	7214 <_free_r+0x80>
    719a:	f851 2c04 	ldr.w	r2, [r1, #-4]
    719e:	1f0b      	subs	r3, r1, #4
    71a0:	491d      	ldr	r1, [pc, #116]	; (7218 <_free_r+0x84>)
    71a2:	2a00      	cmp	r2, #0
    71a4:	bfb8      	it	lt
    71a6:	189b      	addlt	r3, r3, r2
    71a8:	680a      	ldr	r2, [r1, #0]
    71aa:	460c      	mov	r4, r1
    71ac:	b912      	cbnz	r2, 71b4 <_free_r+0x20>
    71ae:	605a      	str	r2, [r3, #4]
    71b0:	600b      	str	r3, [r1, #0]
    71b2:	bd30      	pop	{r4, r5, pc}
    71b4:	4293      	cmp	r3, r2
    71b6:	d20d      	bcs.n	71d4 <_free_r+0x40>
    71b8:	6819      	ldr	r1, [r3, #0]
    71ba:	1858      	adds	r0, r3, r1
    71bc:	4290      	cmp	r0, r2
    71be:	bf01      	itttt	eq
    71c0:	585a      	ldreq	r2, [r3, r1]
    71c2:	1852      	addeq	r2, r2, r1
    71c4:	601a      	streq	r2, [r3, #0]
    71c6:	6842      	ldreq	r2, [r0, #4]
    71c8:	6023      	str	r3, [r4, #0]
    71ca:	605a      	str	r2, [r3, #4]
    71cc:	bd30      	pop	{r4, r5, pc}
    71ce:	4299      	cmp	r1, r3
    71d0:	d803      	bhi.n	71da <_free_r+0x46>
    71d2:	460a      	mov	r2, r1
    71d4:	6851      	ldr	r1, [r2, #4]
    71d6:	2900      	cmp	r1, #0
    71d8:	d1f9      	bne.n	71ce <_free_r+0x3a>
    71da:	6814      	ldr	r4, [r2, #0]
    71dc:	1915      	adds	r5, r2, r4
    71de:	429d      	cmp	r5, r3
    71e0:	d10a      	bne.n	71f8 <_free_r+0x64>
    71e2:	681b      	ldr	r3, [r3, #0]
    71e4:	4423      	add	r3, r4
    71e6:	18d0      	adds	r0, r2, r3
    71e8:	4288      	cmp	r0, r1
    71ea:	6013      	str	r3, [r2, #0]
    71ec:	d112      	bne.n	7214 <_free_r+0x80>
    71ee:	6808      	ldr	r0, [r1, #0]
    71f0:	4403      	add	r3, r0
    71f2:	6013      	str	r3, [r2, #0]
    71f4:	684b      	ldr	r3, [r1, #4]
    71f6:	e00c      	b.n	7212 <_free_r+0x7e>
    71f8:	d902      	bls.n	7200 <_free_r+0x6c>
    71fa:	230c      	movs	r3, #12
    71fc:	6003      	str	r3, [r0, #0]
    71fe:	bd30      	pop	{r4, r5, pc}
    7200:	681c      	ldr	r4, [r3, #0]
    7202:	1918      	adds	r0, r3, r4
    7204:	4288      	cmp	r0, r1
    7206:	bf01      	itttt	eq
    7208:	6808      	ldreq	r0, [r1, #0]
    720a:	6849      	ldreq	r1, [r1, #4]
    720c:	1900      	addeq	r0, r0, r4
    720e:	6018      	streq	r0, [r3, #0]
    7210:	6059      	str	r1, [r3, #4]
    7212:	6053      	str	r3, [r2, #4]
    7214:	bd30      	pop	{r4, r5, pc}
    7216:	bf00      	nop
    7218:	10000b40 	.word	0x10000b40

0000721c <_malloc_r>:
    721c:	b570      	push	{r4, r5, r6, lr}
    721e:	1ccc      	adds	r4, r1, #3
    7220:	f024 0403 	bic.w	r4, r4, #3
    7224:	3408      	adds	r4, #8
    7226:	2c0c      	cmp	r4, #12
    7228:	bf38      	it	cc
    722a:	240c      	movcc	r4, #12
    722c:	2c00      	cmp	r4, #0
    722e:	4606      	mov	r6, r0
    7230:	da03      	bge.n	723a <_malloc_r+0x1e>
    7232:	230c      	movs	r3, #12
    7234:	6033      	str	r3, [r6, #0]
    7236:	2000      	movs	r0, #0
    7238:	bd70      	pop	{r4, r5, r6, pc}
    723a:	428c      	cmp	r4, r1
    723c:	d3f9      	bcc.n	7232 <_malloc_r+0x16>
    723e:	4a20      	ldr	r2, [pc, #128]	; (72c0 <_malloc_r+0xa4>)
    7240:	6813      	ldr	r3, [r2, #0]
    7242:	4610      	mov	r0, r2
    7244:	4619      	mov	r1, r3
    7246:	b1a1      	cbz	r1, 7272 <_malloc_r+0x56>
    7248:	680a      	ldr	r2, [r1, #0]
    724a:	1b12      	subs	r2, r2, r4
    724c:	d40e      	bmi.n	726c <_malloc_r+0x50>
    724e:	2a0b      	cmp	r2, #11
    7250:	d903      	bls.n	725a <_malloc_r+0x3e>
    7252:	600a      	str	r2, [r1, #0]
    7254:	188b      	adds	r3, r1, r2
    7256:	508c      	str	r4, [r1, r2]
    7258:	e01f      	b.n	729a <_malloc_r+0x7e>
    725a:	428b      	cmp	r3, r1
    725c:	bf0b      	itete	eq
    725e:	685a      	ldreq	r2, [r3, #4]
    7260:	684a      	ldrne	r2, [r1, #4]
    7262:	6002      	streq	r2, [r0, #0]
    7264:	605a      	strne	r2, [r3, #4]
    7266:	bf18      	it	ne
    7268:	460b      	movne	r3, r1
    726a:	e016      	b.n	729a <_malloc_r+0x7e>
    726c:	460b      	mov	r3, r1
    726e:	6849      	ldr	r1, [r1, #4]
    7270:	e7e9      	b.n	7246 <_malloc_r+0x2a>
    7272:	4d14      	ldr	r5, [pc, #80]	; (72c4 <_malloc_r+0xa8>)
    7274:	682b      	ldr	r3, [r5, #0]
    7276:	b91b      	cbnz	r3, 7280 <_malloc_r+0x64>
    7278:	4630      	mov	r0, r6
    727a:	f000 fd5d 	bl	7d38 <_sbrk_r>
    727e:	6028      	str	r0, [r5, #0]
    7280:	4630      	mov	r0, r6
    7282:	4621      	mov	r1, r4
    7284:	f000 fd58 	bl	7d38 <_sbrk_r>
    7288:	1c42      	adds	r2, r0, #1
    728a:	4603      	mov	r3, r0
    728c:	d0d1      	beq.n	7232 <_malloc_r+0x16>
    728e:	1cc5      	adds	r5, r0, #3
    7290:	f025 0503 	bic.w	r5, r5, #3
    7294:	4285      	cmp	r5, r0
    7296:	d10a      	bne.n	72ae <_malloc_r+0x92>
    7298:	601c      	str	r4, [r3, #0]
    729a:	f103 000b 	add.w	r0, r3, #11
    729e:	1d1a      	adds	r2, r3, #4
    72a0:	f020 0007 	bic.w	r0, r0, #7
    72a4:	1a82      	subs	r2, r0, r2
    72a6:	d00a      	beq.n	72be <_malloc_r+0xa2>
    72a8:	4251      	negs	r1, r2
    72aa:	5099      	str	r1, [r3, r2]
    72ac:	bd70      	pop	{r4, r5, r6, pc}
    72ae:	4630      	mov	r0, r6
    72b0:	1ae9      	subs	r1, r5, r3
    72b2:	f000 fd41 	bl	7d38 <_sbrk_r>
    72b6:	3001      	adds	r0, #1
    72b8:	d0bb      	beq.n	7232 <_malloc_r+0x16>
    72ba:	462b      	mov	r3, r5
    72bc:	e7ec      	b.n	7298 <_malloc_r+0x7c>
    72be:	bd70      	pop	{r4, r5, r6, pc}
    72c0:	10000b40 	.word	0x10000b40
    72c4:	10000b3c 	.word	0x10000b3c

000072c8 <__sfputc_r>:
    72c8:	6893      	ldr	r3, [r2, #8]
    72ca:	b510      	push	{r4, lr}
    72cc:	3b01      	subs	r3, #1
    72ce:	2b00      	cmp	r3, #0
    72d0:	6093      	str	r3, [r2, #8]
    72d2:	da09      	bge.n	72e8 <__sfputc_r+0x20>
    72d4:	6994      	ldr	r4, [r2, #24]
    72d6:	42a3      	cmp	r3, r4
    72d8:	db02      	blt.n	72e0 <__sfputc_r+0x18>
    72da:	b2cb      	uxtb	r3, r1
    72dc:	2b0a      	cmp	r3, #10
    72de:	d103      	bne.n	72e8 <__sfputc_r+0x20>
    72e0:	e8bd 4010 	ldmia.w	sp!, {r4, lr}
    72e4:	f000 bff4 	b.w	82d0 <__swbuf_r>
    72e8:	6813      	ldr	r3, [r2, #0]
    72ea:	1c58      	adds	r0, r3, #1
    72ec:	6010      	str	r0, [r2, #0]
    72ee:	7019      	strb	r1, [r3, #0]
    72f0:	b2c8      	uxtb	r0, r1
    72f2:	bd10      	pop	{r4, pc}

000072f4 <__sfputs_r>:
    72f4:	b5f8      	push	{r3, r4, r5, r6, r7, lr}
    72f6:	4606      	mov	r6, r0
    72f8:	460f      	mov	r7, r1
    72fa:	4614      	mov	r4, r2
    72fc:	18d5      	adds	r5, r2, r3
    72fe:	42ac      	cmp	r4, r5
    7300:	d008      	beq.n	7314 <__sfputs_r+0x20>
    7302:	4630      	mov	r0, r6
    7304:	f814 1b01 	ldrb.w	r1, [r4], #1
    7308:	463a      	mov	r2, r7
    730a:	f7ff ffdd 	bl	72c8 <__sfputc_r>
    730e:	1c43      	adds	r3, r0, #1
    7310:	d1f5      	bne.n	72fe <__sfputs_r+0xa>
    7312:	e000      	b.n	7316 <__sfputs_r+0x22>
    7314:	2000      	movs	r0, #0
    7316:	bdf8      	pop	{r3, r4, r5, r6, r7, pc}

00007318 <_vfiprintf_r>:
    7318:	e92d 43f0 	stmdb	sp!, {r4, r5, r6, r7, r8, r9, lr}
    731c:	b09d      	sub	sp, #116	; 0x74
    731e:	460d      	mov	r5, r1
    7320:	4690      	mov	r8, r2
    7322:	9303      	str	r3, [sp, #12]
    7324:	4606      	mov	r6, r0
    7326:	b118      	cbz	r0, 7330 <_vfiprintf_r+0x18>
    7328:	6983      	ldr	r3, [r0, #24]
    732a:	b90b      	cbnz	r3, 7330 <_vfiprintf_r+0x18>
    732c:	f7ff fcc8 	bl	6cc0 <__sinit>
    7330:	4b75      	ldr	r3, [pc, #468]	; (7508 <_vfiprintf_r+0x1f0>)
    7332:	429d      	cmp	r5, r3
    7334:	d101      	bne.n	733a <_vfiprintf_r+0x22>
    7336:	6875      	ldr	r5, [r6, #4]
    7338:	e008      	b.n	734c <_vfiprintf_r+0x34>
    733a:	4b74      	ldr	r3, [pc, #464]	; (750c <_vfiprintf_r+0x1f4>)
    733c:	429d      	cmp	r5, r3
    733e:	d101      	bne.n	7344 <_vfiprintf_r+0x2c>
    7340:	68b5      	ldr	r5, [r6, #8]
    7342:	e003      	b.n	734c <_vfiprintf_r+0x34>
    7344:	4b72      	ldr	r3, [pc, #456]	; (7510 <_vfiprintf_r+0x1f8>)
    7346:	429d      	cmp	r5, r3
    7348:	bf08      	it	eq
    734a:	68f5      	ldreq	r5, [r6, #12]
    734c:	89ab      	ldrh	r3, [r5, #12]
    734e:	071c      	lsls	r4, r3, #28
    7350:	d50a      	bpl.n	7368 <_vfiprintf_r+0x50>
    7352:	692b      	ldr	r3, [r5, #16]
    7354:	b143      	cbz	r3, 7368 <_vfiprintf_r+0x50>
    7356:	2300      	movs	r3, #0
    7358:	9309      	str	r3, [sp, #36]	; 0x24
    735a:	2320      	movs	r3, #32
    735c:	f88d 3029 	strb.w	r3, [sp, #41]	; 0x29
    7360:	2330      	movs	r3, #48	; 0x30
    7362:	f88d 302a 	strb.w	r3, [sp, #42]	; 0x2a
    7366:	e041      	b.n	73ec <_vfiprintf_r+0xd4>
    7368:	4630      	mov	r0, r6
    736a:	4629      	mov	r1, r5
    736c:	f001 f816 	bl	839c <__swsetup_r>
    7370:	2800      	cmp	r0, #0
    7372:	d0f0      	beq.n	7356 <_vfiprintf_r+0x3e>
    7374:	f04f 30ff 	mov.w	r0, #4294967295
    7378:	e0c2      	b.n	7500 <_vfiprintf_r+0x1e8>
    737a:	9a03      	ldr	r2, [sp, #12]
    737c:	3401      	adds	r4, #1
    737e:	1d11      	adds	r1, r2, #4
    7380:	6812      	ldr	r2, [r2, #0]
    7382:	9103      	str	r1, [sp, #12]
    7384:	2a00      	cmp	r2, #0
    7386:	bfbb      	ittet	lt
    7388:	4252      	neglt	r2, r2
    738a:	f043 0302 	orrlt.w	r3, r3, #2
    738e:	9207      	strge	r2, [sp, #28]
    7390:	9207      	strlt	r2, [sp, #28]
    7392:	bfb8      	it	lt
    7394:	9304      	strlt	r3, [sp, #16]
    7396:	7823      	ldrb	r3, [r4, #0]
    7398:	2b2e      	cmp	r3, #46	; 0x2e
    739a:	d07b      	beq.n	7494 <_vfiprintf_r+0x17c>
    739c:	f8df 8180 	ldr.w	r8, [pc, #384]	; 7520 <_vfiprintf_r+0x208>
    73a0:	7821      	ldrb	r1, [r4, #0]
    73a2:	4640      	mov	r0, r8
    73a4:	2203      	movs	r2, #3
    73a6:	f7ff feb9 	bl	711c <memchr>
    73aa:	b138      	cbz	r0, 73bc <_vfiprintf_r+0xa4>
    73ac:	9a04      	ldr	r2, [sp, #16]
    73ae:	ebc8 0000 	rsb	r0, r8, r0
    73b2:	2340      	movs	r3, #64	; 0x40
    73b4:	4083      	lsls	r3, r0
    73b6:	4313      	orrs	r3, r2
    73b8:	9304      	str	r3, [sp, #16]
    73ba:	3401      	adds	r4, #1
    73bc:	7821      	ldrb	r1, [r4, #0]
    73be:	4855      	ldr	r0, [pc, #340]	; (7514 <_vfiprintf_r+0x1fc>)
    73c0:	2206      	movs	r2, #6
    73c2:	f104 0801 	add.w	r8, r4, #1
    73c6:	f88d 1028 	strb.w	r1, [sp, #40]	; 0x28
    73ca:	f7ff fea7 	bl	711c <memchr>
    73ce:	2800      	cmp	r0, #0
    73d0:	f000 8085 	beq.w	74de <_vfiprintf_r+0x1c6>
    73d4:	4b50      	ldr	r3, [pc, #320]	; (7518 <_vfiprintf_r+0x200>)
    73d6:	2b00      	cmp	r3, #0
    73d8:	d178      	bne.n	74cc <_vfiprintf_r+0x1b4>
    73da:	9b03      	ldr	r3, [sp, #12]
    73dc:	3307      	adds	r3, #7
    73de:	f023 0307 	bic.w	r3, r3, #7
    73e2:	3308      	adds	r3, #8
    73e4:	9303      	str	r3, [sp, #12]
    73e6:	9b09      	ldr	r3, [sp, #36]	; 0x24
    73e8:	443b      	add	r3, r7
    73ea:	9309      	str	r3, [sp, #36]	; 0x24
    73ec:	4643      	mov	r3, r8
    73ee:	461c      	mov	r4, r3
    73f0:	f813 2b01 	ldrb.w	r2, [r3], #1
    73f4:	b91a      	cbnz	r2, 73fe <_vfiprintf_r+0xe6>
    73f6:	ebb4 0908 	subs.w	r9, r4, r8
    73fa:	d00e      	beq.n	741a <_vfiprintf_r+0x102>
    73fc:	e002      	b.n	7404 <_vfiprintf_r+0xec>
    73fe:	2a25      	cmp	r2, #37	; 0x25
    7400:	d1f5      	bne.n	73ee <_vfiprintf_r+0xd6>
    7402:	e7f8      	b.n	73f6 <_vfiprintf_r+0xde>
    7404:	4630      	mov	r0, r6
    7406:	4629      	mov	r1, r5
    7408:	4642      	mov	r2, r8
    740a:	464b      	mov	r3, r9
    740c:	f7ff ff72 	bl	72f4 <__sfputs_r>
    7410:	3001      	adds	r0, #1
    7412:	d070      	beq.n	74f6 <_vfiprintf_r+0x1de>
    7414:	9b09      	ldr	r3, [sp, #36]	; 0x24
    7416:	444b      	add	r3, r9
    7418:	9309      	str	r3, [sp, #36]	; 0x24
    741a:	7823      	ldrb	r3, [r4, #0]
    741c:	2b00      	cmp	r3, #0
    741e:	d06a      	beq.n	74f6 <_vfiprintf_r+0x1de>
    7420:	2300      	movs	r3, #0
    7422:	f04f 32ff 	mov.w	r2, #4294967295
    7426:	9304      	str	r3, [sp, #16]
    7428:	9307      	str	r3, [sp, #28]
    742a:	9205      	str	r2, [sp, #20]
    742c:	9306      	str	r3, [sp, #24]
    742e:	f88d 3053 	strb.w	r3, [sp, #83]	; 0x53
    7432:	931a      	str	r3, [sp, #104]	; 0x68
    7434:	f104 0801 	add.w	r8, r4, #1
    7438:	4644      	mov	r4, r8
    743a:	f8df 90e8 	ldr.w	r9, [pc, #232]	; 7524 <_vfiprintf_r+0x20c>
    743e:	7821      	ldrb	r1, [r4, #0]
    7440:	4648      	mov	r0, r9
    7442:	2205      	movs	r2, #5
    7444:	f7ff fe6a 	bl	711c <memchr>
    7448:	f108 0801 	add.w	r8, r8, #1
    744c:	9b04      	ldr	r3, [sp, #16]
    744e:	b130      	cbz	r0, 745e <_vfiprintf_r+0x146>
    7450:	ebc9 0000 	rsb	r0, r9, r0
    7454:	2201      	movs	r2, #1
    7456:	4082      	lsls	r2, r0
    7458:	4313      	orrs	r3, r2
    745a:	9304      	str	r3, [sp, #16]
    745c:	e7ec      	b.n	7438 <_vfiprintf_r+0x120>
    745e:	06d8      	lsls	r0, r3, #27
    7460:	bf44      	itt	mi
    7462:	2220      	movmi	r2, #32
    7464:	f88d 2053 	strbmi.w	r2, [sp, #83]	; 0x53
    7468:	0719      	lsls	r1, r3, #28
    746a:	bf44      	itt	mi
    746c:	222b      	movmi	r2, #43	; 0x2b
    746e:	f88d 2053 	strbmi.w	r2, [sp, #83]	; 0x53
    7472:	7822      	ldrb	r2, [r4, #0]
    7474:	2a2a      	cmp	r2, #42	; 0x2a
    7476:	d080      	beq.n	737a <_vfiprintf_r+0x62>
    7478:	4623      	mov	r3, r4
    747a:	9907      	ldr	r1, [sp, #28]
    747c:	461c      	mov	r4, r3
    747e:	7822      	ldrb	r2, [r4, #0]
    7480:	3301      	adds	r3, #1
    7482:	3a30      	subs	r2, #48	; 0x30
    7484:	2a09      	cmp	r2, #9
    7486:	d803      	bhi.n	7490 <_vfiprintf_r+0x178>
    7488:	200a      	movs	r0, #10
    748a:	fb00 2101 	mla	r1, r0, r1, r2
    748e:	e7f5      	b.n	747c <_vfiprintf_r+0x164>
    7490:	9107      	str	r1, [sp, #28]
    7492:	e780      	b.n	7396 <_vfiprintf_r+0x7e>
    7494:	7863      	ldrb	r3, [r4, #1]
    7496:	2b2a      	cmp	r3, #42	; 0x2a
    7498:	d10a      	bne.n	74b0 <_vfiprintf_r+0x198>
    749a:	9b03      	ldr	r3, [sp, #12]
    749c:	3402      	adds	r4, #2
    749e:	1d1a      	adds	r2, r3, #4
    74a0:	681b      	ldr	r3, [r3, #0]
    74a2:	9203      	str	r2, [sp, #12]
    74a4:	2b00      	cmp	r3, #0
    74a6:	bfb8      	it	lt
    74a8:	f04f 33ff 	movlt.w	r3, #4294967295
    74ac:	9305      	str	r3, [sp, #20]
    74ae:	e775      	b.n	739c <_vfiprintf_r+0x84>
    74b0:	1c61      	adds	r1, r4, #1
    74b2:	2200      	movs	r2, #0
    74b4:	460c      	mov	r4, r1
    74b6:	7823      	ldrb	r3, [r4, #0]
    74b8:	3101      	adds	r1, #1
    74ba:	3b30      	subs	r3, #48	; 0x30
    74bc:	2b09      	cmp	r3, #9
    74be:	d803      	bhi.n	74c8 <_vfiprintf_r+0x1b0>
    74c0:	200a      	movs	r0, #10
    74c2:	fb00 3202 	mla	r2, r0, r2, r3
    74c6:	e7f5      	b.n	74b4 <_vfiprintf_r+0x19c>
    74c8:	9205      	str	r2, [sp, #20]
    74ca:	e767      	b.n	739c <_vfiprintf_r+0x84>
    74cc:	ab03      	add	r3, sp, #12
    74ce:	9300      	str	r3, [sp, #0]
    74d0:	4630      	mov	r0, r6
    74d2:	a904      	add	r1, sp, #16
    74d4:	462a      	mov	r2, r5
    74d6:	4b11      	ldr	r3, [pc, #68]	; (751c <_vfiprintf_r+0x204>)
    74d8:	f3af 8000 	nop.w
    74dc:	e007      	b.n	74ee <_vfiprintf_r+0x1d6>
    74de:	ab03      	add	r3, sp, #12
    74e0:	9300      	str	r3, [sp, #0]
    74e2:	4630      	mov	r0, r6
    74e4:	a904      	add	r1, sp, #16
    74e6:	462a      	mov	r2, r5
    74e8:	4b0c      	ldr	r3, [pc, #48]	; (751c <_vfiprintf_r+0x204>)
    74ea:	f000 f8a1 	bl	7630 <_printf_i>
    74ee:	1c42      	adds	r2, r0, #1
    74f0:	4607      	mov	r7, r0
    74f2:	f47f af78 	bne.w	73e6 <_vfiprintf_r+0xce>
    74f6:	89ab      	ldrh	r3, [r5, #12]
    74f8:	065b      	lsls	r3, r3, #25
    74fa:	f53f af3b 	bmi.w	7374 <_vfiprintf_r+0x5c>
    74fe:	9809      	ldr	r0, [sp, #36]	; 0x24
    7500:	b01d      	add	sp, #116	; 0x74
    7502:	e8bd 83f0 	ldmia.w	sp!, {r4, r5, r6, r7, r8, r9, pc}
    7506:	bf00      	nop
    7508:	000093d0 	.word	0x000093d0
    750c:	000093f0 	.word	0x000093f0
    7510:	00009410 	.word	0x00009410
    7514:	00009442 	.word	0x00009442
    7518:	00000000 	.word	0x00000000
    751c:	000072f5 	.word	0x000072f5
    7520:	0000943e 	.word	0x0000943e
    7524:	00009438 	.word	0x00009438

00007528 <vfiprintf>:
    7528:	b530      	push	{r4, r5, lr}
    752a:	4605      	mov	r5, r0
    752c:	460c      	mov	r4, r1
    752e:	4613      	mov	r3, r2
    7530:	4a03      	ldr	r2, [pc, #12]	; (7540 <vfiprintf+0x18>)
    7532:	4629      	mov	r1, r5
    7534:	6810      	ldr	r0, [r2, #0]
    7536:	4622      	mov	r2, r4
    7538:	e8bd 4030 	ldmia.w	sp!, {r4, r5, lr}
    753c:	f7ff beec 	b.w	7318 <_vfiprintf_r>
    7540:	10000198 	.word	0x10000198

00007544 <_printf_common>:
    7544:	e92d 43f8 	stmdb	sp!, {r3, r4, r5, r6, r7, r8, r9, lr}
    7548:	4691      	mov	r9, r2
    754a:	461f      	mov	r7, r3
    754c:	688a      	ldr	r2, [r1, #8]
    754e:	690b      	ldr	r3, [r1, #16]
    7550:	4606      	mov	r6, r0
    7552:	4293      	cmp	r3, r2
    7554:	bfb8      	it	lt
    7556:	4613      	movlt	r3, r2
    7558:	f8c9 3000 	str.w	r3, [r9]
    755c:	f891 2043 	ldrb.w	r2, [r1, #67]	; 0x43
    7560:	460c      	mov	r4, r1
    7562:	f8dd 8020 	ldr.w	r8, [sp, #32]
    7566:	b112      	cbz	r2, 756e <_printf_common+0x2a>
    7568:	3301      	adds	r3, #1
    756a:	f8c9 3000 	str.w	r3, [r9]
    756e:	6823      	ldr	r3, [r4, #0]
    7570:	0699      	lsls	r1, r3, #26
    7572:	bf42      	ittt	mi
    7574:	f8d9 3000 	ldrmi.w	r3, [r9]
    7578:	3302      	addmi	r3, #2
    757a:	f8c9 3000 	strmi.w	r3, [r9]
    757e:	6825      	ldr	r5, [r4, #0]
    7580:	f015 0506 	ands.w	r5, r5, #6
    7584:	d01c      	beq.n	75c0 <_printf_common+0x7c>
    7586:	f894 3043 	ldrb.w	r3, [r4, #67]	; 0x43
    758a:	6822      	ldr	r2, [r4, #0]
    758c:	3300      	adds	r3, #0
    758e:	bf18      	it	ne
    7590:	2301      	movne	r3, #1
    7592:	0692      	lsls	r2, r2, #26
    7594:	d51f      	bpl.n	75d6 <_printf_common+0x92>
    7596:	18e1      	adds	r1, r4, r3
    7598:	2030      	movs	r0, #48	; 0x30
    759a:	f881 0043 	strb.w	r0, [r1, #67]	; 0x43
    759e:	1c5a      	adds	r2, r3, #1
    75a0:	f894 1045 	ldrb.w	r1, [r4, #69]	; 0x45
    75a4:	4422      	add	r2, r4
    75a6:	3302      	adds	r3, #2
    75a8:	f882 1043 	strb.w	r1, [r2, #67]	; 0x43
    75ac:	e013      	b.n	75d6 <_printf_common+0x92>
    75ae:	4630      	mov	r0, r6
    75b0:	4639      	mov	r1, r7
    75b2:	f104 0219 	add.w	r2, r4, #25
    75b6:	2301      	movs	r3, #1
    75b8:	47c0      	blx	r8
    75ba:	3001      	adds	r0, #1
    75bc:	d007      	beq.n	75ce <_printf_common+0x8a>
    75be:	3501      	adds	r5, #1
    75c0:	68e3      	ldr	r3, [r4, #12]
    75c2:	f8d9 2000 	ldr.w	r2, [r9]
    75c6:	1a9b      	subs	r3, r3, r2
    75c8:	429d      	cmp	r5, r3
    75ca:	dbf0      	blt.n	75ae <_printf_common+0x6a>
    75cc:	e7db      	b.n	7586 <_printf_common+0x42>
    75ce:	f04f 30ff 	mov.w	r0, #4294967295
    75d2:	e8bd 83f8 	ldmia.w	sp!, {r3, r4, r5, r6, r7, r8, r9, pc}
    75d6:	4630      	mov	r0, r6
    75d8:	4639      	mov	r1, r7
    75da:	f104 0243 	add.w	r2, r4, #67	; 0x43
    75de:	47c0      	blx	r8
    75e0:	3001      	adds	r0, #1
    75e2:	d0f4      	beq.n	75ce <_printf_common+0x8a>
    75e4:	6822      	ldr	r2, [r4, #0]
    75e6:	f8d9 5000 	ldr.w	r5, [r9]
    75ea:	68e3      	ldr	r3, [r4, #12]
    75ec:	f002 0206 	and.w	r2, r2, #6
    75f0:	2a04      	cmp	r2, #4
    75f2:	bf08      	it	eq
    75f4:	1b5d      	subeq	r5, r3, r5
    75f6:	6922      	ldr	r2, [r4, #16]
    75f8:	68a3      	ldr	r3, [r4, #8]
    75fa:	bf0c      	ite	eq
    75fc:	ea25 75e5 	biceq.w	r5, r5, r5, asr #31
    7600:	2500      	movne	r5, #0
    7602:	4293      	cmp	r3, r2
    7604:	bfc4      	itt	gt
    7606:	1a9b      	subgt	r3, r3, r2
    7608:	18ed      	addgt	r5, r5, r3
    760a:	f04f 0900 	mov.w	r9, #0
    760e:	45a9      	cmp	r9, r5
    7610:	da0a      	bge.n	7628 <_printf_common+0xe4>
    7612:	4630      	mov	r0, r6
    7614:	4639      	mov	r1, r7
    7616:	f104 021a 	add.w	r2, r4, #26
    761a:	2301      	movs	r3, #1
    761c:	47c0      	blx	r8
    761e:	3001      	adds	r0, #1
    7620:	d0d5      	beq.n	75ce <_printf_common+0x8a>
    7622:	f109 0901 	add.w	r9, r9, #1
    7626:	e7f2      	b.n	760e <_printf_common+0xca>
    7628:	2000      	movs	r0, #0
    762a:	e8bd 83f8 	ldmia.w	sp!, {r3, r4, r5, r6, r7, r8, r9, pc}
	...

00007630 <_printf_i>:
    7630:	e92d 41ff 	stmdb	sp!, {r0, r1, r2, r3, r4, r5, r6, r7, r8, lr}
    7634:	460c      	mov	r4, r1
    7636:	4617      	mov	r7, r2
    7638:	7e22      	ldrb	r2, [r4, #24]
    763a:	4698      	mov	r8, r3
    763c:	2a6e      	cmp	r2, #110	; 0x6e
    763e:	4606      	mov	r6, r0
    7640:	9b0a      	ldr	r3, [sp, #40]	; 0x28
    7642:	f101 0143 	add.w	r1, r1, #67	; 0x43
    7646:	f000 80b0 	beq.w	77aa <_printf_i+0x17a>
    764a:	d812      	bhi.n	7672 <_printf_i+0x42>
    764c:	2a63      	cmp	r2, #99	; 0x63
    764e:	d023      	beq.n	7698 <_printf_i+0x68>
    7650:	d80a      	bhi.n	7668 <_printf_i+0x38>
    7652:	2a00      	cmp	r2, #0
    7654:	f000 80bd 	beq.w	77d2 <_printf_i+0x1a2>
    7658:	2a58      	cmp	r2, #88	; 0x58
    765a:	f040 80cc 	bne.w	77f6 <_printf_i+0x1c6>
    765e:	f884 2045 	strb.w	r2, [r4, #69]	; 0x45
    7662:	f8df e204 	ldr.w	lr, [pc, #516]	; 7868 <_printf_i+0x238>
    7666:	e057      	b.n	7718 <_printf_i+0xe8>
    7668:	2a64      	cmp	r2, #100	; 0x64
    766a:	d01e      	beq.n	76aa <_printf_i+0x7a>
    766c:	2a69      	cmp	r2, #105	; 0x69
    766e:	d01c      	beq.n	76aa <_printf_i+0x7a>
    7670:	e0c1      	b.n	77f6 <_printf_i+0x1c6>
    7672:	2a73      	cmp	r2, #115	; 0x73
    7674:	f000 80b1 	beq.w	77da <_printf_i+0x1aa>
    7678:	d809      	bhi.n	768e <_printf_i+0x5e>
    767a:	2a6f      	cmp	r2, #111	; 0x6f
    767c:	d02e      	beq.n	76dc <_printf_i+0xac>
    767e:	2a70      	cmp	r2, #112	; 0x70
    7680:	f040 80b9 	bne.w	77f6 <_printf_i+0x1c6>
    7684:	6822      	ldr	r2, [r4, #0]
    7686:	f042 0220 	orr.w	r2, r2, #32
    768a:	6022      	str	r2, [r4, #0]
    768c:	e03f      	b.n	770e <_printf_i+0xde>
    768e:	2a75      	cmp	r2, #117	; 0x75
    7690:	d024      	beq.n	76dc <_printf_i+0xac>
    7692:	2a78      	cmp	r2, #120	; 0x78
    7694:	d03b      	beq.n	770e <_printf_i+0xde>
    7696:	e0ae      	b.n	77f6 <_printf_i+0x1c6>
    7698:	681a      	ldr	r2, [r3, #0]
    769a:	f104 0542 	add.w	r5, r4, #66	; 0x42
    769e:	1d11      	adds	r1, r2, #4
    76a0:	6019      	str	r1, [r3, #0]
    76a2:	6813      	ldr	r3, [r2, #0]
    76a4:	f884 3042 	strb.w	r3, [r4, #66]	; 0x42
    76a8:	e0a9      	b.n	77fe <_printf_i+0x1ce>
    76aa:	6820      	ldr	r0, [r4, #0]
    76ac:	681a      	ldr	r2, [r3, #0]
    76ae:	f010 0f80 	tst.w	r0, #128	; 0x80
    76b2:	d002      	beq.n	76ba <_printf_i+0x8a>
    76b4:	1d10      	adds	r0, r2, #4
    76b6:	6018      	str	r0, [r3, #0]
    76b8:	e008      	b.n	76cc <_printf_i+0x9c>
    76ba:	f010 0f40 	tst.w	r0, #64	; 0x40
    76be:	f102 0004 	add.w	r0, r2, #4
    76c2:	6018      	str	r0, [r3, #0]
    76c4:	d002      	beq.n	76cc <_printf_i+0x9c>
    76c6:	f9b2 3000 	ldrsh.w	r3, [r2]
    76ca:	e000      	b.n	76ce <_printf_i+0x9e>
    76cc:	6813      	ldr	r3, [r2, #0]
    76ce:	2b00      	cmp	r3, #0
    76d0:	da3e      	bge.n	7750 <_printf_i+0x120>
    76d2:	222d      	movs	r2, #45	; 0x2d
    76d4:	425b      	negs	r3, r3
    76d6:	f884 2043 	strb.w	r2, [r4, #67]	; 0x43
    76da:	e039      	b.n	7750 <_printf_i+0x120>
    76dc:	6820      	ldr	r0, [r4, #0]
    76de:	681a      	ldr	r2, [r3, #0]
    76e0:	f010 0f80 	tst.w	r0, #128	; 0x80
    76e4:	d002      	beq.n	76ec <_printf_i+0xbc>
    76e6:	1d10      	adds	r0, r2, #4
    76e8:	6018      	str	r0, [r3, #0]
    76ea:	e007      	b.n	76fc <_printf_i+0xcc>
    76ec:	f010 0f40 	tst.w	r0, #64	; 0x40
    76f0:	f102 0004 	add.w	r0, r2, #4
    76f4:	6018      	str	r0, [r3, #0]
    76f6:	d001      	beq.n	76fc <_printf_i+0xcc>
    76f8:	8813      	ldrh	r3, [r2, #0]
    76fa:	e000      	b.n	76fe <_printf_i+0xce>
    76fc:	6813      	ldr	r3, [r2, #0]
    76fe:	7e22      	ldrb	r2, [r4, #24]
    7700:	f8df e164 	ldr.w	lr, [pc, #356]	; 7868 <_printf_i+0x238>
    7704:	2a6f      	cmp	r2, #111	; 0x6f
    7706:	bf0c      	ite	eq
    7708:	2208      	moveq	r2, #8
    770a:	220a      	movne	r2, #10
    770c:	e01c      	b.n	7748 <_printf_i+0x118>
    770e:	2278      	movs	r2, #120	; 0x78
    7710:	f8df e158 	ldr.w	lr, [pc, #344]	; 786c <_printf_i+0x23c>
    7714:	f884 2045 	strb.w	r2, [r4, #69]	; 0x45
    7718:	6822      	ldr	r2, [r4, #0]
    771a:	6818      	ldr	r0, [r3, #0]
    771c:	f012 0f80 	tst.w	r2, #128	; 0x80
    7720:	f100 0504 	add.w	r5, r0, #4
    7724:	601d      	str	r5, [r3, #0]
    7726:	d103      	bne.n	7730 <_printf_i+0x100>
    7728:	0655      	lsls	r5, r2, #25
    772a:	d501      	bpl.n	7730 <_printf_i+0x100>
    772c:	8803      	ldrh	r3, [r0, #0]
    772e:	e000      	b.n	7732 <_printf_i+0x102>
    7730:	6803      	ldr	r3, [r0, #0]
    7732:	07d0      	lsls	r0, r2, #31
    7734:	bf44      	itt	mi
    7736:	f042 0220 	orrmi.w	r2, r2, #32
    773a:	6022      	strmi	r2, [r4, #0]
    773c:	b91b      	cbnz	r3, 7746 <_printf_i+0x116>
    773e:	6822      	ldr	r2, [r4, #0]
    7740:	f022 0220 	bic.w	r2, r2, #32
    7744:	6022      	str	r2, [r4, #0]
    7746:	2210      	movs	r2, #16
    7748:	2000      	movs	r0, #0
    774a:	f884 0043 	strb.w	r0, [r4, #67]	; 0x43
    774e:	e002      	b.n	7756 <_printf_i+0x126>
    7750:	f8df e114 	ldr.w	lr, [pc, #276]	; 7868 <_printf_i+0x238>
    7754:	220a      	movs	r2, #10
    7756:	6865      	ldr	r5, [r4, #4]
    7758:	2d00      	cmp	r5, #0
    775a:	bfa8      	it	ge
    775c:	6820      	ldrge	r0, [r4, #0]
    775e:	60a5      	str	r5, [r4, #8]
    7760:	bfa4      	itt	ge
    7762:	f020 0004 	bicge.w	r0, r0, #4
    7766:	6020      	strge	r0, [r4, #0]
    7768:	b903      	cbnz	r3, 776c <_printf_i+0x13c>
    776a:	b165      	cbz	r5, 7786 <_printf_i+0x156>
    776c:	460d      	mov	r5, r1
    776e:	fbb3 f0f2 	udiv	r0, r3, r2
    7772:	fb02 3310 	mls	r3, r2, r0, r3
    7776:	f81e 3003 	ldrb.w	r3, [lr, r3]
    777a:	f805 3d01 	strb.w	r3, [r5, #-1]!
    777e:	4603      	mov	r3, r0
    7780:	2800      	cmp	r0, #0
    7782:	d1f4      	bne.n	776e <_printf_i+0x13e>
    7784:	e000      	b.n	7788 <_printf_i+0x158>
    7786:	460d      	mov	r5, r1
    7788:	2a08      	cmp	r2, #8
    778a:	d10b      	bne.n	77a4 <_printf_i+0x174>
    778c:	6823      	ldr	r3, [r4, #0]
    778e:	07da      	lsls	r2, r3, #31
    7790:	d508      	bpl.n	77a4 <_printf_i+0x174>
    7792:	6923      	ldr	r3, [r4, #16]
    7794:	6862      	ldr	r2, [r4, #4]
    7796:	429a      	cmp	r2, r3
    7798:	bfde      	ittt	le
    779a:	2330      	movle	r3, #48	; 0x30
    779c:	f805 3c01 	strble.w	r3, [r5, #-1]
    77a0:	f105 35ff 	addle.w	r5, r5, #4294967295
    77a4:	1b49      	subs	r1, r1, r5
    77a6:	6121      	str	r1, [r4, #16]
    77a8:	e02e      	b.n	7808 <_printf_i+0x1d8>
    77aa:	6825      	ldr	r5, [r4, #0]
    77ac:	681a      	ldr	r2, [r3, #0]
    77ae:	f015 0f80 	tst.w	r5, #128	; 0x80
    77b2:	6960      	ldr	r0, [r4, #20]
    77b4:	d003      	beq.n	77be <_printf_i+0x18e>
    77b6:	1d15      	adds	r5, r2, #4
    77b8:	601d      	str	r5, [r3, #0]
    77ba:	6813      	ldr	r3, [r2, #0]
    77bc:	e008      	b.n	77d0 <_printf_i+0x1a0>
    77be:	f015 0f40 	tst.w	r5, #64	; 0x40
    77c2:	f102 0504 	add.w	r5, r2, #4
    77c6:	601d      	str	r5, [r3, #0]
    77c8:	6813      	ldr	r3, [r2, #0]
    77ca:	d001      	beq.n	77d0 <_printf_i+0x1a0>
    77cc:	8018      	strh	r0, [r3, #0]
    77ce:	e000      	b.n	77d2 <_printf_i+0x1a2>
    77d0:	6018      	str	r0, [r3, #0]
    77d2:	2300      	movs	r3, #0
    77d4:	6123      	str	r3, [r4, #16]
    77d6:	460d      	mov	r5, r1
    77d8:	e016      	b.n	7808 <_printf_i+0x1d8>
    77da:	681a      	ldr	r2, [r3, #0]
    77dc:	1d11      	adds	r1, r2, #4
    77de:	6019      	str	r1, [r3, #0]
    77e0:	6815      	ldr	r5, [r2, #0]
    77e2:	2100      	movs	r1, #0
    77e4:	4628      	mov	r0, r5
    77e6:	6862      	ldr	r2, [r4, #4]
    77e8:	f7ff fc98 	bl	711c <memchr>
    77ec:	b108      	cbz	r0, 77f2 <_printf_i+0x1c2>
    77ee:	1b40      	subs	r0, r0, r5
    77f0:	6060      	str	r0, [r4, #4]
    77f2:	6863      	ldr	r3, [r4, #4]
    77f4:	e004      	b.n	7800 <_printf_i+0x1d0>
    77f6:	f104 0542 	add.w	r5, r4, #66	; 0x42
    77fa:	f884 2042 	strb.w	r2, [r4, #66]	; 0x42
    77fe:	2301      	movs	r3, #1
    7800:	6123      	str	r3, [r4, #16]
    7802:	2300      	movs	r3, #0
    7804:	f884 3043 	strb.w	r3, [r4, #67]	; 0x43
    7808:	f8cd 8000 	str.w	r8, [sp]
    780c:	4630      	mov	r0, r6
    780e:	4621      	mov	r1, r4
    7810:	aa03      	add	r2, sp, #12
    7812:	463b      	mov	r3, r7
    7814:	f7ff fe96 	bl	7544 <_printf_common>
    7818:	3001      	adds	r0, #1
    781a:	d102      	bne.n	7822 <_printf_i+0x1f2>
    781c:	f04f 30ff 	mov.w	r0, #4294967295
    7820:	e01f      	b.n	7862 <_printf_i+0x232>
    7822:	4630      	mov	r0, r6
    7824:	4639      	mov	r1, r7
    7826:	462a      	mov	r2, r5
    7828:	6923      	ldr	r3, [r4, #16]
    782a:	47c0      	blx	r8
    782c:	3001      	adds	r0, #1
    782e:	d0f5      	beq.n	781c <_printf_i+0x1ec>
    7830:	6823      	ldr	r3, [r4, #0]
    7832:	079b      	lsls	r3, r3, #30
    7834:	d405      	bmi.n	7842 <_printf_i+0x212>
    7836:	68e0      	ldr	r0, [r4, #12]
    7838:	9b03      	ldr	r3, [sp, #12]
    783a:	4298      	cmp	r0, r3
    783c:	bfb8      	it	lt
    783e:	4618      	movlt	r0, r3
    7840:	e00f      	b.n	7862 <_printf_i+0x232>
    7842:	2500      	movs	r5, #0
    7844:	68e3      	ldr	r3, [r4, #12]
    7846:	9a03      	ldr	r2, [sp, #12]
    7848:	1a9b      	subs	r3, r3, r2
    784a:	429d      	cmp	r5, r3
    784c:	daf3      	bge.n	7836 <_printf_i+0x206>
    784e:	4630      	mov	r0, r6
    7850:	4639      	mov	r1, r7
    7852:	f104 0219 	add.w	r2, r4, #25
    7856:	2301      	movs	r3, #1
    7858:	47c0      	blx	r8
    785a:	3001      	adds	r0, #1
    785c:	d0de      	beq.n	781c <_printf_i+0x1ec>
    785e:	3501      	adds	r5, #1
    7860:	e7f0      	b.n	7844 <_printf_i+0x214>
    7862:	b004      	add	sp, #16
    7864:	e8bd 81f0 	ldmia.w	sp!, {r4, r5, r6, r7, r8, pc}
    7868:	00009449 	.word	0x00009449
    786c:	0000945a 	.word	0x0000945a

00007870 <_scanf_chars>:
    7870:	e92d 41f0 	stmdb	sp!, {r4, r5, r6, r7, r8, lr}
    7874:	4615      	mov	r5, r2
    7876:	688a      	ldr	r2, [r1, #8]
    7878:	4680      	mov	r8, r0
    787a:	460c      	mov	r4, r1
    787c:	b932      	cbnz	r2, 788c <_scanf_chars+0x1c>
    787e:	698a      	ldr	r2, [r1, #24]
    7880:	2a00      	cmp	r2, #0
    7882:	bf0c      	ite	eq
    7884:	2201      	moveq	r2, #1
    7886:	f04f 32ff 	movne.w	r2, #4294967295
    788a:	608a      	str	r2, [r1, #8]
    788c:	6822      	ldr	r2, [r4, #0]
    788e:	2600      	movs	r6, #0
    7890:	06d1      	lsls	r1, r2, #27
    7892:	bf5f      	itttt	pl
    7894:	681a      	ldrpl	r2, [r3, #0]
    7896:	1d11      	addpl	r1, r2, #4
    7898:	6019      	strpl	r1, [r3, #0]
    789a:	6817      	ldrpl	r7, [r2, #0]
    789c:	69a0      	ldr	r0, [r4, #24]
    789e:	b9f8      	cbnz	r0, 78e0 <_scanf_chars+0x70>
    78a0:	6823      	ldr	r3, [r4, #0]
    78a2:	3601      	adds	r6, #1
    78a4:	06da      	lsls	r2, r3, #27
    78a6:	bf5e      	ittt	pl
    78a8:	682b      	ldrpl	r3, [r5, #0]
    78aa:	781b      	ldrbpl	r3, [r3, #0]
    78ac:	703b      	strbpl	r3, [r7, #0]
    78ae:	682a      	ldr	r2, [r5, #0]
    78b0:	686b      	ldr	r3, [r5, #4]
    78b2:	f102 0201 	add.w	r2, r2, #1
    78b6:	602a      	str	r2, [r5, #0]
    78b8:	68a2      	ldr	r2, [r4, #8]
    78ba:	f103 33ff 	add.w	r3, r3, #4294967295
    78be:	f102 32ff 	add.w	r2, r2, #4294967295
    78c2:	606b      	str	r3, [r5, #4]
    78c4:	bf58      	it	pl
    78c6:	3701      	addpl	r7, #1
    78c8:	60a2      	str	r2, [r4, #8]
    78ca:	b1ea      	cbz	r2, 7908 <_scanf_chars+0x98>
    78cc:	2b00      	cmp	r3, #0
    78ce:	dce5      	bgt.n	789c <_scanf_chars+0x2c>
    78d0:	f8d4 3180 	ldr.w	r3, [r4, #384]	; 0x180
    78d4:	4640      	mov	r0, r8
    78d6:	4629      	mov	r1, r5
    78d8:	4798      	blx	r3
    78da:	2800      	cmp	r0, #0
    78dc:	d0de      	beq.n	789c <_scanf_chars+0x2c>
    78de:	e013      	b.n	7908 <_scanf_chars+0x98>
    78e0:	2801      	cmp	r0, #1
    78e2:	d107      	bne.n	78f4 <_scanf_chars+0x84>
    78e4:	682b      	ldr	r3, [r5, #0]
    78e6:	6962      	ldr	r2, [r4, #20]
    78e8:	781b      	ldrb	r3, [r3, #0]
    78ea:	5cd3      	ldrb	r3, [r2, r3]
    78ec:	2b00      	cmp	r3, #0
    78ee:	d1d7      	bne.n	78a0 <_scanf_chars+0x30>
    78f0:	b1c6      	cbz	r6, 7924 <_scanf_chars+0xb4>
    78f2:	e009      	b.n	7908 <_scanf_chars+0x98>
    78f4:	2802      	cmp	r0, #2
    78f6:	d107      	bne.n	7908 <_scanf_chars+0x98>
    78f8:	682b      	ldr	r3, [r5, #0]
    78fa:	4a0b      	ldr	r2, [pc, #44]	; (7928 <_scanf_chars+0xb8>)
    78fc:	781b      	ldrb	r3, [r3, #0]
    78fe:	6812      	ldr	r2, [r2, #0]
    7900:	4413      	add	r3, r2
    7902:	785b      	ldrb	r3, [r3, #1]
    7904:	071b      	lsls	r3, r3, #28
    7906:	d5cb      	bpl.n	78a0 <_scanf_chars+0x30>
    7908:	6823      	ldr	r3, [r4, #0]
    790a:	f013 0310 	ands.w	r3, r3, #16
    790e:	d105      	bne.n	791c <_scanf_chars+0xac>
    7910:	68e2      	ldr	r2, [r4, #12]
    7912:	3201      	adds	r2, #1
    7914:	60e2      	str	r2, [r4, #12]
    7916:	69a2      	ldr	r2, [r4, #24]
    7918:	b102      	cbz	r2, 791c <_scanf_chars+0xac>
    791a:	703b      	strb	r3, [r7, #0]
    791c:	6923      	ldr	r3, [r4, #16]
    791e:	2000      	movs	r0, #0
    7920:	441e      	add	r6, r3
    7922:	6126      	str	r6, [r4, #16]
    7924:	e8bd 81f0 	ldmia.w	sp!, {r4, r5, r6, r7, r8, pc}
    7928:	1000019c 	.word	0x1000019c

0000792c <_scanf_i>:
    792c:	e92d 4ff0 	stmdb	sp!, {r4, r5, r6, r7, r8, r9, r10, r11, lr}
    7930:	460c      	mov	r4, r1
    7932:	469a      	mov	r10, r3
    7934:	4b72      	ldr	r3, [pc, #456]	; (7b00 <_scanf_i+0x1d4>)
    7936:	b087      	sub	sp, #28
    7938:	4683      	mov	r11, r0
    793a:	4616      	mov	r6, r2
    793c:	e893 0007 	ldmia.w	r3, {r0, r1, r2}
    7940:	ab03      	add	r3, sp, #12
    7942:	e883 0007 	stmia.w	r3, {r0, r1, r2}
    7946:	4b6f      	ldr	r3, [pc, #444]	; (7b04 <_scanf_i+0x1d8>)
    7948:	69a1      	ldr	r1, [r4, #24]
    794a:	4a6f      	ldr	r2, [pc, #444]	; (7b08 <_scanf_i+0x1dc>)
    794c:	f104 091c 	add.w	r9, r4, #28
    7950:	2903      	cmp	r1, #3
    7952:	bf18      	it	ne
    7954:	461a      	movne	r2, r3
    7956:	68a3      	ldr	r3, [r4, #8]
    7958:	9200      	str	r2, [sp, #0]
    795a:	1e5a      	subs	r2, r3, #1
    795c:	f5b2 7fae 	cmp.w	r2, #348	; 0x15c
    7960:	bf82      	ittt	hi
    7962:	f46f 75ae 	mvnhi.w	r5, #348	; 0x15c
    7966:	eb03 0805 	addhi.w	r8, r3, r5
    796a:	f240 135d 	movwhi	r3, #349	; 0x15d
    796e:	464f      	mov	r7, r9
    7970:	bf88      	it	hi
    7972:	60a3      	strhi	r3, [r4, #8]
    7974:	6823      	ldr	r3, [r4, #0]
    7976:	bf98      	it	ls
    7978:	f04f 0800 	movls.w	r8, #0
    797c:	f443 6350 	orr.w	r3, r3, #3328	; 0xd00
    7980:	6023      	str	r3, [r4, #0]
    7982:	2300      	movs	r3, #0
    7984:	6832      	ldr	r2, [r6, #0]
    7986:	a903      	add	r1, sp, #12
    7988:	f851 0023 	ldr.w	r0, [r1, r3, lsl #2]
    798c:	7811      	ldrb	r1, [r2, #0]
    798e:	2202      	movs	r2, #2
    7990:	9301      	str	r3, [sp, #4]
    7992:	f7ff fbc3 	bl	711c <memchr>
    7996:	9b01      	ldr	r3, [sp, #4]
    7998:	2800      	cmp	r0, #0
    799a:	d035      	beq.n	7a08 <_scanf_i+0xdc>
    799c:	2b01      	cmp	r3, #1
    799e:	d10b      	bne.n	79b8 <_scanf_i+0x8c>
    79a0:	6862      	ldr	r2, [r4, #4]
    79a2:	b92a      	cbnz	r2, 79b0 <_scanf_i+0x84>
    79a4:	2208      	movs	r2, #8
    79a6:	6062      	str	r2, [r4, #4]
    79a8:	6822      	ldr	r2, [r4, #0]
    79aa:	f442 7200 	orr.w	r2, r2, #512	; 0x200
    79ae:	6022      	str	r2, [r4, #0]
    79b0:	6822      	ldr	r2, [r4, #0]
    79b2:	f422 62a0 	bic.w	r2, r2, #1280	; 0x500
    79b6:	e00b      	b.n	79d0 <_scanf_i+0xa4>
    79b8:	2b02      	cmp	r3, #2
    79ba:	d10a      	bne.n	79d2 <_scanf_i+0xa6>
    79bc:	6822      	ldr	r2, [r4, #0]
    79be:	f402 61c0 	and.w	r1, r2, #1536	; 0x600
    79c2:	f5b1 7f00 	cmp.w	r1, #512	; 0x200
    79c6:	d11f      	bne.n	7a08 <_scanf_i+0xdc>
    79c8:	2110      	movs	r1, #16
    79ca:	6061      	str	r1, [r4, #4]
    79cc:	f442 7280 	orr.w	r2, r2, #256	; 0x100
    79d0:	6022      	str	r2, [r4, #0]
    79d2:	68a2      	ldr	r2, [r4, #8]
    79d4:	1e51      	subs	r1, r2, #1
    79d6:	60a1      	str	r1, [r4, #8]
    79d8:	b1b2      	cbz	r2, 7a08 <_scanf_i+0xdc>
    79da:	6832      	ldr	r2, [r6, #0]
    79dc:	1c7d      	adds	r5, r7, #1
    79de:	1c51      	adds	r1, r2, #1
    79e0:	6031      	str	r1, [r6, #0]
    79e2:	7812      	ldrb	r2, [r2, #0]
    79e4:	703a      	strb	r2, [r7, #0]
    79e6:	6872      	ldr	r2, [r6, #4]
    79e8:	3a01      	subs	r2, #1
    79ea:	2a00      	cmp	r2, #0
    79ec:	6072      	str	r2, [r6, #4]
    79ee:	dc0a      	bgt.n	7a06 <_scanf_i+0xda>
    79f0:	f8d4 2180 	ldr.w	r2, [r4, #384]	; 0x180
    79f4:	4658      	mov	r0, r11
    79f6:	4631      	mov	r1, r6
    79f8:	9301      	str	r3, [sp, #4]
    79fa:	4790      	blx	r2
    79fc:	2800      	cmp	r0, #0
    79fe:	d141      	bne.n	7a84 <_scanf_i+0x158>
    7a00:	462f      	mov	r7, r5
    7a02:	9b01      	ldr	r3, [sp, #4]
    7a04:	e000      	b.n	7a08 <_scanf_i+0xdc>
    7a06:	462f      	mov	r7, r5
    7a08:	3301      	adds	r3, #1
    7a0a:	2b03      	cmp	r3, #3
    7a0c:	d1ba      	bne.n	7984 <_scanf_i+0x58>
    7a0e:	6863      	ldr	r3, [r4, #4]
    7a10:	b90b      	cbnz	r3, 7a16 <_scanf_i+0xea>
    7a12:	230a      	movs	r3, #10
    7a14:	6063      	str	r3, [r4, #4]
    7a16:	6863      	ldr	r3, [r4, #4]
    7a18:	493c      	ldr	r1, [pc, #240]	; (7b0c <_scanf_i+0x1e0>)
    7a1a:	6960      	ldr	r0, [r4, #20]
    7a1c:	1ac9      	subs	r1, r1, r3
    7a1e:	f000 f99b 	bl	7d58 <__sccl>
    7a22:	463d      	mov	r5, r7
    7a24:	2700      	movs	r7, #0
    7a26:	68a3      	ldr	r3, [r4, #8]
    7a28:	b36b      	cbz	r3, 7a86 <_scanf_i+0x15a>
    7a2a:	6831      	ldr	r1, [r6, #0]
    7a2c:	6960      	ldr	r0, [r4, #20]
    7a2e:	780a      	ldrb	r2, [r1, #0]
    7a30:	5c80      	ldrb	r0, [r0, r2]
    7a32:	b340      	cbz	r0, 7a86 <_scanf_i+0x15a>
    7a34:	2a30      	cmp	r2, #48	; 0x30
    7a36:	6822      	ldr	r2, [r4, #0]
    7a38:	d10a      	bne.n	7a50 <_scanf_i+0x124>
    7a3a:	0510      	lsls	r0, r2, #20
    7a3c:	d508      	bpl.n	7a50 <_scanf_i+0x124>
    7a3e:	3701      	adds	r7, #1
    7a40:	f1b8 0f00 	cmp.w	r8, #0
    7a44:	d00b      	beq.n	7a5e <_scanf_i+0x132>
    7a46:	3301      	adds	r3, #1
    7a48:	f108 38ff 	add.w	r8, r8, #4294967295
    7a4c:	60a3      	str	r3, [r4, #8]
    7a4e:	e006      	b.n	7a5e <_scanf_i+0x132>
    7a50:	f422 6210 	bic.w	r2, r2, #2304	; 0x900
    7a54:	6022      	str	r2, [r4, #0]
    7a56:	780b      	ldrb	r3, [r1, #0]
    7a58:	3501      	adds	r5, #1
    7a5a:	f805 3c01 	strb.w	r3, [r5, #-1]
    7a5e:	6873      	ldr	r3, [r6, #4]
    7a60:	3b01      	subs	r3, #1
    7a62:	2b00      	cmp	r3, #0
    7a64:	6073      	str	r3, [r6, #4]
    7a66:	dd03      	ble.n	7a70 <_scanf_i+0x144>
    7a68:	6833      	ldr	r3, [r6, #0]
    7a6a:	3301      	adds	r3, #1
    7a6c:	6033      	str	r3, [r6, #0]
    7a6e:	e005      	b.n	7a7c <_scanf_i+0x150>
    7a70:	f8d4 3180 	ldr.w	r3, [r4, #384]	; 0x180
    7a74:	4658      	mov	r0, r11
    7a76:	4631      	mov	r1, r6
    7a78:	4798      	blx	r3
    7a7a:	b920      	cbnz	r0, 7a86 <_scanf_i+0x15a>
    7a7c:	68a3      	ldr	r3, [r4, #8]
    7a7e:	3b01      	subs	r3, #1
    7a80:	60a3      	str	r3, [r4, #8]
    7a82:	e7d0      	b.n	7a26 <_scanf_i+0xfa>
    7a84:	2700      	movs	r7, #0
    7a86:	6823      	ldr	r3, [r4, #0]
    7a88:	05d9      	lsls	r1, r3, #23
    7a8a:	d50d      	bpl.n	7aa8 <_scanf_i+0x17c>
    7a8c:	454d      	cmp	r5, r9
    7a8e:	d909      	bls.n	7aa4 <_scanf_i+0x178>
    7a90:	f815 1c01 	ldrb.w	r1, [r5, #-1]
    7a94:	f105 38ff 	add.w	r8, r5, #4294967295
    7a98:	f8d4 317c 	ldr.w	r3, [r4, #380]	; 0x17c
    7a9c:	4658      	mov	r0, r11
    7a9e:	4632      	mov	r2, r6
    7aa0:	4798      	blx	r3
    7aa2:	4645      	mov	r5, r8
    7aa4:	454d      	cmp	r5, r9
    7aa6:	d027      	beq.n	7af8 <_scanf_i+0x1cc>
    7aa8:	6822      	ldr	r2, [r4, #0]
    7aaa:	f012 0210 	ands.w	r2, r2, #16
    7aae:	d11b      	bne.n	7ae8 <_scanf_i+0x1bc>
    7ab0:	702a      	strb	r2, [r5, #0]
    7ab2:	6863      	ldr	r3, [r4, #4]
    7ab4:	4658      	mov	r0, r11
    7ab6:	4649      	mov	r1, r9
    7ab8:	9e00      	ldr	r6, [sp, #0]
    7aba:	47b0      	blx	r6
    7abc:	6822      	ldr	r2, [r4, #0]
    7abe:	f8da 3000 	ldr.w	r3, [r10]
    7ac2:	f012 0f20 	tst.w	r2, #32
    7ac6:	d107      	bne.n	7ad8 <_scanf_i+0x1ac>
    7ac8:	07d2      	lsls	r2, r2, #31
    7aca:	d505      	bpl.n	7ad8 <_scanf_i+0x1ac>
    7acc:	1d1a      	adds	r2, r3, #4
    7ace:	f8ca 2000 	str.w	r2, [r10]
    7ad2:	681b      	ldr	r3, [r3, #0]
    7ad4:	8018      	strh	r0, [r3, #0]
    7ad6:	e004      	b.n	7ae2 <_scanf_i+0x1b6>
    7ad8:	1d1a      	adds	r2, r3, #4
    7ada:	f8ca 2000 	str.w	r2, [r10]
    7ade:	681b      	ldr	r3, [r3, #0]
    7ae0:	6018      	str	r0, [r3, #0]
    7ae2:	68e3      	ldr	r3, [r4, #12]
    7ae4:	3301      	adds	r3, #1
    7ae6:	60e3      	str	r3, [r4, #12]
    7ae8:	ebc9 0505 	rsb	r5, r9, r5
    7aec:	443d      	add	r5, r7
    7aee:	6927      	ldr	r7, [r4, #16]
    7af0:	2000      	movs	r0, #0
    7af2:	443d      	add	r5, r7
    7af4:	6125      	str	r5, [r4, #16]
    7af6:	e000      	b.n	7afa <_scanf_i+0x1ce>
    7af8:	2001      	movs	r0, #1
    7afa:	b007      	add	sp, #28
    7afc:	e8bd 8ff0 	ldmia.w	sp!, {r4, r5, r6, r7, r8, r9, r10, r11, pc}
    7b00:	0000946c 	.word	0x0000946c
    7b04:	00008165 	.word	0x00008165
    7b08:	00008059 	.word	0x00008059
    7b0c:	00009488 	.word	0x00009488

00007b10 <_open_r>:
    7b10:	b538      	push	{r3, r4, r5, lr}
    7b12:	4c07      	ldr	r4, [pc, #28]	; (7b30 <_open_r+0x20>)
    7b14:	4605      	mov	r5, r0
    7b16:	2000      	movs	r0, #0
    7b18:	6020      	str	r0, [r4, #0]
    7b1a:	4608      	mov	r0, r1
    7b1c:	4611      	mov	r1, r2
    7b1e:	461a      	mov	r2, r3
    7b20:	f7fd fe4a 	bl	57b8 <_open>
    7b24:	1c43      	adds	r3, r0, #1
    7b26:	d102      	bne.n	7b2e <_open_r+0x1e>
    7b28:	6823      	ldr	r3, [r4, #0]
    7b2a:	b103      	cbz	r3, 7b2e <_open_r+0x1e>
    7b2c:	602b      	str	r3, [r5, #0]
    7b2e:	bd38      	pop	{r3, r4, r5, pc}
    7b30:	10000b4c 	.word	0x10000b4c

00007b34 <_putc_r>:
    7b34:	b570      	push	{r4, r5, r6, lr}
    7b36:	460e      	mov	r6, r1
    7b38:	4614      	mov	r4, r2
    7b3a:	4605      	mov	r5, r0
    7b3c:	b118      	cbz	r0, 7b46 <_putc_r+0x12>
    7b3e:	6983      	ldr	r3, [r0, #24]
    7b40:	b90b      	cbnz	r3, 7b46 <_putc_r+0x12>
    7b42:	f7ff f8bd 	bl	6cc0 <__sinit>
    7b46:	4b16      	ldr	r3, [pc, #88]	; (7ba0 <_putc_r+0x6c>)
    7b48:	429c      	cmp	r4, r3
    7b4a:	d101      	bne.n	7b50 <_putc_r+0x1c>
    7b4c:	686c      	ldr	r4, [r5, #4]
    7b4e:	e008      	b.n	7b62 <_putc_r+0x2e>
    7b50:	4b14      	ldr	r3, [pc, #80]	; (7ba4 <_putc_r+0x70>)
    7b52:	429c      	cmp	r4, r3
    7b54:	d101      	bne.n	7b5a <_putc_r+0x26>
    7b56:	68ac      	ldr	r4, [r5, #8]
    7b58:	e003      	b.n	7b62 <_putc_r+0x2e>
    7b5a:	4b13      	ldr	r3, [pc, #76]	; (7ba8 <_putc_r+0x74>)
    7b5c:	429c      	cmp	r4, r3
    7b5e:	bf08      	it	eq
    7b60:	68ec      	ldreq	r4, [r5, #12]
    7b62:	68a3      	ldr	r3, [r4, #8]
    7b64:	3b01      	subs	r3, #1
    7b66:	2b00      	cmp	r3, #0
    7b68:	60a3      	str	r3, [r4, #8]
    7b6a:	da11      	bge.n	7b90 <_putc_r+0x5c>
    7b6c:	69a2      	ldr	r2, [r4, #24]
    7b6e:	4293      	cmp	r3, r2
    7b70:	db07      	blt.n	7b82 <_putc_r+0x4e>
    7b72:	6823      	ldr	r3, [r4, #0]
    7b74:	701e      	strb	r6, [r3, #0]
    7b76:	6823      	ldr	r3, [r4, #0]
    7b78:	7819      	ldrb	r1, [r3, #0]
    7b7a:	290a      	cmp	r1, #10
    7b7c:	d10b      	bne.n	7b96 <_putc_r+0x62>
    7b7e:	4628      	mov	r0, r5
    7b80:	e001      	b.n	7b86 <_putc_r+0x52>
    7b82:	4628      	mov	r0, r5
    7b84:	4631      	mov	r1, r6
    7b86:	4622      	mov	r2, r4
    7b88:	e8bd 4070 	ldmia.w	sp!, {r4, r5, r6, lr}
    7b8c:	f000 bba0 	b.w	82d0 <__swbuf_r>
    7b90:	6823      	ldr	r3, [r4, #0]
    7b92:	701e      	strb	r6, [r3, #0]
    7b94:	6823      	ldr	r3, [r4, #0]
    7b96:	1c5a      	adds	r2, r3, #1
    7b98:	6022      	str	r2, [r4, #0]
    7b9a:	7818      	ldrb	r0, [r3, #0]
    7b9c:	bd70      	pop	{r4, r5, r6, pc}
    7b9e:	bf00      	nop
    7ba0:	000093d0 	.word	0x000093d0
    7ba4:	000093f0 	.word	0x000093f0
    7ba8:	00009410 	.word	0x00009410

00007bac <realloc>:
    7bac:	4603      	mov	r3, r0
    7bae:	460a      	mov	r2, r1
    7bb0:	4902      	ldr	r1, [pc, #8]	; (7bbc <realloc+0x10>)
    7bb2:	6808      	ldr	r0, [r1, #0]
    7bb4:	4619      	mov	r1, r3
    7bb6:	f000 bcd9 	b.w	856c <_realloc_r>
    7bba:	bf00      	nop
    7bbc:	10000198 	.word	0x10000198

00007bc0 <lflush>:
    7bc0:	8983      	ldrh	r3, [r0, #12]
    7bc2:	f003 0309 	and.w	r3, r3, #9
    7bc6:	2b09      	cmp	r3, #9
    7bc8:	d101      	bne.n	7bce <lflush+0xe>
    7bca:	f7fe bff3 	b.w	6bb4 <fflush>
    7bce:	2000      	movs	r0, #0
    7bd0:	4770      	bx	lr
	...

00007bd4 <__srefill_r>:
    7bd4:	b5f8      	push	{r3, r4, r5, r6, r7, lr}
    7bd6:	460c      	mov	r4, r1
    7bd8:	4605      	mov	r5, r0
    7bda:	b118      	cbz	r0, 7be4 <__srefill_r+0x10>
    7bdc:	6983      	ldr	r3, [r0, #24]
    7bde:	b90b      	cbnz	r3, 7be4 <__srefill_r+0x10>
    7be0:	f7ff f86e 	bl	6cc0 <__sinit>
    7be4:	4b39      	ldr	r3, [pc, #228]	; (7ccc <__srefill_r+0xf8>)
    7be6:	429c      	cmp	r4, r3
    7be8:	d101      	bne.n	7bee <__srefill_r+0x1a>
    7bea:	686c      	ldr	r4, [r5, #4]
    7bec:	e008      	b.n	7c00 <__srefill_r+0x2c>
    7bee:	4b38      	ldr	r3, [pc, #224]	; (7cd0 <__srefill_r+0xfc>)
    7bf0:	429c      	cmp	r4, r3
    7bf2:	d101      	bne.n	7bf8 <__srefill_r+0x24>
    7bf4:	68ac      	ldr	r4, [r5, #8]
    7bf6:	e003      	b.n	7c00 <__srefill_r+0x2c>
    7bf8:	4b36      	ldr	r3, [pc, #216]	; (7cd4 <__srefill_r+0x100>)
    7bfa:	429c      	cmp	r4, r3
    7bfc:	bf08      	it	eq
    7bfe:	68ec      	ldreq	r4, [r5, #12]
    7c00:	89a2      	ldrh	r2, [r4, #12]
    7c02:	2300      	movs	r3, #0
    7c04:	6063      	str	r3, [r4, #4]
    7c06:	b293      	uxth	r3, r2
    7c08:	069e      	lsls	r6, r3, #26
    7c0a:	d45a      	bmi.n	7cc2 <__srefill_r+0xee>
    7c0c:	0758      	lsls	r0, r3, #29
    7c0e:	d41a      	bmi.n	7c46 <__srefill_r+0x72>
    7c10:	06d9      	lsls	r1, r3, #27
    7c12:	d405      	bmi.n	7c20 <__srefill_r+0x4c>
    7c14:	2309      	movs	r3, #9
    7c16:	f042 0240 	orr.w	r2, r2, #64	; 0x40
    7c1a:	602b      	str	r3, [r5, #0]
    7c1c:	81a2      	strh	r2, [r4, #12]
    7c1e:	e050      	b.n	7cc2 <__srefill_r+0xee>
    7c20:	071a      	lsls	r2, r3, #28
    7c22:	d50b      	bpl.n	7c3c <__srefill_r+0x68>
    7c24:	4628      	mov	r0, r5
    7c26:	4621      	mov	r1, r4
    7c28:	f7fe ff9a 	bl	6b60 <_fflush_r>
    7c2c:	2800      	cmp	r0, #0
    7c2e:	d148      	bne.n	7cc2 <__srefill_r+0xee>
    7c30:	89a3      	ldrh	r3, [r4, #12]
    7c32:	60a0      	str	r0, [r4, #8]
    7c34:	f023 0308 	bic.w	r3, r3, #8
    7c38:	81a3      	strh	r3, [r4, #12]
    7c3a:	61a0      	str	r0, [r4, #24]
    7c3c:	89a3      	ldrh	r3, [r4, #12]
    7c3e:	f043 0304 	orr.w	r3, r3, #4
    7c42:	81a3      	strh	r3, [r4, #12]
    7c44:	e010      	b.n	7c68 <__srefill_r+0x94>
    7c46:	6b61      	ldr	r1, [r4, #52]	; 0x34
    7c48:	b171      	cbz	r1, 7c68 <__srefill_r+0x94>
    7c4a:	f104 0344 	add.w	r3, r4, #68	; 0x44
    7c4e:	4299      	cmp	r1, r3
    7c50:	d002      	beq.n	7c58 <__srefill_r+0x84>
    7c52:	4628      	mov	r0, r5
    7c54:	f7ff fa9e 	bl	7194 <_free_r>
    7c58:	6c23      	ldr	r3, [r4, #64]	; 0x40
    7c5a:	2000      	movs	r0, #0
    7c5c:	6360      	str	r0, [r4, #52]	; 0x34
    7c5e:	6063      	str	r3, [r4, #4]
    7c60:	b113      	cbz	r3, 7c68 <__srefill_r+0x94>
    7c62:	6be3      	ldr	r3, [r4, #60]	; 0x3c
    7c64:	6023      	str	r3, [r4, #0]
    7c66:	bdf8      	pop	{r3, r4, r5, r6, r7, pc}
    7c68:	6923      	ldr	r3, [r4, #16]
    7c6a:	b91b      	cbnz	r3, 7c74 <__srefill_r+0xa0>
    7c6c:	4628      	mov	r0, r5
    7c6e:	4621      	mov	r1, r4
    7c70:	f7ff f9f8 	bl	7064 <__smakebuf_r>
    7c74:	89a7      	ldrh	r7, [r4, #12]
    7c76:	b2be      	uxth	r6, r7
    7c78:	07b3      	lsls	r3, r6, #30
    7c7a:	d00f      	beq.n	7c9c <__srefill_r+0xc8>
    7c7c:	2301      	movs	r3, #1
    7c7e:	81a3      	strh	r3, [r4, #12]
    7c80:	4b15      	ldr	r3, [pc, #84]	; (7cd8 <__srefill_r+0x104>)
    7c82:	4916      	ldr	r1, [pc, #88]	; (7cdc <__srefill_r+0x108>)
    7c84:	6818      	ldr	r0, [r3, #0]
    7c86:	f006 0609 	and.w	r6, r6, #9
    7c8a:	f7ff f98b 	bl	6fa4 <_fwalk>
    7c8e:	2e09      	cmp	r6, #9
    7c90:	81a7      	strh	r7, [r4, #12]
    7c92:	d103      	bne.n	7c9c <__srefill_r+0xc8>
    7c94:	4628      	mov	r0, r5
    7c96:	4621      	mov	r1, r4
    7c98:	f7fe fede 	bl	6a58 <__sflush_r>
    7c9c:	6922      	ldr	r2, [r4, #16]
    7c9e:	6a66      	ldr	r6, [r4, #36]	; 0x24
    7ca0:	6022      	str	r2, [r4, #0]
    7ca2:	4628      	mov	r0, r5
    7ca4:	6a21      	ldr	r1, [r4, #32]
    7ca6:	6963      	ldr	r3, [r4, #20]
    7ca8:	47b0      	blx	r6
    7caa:	2800      	cmp	r0, #0
    7cac:	6060      	str	r0, [r4, #4]
    7cae:	dc0b      	bgt.n	7cc8 <__srefill_r+0xf4>
    7cb0:	89a3      	ldrh	r3, [r4, #12]
    7cb2:	bf17      	itett	ne
    7cb4:	2200      	movne	r2, #0
    7cb6:	f043 0320 	orreq.w	r3, r3, #32
    7cba:	f043 0340 	orrne.w	r3, r3, #64	; 0x40
    7cbe:	6062      	strne	r2, [r4, #4]
    7cc0:	81a3      	strh	r3, [r4, #12]
    7cc2:	f04f 30ff 	mov.w	r0, #4294967295
    7cc6:	bdf8      	pop	{r3, r4, r5, r6, r7, pc}
    7cc8:	2000      	movs	r0, #0
    7cca:	bdf8      	pop	{r3, r4, r5, r6, r7, pc}
    7ccc:	000093d0 	.word	0x000093d0
    7cd0:	000093f0 	.word	0x000093f0
    7cd4:	00009410 	.word	0x00009410
    7cd8:	00009434 	.word	0x00009434
    7cdc:	00007bc1 	.word	0x00007bc1

00007ce0 <__srget_r>:
    7ce0:	b538      	push	{r3, r4, r5, lr}
    7ce2:	460c      	mov	r4, r1
    7ce4:	4605      	mov	r5, r0
    7ce6:	b118      	cbz	r0, 7cf0 <__srget_r+0x10>
    7ce8:	6983      	ldr	r3, [r0, #24]
    7cea:	b90b      	cbnz	r3, 7cf0 <__srget_r+0x10>
    7cec:	f7fe ffe8 	bl	6cc0 <__sinit>
    7cf0:	4b0e      	ldr	r3, [pc, #56]	; (7d2c <__srget_r+0x4c>)
    7cf2:	429c      	cmp	r4, r3
    7cf4:	d101      	bne.n	7cfa <__srget_r+0x1a>
    7cf6:	686c      	ldr	r4, [r5, #4]
    7cf8:	e008      	b.n	7d0c <__srget_r+0x2c>
    7cfa:	4b0d      	ldr	r3, [pc, #52]	; (7d30 <__srget_r+0x50>)
    7cfc:	429c      	cmp	r4, r3
    7cfe:	d101      	bne.n	7d04 <__srget_r+0x24>
    7d00:	68ac      	ldr	r4, [r5, #8]
    7d02:	e003      	b.n	7d0c <__srget_r+0x2c>
    7d04:	4b0b      	ldr	r3, [pc, #44]	; (7d34 <__srget_r+0x54>)
    7d06:	429c      	cmp	r4, r3
    7d08:	bf08      	it	eq
    7d0a:	68ec      	ldreq	r4, [r5, #12]
    7d0c:	4628      	mov	r0, r5
    7d0e:	4621      	mov	r1, r4
    7d10:	f7ff ff60 	bl	7bd4 <__srefill_r>
    7d14:	b938      	cbnz	r0, 7d26 <__srget_r+0x46>
    7d16:	6863      	ldr	r3, [r4, #4]
    7d18:	3b01      	subs	r3, #1
    7d1a:	6063      	str	r3, [r4, #4]
    7d1c:	6823      	ldr	r3, [r4, #0]
    7d1e:	1c5a      	adds	r2, r3, #1
    7d20:	6022      	str	r2, [r4, #0]
    7d22:	7818      	ldrb	r0, [r3, #0]
    7d24:	bd38      	pop	{r3, r4, r5, pc}
    7d26:	f04f 30ff 	mov.w	r0, #4294967295
    7d2a:	bd38      	pop	{r3, r4, r5, pc}
    7d2c:	000093d0 	.word	0x000093d0
    7d30:	000093f0 	.word	0x000093f0
    7d34:	00009410 	.word	0x00009410

00007d38 <_sbrk_r>:
    7d38:	b538      	push	{r3, r4, r5, lr}
    7d3a:	4c06      	ldr	r4, [pc, #24]	; (7d54 <_sbrk_r+0x1c>)
    7d3c:	2300      	movs	r3, #0
    7d3e:	4605      	mov	r5, r0
    7d40:	4608      	mov	r0, r1
    7d42:	6023      	str	r3, [r4, #0]
    7d44:	f7fd fe56 	bl	59f4 <_sbrk>
    7d48:	1c43      	adds	r3, r0, #1
    7d4a:	d102      	bne.n	7d52 <_sbrk_r+0x1a>
    7d4c:	6823      	ldr	r3, [r4, #0]
    7d4e:	b103      	cbz	r3, 7d52 <_sbrk_r+0x1a>
    7d50:	602b      	str	r3, [r5, #0]
    7d52:	bd38      	pop	{r3, r4, r5, pc}
    7d54:	10000b4c 	.word	0x10000b4c

00007d58 <__sccl>:
    7d58:	b5f0      	push	{r4, r5, r6, r7, lr}
    7d5a:	780a      	ldrb	r2, [r1, #0]
    7d5c:	1e44      	subs	r4, r0, #1
    7d5e:	2a5e      	cmp	r2, #94	; 0x5e
    7d60:	bf13      	iteet	ne
    7d62:	1c4b      	addne	r3, r1, #1
    7d64:	1c8b      	addeq	r3, r1, #2
    7d66:	784a      	ldrbeq	r2, [r1, #1]
    7d68:	2100      	movne	r1, #0
    7d6a:	bf08      	it	eq
    7d6c:	2101      	moveq	r1, #1
    7d6e:	f100 05ff 	add.w	r5, r0, #255	; 0xff
    7d72:	f804 1f01 	strb.w	r1, [r4, #1]!
    7d76:	42ac      	cmp	r4, r5
    7d78:	d1fb      	bne.n	7d72 <__sccl+0x1a>
    7d7a:	b90a      	cbnz	r2, 7d80 <__sccl+0x28>
    7d7c:	1e58      	subs	r0, r3, #1
    7d7e:	bdf0      	pop	{r4, r5, r6, r7, pc}
    7d80:	f1c1 0401 	rsb	r4, r1, #1
    7d84:	b2e7      	uxtb	r7, r4
    7d86:	5487      	strb	r7, [r0, r2]
    7d88:	7819      	ldrb	r1, [r3, #0]
    7d8a:	1c5e      	adds	r6, r3, #1
    7d8c:	292d      	cmp	r1, #45	; 0x2d
    7d8e:	d005      	beq.n	7d9c <__sccl+0x44>
    7d90:	295d      	cmp	r1, #93	; 0x5d
    7d92:	d00e      	beq.n	7db2 <__sccl+0x5a>
    7d94:	b179      	cbz	r1, 7db6 <__sccl+0x5e>
    7d96:	460a      	mov	r2, r1
    7d98:	4633      	mov	r3, r6
    7d9a:	e7f3      	b.n	7d84 <__sccl+0x2c>
    7d9c:	785d      	ldrb	r5, [r3, #1]
    7d9e:	2d5d      	cmp	r5, #93	; 0x5d
    7da0:	d0f9      	beq.n	7d96 <__sccl+0x3e>
    7da2:	4295      	cmp	r5, r2
    7da4:	dbf7      	blt.n	7d96 <__sccl+0x3e>
    7da6:	3302      	adds	r3, #2
    7da8:	3201      	adds	r2, #1
    7daa:	42aa      	cmp	r2, r5
    7dac:	5487      	strb	r7, [r0, r2]
    7dae:	dbfb      	blt.n	7da8 <__sccl+0x50>
    7db0:	e7ea      	b.n	7d88 <__sccl+0x30>
    7db2:	4630      	mov	r0, r6
    7db4:	bdf0      	pop	{r4, r5, r6, r7, pc}
    7db6:	4618      	mov	r0, r3
    7db8:	bdf0      	pop	{r4, r5, r6, r7, pc}

00007dba <setbuf>:
    7dba:	2900      	cmp	r1, #0
    7dbc:	bf0c      	ite	eq
    7dbe:	2202      	moveq	r2, #2
    7dc0:	2200      	movne	r2, #0
    7dc2:	f44f 6380 	mov.w	r3, #1024	; 0x400
    7dc6:	f000 b801 	b.w	7dcc <setvbuf>
	...

00007dcc <setvbuf>:
    7dcc:	e92d 41f0 	stmdb	sp!, {r4, r5, r6, r7, r8, lr}
    7dd0:	461d      	mov	r5, r3
    7dd2:	4b3d      	ldr	r3, [pc, #244]	; (7ec8 <setvbuf+0xfc>)
    7dd4:	4604      	mov	r4, r0
    7dd6:	681e      	ldr	r6, [r3, #0]
    7dd8:	460f      	mov	r7, r1
    7dda:	4690      	mov	r8, r2
    7ddc:	b126      	cbz	r6, 7de8 <setvbuf+0x1c>
    7dde:	69b3      	ldr	r3, [r6, #24]
    7de0:	b913      	cbnz	r3, 7de8 <setvbuf+0x1c>
    7de2:	4630      	mov	r0, r6
    7de4:	f7fe ff6c 	bl	6cc0 <__sinit>
    7de8:	4b38      	ldr	r3, [pc, #224]	; (7ecc <setvbuf+0x100>)
    7dea:	429c      	cmp	r4, r3
    7dec:	d101      	bne.n	7df2 <setvbuf+0x26>
    7dee:	6874      	ldr	r4, [r6, #4]
    7df0:	e008      	b.n	7e04 <setvbuf+0x38>
    7df2:	4b37      	ldr	r3, [pc, #220]	; (7ed0 <setvbuf+0x104>)
    7df4:	429c      	cmp	r4, r3
    7df6:	d101      	bne.n	7dfc <setvbuf+0x30>
    7df8:	68b4      	ldr	r4, [r6, #8]
    7dfa:	e003      	b.n	7e04 <setvbuf+0x38>
    7dfc:	4b35      	ldr	r3, [pc, #212]	; (7ed4 <setvbuf+0x108>)
    7dfe:	429c      	cmp	r4, r3
    7e00:	bf08      	it	eq
    7e02:	68f4      	ldreq	r4, [r6, #12]
    7e04:	f1b8 0f02 	cmp.w	r8, #2
    7e08:	d85a      	bhi.n	7ec0 <setvbuf+0xf4>
    7e0a:	2d00      	cmp	r5, #0
    7e0c:	db58      	blt.n	7ec0 <setvbuf+0xf4>
    7e0e:	4630      	mov	r0, r6
    7e10:	4621      	mov	r1, r4
    7e12:	f7fe fea5 	bl	6b60 <_fflush_r>
    7e16:	2300      	movs	r3, #0
    7e18:	6063      	str	r3, [r4, #4]
    7e1a:	61a3      	str	r3, [r4, #24]
    7e1c:	89a3      	ldrh	r3, [r4, #12]
    7e1e:	061b      	lsls	r3, r3, #24
    7e20:	d503      	bpl.n	7e2a <setvbuf+0x5e>
    7e22:	4630      	mov	r0, r6
    7e24:	6921      	ldr	r1, [r4, #16]
    7e26:	f7ff f9b5 	bl	7194 <_free_r>
    7e2a:	89a3      	ldrh	r3, [r4, #12]
    7e2c:	f1b8 0f02 	cmp.w	r8, #2
    7e30:	f023 0383 	bic.w	r3, r3, #131	; 0x83
    7e34:	81a3      	strh	r3, [r4, #12]
    7e36:	d012      	beq.n	7e5e <setvbuf+0x92>
    7e38:	bb37      	cbnz	r7, 7e88 <setvbuf+0xbc>
    7e3a:	2d00      	cmp	r5, #0
    7e3c:	bf08      	it	eq
    7e3e:	f44f 6580 	moveq.w	r5, #1024	; 0x400
    7e42:	4628      	mov	r0, r5
    7e44:	f7fb ffe2 	bl	3e0c <__wrap_malloc>
    7e48:	4607      	mov	r7, r0
    7e4a:	b9c8      	cbnz	r0, 7e80 <setvbuf+0xb4>
    7e4c:	f44f 6080 	mov.w	r0, #1024	; 0x400
    7e50:	f7fb ffdc 	bl	3e0c <__wrap_malloc>
    7e54:	4607      	mov	r7, r0
    7e56:	b988      	cbnz	r0, 7e7c <setvbuf+0xb0>
    7e58:	f04f 30ff 	mov.w	r0, #4294967295
    7e5c:	e000      	b.n	7e60 <setvbuf+0x94>
    7e5e:	2000      	movs	r0, #0
    7e60:	89a3      	ldrh	r3, [r4, #12]
    7e62:	f043 0302 	orr.w	r3, r3, #2
    7e66:	81a3      	strh	r3, [r4, #12]
    7e68:	2300      	movs	r3, #0
    7e6a:	60a3      	str	r3, [r4, #8]
    7e6c:	f104 0347 	add.w	r3, r4, #71	; 0x47
    7e70:	6023      	str	r3, [r4, #0]
    7e72:	6123      	str	r3, [r4, #16]
    7e74:	2301      	movs	r3, #1
    7e76:	6163      	str	r3, [r4, #20]
    7e78:	e8bd 81f0 	ldmia.w	sp!, {r4, r5, r6, r7, r8, pc}
    7e7c:	f44f 6580 	mov.w	r5, #1024	; 0x400
    7e80:	89a3      	ldrh	r3, [r4, #12]
    7e82:	f043 0380 	orr.w	r3, r3, #128	; 0x80
    7e86:	81a3      	strh	r3, [r4, #12]
    7e88:	f1b8 0f01 	cmp.w	r8, #1
    7e8c:	bf01      	itttt	eq
    7e8e:	89a3      	ldrheq	r3, [r4, #12]
    7e90:	f043 0301 	orreq.w	r3, r3, #1
    7e94:	81a3      	strheq	r3, [r4, #12]
    7e96:	426b      	negeq	r3, r5
    7e98:	bf08      	it	eq
    7e9a:	61a3      	streq	r3, [r4, #24]
    7e9c:	4b0e      	ldr	r3, [pc, #56]	; (7ed8 <setvbuf+0x10c>)
    7e9e:	62b3      	str	r3, [r6, #40]	; 0x28
    7ea0:	89a3      	ldrh	r3, [r4, #12]
    7ea2:	6027      	str	r7, [r4, #0]
    7ea4:	f003 0008 	and.w	r0, r3, #8
    7ea8:	b280      	uxth	r0, r0
    7eaa:	6127      	str	r7, [r4, #16]
    7eac:	6165      	str	r5, [r4, #20]
    7eae:	b148      	cbz	r0, 7ec4 <setvbuf+0xf8>
    7eb0:	f013 0f03 	tst.w	r3, #3
    7eb4:	bf18      	it	ne
    7eb6:	2500      	movne	r5, #0
    7eb8:	60a5      	str	r5, [r4, #8]
    7eba:	2000      	movs	r0, #0
    7ebc:	e8bd 81f0 	ldmia.w	sp!, {r4, r5, r6, r7, r8, pc}
    7ec0:	f04f 30ff 	mov.w	r0, #4294967295
    7ec4:	e8bd 81f0 	ldmia.w	sp!, {r4, r5, r6, r7, r8, pc}
    7ec8:	10000198 	.word	0x10000198
    7ecc:	000093d0 	.word	0x000093d0
    7ed0:	000093f0 	.word	0x000093f0
    7ed4:	00009410 	.word	0x00009410
    7ed8:	00006c41 	.word	0x00006c41

00007edc <siprintf>:
    7edc:	b40e      	push	{r1, r2, r3}
    7ede:	b500      	push	{lr}
    7ee0:	f44f 7102 	mov.w	r1, #520	; 0x208
    7ee4:	b09c      	sub	sp, #112	; 0x70
    7ee6:	f8ad 1014 	strh.w	r1, [sp, #20]
    7eea:	f06f 4100 	mvn.w	r1, #2147483648	; 0x80000000
    7eee:	9104      	str	r1, [sp, #16]
    7ef0:	9107      	str	r1, [sp, #28]
    7ef2:	f64f 71ff 	movw	r1, #65535	; 0xffff
    7ef6:	ab1d      	add	r3, sp, #116	; 0x74
    7ef8:	f8ad 1016 	strh.w	r1, [sp, #22]
    7efc:	4908      	ldr	r1, [pc, #32]	; (7f20 <siprintf+0x44>)
    7efe:	f853 2b04 	ldr.w	r2, [r3], #4
    7f02:	9002      	str	r0, [sp, #8]
    7f04:	9006      	str	r0, [sp, #24]
    7f06:	6808      	ldr	r0, [r1, #0]
    7f08:	a902      	add	r1, sp, #8
    7f0a:	9301      	str	r3, [sp, #4]
    7f0c:	f000 fbae 	bl	866c <_svfiprintf_r>
    7f10:	9b02      	ldr	r3, [sp, #8]
    7f12:	2200      	movs	r2, #0
    7f14:	701a      	strb	r2, [r3, #0]
    7f16:	b01c      	add	sp, #112	; 0x70
    7f18:	f85d eb04 	ldr.w	lr, [sp], #4
    7f1c:	b003      	add	sp, #12
    7f1e:	4770      	bx	lr
    7f20:	10000198 	.word	0x10000198

00007f24 <siscanf>:
    7f24:	b40e      	push	{r1, r2, r3}
    7f26:	b530      	push	{r4, r5, lr}
    7f28:	b09c      	sub	sp, #112	; 0x70
    7f2a:	ac1f      	add	r4, sp, #124	; 0x7c
    7f2c:	f44f 7201 	mov.w	r2, #516	; 0x204
    7f30:	f854 5b04 	ldr.w	r5, [r4], #4
    7f34:	f8ad 2014 	strh.w	r2, [sp, #20]
    7f38:	9002      	str	r0, [sp, #8]
    7f3a:	9006      	str	r0, [sp, #24]
    7f3c:	f000 f86b 	bl	8016 <strlen>
    7f40:	4b0b      	ldr	r3, [pc, #44]	; (7f70 <siscanf+0x4c>)
    7f42:	9003      	str	r0, [sp, #12]
    7f44:	930b      	str	r3, [sp, #44]	; 0x2c
    7f46:	2300      	movs	r3, #0
    7f48:	930f      	str	r3, [sp, #60]	; 0x3c
    7f4a:	9314      	str	r3, [sp, #80]	; 0x50
    7f4c:	f64f 73ff 	movw	r3, #65535	; 0xffff
    7f50:	f8ad 3016 	strh.w	r3, [sp, #22]
    7f54:	4b07      	ldr	r3, [pc, #28]	; (7f74 <siscanf+0x50>)
    7f56:	9007      	str	r0, [sp, #28]
    7f58:	a902      	add	r1, sp, #8
    7f5a:	6818      	ldr	r0, [r3, #0]
    7f5c:	462a      	mov	r2, r5
    7f5e:	4623      	mov	r3, r4
    7f60:	9401      	str	r4, [sp, #4]
    7f62:	f000 fccf 	bl	8904 <__ssvfiscanf_r>
    7f66:	b01c      	add	sp, #112	; 0x70
    7f68:	e8bd 4030 	ldmia.w	sp!, {r4, r5, lr}
    7f6c:	b003      	add	sp, #12
    7f6e:	4770      	bx	lr
    7f70:	00007f9b 	.word	0x00007f9b
    7f74:	10000198 	.word	0x10000198

00007f78 <__sread>:
    7f78:	b510      	push	{r4, lr}
    7f7a:	460c      	mov	r4, r1
    7f7c:	f9b1 100e 	ldrsh.w	r1, [r1, #14]
    7f80:	f000 fe0e 	bl	8ba0 <_read_r>
    7f84:	2800      	cmp	r0, #0
    7f86:	bfab      	itete	ge
    7f88:	6d63      	ldrge	r3, [r4, #84]	; 0x54
    7f8a:	89a3      	ldrhlt	r3, [r4, #12]
    7f8c:	181b      	addge	r3, r3, r0
    7f8e:	f423 5380 	biclt.w	r3, r3, #4096	; 0x1000
    7f92:	bfac      	ite	ge
    7f94:	6563      	strge	r3, [r4, #84]	; 0x54
    7f96:	81a3      	strhlt	r3, [r4, #12]
    7f98:	bd10      	pop	{r4, pc}

00007f9a <__seofread>:
    7f9a:	2000      	movs	r0, #0
    7f9c:	4770      	bx	lr

00007f9e <__swrite>:
    7f9e:	e92d 41f0 	stmdb	sp!, {r4, r5, r6, r7, r8, lr}
    7fa2:	461d      	mov	r5, r3
    7fa4:	898b      	ldrh	r3, [r1, #12]
    7fa6:	4607      	mov	r7, r0
    7fa8:	05db      	lsls	r3, r3, #23
    7faa:	460c      	mov	r4, r1
    7fac:	4616      	mov	r6, r2
    7fae:	d505      	bpl.n	7fbc <__swrite+0x1e>
    7fb0:	f9b1 100e 	ldrsh.w	r1, [r1, #14]
    7fb4:	2200      	movs	r2, #0
    7fb6:	2302      	movs	r3, #2
    7fb8:	f000 fac6 	bl	8548 <_lseek_r>
    7fbc:	89a3      	ldrh	r3, [r4, #12]
    7fbe:	4638      	mov	r0, r7
    7fc0:	f423 5380 	bic.w	r3, r3, #4096	; 0x1000
    7fc4:	81a3      	strh	r3, [r4, #12]
    7fc6:	f9b4 100e 	ldrsh.w	r1, [r4, #14]
    7fca:	4632      	mov	r2, r6
    7fcc:	462b      	mov	r3, r5
    7fce:	e8bd 41f0 	ldmia.w	sp!, {r4, r5, r6, r7, r8, lr}
    7fd2:	f000 b9d1 	b.w	8378 <_write_r>

00007fd6 <__sseek>:
    7fd6:	b510      	push	{r4, lr}
    7fd8:	460c      	mov	r4, r1
    7fda:	f9b1 100e 	ldrsh.w	r1, [r1, #14]
    7fde:	f000 fab3 	bl	8548 <_lseek_r>
    7fe2:	1c43      	adds	r3, r0, #1
    7fe4:	89a3      	ldrh	r3, [r4, #12]
    7fe6:	bf15      	itete	ne
    7fe8:	6560      	strne	r0, [r4, #84]	; 0x54
    7fea:	f423 5380 	biceq.w	r3, r3, #4096	; 0x1000
    7fee:	f443 5380 	orrne.w	r3, r3, #4096	; 0x1000
    7ff2:	81a3      	strheq	r3, [r4, #12]
    7ff4:	bf18      	it	ne
    7ff6:	81a3      	strhne	r3, [r4, #12]
    7ff8:	bd10      	pop	{r4, pc}

00007ffa <__sclose>:
    7ffa:	f9b1 100e 	ldrsh.w	r1, [r1, #14]
    7ffe:	f000 ba39 	b.w	8474 <_close_r>

00008002 <strcmp>:
    8002:	f810 2b01 	ldrb.w	r2, [r0], #1
    8006:	f811 3b01 	ldrb.w	r3, [r1], #1
    800a:	2a01      	cmp	r2, #1
    800c:	bf28      	it	cs
    800e:	429a      	cmpcs	r2, r3
    8010:	d0f7      	beq.n	8002 <strcmp>
    8012:	1ad0      	subs	r0, r2, r3
    8014:	4770      	bx	lr

00008016 <strlen>:
    8016:	4603      	mov	r3, r0
    8018:	f813 2b01 	ldrb.w	r2, [r3], #1
    801c:	2a00      	cmp	r2, #0
    801e:	d1fb      	bne.n	8018 <strlen+0x2>
    8020:	1a18      	subs	r0, r3, r0
    8022:	3801      	subs	r0, #1
    8024:	4770      	bx	lr

00008026 <strncmp>:
    8026:	b570      	push	{r4, r5, r6, lr}
    8028:	b1a2      	cbz	r2, 8054 <strncmp+0x2e>
    802a:	1e45      	subs	r5, r0, #1
    802c:	3901      	subs	r1, #1
    802e:	786b      	ldrb	r3, [r5, #1]
    8030:	f811 4f01 	ldrb.w	r4, [r1, #1]!
    8034:	1c6e      	adds	r6, r5, #1
    8036:	42a3      	cmp	r3, r4
    8038:	d106      	bne.n	8048 <strncmp+0x22>
    803a:	f06f 0401 	mvn.w	r4, #1
    803e:	1b64      	subs	r4, r4, r5
    8040:	4414      	add	r4, r2
    8042:	42e0      	cmn	r0, r4
    8044:	d102      	bne.n	804c <strncmp+0x26>
    8046:	461c      	mov	r4, r3
    8048:	1b18      	subs	r0, r3, r4
    804a:	bd70      	pop	{r4, r5, r6, pc}
    804c:	4635      	mov	r5, r6
    804e:	2b00      	cmp	r3, #0
    8050:	d1ed      	bne.n	802e <strncmp+0x8>
    8052:	e7f8      	b.n	8046 <strncmp+0x20>
    8054:	4610      	mov	r0, r2
    8056:	bd70      	pop	{r4, r5, r6, pc}

00008058 <_strtol_r>:
    8058:	e92d 47f0 	stmdb	sp!, {r4, r5, r6, r7, r8, r9, r10, lr}
    805c:	460f      	mov	r7, r1
    805e:	4c40      	ldr	r4, [pc, #256]	; (8160 <_strtol_r+0x108>)
    8060:	f8d4 9000 	ldr.w	r9, [r4]
    8064:	463d      	mov	r5, r7
    8066:	f815 eb01 	ldrb.w	lr, [r5], #1
    806a:	eb09 040e 	add.w	r4, r9, lr
    806e:	7866      	ldrb	r6, [r4, #1]
    8070:	f006 0408 	and.w	r4, r6, #8
    8074:	f004 06ff 	and.w	r6, r4, #255	; 0xff
    8078:	b10c      	cbz	r4, 807e <_strtol_r+0x26>
    807a:	462f      	mov	r7, r5
    807c:	e7f2      	b.n	8064 <_strtol_r+0xc>
    807e:	4674      	mov	r4, lr
    8080:	2c2d      	cmp	r4, #45	; 0x2d
    8082:	d103      	bne.n	808c <_strtol_r+0x34>
    8084:	1cbd      	adds	r5, r7, #2
    8086:	787c      	ldrb	r4, [r7, #1]
    8088:	2601      	movs	r6, #1
    808a:	e003      	b.n	8094 <_strtol_r+0x3c>
    808c:	2c2b      	cmp	r4, #43	; 0x2b
    808e:	bf04      	itt	eq
    8090:	787c      	ldrbeq	r4, [r7, #1]
    8092:	1cbd      	addeq	r5, r7, #2
    8094:	b113      	cbz	r3, 809c <_strtol_r+0x44>
    8096:	2b10      	cmp	r3, #16
    8098:	d10a      	bne.n	80b0 <_strtol_r+0x58>
    809a:	e05a      	b.n	8152 <_strtol_r+0xfa>
    809c:	2c30      	cmp	r4, #48	; 0x30
    809e:	d156      	bne.n	814e <_strtol_r+0xf6>
    80a0:	782c      	ldrb	r4, [r5, #0]
    80a2:	f004 04df 	and.w	r4, r4, #223	; 0xdf
    80a6:	2c58      	cmp	r4, #88	; 0x58
    80a8:	d14c      	bne.n	8144 <_strtol_r+0xec>
    80aa:	786c      	ldrb	r4, [r5, #1]
    80ac:	2310      	movs	r3, #16
    80ae:	3502      	adds	r5, #2
    80b0:	2e00      	cmp	r6, #0
    80b2:	bf14      	ite	ne
    80b4:	f04f 4800 	movne.w	r8, #2147483648	; 0x80000000
    80b8:	f06f 4800 	mvneq.w	r8, #2147483648	; 0x80000000
    80bc:	fbb8 faf3 	udiv	r10, r8, r3
    80c0:	2700      	movs	r7, #0
    80c2:	46be      	mov	lr, r7
    80c4:	fb03 881a 	mls	r8, r3, r10, r8
    80c8:	eb09 0c04 	add.w	r12, r9, r4
    80cc:	f89c c001 	ldrb.w	r12, [r12, #1]
    80d0:	f01c 0f04 	tst.w	r12, #4
    80d4:	d001      	beq.n	80da <_strtol_r+0x82>
    80d6:	3c30      	subs	r4, #48	; 0x30
    80d8:	e00b      	b.n	80f2 <_strtol_r+0x9a>
    80da:	f01c 0c03 	ands.w	r12, r12, #3
    80de:	d01b      	beq.n	8118 <_strtol_r+0xc0>
    80e0:	f1bc 0f01 	cmp.w	r12, #1
    80e4:	bf0c      	ite	eq
    80e6:	f04f 0c37 	moveq.w	r12, #55	; 0x37
    80ea:	f04f 0c57 	movne.w	r12, #87	; 0x57
    80ee:	ebcc 0404 	rsb	r4, r12, r4
    80f2:	429c      	cmp	r4, r3
    80f4:	da10      	bge.n	8118 <_strtol_r+0xc0>
    80f6:	f1b7 3fff 	cmp.w	r7, #4294967295
    80fa:	d00a      	beq.n	8112 <_strtol_r+0xba>
    80fc:	45d6      	cmp	lr, r10
    80fe:	d806      	bhi.n	810e <_strtol_r+0xb6>
    8100:	d101      	bne.n	8106 <_strtol_r+0xae>
    8102:	4544      	cmp	r4, r8
    8104:	dc03      	bgt.n	810e <_strtol_r+0xb6>
    8106:	fb03 4e0e 	mla	lr, r3, lr, r4
    810a:	2701      	movs	r7, #1
    810c:	e001      	b.n	8112 <_strtol_r+0xba>
    810e:	f04f 37ff 	mov.w	r7, #4294967295
    8112:	f815 4b01 	ldrb.w	r4, [r5], #1
    8116:	e7d7      	b.n	80c8 <_strtol_r+0x70>
    8118:	1c7c      	adds	r4, r7, #1
    811a:	4673      	mov	r3, lr
    811c:	d10a      	bne.n	8134 <_strtol_r+0xdc>
    811e:	2e00      	cmp	r6, #0
    8120:	f04f 0122 	mov.w	r1, #34	; 0x22
    8124:	bf14      	ite	ne
    8126:	f04f 4300 	movne.w	r3, #2147483648	; 0x80000000
    812a:	f06f 4300 	mvneq.w	r3, #2147483648	; 0x80000000
    812e:	6001      	str	r1, [r0, #0]
    8130:	b92a      	cbnz	r2, 813e <_strtol_r+0xe6>
    8132:	e011      	b.n	8158 <_strtol_r+0x100>
    8134:	b10e      	cbz	r6, 813a <_strtol_r+0xe2>
    8136:	f1ce 0300 	rsb	r3, lr, #0
    813a:	b16a      	cbz	r2, 8158 <_strtol_r+0x100>
    813c:	b107      	cbz	r7, 8140 <_strtol_r+0xe8>
    813e:	1e69      	subs	r1, r5, #1
    8140:	6011      	str	r1, [r2, #0]
    8142:	e009      	b.n	8158 <_strtol_r+0x100>
    8144:	2430      	movs	r4, #48	; 0x30
    8146:	2b00      	cmp	r3, #0
    8148:	d1b2      	bne.n	80b0 <_strtol_r+0x58>
    814a:	2308      	movs	r3, #8
    814c:	e7b0      	b.n	80b0 <_strtol_r+0x58>
    814e:	230a      	movs	r3, #10
    8150:	e7ae      	b.n	80b0 <_strtol_r+0x58>
    8152:	2c30      	cmp	r4, #48	; 0x30
    8154:	d1ac      	bne.n	80b0 <_strtol_r+0x58>
    8156:	e7a3      	b.n	80a0 <_strtol_r+0x48>
    8158:	4618      	mov	r0, r3
    815a:	e8bd 87f0 	ldmia.w	sp!, {r4, r5, r6, r7, r8, r9, r10, pc}
    815e:	bf00      	nop
    8160:	1000019c 	.word	0x1000019c

00008164 <_strtoul_r>:
    8164:	e92d 47f0 	stmdb	sp!, {r4, r5, r6, r7, r8, r9, r10, lr}
    8168:	460e      	mov	r6, r1
    816a:	4c3b      	ldr	r4, [pc, #236]	; (8258 <_strtoul_r+0xf4>)
    816c:	f8d4 9000 	ldr.w	r9, [r4]
    8170:	4635      	mov	r5, r6
    8172:	f815 eb01 	ldrb.w	lr, [r5], #1
    8176:	eb09 040e 	add.w	r4, r9, lr
    817a:	7867      	ldrb	r7, [r4, #1]
    817c:	f007 0408 	and.w	r4, r7, #8
    8180:	f004 07ff 	and.w	r7, r4, #255	; 0xff
    8184:	b10c      	cbz	r4, 818a <_strtoul_r+0x26>
    8186:	462e      	mov	r6, r5
    8188:	e7f2      	b.n	8170 <_strtoul_r+0xc>
    818a:	4674      	mov	r4, lr
    818c:	2c2d      	cmp	r4, #45	; 0x2d
    818e:	d103      	bne.n	8198 <_strtoul_r+0x34>
    8190:	1cb5      	adds	r5, r6, #2
    8192:	7874      	ldrb	r4, [r6, #1]
    8194:	2701      	movs	r7, #1
    8196:	e003      	b.n	81a0 <_strtoul_r+0x3c>
    8198:	2c2b      	cmp	r4, #43	; 0x2b
    819a:	bf04      	itt	eq
    819c:	7874      	ldrbeq	r4, [r6, #1]
    819e:	1cb5      	addeq	r5, r6, #2
    81a0:	b113      	cbz	r3, 81a8 <_strtoul_r+0x44>
    81a2:	2b10      	cmp	r3, #16
    81a4:	d10a      	bne.n	81bc <_strtoul_r+0x58>
    81a6:	e051      	b.n	824c <_strtoul_r+0xe8>
    81a8:	2c30      	cmp	r4, #48	; 0x30
    81aa:	d14d      	bne.n	8248 <_strtoul_r+0xe4>
    81ac:	782c      	ldrb	r4, [r5, #0]
    81ae:	f004 04df 	and.w	r4, r4, #223	; 0xdf
    81b2:	2c58      	cmp	r4, #88	; 0x58
    81b4:	d143      	bne.n	823e <_strtoul_r+0xda>
    81b6:	786c      	ldrb	r4, [r5, #1]
    81b8:	2310      	movs	r3, #16
    81ba:	3502      	adds	r5, #2
    81bc:	f04f 38ff 	mov.w	r8, #4294967295
    81c0:	fbb8 f8f3 	udiv	r8, r8, r3
    81c4:	fb03 fa08 	mul.w	r10, r3, r8
    81c8:	2600      	movs	r6, #0
    81ca:	ea6f 0a0a 	mvn.w	r10, r10
    81ce:	46b6      	mov	lr, r6
    81d0:	eb09 0c04 	add.w	r12, r9, r4
    81d4:	f89c c001 	ldrb.w	r12, [r12, #1]
    81d8:	f01c 0f04 	tst.w	r12, #4
    81dc:	d001      	beq.n	81e2 <_strtoul_r+0x7e>
    81de:	3c30      	subs	r4, #48	; 0x30
    81e0:	e00b      	b.n	81fa <_strtoul_r+0x96>
    81e2:	f01c 0c03 	ands.w	r12, r12, #3
    81e6:	d01b      	beq.n	8220 <_strtoul_r+0xbc>
    81e8:	f1bc 0f01 	cmp.w	r12, #1
    81ec:	bf0c      	ite	eq
    81ee:	f04f 0c37 	moveq.w	r12, #55	; 0x37
    81f2:	f04f 0c57 	movne.w	r12, #87	; 0x57
    81f6:	ebcc 0404 	rsb	r4, r12, r4
    81fa:	429c      	cmp	r4, r3
    81fc:	da10      	bge.n	8220 <_strtoul_r+0xbc>
    81fe:	f1b6 3fff 	cmp.w	r6, #4294967295
    8202:	d00a      	beq.n	821a <_strtoul_r+0xb6>
    8204:	45c6      	cmp	lr, r8
    8206:	d806      	bhi.n	8216 <_strtoul_r+0xb2>
    8208:	d101      	bne.n	820e <_strtoul_r+0xaa>
    820a:	4554      	cmp	r4, r10
    820c:	dc03      	bgt.n	8216 <_strtoul_r+0xb2>
    820e:	fb03 4e0e 	mla	lr, r3, lr, r4
    8212:	2601      	movs	r6, #1
    8214:	e001      	b.n	821a <_strtoul_r+0xb6>
    8216:	f04f 36ff 	mov.w	r6, #4294967295
    821a:	f815 4b01 	ldrb.w	r4, [r5], #1
    821e:	e7d7      	b.n	81d0 <_strtoul_r+0x6c>
    8220:	1c74      	adds	r4, r6, #1
    8222:	4673      	mov	r3, lr
    8224:	d103      	bne.n	822e <_strtoul_r+0xca>
    8226:	2322      	movs	r3, #34	; 0x22
    8228:	6003      	str	r3, [r0, #0]
    822a:	4633      	mov	r3, r6
    822c:	e002      	b.n	8234 <_strtoul_r+0xd0>
    822e:	b10f      	cbz	r7, 8234 <_strtoul_r+0xd0>
    8230:	f1ce 0300 	rsb	r3, lr, #0
    8234:	b16a      	cbz	r2, 8252 <_strtoul_r+0xee>
    8236:	b106      	cbz	r6, 823a <_strtoul_r+0xd6>
    8238:	1e69      	subs	r1, r5, #1
    823a:	6011      	str	r1, [r2, #0]
    823c:	e009      	b.n	8252 <_strtoul_r+0xee>
    823e:	2430      	movs	r4, #48	; 0x30
    8240:	2b00      	cmp	r3, #0
    8242:	d1bb      	bne.n	81bc <_strtoul_r+0x58>
    8244:	2308      	movs	r3, #8
    8246:	e7b9      	b.n	81bc <_strtoul_r+0x58>
    8248:	230a      	movs	r3, #10
    824a:	e7b7      	b.n	81bc <_strtoul_r+0x58>
    824c:	2c30      	cmp	r4, #48	; 0x30
    824e:	d1b5      	bne.n	81bc <_strtoul_r+0x58>
    8250:	e7ac      	b.n	81ac <_strtoul_r+0x48>
    8252:	4618      	mov	r0, r3
    8254:	e8bd 87f0 	ldmia.w	sp!, {r4, r5, r6, r7, r8, r9, r10, pc}
    8258:	1000019c 	.word	0x1000019c

0000825c <__submore>:
    825c:	e92d 41f0 	stmdb	sp!, {r4, r5, r6, r7, r8, lr}
    8260:	460c      	mov	r4, r1
    8262:	6b49      	ldr	r1, [r1, #52]	; 0x34
    8264:	f104 0344 	add.w	r3, r4, #68	; 0x44
    8268:	4299      	cmp	r1, r3
    826a:	d11a      	bne.n	82a2 <__submore+0x46>
    826c:	f44f 6180 	mov.w	r1, #1024	; 0x400
    8270:	f7fe ffd4 	bl	721c <_malloc_r>
    8274:	b918      	cbnz	r0, 827e <__submore+0x22>
    8276:	f04f 30ff 	mov.w	r0, #4294967295
    827a:	e8bd 81f0 	ldmia.w	sp!, {r4, r5, r6, r7, r8, pc}
    827e:	f44f 6380 	mov.w	r3, #1024	; 0x400
    8282:	63a3      	str	r3, [r4, #56]	; 0x38
    8284:	f894 3046 	ldrb.w	r3, [r4, #70]	; 0x46
    8288:	6360      	str	r0, [r4, #52]	; 0x34
    828a:	f880 33ff 	strb.w	r3, [r0, #1023]	; 0x3ff
    828e:	f894 3045 	ldrb.w	r3, [r4, #69]	; 0x45
    8292:	f200 30fd 	addw	r0, r0, #1021	; 0x3fd
    8296:	7043      	strb	r3, [r0, #1]
    8298:	f894 3044 	ldrb.w	r3, [r4, #68]	; 0x44
    829c:	7003      	strb	r3, [r0, #0]
    829e:	6020      	str	r0, [r4, #0]
    82a0:	e012      	b.n	82c8 <__submore+0x6c>
    82a2:	6ba6      	ldr	r6, [r4, #56]	; 0x38
    82a4:	0077      	lsls	r7, r6, #1
    82a6:	463a      	mov	r2, r7
    82a8:	f000 f960 	bl	856c <_realloc_r>
    82ac:	4605      	mov	r5, r0
    82ae:	2800      	cmp	r0, #0
    82b0:	d0e1      	beq.n	8276 <__submore+0x1a>
    82b2:	eb00 0806 	add.w	r8, r0, r6
    82b6:	4640      	mov	r0, r8
    82b8:	4629      	mov	r1, r5
    82ba:	4632      	mov	r2, r6
    82bc:	f7fe ff3c 	bl	7138 <memcpy>
    82c0:	f8c4 8000 	str.w	r8, [r4]
    82c4:	6365      	str	r5, [r4, #52]	; 0x34
    82c6:	63a7      	str	r7, [r4, #56]	; 0x38
    82c8:	2000      	movs	r0, #0
    82ca:	e8bd 81f0 	ldmia.w	sp!, {r4, r5, r6, r7, r8, pc}
	...

000082d0 <__swbuf_r>:
    82d0:	b570      	push	{r4, r5, r6, lr}
    82d2:	460d      	mov	r5, r1
    82d4:	4614      	mov	r4, r2
    82d6:	4606      	mov	r6, r0
    82d8:	b118      	cbz	r0, 82e2 <__swbuf_r+0x12>
    82da:	6983      	ldr	r3, [r0, #24]
    82dc:	b90b      	cbnz	r3, 82e2 <__swbuf_r+0x12>
    82de:	f7fe fcef 	bl	6cc0 <__sinit>
    82e2:	4b22      	ldr	r3, [pc, #136]	; (836c <__swbuf_r+0x9c>)
    82e4:	429c      	cmp	r4, r3
    82e6:	d101      	bne.n	82ec <__swbuf_r+0x1c>
    82e8:	6874      	ldr	r4, [r6, #4]
    82ea:	e008      	b.n	82fe <__swbuf_r+0x2e>
    82ec:	4b20      	ldr	r3, [pc, #128]	; (8370 <__swbuf_r+0xa0>)
    82ee:	429c      	cmp	r4, r3
    82f0:	d101      	bne.n	82f6 <__swbuf_r+0x26>
    82f2:	68b4      	ldr	r4, [r6, #8]
    82f4:	e003      	b.n	82fe <__swbuf_r+0x2e>
    82f6:	4b1f      	ldr	r3, [pc, #124]	; (8374 <__swbuf_r+0xa4>)
    82f8:	429c      	cmp	r4, r3
    82fa:	bf08      	it	eq
    82fc:	68f4      	ldreq	r4, [r6, #12]
    82fe:	69a3      	ldr	r3, [r4, #24]
    8300:	60a3      	str	r3, [r4, #8]
    8302:	89a3      	ldrh	r3, [r4, #12]
    8304:	071a      	lsls	r2, r3, #28
    8306:	d509      	bpl.n	831c <__swbuf_r+0x4c>
    8308:	6923      	ldr	r3, [r4, #16]
    830a:	b13b      	cbz	r3, 831c <__swbuf_r+0x4c>
    830c:	6823      	ldr	r3, [r4, #0]
    830e:	6920      	ldr	r0, [r4, #16]
    8310:	b2ed      	uxtb	r5, r5
    8312:	1a18      	subs	r0, r3, r0
    8314:	6963      	ldr	r3, [r4, #20]
    8316:	4298      	cmp	r0, r3
    8318:	db0f      	blt.n	833a <__swbuf_r+0x6a>
    831a:	e008      	b.n	832e <__swbuf_r+0x5e>
    831c:	4630      	mov	r0, r6
    831e:	4621      	mov	r1, r4
    8320:	f000 f83c 	bl	839c <__swsetup_r>
    8324:	2800      	cmp	r0, #0
    8326:	d0f1      	beq.n	830c <__swbuf_r+0x3c>
    8328:	f04f 30ff 	mov.w	r0, #4294967295
    832c:	bd70      	pop	{r4, r5, r6, pc}
    832e:	4630      	mov	r0, r6
    8330:	4621      	mov	r1, r4
    8332:	f7fe fc15 	bl	6b60 <_fflush_r>
    8336:	2800      	cmp	r0, #0
    8338:	d1f6      	bne.n	8328 <__swbuf_r+0x58>
    833a:	68a3      	ldr	r3, [r4, #8]
    833c:	3001      	adds	r0, #1
    833e:	3b01      	subs	r3, #1
    8340:	60a3      	str	r3, [r4, #8]
    8342:	6823      	ldr	r3, [r4, #0]
    8344:	1c5a      	adds	r2, r3, #1
    8346:	6022      	str	r2, [r4, #0]
    8348:	701d      	strb	r5, [r3, #0]
    834a:	6963      	ldr	r3, [r4, #20]
    834c:	4298      	cmp	r0, r3
    834e:	d004      	beq.n	835a <__swbuf_r+0x8a>
    8350:	89a3      	ldrh	r3, [r4, #12]
    8352:	07db      	lsls	r3, r3, #31
    8354:	d507      	bpl.n	8366 <__swbuf_r+0x96>
    8356:	2d0a      	cmp	r5, #10
    8358:	d105      	bne.n	8366 <__swbuf_r+0x96>
    835a:	4630      	mov	r0, r6
    835c:	4621      	mov	r1, r4
    835e:	f7fe fbff 	bl	6b60 <_fflush_r>
    8362:	2800      	cmp	r0, #0
    8364:	d1e0      	bne.n	8328 <__swbuf_r+0x58>
    8366:	4628      	mov	r0, r5
    8368:	bd70      	pop	{r4, r5, r6, pc}
    836a:	bf00      	nop
    836c:	000093d0 	.word	0x000093d0
    8370:	000093f0 	.word	0x000093f0
    8374:	00009410 	.word	0x00009410

00008378 <_write_r>:
    8378:	b538      	push	{r3, r4, r5, lr}
    837a:	4c07      	ldr	r4, [pc, #28]	; (8398 <_write_r+0x20>)
    837c:	4605      	mov	r5, r0
    837e:	2000      	movs	r0, #0
    8380:	6020      	str	r0, [r4, #0]
    8382:	4608      	mov	r0, r1
    8384:	4611      	mov	r1, r2
    8386:	461a      	mov	r2, r3
    8388:	f7fd faaa 	bl	58e0 <_write>
    838c:	1c43      	adds	r3, r0, #1
    838e:	d102      	bne.n	8396 <_write_r+0x1e>
    8390:	6823      	ldr	r3, [r4, #0]
    8392:	b103      	cbz	r3, 8396 <_write_r+0x1e>
    8394:	602b      	str	r3, [r5, #0]
    8396:	bd38      	pop	{r3, r4, r5, pc}
    8398:	10000b4c 	.word	0x10000b4c

0000839c <__swsetup_r>:
    839c:	4b31      	ldr	r3, [pc, #196]	; (8464 <__swsetup_r+0xc8>)
    839e:	b570      	push	{r4, r5, r6, lr}
    83a0:	681d      	ldr	r5, [r3, #0]
    83a2:	4606      	mov	r6, r0
    83a4:	460c      	mov	r4, r1
    83a6:	b125      	cbz	r5, 83b2 <__swsetup_r+0x16>
    83a8:	69ab      	ldr	r3, [r5, #24]
    83aa:	b913      	cbnz	r3, 83b2 <__swsetup_r+0x16>
    83ac:	4628      	mov	r0, r5
    83ae:	f7fe fc87 	bl	6cc0 <__sinit>
    83b2:	4b2d      	ldr	r3, [pc, #180]	; (8468 <__swsetup_r+0xcc>)
    83b4:	429c      	cmp	r4, r3
    83b6:	d101      	bne.n	83bc <__swsetup_r+0x20>
    83b8:	686c      	ldr	r4, [r5, #4]
    83ba:	e008      	b.n	83ce <__swsetup_r+0x32>
    83bc:	4b2b      	ldr	r3, [pc, #172]	; (846c <__swsetup_r+0xd0>)
    83be:	429c      	cmp	r4, r3
    83c0:	d101      	bne.n	83c6 <__swsetup_r+0x2a>
    83c2:	68ac      	ldr	r4, [r5, #8]
    83c4:	e003      	b.n	83ce <__swsetup_r+0x32>
    83c6:	4b2a      	ldr	r3, [pc, #168]	; (8470 <__swsetup_r+0xd4>)
    83c8:	429c      	cmp	r4, r3
    83ca:	bf08      	it	eq
    83cc:	68ec      	ldreq	r4, [r5, #12]
    83ce:	89a3      	ldrh	r3, [r4, #12]
    83d0:	b29a      	uxth	r2, r3
    83d2:	0711      	lsls	r1, r2, #28
    83d4:	d41d      	bmi.n	8412 <__swsetup_r+0x76>
    83d6:	06d5      	lsls	r5, r2, #27
    83d8:	d402      	bmi.n	83e0 <__swsetup_r+0x44>
    83da:	2209      	movs	r2, #9
    83dc:	6032      	str	r2, [r6, #0]
    83de:	e038      	b.n	8452 <__swsetup_r+0xb6>
    83e0:	0750      	lsls	r0, r2, #29
    83e2:	d512      	bpl.n	840a <__swsetup_r+0x6e>
    83e4:	6b61      	ldr	r1, [r4, #52]	; 0x34
    83e6:	b141      	cbz	r1, 83fa <__swsetup_r+0x5e>
    83e8:	f104 0344 	add.w	r3, r4, #68	; 0x44
    83ec:	4299      	cmp	r1, r3
    83ee:	d002      	beq.n	83f6 <__swsetup_r+0x5a>
    83f0:	4630      	mov	r0, r6
    83f2:	f7fe fecf 	bl	7194 <_free_r>
    83f6:	2300      	movs	r3, #0
    83f8:	6363      	str	r3, [r4, #52]	; 0x34
    83fa:	89a3      	ldrh	r3, [r4, #12]
    83fc:	f023 0324 	bic.w	r3, r3, #36	; 0x24
    8400:	81a3      	strh	r3, [r4, #12]
    8402:	2300      	movs	r3, #0
    8404:	6063      	str	r3, [r4, #4]
    8406:	6923      	ldr	r3, [r4, #16]
    8408:	6023      	str	r3, [r4, #0]
    840a:	89a3      	ldrh	r3, [r4, #12]
    840c:	f043 0308 	orr.w	r3, r3, #8
    8410:	81a3      	strh	r3, [r4, #12]
    8412:	6923      	ldr	r3, [r4, #16]
    8414:	b94b      	cbnz	r3, 842a <__swsetup_r+0x8e>
    8416:	89a3      	ldrh	r3, [r4, #12]
    8418:	f403 7320 	and.w	r3, r3, #640	; 0x280
    841c:	f5b3 7f00 	cmp.w	r3, #512	; 0x200
    8420:	d003      	beq.n	842a <__swsetup_r+0x8e>
    8422:	4630      	mov	r0, r6
    8424:	4621      	mov	r1, r4
    8426:	f7fe fe1d 	bl	7064 <__smakebuf_r>
    842a:	89a3      	ldrh	r3, [r4, #12]
    842c:	f013 0201 	ands.w	r2, r3, #1
    8430:	d005      	beq.n	843e <__swsetup_r+0xa2>
    8432:	2200      	movs	r2, #0
    8434:	60a2      	str	r2, [r4, #8]
    8436:	6962      	ldr	r2, [r4, #20]
    8438:	4252      	negs	r2, r2
    843a:	61a2      	str	r2, [r4, #24]
    843c:	e003      	b.n	8446 <__swsetup_r+0xaa>
    843e:	0799      	lsls	r1, r3, #30
    8440:	bf58      	it	pl
    8442:	6962      	ldrpl	r2, [r4, #20]
    8444:	60a2      	str	r2, [r4, #8]
    8446:	6922      	ldr	r2, [r4, #16]
    8448:	b94a      	cbnz	r2, 845e <__swsetup_r+0xc2>
    844a:	f003 0080 	and.w	r0, r3, #128	; 0x80
    844e:	b280      	uxth	r0, r0
    8450:	b130      	cbz	r0, 8460 <__swsetup_r+0xc4>
    8452:	f043 0340 	orr.w	r3, r3, #64	; 0x40
    8456:	81a3      	strh	r3, [r4, #12]
    8458:	f04f 30ff 	mov.w	r0, #4294967295
    845c:	bd70      	pop	{r4, r5, r6, pc}
    845e:	2000      	movs	r0, #0
    8460:	bd70      	pop	{r4, r5, r6, pc}
    8462:	bf00      	nop
    8464:	10000198 	.word	0x10000198
    8468:	000093d0 	.word	0x000093d0
    846c:	000093f0 	.word	0x000093f0
    8470:	00009410 	.word	0x00009410

00008474 <_close_r>:
    8474:	b538      	push	{r3, r4, r5, lr}
    8476:	4c06      	ldr	r4, [pc, #24]	; (8490 <_close_r+0x1c>)
    8478:	2300      	movs	r3, #0
    847a:	4605      	mov	r5, r0
    847c:	4608      	mov	r0, r1
    847e:	6023      	str	r3, [r4, #0]
    8480:	f7fd fa1a 	bl	58b8 <_close>
    8484:	1c43      	adds	r3, r0, #1
    8486:	d102      	bne.n	848e <_close_r+0x1a>
    8488:	6823      	ldr	r3, [r4, #0]
    848a:	b103      	cbz	r3, 848e <_close_r+0x1a>
    848c:	602b      	str	r3, [r5, #0]
    848e:	bd38      	pop	{r3, r4, r5, pc}
    8490:	10000b4c 	.word	0x10000b4c

00008494 <__sflags>:
    8494:	780b      	ldrb	r3, [r1, #0]
    8496:	b530      	push	{r4, r5, lr}
    8498:	2b72      	cmp	r3, #114	; 0x72
    849a:	d00e      	beq.n	84ba <__sflags+0x26>
    849c:	2b77      	cmp	r3, #119	; 0x77
    849e:	d007      	beq.n	84b0 <__sflags+0x1c>
    84a0:	2b61      	cmp	r3, #97	; 0x61
    84a2:	d10e      	bne.n	84c2 <__sflags+0x2e>
    84a4:	f44f 7402 	mov.w	r4, #520	; 0x208
    84a8:	2301      	movs	r3, #1
    84aa:	f44f 7084 	mov.w	r0, #264	; 0x108
    84ae:	e01a      	b.n	84e6 <__sflags+0x52>
    84b0:	f44f 64c0 	mov.w	r4, #1536	; 0x600
    84b4:	2301      	movs	r3, #1
    84b6:	2008      	movs	r0, #8
    84b8:	e015      	b.n	84e6 <__sflags+0x52>
    84ba:	2400      	movs	r4, #0
    84bc:	4623      	mov	r3, r4
    84be:	2004      	movs	r0, #4
    84c0:	e011      	b.n	84e6 <__sflags+0x52>
    84c2:	2316      	movs	r3, #22
    84c4:	6003      	str	r3, [r0, #0]
    84c6:	2000      	movs	r0, #0
    84c8:	bd30      	pop	{r4, r5, pc}
    84ca:	2d62      	cmp	r5, #98	; 0x62
    84cc:	d010      	beq.n	84f0 <__sflags+0x5c>
    84ce:	2d78      	cmp	r5, #120	; 0x78
    84d0:	d011      	beq.n	84f6 <__sflags+0x62>
    84d2:	2d2b      	cmp	r5, #43	; 0x2b
    84d4:	d107      	bne.n	84e6 <__sflags+0x52>
    84d6:	f020 001c 	bic.w	r0, r0, #28
    84da:	f023 0303 	bic.w	r3, r3, #3
    84de:	f040 0010 	orr.w	r0, r0, #16
    84e2:	f043 0302 	orr.w	r3, r3, #2
    84e6:	f811 5f01 	ldrb.w	r5, [r1, #1]!
    84ea:	2d00      	cmp	r5, #0
    84ec:	d1ed      	bne.n	84ca <__sflags+0x36>
    84ee:	e005      	b.n	84fc <__sflags+0x68>
    84f0:	f443 3380 	orr.w	r3, r3, #65536	; 0x10000
    84f4:	e7f7      	b.n	84e6 <__sflags+0x52>
    84f6:	f443 6300 	orr.w	r3, r3, #2048	; 0x800
    84fa:	e7f4      	b.n	84e6 <__sflags+0x52>
    84fc:	4323      	orrs	r3, r4
    84fe:	6013      	str	r3, [r2, #0]
    8500:	bd30      	pop	{r4, r5, pc}
	...

00008504 <_fstat_r>:
    8504:	b538      	push	{r3, r4, r5, lr}
    8506:	4c07      	ldr	r4, [pc, #28]	; (8524 <_fstat_r+0x20>)
    8508:	2300      	movs	r3, #0
    850a:	4605      	mov	r5, r0
    850c:	4608      	mov	r0, r1
    850e:	4611      	mov	r1, r2
    8510:	6023      	str	r3, [r4, #0]
    8512:	f7fd fa51 	bl	59b8 <_fstat>
    8516:	1c43      	adds	r3, r0, #1
    8518:	d102      	bne.n	8520 <_fstat_r+0x1c>
    851a:	6823      	ldr	r3, [r4, #0]
    851c:	b103      	cbz	r3, 8520 <_fstat_r+0x1c>
    851e:	602b      	str	r3, [r5, #0]
    8520:	bd38      	pop	{r3, r4, r5, pc}
    8522:	bf00      	nop
    8524:	10000b4c 	.word	0x10000b4c

00008528 <_isatty_r>:
    8528:	b538      	push	{r3, r4, r5, lr}
    852a:	4c06      	ldr	r4, [pc, #24]	; (8544 <_isatty_r+0x1c>)
    852c:	2300      	movs	r3, #0
    852e:	4605      	mov	r5, r0
    8530:	4608      	mov	r0, r1
    8532:	6023      	str	r3, [r4, #0]
    8534:	f7fb fc64 	bl	3e00 <__wrap__isatty>
    8538:	1c43      	adds	r3, r0, #1
    853a:	d102      	bne.n	8542 <_isatty_r+0x1a>
    853c:	6823      	ldr	r3, [r4, #0]
    853e:	b103      	cbz	r3, 8542 <_isatty_r+0x1a>
    8540:	602b      	str	r3, [r5, #0]
    8542:	bd38      	pop	{r3, r4, r5, pc}
    8544:	10000b4c 	.word	0x10000b4c

00008548 <_lseek_r>:
    8548:	b538      	push	{r3, r4, r5, lr}
    854a:	4c07      	ldr	r4, [pc, #28]	; (8568 <_lseek_r+0x20>)
    854c:	4605      	mov	r5, r0
    854e:	2000      	movs	r0, #0
    8550:	6020      	str	r0, [r4, #0]
    8552:	4608      	mov	r0, r1
    8554:	4611      	mov	r1, r2
    8556:	461a      	mov	r2, r3
    8558:	f7fd fa1c 	bl	5994 <_lseek>
    855c:	1c43      	adds	r3, r0, #1
    855e:	d102      	bne.n	8566 <_lseek_r+0x1e>
    8560:	6823      	ldr	r3, [r4, #0]
    8562:	b103      	cbz	r3, 8566 <_lseek_r+0x1e>
    8564:	602b      	str	r3, [r5, #0]
    8566:	bd38      	pop	{r3, r4, r5, pc}
    8568:	10000b4c 	.word	0x10000b4c

0000856c <_realloc_r>:
    856c:	b5f8      	push	{r3, r4, r5, r6, r7, lr}
    856e:	4607      	mov	r7, r0
    8570:	4615      	mov	r5, r2
    8572:	460e      	mov	r6, r1
    8574:	b921      	cbnz	r1, 8580 <_realloc_r+0x14>
    8576:	4611      	mov	r1, r2
    8578:	e8bd 40f8 	ldmia.w	sp!, {r3, r4, r5, r6, r7, lr}
    857c:	f7fe be4e 	b.w	721c <_malloc_r>
    8580:	b91a      	cbnz	r2, 858a <_realloc_r+0x1e>
    8582:	f7fe fe07 	bl	7194 <_free_r>
    8586:	4628      	mov	r0, r5
    8588:	bdf8      	pop	{r3, r4, r5, r6, r7, pc}
    858a:	f000 fb1b 	bl	8bc4 <_malloc_usable_size_r>
    858e:	42a8      	cmp	r0, r5
    8590:	d20e      	bcs.n	85b0 <_realloc_r+0x44>
    8592:	4638      	mov	r0, r7
    8594:	4629      	mov	r1, r5
    8596:	f7fe fe41 	bl	721c <_malloc_r>
    859a:	4604      	mov	r4, r0
    859c:	b150      	cbz	r0, 85b4 <_realloc_r+0x48>
    859e:	4631      	mov	r1, r6
    85a0:	462a      	mov	r2, r5
    85a2:	f7fe fdc9 	bl	7138 <memcpy>
    85a6:	4638      	mov	r0, r7
    85a8:	4631      	mov	r1, r6
    85aa:	f7fe fdf3 	bl	7194 <_free_r>
    85ae:	e001      	b.n	85b4 <_realloc_r+0x48>
    85b0:	4630      	mov	r0, r6
    85b2:	bdf8      	pop	{r3, r4, r5, r6, r7, pc}
    85b4:	4620      	mov	r0, r4
    85b6:	bdf8      	pop	{r3, r4, r5, r6, r7, pc}

000085b8 <__ssputs_r>:
    85b8:	e92d 47f0 	stmdb	sp!, {r4, r5, r6, r7, r8, r9, r10, lr}
    85bc:	688e      	ldr	r6, [r1, #8]
    85be:	4682      	mov	r10, r0
    85c0:	42b3      	cmp	r3, r6
    85c2:	460c      	mov	r4, r1
    85c4:	4690      	mov	r8, r2
    85c6:	4699      	mov	r9, r3
    85c8:	d340      	bcc.n	864c <__ssputs_r+0x94>
    85ca:	898a      	ldrh	r2, [r1, #12]
    85cc:	f412 6f90 	tst.w	r2, #1152	; 0x480
    85d0:	d03a      	beq.n	8648 <__ssputs_r+0x90>
    85d2:	6825      	ldr	r5, [r4, #0]
    85d4:	6909      	ldr	r1, [r1, #16]
    85d6:	2302      	movs	r3, #2
    85d8:	1a6f      	subs	r7, r5, r1
    85da:	6965      	ldr	r5, [r4, #20]
    85dc:	eb05 0545 	add.w	r5, r5, r5, lsl #1
    85e0:	fb95 f5f3 	sdiv	r5, r5, r3
    85e4:	1c7b      	adds	r3, r7, #1
    85e6:	444b      	add	r3, r9
    85e8:	429d      	cmp	r5, r3
    85ea:	bf38      	it	cc
    85ec:	461d      	movcc	r5, r3
    85ee:	0553      	lsls	r3, r2, #21
    85f0:	d50f      	bpl.n	8612 <__ssputs_r+0x5a>
    85f2:	4629      	mov	r1, r5
    85f4:	f7fe fe12 	bl	721c <_malloc_r>
    85f8:	4606      	mov	r6, r0
    85fa:	b198      	cbz	r0, 8624 <__ssputs_r+0x6c>
    85fc:	6921      	ldr	r1, [r4, #16]
    85fe:	463a      	mov	r2, r7
    8600:	f7fe fd9a 	bl	7138 <memcpy>
    8604:	89a3      	ldrh	r3, [r4, #12]
    8606:	f423 6390 	bic.w	r3, r3, #1152	; 0x480
    860a:	f043 0380 	orr.w	r3, r3, #128	; 0x80
    860e:	81a3      	strh	r3, [r4, #12]
    8610:	e013      	b.n	863a <__ssputs_r+0x82>
    8612:	462a      	mov	r2, r5
    8614:	f7ff ffaa 	bl	856c <_realloc_r>
    8618:	4606      	mov	r6, r0
    861a:	b970      	cbnz	r0, 863a <__ssputs_r+0x82>
    861c:	4650      	mov	r0, r10
    861e:	6921      	ldr	r1, [r4, #16]
    8620:	f7fe fdb8 	bl	7194 <_free_r>
    8624:	230c      	movs	r3, #12
    8626:	f8ca 3000 	str.w	r3, [r10]
    862a:	89a3      	ldrh	r3, [r4, #12]
    862c:	f04f 30ff 	mov.w	r0, #4294967295
    8630:	f043 0340 	orr.w	r3, r3, #64	; 0x40
    8634:	81a3      	strh	r3, [r4, #12]
    8636:	e8bd 87f0 	ldmia.w	sp!, {r4, r5, r6, r7, r8, r9, r10, pc}
    863a:	6126      	str	r6, [r4, #16]
    863c:	443e      	add	r6, r7
    863e:	6026      	str	r6, [r4, #0]
    8640:	464e      	mov	r6, r9
    8642:	6165      	str	r5, [r4, #20]
    8644:	1bed      	subs	r5, r5, r7
    8646:	60a5      	str	r5, [r4, #8]
    8648:	45b1      	cmp	r9, r6
    864a:	d200      	bcs.n	864e <__ssputs_r+0x96>
    864c:	464e      	mov	r6, r9
    864e:	4632      	mov	r2, r6
    8650:	6820      	ldr	r0, [r4, #0]
    8652:	4641      	mov	r1, r8
    8654:	f7fe fd7b 	bl	714e <memmove>
    8658:	68a3      	ldr	r3, [r4, #8]
    865a:	2000      	movs	r0, #0
    865c:	1b9b      	subs	r3, r3, r6
    865e:	60a3      	str	r3, [r4, #8]
    8660:	6823      	ldr	r3, [r4, #0]
    8662:	441e      	add	r6, r3
    8664:	6026      	str	r6, [r4, #0]
    8666:	e8bd 87f0 	ldmia.w	sp!, {r4, r5, r6, r7, r8, r9, r10, pc}
	...

0000866c <_svfiprintf_r>:
    866c:	e92d 43f0 	stmdb	sp!, {r4, r5, r6, r7, r8, r9, lr}
    8670:	b09d      	sub	sp, #116	; 0x74
    8672:	9303      	str	r3, [sp, #12]
    8674:	898b      	ldrh	r3, [r1, #12]
    8676:	4606      	mov	r6, r0
    8678:	061c      	lsls	r4, r3, #24
    867a:	460d      	mov	r5, r1
    867c:	4690      	mov	r8, r2
    867e:	d50c      	bpl.n	869a <_svfiprintf_r+0x2e>
    8680:	690b      	ldr	r3, [r1, #16]
    8682:	b953      	cbnz	r3, 869a <_svfiprintf_r+0x2e>
    8684:	2140      	movs	r1, #64	; 0x40
    8686:	f7fe fdc9 	bl	721c <_malloc_r>
    868a:	6028      	str	r0, [r5, #0]
    868c:	6128      	str	r0, [r5, #16]
    868e:	b910      	cbnz	r0, 8696 <_svfiprintf_r+0x2a>
    8690:	230c      	movs	r3, #12
    8692:	6033      	str	r3, [r6, #0]
    8694:	e0cc      	b.n	8830 <_svfiprintf_r+0x1c4>
    8696:	2340      	movs	r3, #64	; 0x40
    8698:	616b      	str	r3, [r5, #20]
    869a:	2300      	movs	r3, #0
    869c:	9309      	str	r3, [sp, #36]	; 0x24
    869e:	2320      	movs	r3, #32
    86a0:	f88d 3029 	strb.w	r3, [sp, #41]	; 0x29
    86a4:	2330      	movs	r3, #48	; 0x30
    86a6:	f88d 302a 	strb.w	r3, [sp, #42]	; 0x2a
    86aa:	4643      	mov	r3, r8
    86ac:	461c      	mov	r4, r3
    86ae:	f813 2b01 	ldrb.w	r2, [r3], #1
    86b2:	b91a      	cbnz	r2, 86bc <_svfiprintf_r+0x50>
    86b4:	ebb4 0908 	subs.w	r9, r4, r8
    86b8:	d00f      	beq.n	86da <_svfiprintf_r+0x6e>
    86ba:	e002      	b.n	86c2 <_svfiprintf_r+0x56>
    86bc:	2a25      	cmp	r2, #37	; 0x25
    86be:	d1f5      	bne.n	86ac <_svfiprintf_r+0x40>
    86c0:	e7f8      	b.n	86b4 <_svfiprintf_r+0x48>
    86c2:	4630      	mov	r0, r6
    86c4:	4629      	mov	r1, r5
    86c6:	4642      	mov	r2, r8
    86c8:	464b      	mov	r3, r9
    86ca:	f7ff ff75 	bl	85b8 <__ssputs_r>
    86ce:	3001      	adds	r0, #1
    86d0:	f000 80a9 	beq.w	8826 <_svfiprintf_r+0x1ba>
    86d4:	9b09      	ldr	r3, [sp, #36]	; 0x24
    86d6:	444b      	add	r3, r9
    86d8:	9309      	str	r3, [sp, #36]	; 0x24
    86da:	7823      	ldrb	r3, [r4, #0]
    86dc:	2b00      	cmp	r3, #0
    86de:	f000 80a2 	beq.w	8826 <_svfiprintf_r+0x1ba>
    86e2:	2300      	movs	r3, #0
    86e4:	f04f 32ff 	mov.w	r2, #4294967295
    86e8:	9304      	str	r3, [sp, #16]
    86ea:	9307      	str	r3, [sp, #28]
    86ec:	9205      	str	r2, [sp, #20]
    86ee:	9306      	str	r3, [sp, #24]
    86f0:	f88d 3053 	strb.w	r3, [sp, #83]	; 0x53
    86f4:	931a      	str	r3, [sp, #104]	; 0x68
    86f6:	f104 0801 	add.w	r8, r4, #1
    86fa:	4644      	mov	r4, r8
    86fc:	f8df 9148 	ldr.w	r9, [pc, #328]	; 8848 <_svfiprintf_r+0x1dc>
    8700:	7821      	ldrb	r1, [r4, #0]
    8702:	4648      	mov	r0, r9
    8704:	2205      	movs	r2, #5
    8706:	f7fe fd09 	bl	711c <memchr>
    870a:	f108 0801 	add.w	r8, r8, #1
    870e:	9b04      	ldr	r3, [sp, #16]
    8710:	b130      	cbz	r0, 8720 <_svfiprintf_r+0xb4>
    8712:	ebc9 0000 	rsb	r0, r9, r0
    8716:	2201      	movs	r2, #1
    8718:	4082      	lsls	r2, r0
    871a:	4313      	orrs	r3, r2
    871c:	9304      	str	r3, [sp, #16]
    871e:	e7ec      	b.n	86fa <_svfiprintf_r+0x8e>
    8720:	06d8      	lsls	r0, r3, #27
    8722:	bf44      	itt	mi
    8724:	2220      	movmi	r2, #32
    8726:	f88d 2053 	strbmi.w	r2, [sp, #83]	; 0x53
    872a:	0719      	lsls	r1, r3, #28
    872c:	bf44      	itt	mi
    872e:	222b      	movmi	r2, #43	; 0x2b
    8730:	f88d 2053 	strbmi.w	r2, [sp, #83]	; 0x53
    8734:	7822      	ldrb	r2, [r4, #0]
    8736:	2a2a      	cmp	r2, #42	; 0x2a
    8738:	d002      	beq.n	8740 <_svfiprintf_r+0xd4>
    873a:	9907      	ldr	r1, [sp, #28]
    873c:	4623      	mov	r3, r4
    873e:	e00e      	b.n	875e <_svfiprintf_r+0xf2>
    8740:	9a03      	ldr	r2, [sp, #12]
    8742:	3401      	adds	r4, #1
    8744:	1d11      	adds	r1, r2, #4
    8746:	6812      	ldr	r2, [r2, #0]
    8748:	9103      	str	r1, [sp, #12]
    874a:	2a00      	cmp	r2, #0
    874c:	bfbb      	ittet	lt
    874e:	4252      	neglt	r2, r2
    8750:	f043 0302 	orrlt.w	r3, r3, #2
    8754:	9207      	strge	r2, [sp, #28]
    8756:	9207      	strlt	r2, [sp, #28]
    8758:	bfb8      	it	lt
    875a:	9304      	strlt	r3, [sp, #16]
    875c:	e00a      	b.n	8774 <_svfiprintf_r+0x108>
    875e:	461c      	mov	r4, r3
    8760:	7822      	ldrb	r2, [r4, #0]
    8762:	3301      	adds	r3, #1
    8764:	3a30      	subs	r2, #48	; 0x30
    8766:	2a09      	cmp	r2, #9
    8768:	d803      	bhi.n	8772 <_svfiprintf_r+0x106>
    876a:	200a      	movs	r0, #10
    876c:	fb00 2101 	mla	r1, r0, r1, r2
    8770:	e7f5      	b.n	875e <_svfiprintf_r+0xf2>
    8772:	9107      	str	r1, [sp, #28]
    8774:	7823      	ldrb	r3, [r4, #0]
    8776:	2b2e      	cmp	r3, #46	; 0x2e
    8778:	d11a      	bne.n	87b0 <_svfiprintf_r+0x144>
    877a:	7863      	ldrb	r3, [r4, #1]
    877c:	2b2a      	cmp	r3, #42	; 0x2a
    877e:	d10a      	bne.n	8796 <_svfiprintf_r+0x12a>
    8780:	9b03      	ldr	r3, [sp, #12]
    8782:	3402      	adds	r4, #2
    8784:	1d1a      	adds	r2, r3, #4
    8786:	681b      	ldr	r3, [r3, #0]
    8788:	9203      	str	r2, [sp, #12]
    878a:	2b00      	cmp	r3, #0
    878c:	bfb8      	it	lt
    878e:	f04f 33ff 	movlt.w	r3, #4294967295
    8792:	9305      	str	r3, [sp, #20]
    8794:	e00c      	b.n	87b0 <_svfiprintf_r+0x144>
    8796:	1c61      	adds	r1, r4, #1
    8798:	2200      	movs	r2, #0
    879a:	460c      	mov	r4, r1
    879c:	7823      	ldrb	r3, [r4, #0]
    879e:	3101      	adds	r1, #1
    87a0:	3b30      	subs	r3, #48	; 0x30
    87a2:	2b09      	cmp	r3, #9
    87a4:	d803      	bhi.n	87ae <_svfiprintf_r+0x142>
    87a6:	200a      	movs	r0, #10
    87a8:	fb00 3202 	mla	r2, r0, r2, r3
    87ac:	e7f5      	b.n	879a <_svfiprintf_r+0x12e>
    87ae:	9205      	str	r2, [sp, #20]
    87b0:	f8df 8098 	ldr.w	r8, [pc, #152]	; 884c <_svfiprintf_r+0x1e0>
    87b4:	7821      	ldrb	r1, [r4, #0]
    87b6:	4640      	mov	r0, r8
    87b8:	2203      	movs	r2, #3
    87ba:	f7fe fcaf 	bl	711c <memchr>
    87be:	b138      	cbz	r0, 87d0 <_svfiprintf_r+0x164>
    87c0:	9a04      	ldr	r2, [sp, #16]
    87c2:	ebc8 0000 	rsb	r0, r8, r0
    87c6:	2340      	movs	r3, #64	; 0x40
    87c8:	4083      	lsls	r3, r0
    87ca:	4313      	orrs	r3, r2
    87cc:	9304      	str	r3, [sp, #16]
    87ce:	3401      	adds	r4, #1
    87d0:	7821      	ldrb	r1, [r4, #0]
    87d2:	481a      	ldr	r0, [pc, #104]	; (883c <_svfiprintf_r+0x1d0>)
    87d4:	2206      	movs	r2, #6
    87d6:	f104 0801 	add.w	r8, r4, #1
    87da:	f88d 1028 	strb.w	r1, [sp, #40]	; 0x28
    87de:	f7fe fc9d 	bl	711c <memchr>
    87e2:	b188      	cbz	r0, 8808 <_svfiprintf_r+0x19c>
    87e4:	4b16      	ldr	r3, [pc, #88]	; (8840 <_svfiprintf_r+0x1d4>)
    87e6:	b933      	cbnz	r3, 87f6 <_svfiprintf_r+0x18a>
    87e8:	9b03      	ldr	r3, [sp, #12]
    87ea:	3307      	adds	r3, #7
    87ec:	f023 0307 	bic.w	r3, r3, #7
    87f0:	3308      	adds	r3, #8
    87f2:	9303      	str	r3, [sp, #12]
    87f4:	e013      	b.n	881e <_svfiprintf_r+0x1b2>
    87f6:	ab03      	add	r3, sp, #12
    87f8:	9300      	str	r3, [sp, #0]
    87fa:	4630      	mov	r0, r6
    87fc:	a904      	add	r1, sp, #16
    87fe:	462a      	mov	r2, r5
    8800:	4b10      	ldr	r3, [pc, #64]	; (8844 <_svfiprintf_r+0x1d8>)
    8802:	f3af 8000 	nop.w
    8806:	e007      	b.n	8818 <_svfiprintf_r+0x1ac>
    8808:	ab03      	add	r3, sp, #12
    880a:	9300      	str	r3, [sp, #0]
    880c:	4630      	mov	r0, r6
    880e:	a904      	add	r1, sp, #16
    8810:	462a      	mov	r2, r5
    8812:	4b0c      	ldr	r3, [pc, #48]	; (8844 <_svfiprintf_r+0x1d8>)
    8814:	f7fe ff0c 	bl	7630 <_printf_i>
    8818:	1c42      	adds	r2, r0, #1
    881a:	4607      	mov	r7, r0
    881c:	d003      	beq.n	8826 <_svfiprintf_r+0x1ba>
    881e:	9b09      	ldr	r3, [sp, #36]	; 0x24
    8820:	443b      	add	r3, r7
    8822:	9309      	str	r3, [sp, #36]	; 0x24
    8824:	e741      	b.n	86aa <_svfiprintf_r+0x3e>
    8826:	89ab      	ldrh	r3, [r5, #12]
    8828:	065b      	lsls	r3, r3, #25
    882a:	d401      	bmi.n	8830 <_svfiprintf_r+0x1c4>
    882c:	9809      	ldr	r0, [sp, #36]	; 0x24
    882e:	e001      	b.n	8834 <_svfiprintf_r+0x1c8>
    8830:	f04f 30ff 	mov.w	r0, #4294967295
    8834:	b01d      	add	sp, #116	; 0x74
    8836:	e8bd 83f0 	ldmia.w	sp!, {r4, r5, r6, r7, r8, r9, pc}
    883a:	bf00      	nop
    883c:	00009442 	.word	0x00009442
    8840:	00000000 	.word	0x00000000
    8844:	000085b9 	.word	0x000085b9
    8848:	00009438 	.word	0x00009438
    884c:	0000943e 	.word	0x0000943e

00008850 <_sungetc_r>:
    8850:	b538      	push	{r3, r4, r5, lr}
    8852:	1c4b      	adds	r3, r1, #1
    8854:	4614      	mov	r4, r2
    8856:	d102      	bne.n	885e <_sungetc_r+0xe>
    8858:	f04f 30ff 	mov.w	r0, #4294967295
    885c:	bd38      	pop	{r3, r4, r5, pc}
    885e:	8993      	ldrh	r3, [r2, #12]
    8860:	b2cd      	uxtb	r5, r1
    8862:	f023 0320 	bic.w	r3, r3, #32
    8866:	8193      	strh	r3, [r2, #12]
    8868:	6b53      	ldr	r3, [r2, #52]	; 0x34
    886a:	6852      	ldr	r2, [r2, #4]
    886c:	b183      	cbz	r3, 8890 <_sungetc_r+0x40>
    886e:	6ba3      	ldr	r3, [r4, #56]	; 0x38
    8870:	429a      	cmp	r2, r3
    8872:	da07      	bge.n	8884 <_sungetc_r+0x34>
    8874:	6823      	ldr	r3, [r4, #0]
    8876:	1e5a      	subs	r2, r3, #1
    8878:	6022      	str	r2, [r4, #0]
    887a:	f803 5c01 	strb.w	r5, [r3, #-1]
    887e:	6863      	ldr	r3, [r4, #4]
    8880:	3301      	adds	r3, #1
    8882:	e01f      	b.n	88c4 <_sungetc_r+0x74>
    8884:	4621      	mov	r1, r4
    8886:	f7ff fce9 	bl	825c <__submore>
    888a:	2800      	cmp	r0, #0
    888c:	d0f2      	beq.n	8874 <_sungetc_r+0x24>
    888e:	e7e3      	b.n	8858 <_sungetc_r+0x8>
    8890:	6921      	ldr	r1, [r4, #16]
    8892:	6823      	ldr	r3, [r4, #0]
    8894:	b151      	cbz	r1, 88ac <_sungetc_r+0x5c>
    8896:	428b      	cmp	r3, r1
    8898:	d908      	bls.n	88ac <_sungetc_r+0x5c>
    889a:	f813 0c01 	ldrb.w	r0, [r3, #-1]
    889e:	42a8      	cmp	r0, r5
    88a0:	d104      	bne.n	88ac <_sungetc_r+0x5c>
    88a2:	3b01      	subs	r3, #1
    88a4:	3201      	adds	r2, #1
    88a6:	6023      	str	r3, [r4, #0]
    88a8:	6062      	str	r2, [r4, #4]
    88aa:	bd38      	pop	{r3, r4, r5, pc}
    88ac:	63e3      	str	r3, [r4, #60]	; 0x3c
    88ae:	f104 0344 	add.w	r3, r4, #68	; 0x44
    88b2:	6363      	str	r3, [r4, #52]	; 0x34
    88b4:	2303      	movs	r3, #3
    88b6:	63a3      	str	r3, [r4, #56]	; 0x38
    88b8:	4623      	mov	r3, r4
    88ba:	6422      	str	r2, [r4, #64]	; 0x40
    88bc:	f803 5f46 	strb.w	r5, [r3, #70]!
    88c0:	6023      	str	r3, [r4, #0]
    88c2:	2301      	movs	r3, #1
    88c4:	6063      	str	r3, [r4, #4]
    88c6:	4628      	mov	r0, r5
    88c8:	bd38      	pop	{r3, r4, r5, pc}

000088ca <__ssrefill_r>:
    88ca:	b510      	push	{r4, lr}
    88cc:	460c      	mov	r4, r1
    88ce:	6b49      	ldr	r1, [r1, #52]	; 0x34
    88d0:	b169      	cbz	r1, 88ee <__ssrefill_r+0x24>
    88d2:	f104 0344 	add.w	r3, r4, #68	; 0x44
    88d6:	4299      	cmp	r1, r3
    88d8:	d001      	beq.n	88de <__ssrefill_r+0x14>
    88da:	f7fe fc5b 	bl	7194 <_free_r>
    88de:	6c23      	ldr	r3, [r4, #64]	; 0x40
    88e0:	2000      	movs	r0, #0
    88e2:	6360      	str	r0, [r4, #52]	; 0x34
    88e4:	6063      	str	r3, [r4, #4]
    88e6:	b113      	cbz	r3, 88ee <__ssrefill_r+0x24>
    88e8:	6be3      	ldr	r3, [r4, #60]	; 0x3c
    88ea:	6023      	str	r3, [r4, #0]
    88ec:	bd10      	pop	{r4, pc}
    88ee:	6923      	ldr	r3, [r4, #16]
    88f0:	f04f 30ff 	mov.w	r0, #4294967295
    88f4:	6023      	str	r3, [r4, #0]
    88f6:	2300      	movs	r3, #0
    88f8:	6063      	str	r3, [r4, #4]
    88fa:	89a3      	ldrh	r3, [r4, #12]
    88fc:	f043 0320 	orr.w	r3, r3, #32
    8900:	81a3      	strh	r3, [r4, #12]
    8902:	bd10      	pop	{r4, pc}

00008904 <__ssvfiscanf_r>:
    8904:	e92d 47f0 	stmdb	sp!, {r4, r5, r6, r7, r8, r9, r10, lr}
    8908:	4607      	mov	r7, r0
    890a:	460c      	mov	r4, r1
    890c:	4690      	mov	r8, r2
    890e:	f5ad 7d24 	sub.w	sp, sp, #656	; 0x290
    8912:	9301      	str	r3, [sp, #4]
    8914:	2300      	movs	r3, #0
    8916:	9346      	str	r3, [sp, #280]	; 0x118
    8918:	9347      	str	r3, [sp, #284]	; 0x11c
    891a:	4b9c      	ldr	r3, [pc, #624]	; (8b8c <__ssvfiscanf_r+0x288>)
    891c:	f10d 0a0c 	add.w	r10, sp, #12
    8920:	93a2      	str	r3, [sp, #648]	; 0x288
    8922:	4b9b      	ldr	r3, [pc, #620]	; (8b90 <__ssvfiscanf_r+0x28c>)
    8924:	f8cd a120 	str.w	r10, [sp, #288]	; 0x120
    8928:	93a3      	str	r3, [sp, #652]	; 0x28c
    892a:	f898 5000 	ldrb.w	r5, [r8]
    892e:	2d00      	cmp	r5, #0
    8930:	f000 8124 	beq.w	8b7c <__ssvfiscanf_r+0x278>
    8934:	4997      	ldr	r1, [pc, #604]	; (8b94 <__ssvfiscanf_r+0x290>)
    8936:	680b      	ldr	r3, [r1, #0]
    8938:	4689      	mov	r9, r1
    893a:	442b      	add	r3, r5
    893c:	785b      	ldrb	r3, [r3, #1]
    893e:	f003 0308 	and.w	r3, r3, #8
    8942:	f003 02ff 	and.w	r2, r3, #255	; 0xff
    8946:	b1eb      	cbz	r3, 8984 <__ssvfiscanf_r+0x80>
    8948:	6863      	ldr	r3, [r4, #4]
    894a:	2b00      	cmp	r3, #0
    894c:	dd10      	ble.n	8970 <__ssvfiscanf_r+0x6c>
    894e:	6823      	ldr	r3, [r4, #0]
    8950:	f8d9 1000 	ldr.w	r1, [r9]
    8954:	781a      	ldrb	r2, [r3, #0]
    8956:	440a      	add	r2, r1
    8958:	7852      	ldrb	r2, [r2, #1]
    895a:	0715      	lsls	r5, r2, #28
    895c:	d50e      	bpl.n	897c <__ssvfiscanf_r+0x78>
    895e:	9a47      	ldr	r2, [sp, #284]	; 0x11c
    8960:	3301      	adds	r3, #1
    8962:	3201      	adds	r2, #1
    8964:	9247      	str	r2, [sp, #284]	; 0x11c
    8966:	6862      	ldr	r2, [r4, #4]
    8968:	6023      	str	r3, [r4, #0]
    896a:	3a01      	subs	r2, #1
    896c:	6062      	str	r2, [r4, #4]
    896e:	e7eb      	b.n	8948 <__ssvfiscanf_r+0x44>
    8970:	9ba3      	ldr	r3, [sp, #652]	; 0x28c
    8972:	4638      	mov	r0, r7
    8974:	4621      	mov	r1, r4
    8976:	4798      	blx	r3
    8978:	2800      	cmp	r0, #0
    897a:	d0e8      	beq.n	894e <__ssvfiscanf_r+0x4a>
    897c:	f108 0601 	add.w	r6, r8, #1
    8980:	46b0      	mov	r8, r6
    8982:	e7d2      	b.n	892a <__ssvfiscanf_r+0x26>
    8984:	2d25      	cmp	r5, #37	; 0x25
    8986:	f108 0601 	add.w	r6, r8, #1
    898a:	d14f      	bne.n	8a2c <__ssvfiscanf_r+0x128>
    898c:	9245      	str	r2, [sp, #276]	; 0x114
    898e:	9243      	str	r2, [sp, #268]	; 0x10c
    8990:	f898 3001 	ldrb.w	r3, [r8, #1]
    8994:	2b2a      	cmp	r3, #42	; 0x2a
    8996:	d103      	bne.n	89a0 <__ssvfiscanf_r+0x9c>
    8998:	2310      	movs	r3, #16
    899a:	9343      	str	r3, [sp, #268]	; 0x10c
    899c:	f108 0602 	add.w	r6, r8, #2
    89a0:	7831      	ldrb	r1, [r6, #0]
    89a2:	4635      	mov	r5, r6
    89a4:	f1a1 0330 	sub.w	r3, r1, #48	; 0x30
    89a8:	2b09      	cmp	r3, #9
    89aa:	f106 0601 	add.w	r6, r6, #1
    89ae:	d806      	bhi.n	89be <__ssvfiscanf_r+0xba>
    89b0:	9b45      	ldr	r3, [sp, #276]	; 0x114
    89b2:	220a      	movs	r2, #10
    89b4:	fb02 1303 	mla	r3, r2, r3, r1
    89b8:	3b30      	subs	r3, #48	; 0x30
    89ba:	9345      	str	r3, [sp, #276]	; 0x114
    89bc:	e7f0      	b.n	89a0 <__ssvfiscanf_r+0x9c>
    89be:	f8df 81dc 	ldr.w	r8, [pc, #476]	; 8b9c <__ssvfiscanf_r+0x298>
    89c2:	2203      	movs	r2, #3
    89c4:	4640      	mov	r0, r8
    89c6:	f7fe fba9 	bl	711c <memchr>
    89ca:	b140      	cbz	r0, 89de <__ssvfiscanf_r+0xda>
    89cc:	4635      	mov	r5, r6
    89ce:	2301      	movs	r3, #1
    89d0:	ebc8 0000 	rsb	r0, r8, r0
    89d4:	fa03 f200 	lsl.w	r2, r3, r0
    89d8:	9b43      	ldr	r3, [sp, #268]	; 0x10c
    89da:	4313      	orrs	r3, r2
    89dc:	9343      	str	r3, [sp, #268]	; 0x10c
    89de:	1c6e      	adds	r6, r5, #1
    89e0:	782d      	ldrb	r5, [r5, #0]
    89e2:	2d67      	cmp	r5, #103	; 0x67
    89e4:	d80f      	bhi.n	8a06 <__ssvfiscanf_r+0x102>
    89e6:	2d65      	cmp	r5, #101	; 0x65
    89e8:	d278      	bcs.n	8adc <__ssvfiscanf_r+0x1d8>
    89ea:	2d5b      	cmp	r5, #91	; 0x5b
    89ec:	d054      	beq.n	8a98 <__ssvfiscanf_r+0x194>
    89ee:	d805      	bhi.n	89fc <__ssvfiscanf_r+0xf8>
    89f0:	2d00      	cmp	r5, #0
    89f2:	f000 80c5 	beq.w	8b80 <__ssvfiscanf_r+0x27c>
    89f6:	2d25      	cmp	r5, #37	; 0x25
    89f8:	d018      	beq.n	8a2c <__ssvfiscanf_r+0x128>
    89fa:	e071      	b.n	8ae0 <__ssvfiscanf_r+0x1dc>
    89fc:	2d63      	cmp	r5, #99	; 0x63
    89fe:	d057      	beq.n	8ab0 <__ssvfiscanf_r+0x1ac>
    8a00:	2d64      	cmp	r5, #100	; 0x64
    8a02:	d03f      	beq.n	8a84 <__ssvfiscanf_r+0x180>
    8a04:	e06c      	b.n	8ae0 <__ssvfiscanf_r+0x1dc>
    8a06:	2d70      	cmp	r5, #112	; 0x70
    8a08:	d032      	beq.n	8a70 <__ssvfiscanf_r+0x16c>
    8a0a:	d807      	bhi.n	8a1c <__ssvfiscanf_r+0x118>
    8a0c:	2d6e      	cmp	r5, #110	; 0x6e
    8a0e:	d055      	beq.n	8abc <__ssvfiscanf_r+0x1b8>
    8a10:	d83a      	bhi.n	8a88 <__ssvfiscanf_r+0x184>
    8a12:	2d69      	cmp	r5, #105	; 0x69
    8a14:	d164      	bne.n	8ae0 <__ssvfiscanf_r+0x1dc>
    8a16:	2300      	movs	r3, #0
    8a18:	9344      	str	r3, [sp, #272]	; 0x110
    8a1a:	e03b      	b.n	8a94 <__ssvfiscanf_r+0x190>
    8a1c:	2d75      	cmp	r5, #117	; 0x75
    8a1e:	d031      	beq.n	8a84 <__ssvfiscanf_r+0x180>
    8a20:	2d78      	cmp	r5, #120	; 0x78
    8a22:	d029      	beq.n	8a78 <__ssvfiscanf_r+0x174>
    8a24:	2d73      	cmp	r5, #115	; 0x73
    8a26:	d15b      	bne.n	8ae0 <__ssvfiscanf_r+0x1dc>
    8a28:	2302      	movs	r3, #2
    8a2a:	e03f      	b.n	8aac <__ssvfiscanf_r+0x1a8>
    8a2c:	6863      	ldr	r3, [r4, #4]
    8a2e:	2b00      	cmp	r3, #0
    8a30:	dd0d      	ble.n	8a4e <__ssvfiscanf_r+0x14a>
    8a32:	6823      	ldr	r3, [r4, #0]
    8a34:	781a      	ldrb	r2, [r3, #0]
    8a36:	42aa      	cmp	r2, r5
    8a38:	f040 80a0 	bne.w	8b7c <__ssvfiscanf_r+0x278>
    8a3c:	3301      	adds	r3, #1
    8a3e:	6862      	ldr	r2, [r4, #4]
    8a40:	6023      	str	r3, [r4, #0]
    8a42:	9b47      	ldr	r3, [sp, #284]	; 0x11c
    8a44:	3a01      	subs	r2, #1
    8a46:	3301      	adds	r3, #1
    8a48:	6062      	str	r2, [r4, #4]
    8a4a:	9347      	str	r3, [sp, #284]	; 0x11c
    8a4c:	e798      	b.n	8980 <__ssvfiscanf_r+0x7c>
    8a4e:	9ba3      	ldr	r3, [sp, #652]	; 0x28c
    8a50:	4638      	mov	r0, r7
    8a52:	4621      	mov	r1, r4
    8a54:	4798      	blx	r3
    8a56:	2800      	cmp	r0, #0
    8a58:	d0eb      	beq.n	8a32 <__ssvfiscanf_r+0x12e>
    8a5a:	9846      	ldr	r0, [sp, #280]	; 0x118
    8a5c:	2800      	cmp	r0, #0
    8a5e:	f000 808f 	beq.w	8b80 <__ssvfiscanf_r+0x27c>
    8a62:	89a3      	ldrh	r3, [r4, #12]
    8a64:	f013 0f40 	tst.w	r3, #64	; 0x40
    8a68:	bf18      	it	ne
    8a6a:	f04f 30ff 	movne.w	r0, #4294967295
    8a6e:	e089      	b.n	8b84 <__ssvfiscanf_r+0x280>
    8a70:	9b43      	ldr	r3, [sp, #268]	; 0x10c
    8a72:	f043 0320 	orr.w	r3, r3, #32
    8a76:	9343      	str	r3, [sp, #268]	; 0x10c
    8a78:	9b43      	ldr	r3, [sp, #268]	; 0x10c
    8a7a:	f443 7300 	orr.w	r3, r3, #512	; 0x200
    8a7e:	9343      	str	r3, [sp, #268]	; 0x10c
    8a80:	2310      	movs	r3, #16
    8a82:	e002      	b.n	8a8a <__ssvfiscanf_r+0x186>
    8a84:	230a      	movs	r3, #10
    8a86:	e000      	b.n	8a8a <__ssvfiscanf_r+0x186>
    8a88:	2308      	movs	r3, #8
    8a8a:	2d6e      	cmp	r5, #110	; 0x6e
    8a8c:	9344      	str	r3, [sp, #272]	; 0x110
    8a8e:	dd01      	ble.n	8a94 <__ssvfiscanf_r+0x190>
    8a90:	2304      	movs	r3, #4
    8a92:	e00b      	b.n	8aac <__ssvfiscanf_r+0x1a8>
    8a94:	2303      	movs	r3, #3
    8a96:	e009      	b.n	8aac <__ssvfiscanf_r+0x1a8>
    8a98:	4631      	mov	r1, r6
    8a9a:	4650      	mov	r0, r10
    8a9c:	f7ff f95c 	bl	7d58 <__sccl>
    8aa0:	4606      	mov	r6, r0
    8aa2:	9b43      	ldr	r3, [sp, #268]	; 0x10c
    8aa4:	f043 0340 	orr.w	r3, r3, #64	; 0x40
    8aa8:	9343      	str	r3, [sp, #268]	; 0x10c
    8aaa:	2301      	movs	r3, #1
    8aac:	9349      	str	r3, [sp, #292]	; 0x124
    8aae:	e01b      	b.n	8ae8 <__ssvfiscanf_r+0x1e4>
    8ab0:	9b43      	ldr	r3, [sp, #268]	; 0x10c
    8ab2:	f043 0340 	orr.w	r3, r3, #64	; 0x40
    8ab6:	9343      	str	r3, [sp, #268]	; 0x10c
    8ab8:	2300      	movs	r3, #0
    8aba:	e7f7      	b.n	8aac <__ssvfiscanf_r+0x1a8>
    8abc:	9a43      	ldr	r2, [sp, #268]	; 0x10c
    8abe:	06d0      	lsls	r0, r2, #27
    8ac0:	f53f af5e 	bmi.w	8980 <__ssvfiscanf_r+0x7c>
    8ac4:	f012 0f01 	tst.w	r2, #1
    8ac8:	9a01      	ldr	r2, [sp, #4]
    8aca:	9b47      	ldr	r3, [sp, #284]	; 0x11c
    8acc:	f102 0104 	add.w	r1, r2, #4
    8ad0:	9101      	str	r1, [sp, #4]
    8ad2:	6812      	ldr	r2, [r2, #0]
    8ad4:	bf14      	ite	ne
    8ad6:	8013      	strhne	r3, [r2, #0]
    8ad8:	6013      	streq	r3, [r2, #0]
    8ada:	e751      	b.n	8980 <__ssvfiscanf_r+0x7c>
    8adc:	2305      	movs	r3, #5
    8ade:	e7e5      	b.n	8aac <__ssvfiscanf_r+0x1a8>
    8ae0:	2303      	movs	r3, #3
    8ae2:	9349      	str	r3, [sp, #292]	; 0x124
    8ae4:	230a      	movs	r3, #10
    8ae6:	9344      	str	r3, [sp, #272]	; 0x110
    8ae8:	6863      	ldr	r3, [r4, #4]
    8aea:	2b00      	cmp	r3, #0
    8aec:	dd03      	ble.n	8af6 <__ssvfiscanf_r+0x1f2>
    8aee:	9b43      	ldr	r3, [sp, #268]	; 0x10c
    8af0:	0659      	lsls	r1, r3, #25
    8af2:	d511      	bpl.n	8b18 <__ssvfiscanf_r+0x214>
    8af4:	e018      	b.n	8b28 <__ssvfiscanf_r+0x224>
    8af6:	9ba3      	ldr	r3, [sp, #652]	; 0x28c
    8af8:	4638      	mov	r0, r7
    8afa:	4621      	mov	r1, r4
    8afc:	4798      	blx	r3
    8afe:	2800      	cmp	r0, #0
    8b00:	d0f5      	beq.n	8aee <__ssvfiscanf_r+0x1ea>
    8b02:	e7aa      	b.n	8a5a <__ssvfiscanf_r+0x156>
    8b04:	9a47      	ldr	r2, [sp, #284]	; 0x11c
    8b06:	3201      	adds	r2, #1
    8b08:	9247      	str	r2, [sp, #284]	; 0x11c
    8b0a:	6862      	ldr	r2, [r4, #4]
    8b0c:	3a01      	subs	r2, #1
    8b0e:	2a00      	cmp	r2, #0
    8b10:	6062      	str	r2, [r4, #4]
    8b12:	dd13      	ble.n	8b3c <__ssvfiscanf_r+0x238>
    8b14:	3301      	adds	r3, #1
    8b16:	6023      	str	r3, [r4, #0]
    8b18:	6823      	ldr	r3, [r4, #0]
    8b1a:	f8d9 1000 	ldr.w	r1, [r9]
    8b1e:	781a      	ldrb	r2, [r3, #0]
    8b20:	440a      	add	r2, r1
    8b22:	7852      	ldrb	r2, [r2, #1]
    8b24:	0712      	lsls	r2, r2, #28
    8b26:	d4ed      	bmi.n	8b04 <__ssvfiscanf_r+0x200>
    8b28:	9b49      	ldr	r3, [sp, #292]	; 0x124
    8b2a:	2b02      	cmp	r3, #2
    8b2c:	dc0d      	bgt.n	8b4a <__ssvfiscanf_r+0x246>
    8b2e:	4638      	mov	r0, r7
    8b30:	a943      	add	r1, sp, #268	; 0x10c
    8b32:	4622      	mov	r2, r4
    8b34:	ab01      	add	r3, sp, #4
    8b36:	f7fe fe9b 	bl	7870 <_scanf_chars>
    8b3a:	e019      	b.n	8b70 <__ssvfiscanf_r+0x26c>
    8b3c:	9ba3      	ldr	r3, [sp, #652]	; 0x28c
    8b3e:	4638      	mov	r0, r7
    8b40:	4621      	mov	r1, r4
    8b42:	4798      	blx	r3
    8b44:	2800      	cmp	r0, #0
    8b46:	d0e7      	beq.n	8b18 <__ssvfiscanf_r+0x214>
    8b48:	e787      	b.n	8a5a <__ssvfiscanf_r+0x156>
    8b4a:	2b04      	cmp	r3, #4
    8b4c:	dc06      	bgt.n	8b5c <__ssvfiscanf_r+0x258>
    8b4e:	4638      	mov	r0, r7
    8b50:	a943      	add	r1, sp, #268	; 0x10c
    8b52:	4622      	mov	r2, r4
    8b54:	ab01      	add	r3, sp, #4
    8b56:	f7fe fee9 	bl	792c <_scanf_i>
    8b5a:	e009      	b.n	8b70 <__ssvfiscanf_r+0x26c>
    8b5c:	4b0e      	ldr	r3, [pc, #56]	; (8b98 <__ssvfiscanf_r+0x294>)
    8b5e:	2b00      	cmp	r3, #0
    8b60:	f43f af0e 	beq.w	8980 <__ssvfiscanf_r+0x7c>
    8b64:	4638      	mov	r0, r7
    8b66:	a943      	add	r1, sp, #268	; 0x10c
    8b68:	4622      	mov	r2, r4
    8b6a:	ab01      	add	r3, sp, #4
    8b6c:	f3af 8000 	nop.w
    8b70:	2801      	cmp	r0, #1
    8b72:	d003      	beq.n	8b7c <__ssvfiscanf_r+0x278>
    8b74:	2802      	cmp	r0, #2
    8b76:	f47f af03 	bne.w	8980 <__ssvfiscanf_r+0x7c>
    8b7a:	e76e      	b.n	8a5a <__ssvfiscanf_r+0x156>
    8b7c:	9846      	ldr	r0, [sp, #280]	; 0x118
    8b7e:	e001      	b.n	8b84 <__ssvfiscanf_r+0x280>
    8b80:	f04f 30ff 	mov.w	r0, #4294967295
    8b84:	f50d 7d24 	add.w	sp, sp, #656	; 0x290
    8b88:	e8bd 87f0 	ldmia.w	sp!, {r4, r5, r6, r7, r8, r9, r10, pc}
    8b8c:	00008851 	.word	0x00008851
    8b90:	000088cb 	.word	0x000088cb
    8b94:	1000019c 	.word	0x1000019c
    8b98:	00000000 	.word	0x00000000
    8b9c:	0000943e 	.word	0x0000943e

00008ba0 <_read_r>:
    8ba0:	b538      	push	{r3, r4, r5, lr}
    8ba2:	4c07      	ldr	r4, [pc, #28]	; (8bc0 <_read_r+0x20>)
    8ba4:	4605      	mov	r5, r0
    8ba6:	2000      	movs	r0, #0
    8ba8:	6020      	str	r0, [r4, #0]
    8baa:	4608      	mov	r0, r1
    8bac:	4611      	mov	r1, r2
    8bae:	461a      	mov	r2, r3
    8bb0:	f7fc febc 	bl	592c <_read>
    8bb4:	1c43      	adds	r3, r0, #1
    8bb6:	d102      	bne.n	8bbe <_read_r+0x1e>
    8bb8:	6823      	ldr	r3, [r4, #0]
    8bba:	b103      	cbz	r3, 8bbe <_read_r+0x1e>
    8bbc:	602b      	str	r3, [r5, #0]
    8bbe:	bd38      	pop	{r3, r4, r5, pc}
    8bc0:	10000b4c 	.word	0x10000b4c

00008bc4 <_malloc_usable_size_r>:
    8bc4:	f851 0c04 	ldr.w	r0, [r1, #-4]
    8bc8:	2800      	cmp	r0, #0
    8bca:	bfbe      	ittt	lt
    8bcc:	1809      	addlt	r1, r1, r0
    8bce:	f851 3c04 	ldrlt.w	r3, [r1, #-4]
    8bd2:	18c0      	addlt	r0, r0, r3
    8bd4:	3804      	subs	r0, #4
    8bd6:	4770      	bx	lr

00008bd8 <_init>:
    8bd8:	b5f8      	push	{r3, r4, r5, r6, r7, lr}
    8bda:	bf00      	nop
    8bdc:	bcf8      	pop	{r3, r4, r5, r6, r7}
    8bde:	bc08      	pop	{r3}
    8be0:	469e      	mov	lr, r3
    8be2:	4770      	bx	lr

00008be4 <_fini>:
    8be4:	b5f8      	push	{r3, r4, r5, r6, r7, lr}
    8be6:	bf00      	nop
    8be8:	bcf8      	pop	{r3, r4, r5, r6, r7}
    8bea:	bc08      	pop	{r3}
    8bec:	469e      	mov	lr, r3
    8bee:	4770      	bx	lr

00008bf0 <vtable for std_msgs::Time>:
	...
    8bf8:	0129 0000 0155 0000 0199 0000 01a1 0000     )...U...........

00008c08 <vtable for rosserial_msgs::TopicInfo>:
	...
    8c10:	03f5 0000 0535 0000 01a9 0000 01b1 0000     ....5...........

00008c20 <vtable for rosserial_msgs::Log>:
	...
    8c28:	03c5 0000 0489 0000 01b9 0000 01c1 0000     ................

00008c38 <vtable for rosserial_msgs::RequestParamResponse>:
	...
    8c40:	02b9 0000 05f1 0000 01c9 0000 01d1 0000     ................

00008c50 <vtable for std_msgs::MultiArrayDimension>:
	...
    8c58:	0261 0000 04c5 0000 01d9 0000 01e1 0000     a...............

00008c68 <vtable for std_msgs::MultiArrayLayout>:
	...
    8c70:	0745 0000 0829 0000 01e9 0000 01f1 0000     E...)...........

00008c80 <vtable for std_msgs::Int16MultiArray>:
	...
    8c88:	094d 0000 0be1 0000 01f9 0000 0201 0000     M...............

00008c98 <vtable for std_msgs::Float32MultiArray>:
	...
    8ca0:	0a91 0000 0ed9 0000 0209 0000 0211 0000     ................

00008cb0 <vtable for ros::NodeHandle_<MbedHardware, 25, 25, 512, 512>>:
	...
    8cb8:	1061 0000 1845 0000 0249 0000 0000 0000     a...E...I.......

00008cc8 <vtable for ros::Subscriber<std_msgs::Int16MultiArray>>:
	...
    8cd0:	0d5d 0000 0235 0000 0239 0000 0241 0000     ]...5...9...A...
    8ce0:	7473 5f64 736d 7367 542f 6d69 0065 0000     std_msgs/Time...
    8cf0:	6463 3137 3636 3763 6334 3535 6332 3133     cd7166c74c552c31
    8d00:	6631 6362 3263 6566 6135 6237 3263 3938     1fbcc2fe5a7bc289
    8d10:	0000 0000 6f72 7373 7265 6169 5f6c 736d     ....rosserial_ms
    8d20:	7367 542f 706f 6369 6e49 6f66 0000 0000     gs/TopicInfo....
    8d30:	6130 3564 6631 3838 6366 3434 3938 6632     0ad51f88fc44892f
    8d40:	6338 3031 3836 3034 3737 3436 3036 3530     8c10684077646005
    8d50:	0000 0000 6f72 7373 7265 6169 5f6c 736d     ....rosserial_ms
    8d60:	7367 4c2f 676f 0000 3131 6261 3764 3133     gs/Log..11abd731
    8d70:	3263 3935 3333 3632 6331 3664 3831 6233     c25933261cd6183b
    8d80:	3164 6432 3236 3539 0000 0000 6639 6530     d12d6295....9f0e
    8d90:	3839 6462 3661 3935 3138 3839 6436 6664     98bda65981986ddf
    8da0:	3335 6661 3761 3461 6530 3934 0000 0000     53afa7a40e49....
    8db0:	7473 5f64 736d 7367 4d2f 6c75 6974 7241     std_msgs/MultiAr
    8dc0:	6172 4479 6d69 6e65 6973 6e6f 0000 0000     rayDimension....
    8dd0:	6334 3064 3863 6133 3638 3338 6564 6561     4cd0c83a8683deae
    8de0:	3034 6365 6164 3663 6530 3335 6662 3861     40ecdac60e53bfa8
    8df0:	0000 0000 7473 5f64 736d 7367 4d2f 6c75     ....std_msgs/Mul
    8e00:	6974 7241 6172 4c79 7961 756f 0074 0000     tiArrayLayout...
    8e10:	6630 6465 6132 3131 3163 6533 3131 3563     0fed2a11c13e11c5
    8e20:	3735 6231 6534 6132 3939 6135 3139 3361     571b4e2a995a91a3
    8e30:	0000 0000 7473 5f64 736d 7367 492f 746e     ....std_msgs/Int
    8e40:	3631 754d 746c 4169 7272 7961 0000 0000     16MultiArray....
    8e50:	3964 3333 6438 6637 3235 6633 6263 3936     d9338d7f523fcb69
    8e60:	6632 6561 6439 6130 6530 6639 3630 6337     2fae9d0a0e9f067c
    8e70:	0000 0000 7473 5f64 736d 7367 462f 6f6c     ....std_msgs/Flo
    8e80:	7461 3233 754d 746c 4169 7272 7961 0000     at32MultiArray..
    8e90:	6136 3034 3065 6666 3661 3161 6137 3035     6a40e0ffa6a17a50
    8ea0:	6133 3363 3866 3136 3936 3139 3162 3666     3ac3f8616991b1f6
    8eb0:	0000 0000 654d 7373 6761 2065 7266 6d6f     ....Message from
    8ec0:	6420 7665 6369 2065 7264 706f 6570 3a64      device dropped:
    8ed0:	6d20 7365 6173 6567 6c20 7261 6567 2072      message larger 
    8ee0:	6874 6e61 6220 6675 6566 2e72 0000 0000     than buffer.....
    8ef0:	7261 5f6d 6f63 6d6d 6e61 0064 6874 7265     arm_command.ther
    8f00:	6f6d 645f 7461 0061 6f63 5f32 6164 6174     mo_data.co2_data
    8f10:	0000 0000 6f6a 6e69 5f74 6e61 6c67 0065     ....joint_angle.

00008f20 <rosserial_msgs::REQUESTPARAM>:
    8f20:	6f72 7373 7265 6169 5f6c 736d 7367 522f     rosserial_msgs/R
    8f30:	7165 6575 7473 6150 6172 006d 0000 0000     equestParam.....

00008f40 <vtable for mbed::SerialHalfDuplex>:
	...
    8f48:	331d 0000 3351 0000 3305 0000 32cd 0000     .3..Q3...3...2..
    8f58:	ffc0 ffff 0000 0000 560d 0000 5609 0000     .........V...V..
    8f68:	5639 0000 5669 0000 5665 0000 566d 0000     9V..iV..eV..mV..
    8f78:	5671 0000 3341 0000 3379 0000 32fd 0000     qV..A3..y3...2..
    8f88:	3309 0000 ffbc ffff 0000 0000 3349 0000     .3..........I3..
    8f98:	3381 0000 0000 0000                         .3......

00008fa0 <vtable for MX106>:
	...
    8fa8:	380d 0000 3845 0000 33c9 0000 3429 0000     .8..E8...3..)4..
    8fb8:	3469 0000 34a9 0000 34c9 0000 363d 0000     i4...4...4..=6..
    8fc8:	34e5 0000 3521 0000 3541 0000 3571 0000     .4..!5..A5..q5..
    8fd8:	35b9 0000 35d9 0000 3619 0000 3685 0000     .5...5...6...6..
    8fe8:	3745 0000 0000 0000                         E7......

00008ff0 <vtable for MX28>:
	...
    8ff8:	3d05 0000 3d3d 0000 38e1 0000 3941 0000     .=..==...8..A9..
    9008:	3981 0000 39c1 0000 39e1 0000 3b35 0000     .9...9...9..5;..
    9018:	39fd 0000 3a39 0000 3a59 0000 3a89 0000     .9..9:..Y:...:..
    9028:	3ad1 0000 3af1 0000 3b31 0000 3b7d 0000     .:...:..1;..};..
    9038:	3c3d 0000 0000 0000                         =<......

00009040 <vtable for AjK::MODSERIAL>:
	...
    9048:	404d 0000 40c5 0000 40f9 0000 40e9 0000     M@...@...@...@..
    9058:	ffc0 ffff 0000 0000 560d 0000 5609 0000     .........V...V..
    9068:	5639 0000 5669 0000 5665 0000 566d 0000     9V..iV..eV..mV..
    9078:	5671 0000 40bd 0000 40e1 0000 40f1 0000     qV...@...@...@..
    9088:	4101 0000 ffbc ffff 0000 0000 40b5 0000     .A...........@..
    9098:	40d9 0000 4f4d 5344 5245 4149 204c 756d     .@..MODSERIAL mu
    90a8:	7473 6820 7661 2065 2061 6564 6966 656e     st have a define
    90b8:	2064 4155 5452 7420 206f 7566 636e 6974     d UART to functi
    90c8:	6e6f 002e 6f63 6c75 2064 6f6e 2074 6970     on..could not pi
    90d8:	6f6e 7475 0000 0000 6970 6d6e 7061 6d20     nout....pinmap m
    90e8:	7369 6d2d 7461 6863 0000 0000 6970 6d6e     is-match....pinm
    90f8:	7061 6e20 746f 6620 756f 646e 6620 726f     ap not found for
    9108:	7020 7265 7069 6568 6172 006c 6970 6d6e      peripheral.pinm
    9118:	7061 6e20 746f 6620 756f 646e 6620 726f     ap not found for
    9128:	6620 6e75 7463 6f69 006e 0000                function...

00009134 <us_interface>:
    9134:	5259 0000 5269 0000 5299 0000 52a9 0000     YR..iR...R...R..
    9144:	5285 0000                                   .R..

00009148 <us_data>:
    9148:	9134 0000 0940 1000                         4...@...

00009150 <PinMap_UART_RTS>:
    9150:	c016 2009 0000 4001 0001 0000 c047 2009     ... ...@....G.. 
    9160:	0000 4001 0002 0000 ffff ffff ffff ffff     ...@............
    9170:	0000 0000                                   ....

00009174 <PinMap_UART_RX>:
    9174:	c001 2009 c000 4009 0002 0000 c003 2009     ... ...@....... 
    9184:	c000 4000 0001 0000 c00b 2009 8000 4009     ...@....... ...@
    9194:	0001 0000 c010 2009 0000 4001 0001 0000     ....... ...@....
    91a4:	c01a 2009 c000 4009 0003 0000 c041 2009     ... ...@....A.. 
    91b4:	0000 4001 0002 0000 c049 2009 8000 4009     ...@....I.. ...@
    91c4:	0002 0000 c09d 2009 c000 4009 0003 0000     ....... ...@....
    91d4:	ffff ffff ffff ffff 0000 0000               ............

000091e0 <PinMap_UART_TX>:
    91e0:	c000 2009 c000 4009 0002 0000 c002 2009     ... ...@....... 
    91f0:	c000 4000 0001 0000 c00a 2009 8000 4009     ...@....... ...@
    9200:	0001 0000 c00f 2009 0000 4001 0001 0000     ....... ...@....
    9210:	c019 2009 c000 4009 0003 0000 c040 2009     ... ...@....@.. 
    9220:	0000 4001 0002 0000 c048 2009 8000 4009     ...@....H.. ...@
    9230:	0002 0000 c09c 2009 c000 4009 0003 0000     ....... ...@....
    9240:	ffff ffff ffff ffff 0000 0000               ............

0000924c <PinMap_UART_CTS>:
    924c:	c011 2009 0000 4001 0001 0000 c042 2009     ... ...@....B.. 
    925c:	0000 4001 0002 0000 ffff ffff ffff ffff     ...@............
    926c:	0000 0000                                   ....

00009270 <vtable for mbed::FileBase>:
	...
    9278:	52b5 0000 52e5 0000                         .R...R..

00009280 <vtable for mbed::FileLike>:
	...
    9288:	3e39 0000 3e39 0000 3e39 0000 3e39 0000     9>..9>..9>..9>..
    9298:	3e39 0000 3e39 0000 5381 0000 0000 0000     9>..9>...S......
    92a8:	0000 0000 fffc ffff 0000 0000 0000 0000     ................
	...

000092c0 <vtable for mbed::Serial>:
	...
    92c8:	54d1 0000 5505 0000 54b9 0000 54c5 0000     .T...U...T...T..
    92d8:	ffc0 ffff 0000 0000 560d 0000 5609 0000     .........V...V..
    92e8:	5639 0000 5669 0000 5665 0000 566d 0000     9V..iV..eV..mV..
    92f8:	5671 0000 54f5 0000 5531 0000 54c9 0000     qV...T..1U...T..
    9308:	54bd 0000 ffbc ffff 0000 0000 54fd 0000     .T...........T..
    9318:	5539 0000 0000 0000                         9U......

00009320 <vtable for mbed::SerialBase>:
	...
    9328:	32c9 0000 3311 0000                         .2...3..

00009330 <vtable for mbed::Stream>:
	...
    9338:	560d 0000 5609 0000 5639 0000 5669 0000     .V...V..9V..iV..
    9348:	5665 0000 566d 0000 5671 0000 0000 0000     eV..mV..qV......
    9358:	0000 0000 3e39 0000 3e39 0000 fffc ffff     ....9>..9>......
	...
    9374:	253a 0070 2b77 0000                         :%p.w+..

0000937c <__stdin_name>:
    937c:	732f 6474 6e69 0000                         /stdin..

00009384 <__stderr_name>:
    9384:	732f 6474 7265 0072                         /stderr.

0000938c <__stdout_name>:
    938c:	732f 6474 756f 0074 0000 0000               /stdout.....

00009398 <vtable for mbed::FileHandle>:
	...
    93a0:	3e39 0000 3e39 0000 3e39 0000 3e39 0000     9>..9>..9>..9>..
    93b0:	3e39 0000 3e39 0000 5381 0000 0000 0000     9>..9>...S......
    93c0:	0000 0000 7845 6563 7470 6f69 006e 0000     ....Exception...

000093d0 <__sf_fake_stdin>:
	...

000093f0 <__sf_fake_stdout>:
	...

00009410 <__sf_fake_stderr>:
	...
    9430:	0043 0000                                   C...

00009434 <_global_impure_ptr>:
    9434:	0138 1000 2d23 2b30 0020 6c68 004c 6665     8...#-0+ .hlL.ef
    9444:	4567 4746 3000 3231 3433 3635 3837 4139     gEFG.0123456789A
    9454:	4342 4544 0046 3130 3332 3534 3736 3938     BCDEF.0123456789
    9464:	6261 6463 6665 0000 948a 0000 948d 0000     abcdef..........
    9474:	9490 0000 2d41 6146 662d 3938 3130 3332     ....A-Fa-f890123
    9484:	3534 3736 005d 2d2b 3000 0030 5878 0000          4567].+-.00.xX.

00009493 <_ctype_>:
    9493:	2000 2020 2020 2020 2020 2828 2828 2028     .         ((((( 
    94a3:	2020 2020 2020 2020 2020 2020 2020 2020                     
    94b3:	8820 1010 1010 1010 1010 1010 1010 1010      ...............
    94c3:	0410 0404 0404 0404 0404 1004 1010 1010     ................
    94d3:	1010 4141 4141 4141 0101 0101 0101 0101     ..AAAAAA........
    94e3:	0101 0101 0101 0101 0101 0101 1010 1010     ................
    94f3:	1010 4242 4242 4242 0202 0202 0202 0202     ..BBBBBB........
    9503:	0202 0202 0202 0202 0202 0202 1010 1010     ................
    9513:	0020 0000 0000 0000 0000 0000 0000 0000      ...............
	...

00009594 <__EH_FRAME_BEGIN__>:
    9594:	0010 0000 0000 0000 7a01 0052 7c02 010e     .........zR..|..
    95a4:	0c1b 000d 0010 0000 0018 0000 ea52 ffff     ............R...
    95b4:	0014 0000 0000 0000                         ........

000095bc <__FRAME_END__>:
    95bc:	0000 0000                                   ....
