
LPC1768/YOZAKURA_THETA_ARM.elf:     file format elf32-littlearm
architecture: arm, flags 0x00000112:
EXEC_P, HAS_SYMS, D_PAGED
start address 0x00007b81


Disassembly of section .text:

00000000 <__isr_vector>:
       0:	10008000 	.word	0x10008000
       4:	00007b81 	.word	0x00007b81
       8:	00007bb1 	.word	0x00007bb1
       c:	00007bb3 	.word	0x00007bb3
      10:	00007bb5 	.word	0x00007bb5
      14:	00007bb7 	.word	0x00007bb7
      18:	00007bb9 	.word	0x00007bb9
	...
      2c:	00007bbb 	.word	0x00007bbb
      30:	00007bbd 	.word	0x00007bbd
      34:	00000000 	.word	0x00000000
      38:	00007bbf 	.word	0x00007bbf
      3c:	00007bc1 	.word	0x00007bc1
      40:	00007bc3 	.word	0x00007bc3
      44:	00007bc3 	.word	0x00007bc3
      48:	00007bc3 	.word	0x00007bc3
      4c:	00007bc3 	.word	0x00007bc3
      50:	00007bc3 	.word	0x00007bc3
      54:	00007bc3 	.word	0x00007bc3
      58:	00007bc3 	.word	0x00007bc3
      5c:	00007bc3 	.word	0x00007bc3
      60:	00007bc3 	.word	0x00007bc3
      64:	00007bc3 	.word	0x00007bc3
      68:	00007bc3 	.word	0x00007bc3
      6c:	00007bc3 	.word	0x00007bc3
      70:	00007bc3 	.word	0x00007bc3
      74:	00007bc3 	.word	0x00007bc3
      78:	00007bc3 	.word	0x00007bc3
      7c:	00007bc3 	.word	0x00007bc3
      80:	00007bc3 	.word	0x00007bc3
      84:	00007bc3 	.word	0x00007bc3
      88:	00007bc3 	.word	0x00007bc3
      8c:	00007bc3 	.word	0x00007bc3
      90:	00007bc3 	.word	0x00007bc3
      94:	00007bc3 	.word	0x00007bc3
      98:	00007bc3 	.word	0x00007bc3
      9c:	00007bc3 	.word	0x00007bc3
      a0:	00007bc3 	.word	0x00007bc3
      a4:	00007bc3 	.word	0x00007bc3
      a8:	00007bc3 	.word	0x00007bc3
      ac:	00007bc3 	.word	0x00007bc3
      b0:	00007bc3 	.word	0x00007bc3
      b4:	00007bc3 	.word	0x00007bc3
      b8:	00007bc3 	.word	0x00007bc3
      bc:	00007bc3 	.word	0x00007bc3
      c0:	00007bc3 	.word	0x00007bc3
      c4:	00007bc3 	.word	0x00007bc3
      c8:	00007bc3 	.word	0x00007bc3

000000cc <deregister_tm_clones>:
      cc:	4b04      	ldr	r3, [pc, #16]	; (e0 <deregister_tm_clones+0x14>)
      ce:	4805      	ldr	r0, [pc, #20]	; (e4 <deregister_tm_clones+0x18>)
      d0:	1a1b      	subs	r3, r3, r0
      d2:	2b06      	cmp	r3, #6
      d4:	d902      	bls.n	dc <deregister_tm_clones+0x10>
      d6:	4b04      	ldr	r3, [pc, #16]	; (e8 <deregister_tm_clones+0x1c>)
      d8:	b103      	cbz	r3, dc <deregister_tm_clones+0x10>
      da:	4718      	bx	r3
      dc:	4770      	bx	lr
      de:	bf00      	nop
      e0:	100001af 	.word	0x100001af
      e4:	100001ac 	.word	0x100001ac
      e8:	00000000 	.word	0x00000000

000000ec <register_tm_clones>:
      ec:	4905      	ldr	r1, [pc, #20]	; (104 <register_tm_clones+0x18>)
      ee:	4806      	ldr	r0, [pc, #24]	; (108 <register_tm_clones+0x1c>)
      f0:	1a09      	subs	r1, r1, r0
      f2:	1089      	asrs	r1, r1, #2
      f4:	eb01 71d1 	add.w	r1, r1, r1, lsr #31
      f8:	1049      	asrs	r1, r1, #1
      fa:	d002      	beq.n	102 <register_tm_clones+0x16>
      fc:	4b03      	ldr	r3, [pc, #12]	; (10c <register_tm_clones+0x20>)
      fe:	b103      	cbz	r3, 102 <register_tm_clones+0x16>
     100:	4718      	bx	r3
     102:	4770      	bx	lr
     104:	100001ac 	.word	0x100001ac
     108:	100001ac 	.word	0x100001ac
     10c:	00000000 	.word	0x00000000

00000110 <__do_global_dtors_aux>:
     110:	b510      	push	{r4, lr}
     112:	4c06      	ldr	r4, [pc, #24]	; (12c <__do_global_dtors_aux+0x1c>)
     114:	7823      	ldrb	r3, [r4, #0]
     116:	b943      	cbnz	r3, 12a <__do_global_dtors_aux+0x1a>
     118:	f7ff ffd8 	bl	cc <deregister_tm_clones>
     11c:	4b04      	ldr	r3, [pc, #16]	; (130 <__do_global_dtors_aux+0x20>)
     11e:	b113      	cbz	r3, 126 <__do_global_dtors_aux+0x16>
     120:	4804      	ldr	r0, [pc, #16]	; (134 <__do_global_dtors_aux+0x24>)
     122:	f3af 8000 	nop.w
     126:	2301      	movs	r3, #1
     128:	7023      	strb	r3, [r4, #0]
     12a:	bd10      	pop	{r4, pc}
     12c:	100001ac 	.word	0x100001ac
     130:	00000000 	.word	0x00000000
     134:	0000b6d4 	.word	0x0000b6d4

00000138 <frame_dummy>:
     138:	b508      	push	{r3, lr}
     13a:	4b08      	ldr	r3, [pc, #32]	; (15c <frame_dummy+0x24>)
     13c:	b11b      	cbz	r3, 146 <frame_dummy+0xe>
     13e:	4908      	ldr	r1, [pc, #32]	; (160 <frame_dummy+0x28>)
     140:	4808      	ldr	r0, [pc, #32]	; (164 <frame_dummy+0x2c>)
     142:	f3af 8000 	nop.w
     146:	4808      	ldr	r0, [pc, #32]	; (168 <frame_dummy+0x30>)
     148:	6803      	ldr	r3, [r0, #0]
     14a:	b913      	cbnz	r3, 152 <frame_dummy+0x1a>
     14c:	e8bd 4008 	ldmia.w	sp!, {r3, lr}
     150:	e7cc      	b.n	ec <register_tm_clones>
     152:	4b06      	ldr	r3, [pc, #24]	; (16c <frame_dummy+0x34>)
     154:	2b00      	cmp	r3, #0
     156:	d0f9      	beq.n	14c <frame_dummy+0x14>
     158:	4798      	blx	r3
     15a:	e7f7      	b.n	14c <frame_dummy+0x14>
     15c:	00000000 	.word	0x00000000
     160:	100001b0 	.word	0x100001b0
     164:	0000b6d4 	.word	0x0000b6d4
     168:	100001ac 	.word	0x100001ac
     16c:	00000000 	.word	0x00000000

00000170 <mbed::SerialBase::~SerialBase()>:
     170:	4770      	bx	lr
     172:	bf00      	nop

00000174 <std_msgs::Time::serialize(unsigned char*) const>:
     174:	4603      	mov	r3, r0
     176:	6842      	ldr	r2, [r0, #4]
     178:	2008      	movs	r0, #8
     17a:	700a      	strb	r2, [r1, #0]
     17c:	685a      	ldr	r2, [r3, #4]
     17e:	40c2      	lsrs	r2, r0
     180:	704a      	strb	r2, [r1, #1]
     182:	88da      	ldrh	r2, [r3, #6]
     184:	708a      	strb	r2, [r1, #2]
     186:	79da      	ldrb	r2, [r3, #7]
     188:	70ca      	strb	r2, [r1, #3]
     18a:	689a      	ldr	r2, [r3, #8]
     18c:	710a      	strb	r2, [r1, #4]
     18e:	689a      	ldr	r2, [r3, #8]
     190:	40c2      	lsrs	r2, r0
     192:	714a      	strb	r2, [r1, #5]
     194:	895a      	ldrh	r2, [r3, #10]
     196:	718a      	strb	r2, [r1, #6]
     198:	7adb      	ldrb	r3, [r3, #11]
     19a:	71cb      	strb	r3, [r1, #7]
     19c:	4770      	bx	lr
     19e:	bf00      	nop

000001a0 <std_msgs::Time::deserialize(unsigned char*)>:
     1a0:	4602      	mov	r2, r0
     1a2:	b410      	push	{r4}
     1a4:	780b      	ldrb	r3, [r1, #0]
     1a6:	2008      	movs	r0, #8
     1a8:	6053      	str	r3, [r2, #4]
     1aa:	784c      	ldrb	r4, [r1, #1]
     1ac:	ea43 2304 	orr.w	r3, r3, r4, lsl #8
     1b0:	6053      	str	r3, [r2, #4]
     1b2:	788c      	ldrb	r4, [r1, #2]
     1b4:	ea43 4304 	orr.w	r3, r3, r4, lsl #16
     1b8:	6053      	str	r3, [r2, #4]
     1ba:	78cc      	ldrb	r4, [r1, #3]
     1bc:	ea43 6304 	orr.w	r3, r3, r4, lsl #24
     1c0:	6053      	str	r3, [r2, #4]
     1c2:	790b      	ldrb	r3, [r1, #4]
     1c4:	6093      	str	r3, [r2, #8]
     1c6:	794c      	ldrb	r4, [r1, #5]
     1c8:	ea43 2304 	orr.w	r3, r3, r4, lsl #8
     1cc:	6093      	str	r3, [r2, #8]
     1ce:	798c      	ldrb	r4, [r1, #6]
     1d0:	ea43 4304 	orr.w	r3, r3, r4, lsl #16
     1d4:	6093      	str	r3, [r2, #8]
     1d6:	79c9      	ldrb	r1, [r1, #7]
     1d8:	bc10      	pop	{r4}
     1da:	ea43 6301 	orr.w	r3, r3, r1, lsl #24
     1de:	6093      	str	r3, [r2, #8]
     1e0:	4770      	bx	lr
     1e2:	bf00      	nop

000001e4 <std_msgs::Time::getType()>:
     1e4:	4800      	ldr	r0, [pc, #0]	; (1e8 <std_msgs::Time::getType()+0x4>)
     1e6:	4770      	bx	lr
     1e8:	0000ae38 	.word	0x0000ae38

000001ec <std_msgs::Time::getMD5()>:
     1ec:	4800      	ldr	r0, [pc, #0]	; (1f0 <std_msgs::Time::getMD5()+0x4>)
     1ee:	4770      	bx	lr
     1f0:	0000ae48 	.word	0x0000ae48

000001f4 <rosserial_msgs::TopicInfo::getType()>:
     1f4:	4800      	ldr	r0, [pc, #0]	; (1f8 <rosserial_msgs::TopicInfo::getType()+0x4>)
     1f6:	4770      	bx	lr
     1f8:	0000ae6c 	.word	0x0000ae6c

000001fc <rosserial_msgs::TopicInfo::getMD5()>:
     1fc:	4800      	ldr	r0, [pc, #0]	; (200 <rosserial_msgs::TopicInfo::getMD5()+0x4>)
     1fe:	4770      	bx	lr
     200:	0000ae88 	.word	0x0000ae88

00000204 <rosserial_msgs::Log::getType()>:
     204:	4800      	ldr	r0, [pc, #0]	; (208 <rosserial_msgs::Log::getType()+0x4>)
     206:	4770      	bx	lr
     208:	0000aeac 	.word	0x0000aeac

0000020c <rosserial_msgs::Log::getMD5()>:
     20c:	4800      	ldr	r0, [pc, #0]	; (210 <rosserial_msgs::Log::getMD5()+0x4>)
     20e:	4770      	bx	lr
     210:	0000aec0 	.word	0x0000aec0

00000214 <rosserial_msgs::RequestParamResponse::getType()>:
     214:	4800      	ldr	r0, [pc, #0]	; (218 <rosserial_msgs::RequestParamResponse::getType()+0x4>)
     216:	4770      	bx	lr
     218:	0000b07c 	.word	0x0000b07c

0000021c <rosserial_msgs::RequestParamResponse::getMD5()>:
     21c:	4800      	ldr	r0, [pc, #0]	; (220 <rosserial_msgs::RequestParamResponse::getMD5()+0x4>)
     21e:	4770      	bx	lr
     220:	0000aee4 	.word	0x0000aee4

00000224 <std_msgs::MultiArrayDimension::getType()>:
     224:	4800      	ldr	r0, [pc, #0]	; (228 <std_msgs::MultiArrayDimension::getType()+0x4>)
     226:	4770      	bx	lr
     228:	0000af08 	.word	0x0000af08

0000022c <std_msgs::MultiArrayDimension::getMD5()>:
     22c:	4800      	ldr	r0, [pc, #0]	; (230 <std_msgs::MultiArrayDimension::getMD5()+0x4>)
     22e:	4770      	bx	lr
     230:	0000af28 	.word	0x0000af28

00000234 <std_msgs::MultiArrayLayout::getType()>:
     234:	4800      	ldr	r0, [pc, #0]	; (238 <std_msgs::MultiArrayLayout::getType()+0x4>)
     236:	4770      	bx	lr
     238:	0000af4c 	.word	0x0000af4c

0000023c <std_msgs::MultiArrayLayout::getMD5()>:
     23c:	4800      	ldr	r0, [pc, #0]	; (240 <std_msgs::MultiArrayLayout::getMD5()+0x4>)
     23e:	4770      	bx	lr
     240:	0000af68 	.word	0x0000af68

00000244 <std_msgs::Int16MultiArray::getType()>:
     244:	4800      	ldr	r0, [pc, #0]	; (248 <std_msgs::Int16MultiArray::getType()+0x4>)
     246:	4770      	bx	lr
     248:	0000af8c 	.word	0x0000af8c

0000024c <std_msgs::Int16MultiArray::getMD5()>:
     24c:	4800      	ldr	r0, [pc, #0]	; (250 <std_msgs::Int16MultiArray::getMD5()+0x4>)
     24e:	4770      	bx	lr
     250:	0000afa8 	.word	0x0000afa8

00000254 <std_msgs::Float32MultiArray::getType()>:
     254:	4800      	ldr	r0, [pc, #0]	; (258 <std_msgs::Float32MultiArray::getType()+0x4>)
     256:	4770      	bx	lr
     258:	0000afcc 	.word	0x0000afcc

0000025c <std_msgs::Float32MultiArray::getMD5()>:
     25c:	4800      	ldr	r0, [pc, #0]	; (260 <std_msgs::Float32MultiArray::getMD5()+0x4>)
     25e:	4770      	bx	lr
     260:	0000afe8 	.word	0x0000afe8

00000264 <command_callback(std_msgs::Int16MultiArray const&)>:
     264:	b410      	push	{r4}
     266:	6a84      	ldr	r4, [r0, #40]	; 0x28
     268:	4a09      	ldr	r2, [pc, #36]	; (290 <command_callback(std_msgs::Int16MultiArray const&)+0x2c>)
     26a:	1ea3      	subs	r3, r4, #2
     26c:	f104 0008 	add.w	r0, r4, #8
     270:	f933 1f02 	ldrsh.w	r1, [r3, #2]!
     274:	4283      	cmp	r3, r0
     276:	f842 1b04 	str.w	r1, [r2], #4
     27a:	d1f9      	bne.n	270 <command_callback(std_msgs::Int16MultiArray const&)+0xc>
     27c:	f9b4 000a 	ldrsh.w	r0, [r4, #10]
     280:	f9b4 200c 	ldrsh.w	r2, [r4, #12]
     284:	4903      	ldr	r1, [pc, #12]	; (294 <command_callback(std_msgs::Int16MultiArray const&)+0x30>)
     286:	4b04      	ldr	r3, [pc, #16]	; (298 <command_callback(std_msgs::Int16MultiArray const&)+0x34>)
     288:	6008      	str	r0, [r1, #0]
     28a:	601a      	str	r2, [r3, #0]
     28c:	bc10      	pop	{r4}
     28e:	4770      	bx	lr
     290:	10000888 	.word	0x10000888
     294:	10000954 	.word	0x10000954
     298:	1000024c 	.word	0x1000024c

0000029c <ros::Subscriber<std_msgs::Int16MultiArray>::getEndpointType()>:
     29c:	6bc0      	ldr	r0, [r0, #60]	; 0x3c
     29e:	4770      	bx	lr

000002a0 <ros::Subscriber<std_msgs::Int16MultiArray>::getMsgType()>:
     2a0:	4800      	ldr	r0, [pc, #0]	; (2a4 <ros::Subscriber<std_msgs::Int16MultiArray>::getMsgType()+0x4>)
     2a2:	4770      	bx	lr
     2a4:	0000af8c 	.word	0x0000af8c

000002a8 <ros::Subscriber<std_msgs::Int16MultiArray>::getMsgMD5()>:
     2a8:	4800      	ldr	r0, [pc, #0]	; (2ac <ros::Subscriber<std_msgs::Int16MultiArray>::getMsgMD5()+0x4>)
     2aa:	4770      	bx	lr
     2ac:	0000afa8 	.word	0x0000afa8

000002b0 <ros::NodeHandle_<MbedHardware, 25, 25, 512, 512>::connected()>:
     2b0:	f890 05fc 	ldrb.w	r0, [r0, #1532]	; 0x5fc
     2b4:	4770      	bx	lr
     2b6:	bf00      	nop

000002b8 <std_msgs::MultiArrayDimension::serialize(unsigned char*) const>:
     2b8:	b570      	push	{r4, r5, r6, lr}
     2ba:	4605      	mov	r5, r0
     2bc:	b082      	sub	sp, #8
     2be:	460c      	mov	r4, r1
     2c0:	6840      	ldr	r0, [r0, #4]
     2c2:	f009 ff54 	bl	a16e <strlen>
     2c6:	4623      	mov	r3, r4
     2c8:	4606      	mov	r6, r0
     2ca:	aa02      	add	r2, sp, #8
     2cc:	f842 0d04 	str.w	r0, [r2, #-4]!
     2d0:	6810      	ldr	r0, [r2, #0]
     2d2:	4632      	mov	r2, r6
     2d4:	f843 0b04 	str.w	r0, [r3], #4
     2d8:	6869      	ldr	r1, [r5, #4]
     2da:	4618      	mov	r0, r3
     2dc:	f008 ffc0 	bl	9260 <memcpy>
     2e0:	68ab      	ldr	r3, [r5, #8]
     2e2:	19a1      	adds	r1, r4, r6
     2e4:	710b      	strb	r3, [r1, #4]
     2e6:	68ab      	ldr	r3, [r5, #8]
     2e8:	f106 000c 	add.w	r0, r6, #12
     2ec:	0a1b      	lsrs	r3, r3, #8
     2ee:	714b      	strb	r3, [r1, #5]
     2f0:	896b      	ldrh	r3, [r5, #10]
     2f2:	718b      	strb	r3, [r1, #6]
     2f4:	7aeb      	ldrb	r3, [r5, #11]
     2f6:	71cb      	strb	r3, [r1, #7]
     2f8:	68eb      	ldr	r3, [r5, #12]
     2fa:	720b      	strb	r3, [r1, #8]
     2fc:	68eb      	ldr	r3, [r5, #12]
     2fe:	0a1b      	lsrs	r3, r3, #8
     300:	724b      	strb	r3, [r1, #9]
     302:	89eb      	ldrh	r3, [r5, #14]
     304:	728b      	strb	r3, [r1, #10]
     306:	7beb      	ldrb	r3, [r5, #15]
     308:	72cb      	strb	r3, [r1, #11]
     30a:	b002      	add	sp, #8
     30c:	bd70      	pop	{r4, r5, r6, pc}
     30e:	bf00      	nop

00000310 <rosserial_msgs::RequestParamResponse::serialize(unsigned char*) const>:
     310:	e92d 43f0 	stmdb	sp!, {r4, r5, r6, r7, r8, r9, lr}
     314:	7903      	ldrb	r3, [r0, #4]
     316:	2400      	movs	r4, #0
     318:	700b      	strb	r3, [r1, #0]
     31a:	704c      	strb	r4, [r1, #1]
     31c:	708c      	strb	r4, [r1, #2]
     31e:	70cc      	strb	r4, [r1, #3]
     320:	7903      	ldrb	r3, [r0, #4]
     322:	b083      	sub	sp, #12
     324:	2b00      	cmp	r3, #0
     326:	d068      	beq.n	3fa <rosserial_msgs::RequestParamResponse::serialize(unsigned char*) const+0xea>
     328:	460b      	mov	r3, r1
     32a:	2504      	movs	r5, #4
     32c:	68c2      	ldr	r2, [r0, #12]
     32e:	1c66      	adds	r6, r4, #1
     330:	f852 2024 	ldr.w	r2, [r2, r4, lsl #2]
     334:	b2f4      	uxtb	r4, r6
     336:	ea4f 2e12 	mov.w	lr, r2, lsr #8
     33a:	0c17      	lsrs	r7, r2, #16
     33c:	0e16      	lsrs	r6, r2, #24
     33e:	711a      	strb	r2, [r3, #4]
     340:	f883 e005 	strb.w	lr, [r3, #5]
     344:	719f      	strb	r7, [r3, #6]
     346:	71de      	strb	r6, [r3, #7]
     348:	7902      	ldrb	r2, [r0, #4]
     34a:	3504      	adds	r5, #4
     34c:	42a2      	cmp	r2, r4
     34e:	f103 0304 	add.w	r3, r3, #4
     352:	d8eb      	bhi.n	32c <rosserial_msgs::RequestParamResponse::serialize(unsigned char*) const+0x1c>
     354:	462b      	mov	r3, r5
     356:	1d2a      	adds	r2, r5, #4
     358:	4615      	mov	r5, r2
     35a:	f103 0c01 	add.w	r12, r3, #1
     35e:	f103 0e02 	add.w	lr, r3, #2
     362:	1cdf      	adds	r7, r3, #3
     364:	7c06      	ldrb	r6, [r0, #16]
     366:	2400      	movs	r4, #0
     368:	54ce      	strb	r6, [r1, r3]
     36a:	f801 400c 	strb.w	r4, [r1, r12]
     36e:	f801 400e 	strb.w	r4, [r1, lr]
     372:	55cc      	strb	r4, [r1, r7]
     374:	7c03      	ldrb	r3, [r0, #16]
     376:	b1ab      	cbz	r3, 3a4 <rosserial_msgs::RequestParamResponse::serialize(unsigned char*) const+0x94>
     378:	194b      	adds	r3, r1, r5
     37a:	6982      	ldr	r2, [r0, #24]
     37c:	1c66      	adds	r6, r4, #1
     37e:	f852 2024 	ldr.w	r2, [r2, r4, lsl #2]
     382:	b2f4      	uxtb	r4, r6
     384:	ea4f 2e12 	mov.w	lr, r2, lsr #8
     388:	0c17      	lsrs	r7, r2, #16
     38a:	0e16      	lsrs	r6, r2, #24
     38c:	554a      	strb	r2, [r1, r5]
     38e:	f883 e001 	strb.w	lr, [r3, #1]
     392:	709f      	strb	r7, [r3, #2]
     394:	70de      	strb	r6, [r3, #3]
     396:	7c02      	ldrb	r2, [r0, #16]
     398:	3504      	adds	r5, #4
     39a:	42a2      	cmp	r2, r4
     39c:	f103 0304 	add.w	r3, r3, #4
     3a0:	d8eb      	bhi.n	37a <rosserial_msgs::RequestParamResponse::serialize(unsigned char*) const+0x6a>
     3a2:	462a      	mov	r2, r5
     3a4:	7f06      	ldrb	r6, [r0, #28]
     3a6:	194b      	adds	r3, r1, r5
     3a8:	2400      	movs	r4, #0
     3aa:	548e      	strb	r6, [r1, r2]
     3ac:	705c      	strb	r4, [r3, #1]
     3ae:	709c      	strb	r4, [r3, #2]
     3b0:	70dc      	strb	r4, [r3, #3]
     3b2:	7f03      	ldrb	r3, [r0, #28]
     3b4:	1d2e      	adds	r6, r5, #4
     3b6:	b1e3      	cbz	r3, 3f2 <rosserial_msgs::RequestParamResponse::serialize(unsigned char*) const+0xe2>
     3b8:	4688      	mov	r8, r1
     3ba:	4607      	mov	r7, r0
     3bc:	6a7b      	ldr	r3, [r7, #36]	; 0x24
     3be:	f106 0904 	add.w	r9, r6, #4
     3c2:	f853 0024 	ldr.w	r0, [r3, r4, lsl #2]
     3c6:	f009 fed2 	bl	a16e <strlen>
     3ca:	4605      	mov	r5, r0
     3cc:	9001      	str	r0, [sp, #4]
     3ce:	9801      	ldr	r0, [sp, #4]
     3d0:	462a      	mov	r2, r5
     3d2:	f848 0006 	str.w	r0, [r8, r6]
     3d6:	6a7b      	ldr	r3, [r7, #36]	; 0x24
     3d8:	eb08 0009 	add.w	r0, r8, r9
     3dc:	f853 1024 	ldr.w	r1, [r3, r4, lsl #2]
     3e0:	f008 ff3e 	bl	9260 <memcpy>
     3e4:	3401      	adds	r4, #1
     3e6:	7f3b      	ldrb	r3, [r7, #28]
     3e8:	b2e4      	uxtb	r4, r4
     3ea:	42a3      	cmp	r3, r4
     3ec:	eb05 0609 	add.w	r6, r5, r9
     3f0:	d8e4      	bhi.n	3bc <rosserial_msgs::RequestParamResponse::serialize(unsigned char*) const+0xac>
     3f2:	4630      	mov	r0, r6
     3f4:	b003      	add	sp, #12
     3f6:	e8bd 83f0 	ldmia.w	sp!, {r4, r5, r6, r7, r8, r9, pc}
     3fa:	2208      	movs	r2, #8
     3fc:	4615      	mov	r5, r2
     3fe:	2707      	movs	r7, #7
     400:	f04f 0e06 	mov.w	lr, #6
     404:	f04f 0c05 	mov.w	r12, #5
     408:	2304      	movs	r3, #4
     40a:	e7ab      	b.n	364 <rosserial_msgs::RequestParamResponse::serialize(unsigned char*) const+0x54>

0000040c <rosserial_msgs::Log::serialize(unsigned char*) const>:
     40c:	b570      	push	{r4, r5, r6, lr}
     40e:	7903      	ldrb	r3, [r0, #4]
     410:	b082      	sub	sp, #8
     412:	700b      	strb	r3, [r1, #0]
     414:	4606      	mov	r6, r0
     416:	6880      	ldr	r0, [r0, #8]
     418:	460d      	mov	r5, r1
     41a:	f009 fea8 	bl	a16e <strlen>
     41e:	4604      	mov	r4, r0
     420:	ab02      	add	r3, sp, #8
     422:	f843 0d04 	str.w	r0, [r3, #-4]!
     426:	6818      	ldr	r0, [r3, #0]
     428:	4622      	mov	r2, r4
     42a:	f8c5 0001 	str.w	r0, [r5, #1]
     42e:	68b1      	ldr	r1, [r6, #8]
     430:	1d68      	adds	r0, r5, #5
     432:	f008 ff15 	bl	9260 <memcpy>
     436:	1d60      	adds	r0, r4, #5
     438:	b002      	add	sp, #8
     43a:	bd70      	pop	{r4, r5, r6, pc}

0000043c <rosserial_msgs::TopicInfo::serialize(unsigned char*) const>:
     43c:	8883      	ldrh	r3, [r0, #4]
     43e:	e92d 41f0 	stmdb	sp!, {r4, r5, r6, r7, r8, lr}
     442:	700b      	strb	r3, [r1, #0]
     444:	8883      	ldrh	r3, [r0, #4]
     446:	b084      	sub	sp, #16
     448:	0a1b      	lsrs	r3, r3, #8
     44a:	704b      	strb	r3, [r1, #1]
     44c:	4606      	mov	r6, r0
     44e:	6880      	ldr	r0, [r0, #8]
     450:	460d      	mov	r5, r1
     452:	f009 fe8c 	bl	a16e <strlen>
     456:	4604      	mov	r4, r0
     458:	ab04      	add	r3, sp, #16
     45a:	f843 0d0c 	str.w	r0, [r3, #-12]!
     45e:	6818      	ldr	r0, [r3, #0]
     460:	4622      	mov	r2, r4
     462:	f8c5 0002 	str.w	r0, [r5, #2]
     466:	68b1      	ldr	r1, [r6, #8]
     468:	1da8      	adds	r0, r5, #6
     46a:	f008 fef9 	bl	9260 <memcpy>
     46e:	68f0      	ldr	r0, [r6, #12]
     470:	f009 fe7d 	bl	a16e <strlen>
     474:	4680      	mov	r8, r0
     476:	ab04      	add	r3, sp, #16
     478:	f843 0d08 	str.w	r0, [r3, #-8]!
     47c:	6818      	ldr	r0, [r3, #0]
     47e:	1da3      	adds	r3, r4, #6
     480:	50e8      	str	r0, [r5, r3]
     482:	340a      	adds	r4, #10
     484:	68f1      	ldr	r1, [r6, #12]
     486:	4642      	mov	r2, r8
     488:	1928      	adds	r0, r5, r4
     48a:	f008 fee9 	bl	9260 <memcpy>
     48e:	6930      	ldr	r0, [r6, #16]
     490:	f009 fe6d 	bl	a16e <strlen>
     494:	4607      	mov	r7, r0
     496:	ab04      	add	r3, sp, #16
     498:	f843 0d04 	str.w	r0, [r3, #-4]!
     49c:	6818      	ldr	r0, [r3, #0]
     49e:	4444      	add	r4, r8
     4a0:	5128      	str	r0, [r5, r4]
     4a2:	3404      	adds	r4, #4
     4a4:	6931      	ldr	r1, [r6, #16]
     4a6:	1928      	adds	r0, r5, r4
     4a8:	463a      	mov	r2, r7
     4aa:	f008 fed9 	bl	9260 <memcpy>
     4ae:	6973      	ldr	r3, [r6, #20]
     4b0:	1938      	adds	r0, r7, r4
     4b2:	182a      	adds	r2, r5, r0
     4b4:	542b      	strb	r3, [r5, r0]
     4b6:	0a1e      	lsrs	r6, r3, #8
     4b8:	0c1c      	lsrs	r4, r3, #16
     4ba:	0e19      	lsrs	r1, r3, #24
     4bc:	3004      	adds	r0, #4
     4be:	7056      	strb	r6, [r2, #1]
     4c0:	7094      	strb	r4, [r2, #2]
     4c2:	70d1      	strb	r1, [r2, #3]
     4c4:	b004      	add	sp, #16
     4c6:	e8bd 81f0 	ldmia.w	sp!, {r4, r5, r6, r7, r8, pc}
     4ca:	bf00      	nop

000004cc <rosserial_msgs::Log::deserialize(unsigned char*)>:
     4cc:	460b      	mov	r3, r1
     4ce:	b4f0      	push	{r4, r5, r6, r7}
     4d0:	f813 2b01 	ldrb.w	r2, [r3], #1
     4d4:	4606      	mov	r6, r0
     4d6:	7102      	strb	r2, [r0, #4]
     4d8:	6818      	ldr	r0, [r3, #0]
     4da:	b082      	sub	sp, #8
     4dc:	9001      	str	r0, [sp, #4]
     4de:	9d01      	ldr	r5, [sp, #4]
     4e0:	1d0f      	adds	r7, r1, #4
     4e2:	1d68      	adds	r0, r5, #5
     4e4:	2805      	cmp	r0, #5
     4e6:	d908      	bls.n	4fa <rosserial_msgs::Log::deserialize(unsigned char*)+0x2e>
     4e8:	463b      	mov	r3, r7
     4ea:	1d2c      	adds	r4, r5, #4
     4ec:	440c      	add	r4, r1
     4ee:	f813 2f01 	ldrb.w	r2, [r3, #1]!
     4f2:	42a3      	cmp	r3, r4
     4f4:	f803 2c01 	strb.w	r2, [r3, #-1]
     4f8:	d1f9      	bne.n	4ee <rosserial_msgs::Log::deserialize(unsigned char*)+0x22>
     4fa:	440d      	add	r5, r1
     4fc:	2300      	movs	r3, #0
     4fe:	712b      	strb	r3, [r5, #4]
     500:	60b7      	str	r7, [r6, #8]
     502:	b002      	add	sp, #8
     504:	bcf0      	pop	{r4, r5, r6, r7}
     506:	4770      	bx	lr

00000508 <std_msgs::MultiArrayDimension::deserialize(unsigned char*)>:
     508:	b4f0      	push	{r4, r5, r6, r7}
     50a:	4605      	mov	r5, r0
     50c:	6808      	ldr	r0, [r1, #0]
     50e:	b082      	sub	sp, #8
     510:	9001      	str	r0, [sp, #4]
     512:	9801      	ldr	r0, [sp, #4]
     514:	1ccf      	adds	r7, r1, #3
     516:	1d06      	adds	r6, r0, #4
     518:	2e04      	cmp	r6, #4
     51a:	d908      	bls.n	52e <std_msgs::MultiArrayDimension::deserialize(unsigned char*)+0x26>
     51c:	463b      	mov	r3, r7
     51e:	1cc4      	adds	r4, r0, #3
     520:	440c      	add	r4, r1
     522:	f813 2f01 	ldrb.w	r2, [r3, #1]!
     526:	42a3      	cmp	r3, r4
     528:	f803 2c01 	strb.w	r2, [r3, #-1]
     52c:	d1f9      	bne.n	522 <std_msgs::MultiArrayDimension::deserialize(unsigned char*)+0x1a>
     52e:	180a      	adds	r2, r1, r0
     530:	2300      	movs	r3, #0
     532:	70d3      	strb	r3, [r2, #3]
     534:	606f      	str	r7, [r5, #4]
     536:	5d8b      	ldrb	r3, [r1, r6]
     538:	300c      	adds	r0, #12
     53a:	60ab      	str	r3, [r5, #8]
     53c:	7951      	ldrb	r1, [r2, #5]
     53e:	ea43 2301 	orr.w	r3, r3, r1, lsl #8
     542:	60ab      	str	r3, [r5, #8]
     544:	7991      	ldrb	r1, [r2, #6]
     546:	ea43 4301 	orr.w	r3, r3, r1, lsl #16
     54a:	60ab      	str	r3, [r5, #8]
     54c:	79d1      	ldrb	r1, [r2, #7]
     54e:	ea43 6301 	orr.w	r3, r3, r1, lsl #24
     552:	60ab      	str	r3, [r5, #8]
     554:	7a13      	ldrb	r3, [r2, #8]
     556:	60eb      	str	r3, [r5, #12]
     558:	7a51      	ldrb	r1, [r2, #9]
     55a:	ea43 2301 	orr.w	r3, r3, r1, lsl #8
     55e:	60eb      	str	r3, [r5, #12]
     560:	7a91      	ldrb	r1, [r2, #10]
     562:	ea43 4301 	orr.w	r3, r3, r1, lsl #16
     566:	60eb      	str	r3, [r5, #12]
     568:	7ad2      	ldrb	r2, [r2, #11]
     56a:	ea43 6302 	orr.w	r3, r3, r2, lsl #24
     56e:	60eb      	str	r3, [r5, #12]
     570:	b002      	add	sp, #8
     572:	bcf0      	pop	{r4, r5, r6, r7}
     574:	4770      	bx	lr
     576:	bf00      	nop

00000578 <rosserial_msgs::TopicInfo::deserialize(unsigned char*)>:
     578:	b4f0      	push	{r4, r5, r6, r7}
     57a:	780b      	ldrb	r3, [r1, #0]
     57c:	4605      	mov	r5, r0
     57e:	8083      	strh	r3, [r0, #4]
     580:	784a      	ldrb	r2, [r1, #1]
     582:	b084      	sub	sp, #16
     584:	ea43 2302 	orr.w	r3, r3, r2, lsl #8
     588:	8083      	strh	r3, [r0, #4]
     58a:	f8d1 0002 	ldr.w	r0, [r1, #2]
     58e:	1d4f      	adds	r7, r1, #5
     590:	9001      	str	r0, [sp, #4]
     592:	9a01      	ldr	r2, [sp, #4]
     594:	1d96      	adds	r6, r2, #6
     596:	2e06      	cmp	r6, #6
     598:	d908      	bls.n	5ac <rosserial_msgs::TopicInfo::deserialize(unsigned char*)+0x34>
     59a:	463b      	mov	r3, r7
     59c:	1d54      	adds	r4, r2, #5
     59e:	440c      	add	r4, r1
     5a0:	f813 0f01 	ldrb.w	r0, [r3, #1]!
     5a4:	429c      	cmp	r4, r3
     5a6:	f803 0c01 	strb.w	r0, [r3, #-1]
     5aa:	d1f9      	bne.n	5a0 <rosserial_msgs::TopicInfo::deserialize(unsigned char*)+0x28>
     5ac:	188b      	adds	r3, r1, r2
     5ae:	2000      	movs	r0, #0
     5b0:	7158      	strb	r0, [r3, #5]
     5b2:	60af      	str	r7, [r5, #8]
     5b4:	5988      	ldr	r0, [r1, r6]
     5b6:	3604      	adds	r6, #4
     5b8:	9002      	str	r0, [sp, #8]
     5ba:	9b02      	ldr	r3, [sp, #8]
     5bc:	4433      	add	r3, r6
     5be:	429e      	cmp	r6, r3
     5c0:	d209      	bcs.n	5d6 <rosserial_msgs::TopicInfo::deserialize(unsigned char*)+0x5e>
     5c2:	4630      	mov	r0, r6
     5c4:	3209      	adds	r2, #9
     5c6:	440a      	add	r2, r1
     5c8:	f812 4f01 	ldrb.w	r4, [r2, #1]!
     5cc:	3001      	adds	r0, #1
     5ce:	4298      	cmp	r0, r3
     5d0:	f802 4c01 	strb.w	r4, [r2, #-1]
     5d4:	d3f8      	bcc.n	5c8 <rosserial_msgs::TopicInfo::deserialize(unsigned char*)+0x50>
     5d6:	3e01      	subs	r6, #1
     5d8:	440e      	add	r6, r1
     5da:	18ca      	adds	r2, r1, r3
     5dc:	2000      	movs	r0, #0
     5de:	f802 0c01 	strb.w	r0, [r2, #-1]
     5e2:	60ee      	str	r6, [r5, #12]
     5e4:	6810      	ldr	r0, [r2, #0]
     5e6:	1d1e      	adds	r6, r3, #4
     5e8:	9003      	str	r0, [sp, #12]
     5ea:	9803      	ldr	r0, [sp, #12]
     5ec:	4430      	add	r0, r6
     5ee:	4286      	cmp	r6, r0
     5f0:	d209      	bcs.n	606 <rosserial_msgs::TopicInfo::deserialize(unsigned char*)+0x8e>
     5f2:	4632      	mov	r2, r6
     5f4:	3303      	adds	r3, #3
     5f6:	440b      	add	r3, r1
     5f8:	f813 4f01 	ldrb.w	r4, [r3, #1]!
     5fc:	3201      	adds	r2, #1
     5fe:	4282      	cmp	r2, r0
     600:	f803 4c01 	strb.w	r4, [r3, #-1]
     604:	d3f8      	bcc.n	5f8 <rosserial_msgs::TopicInfo::deserialize(unsigned char*)+0x80>
     606:	3e01      	subs	r6, #1
     608:	180c      	adds	r4, r1, r0
     60a:	440e      	add	r6, r1
     60c:	2300      	movs	r3, #0
     60e:	f804 3c01 	strb.w	r3, [r4, #-1]
     612:	612e      	str	r6, [r5, #16]
     614:	78a3      	ldrb	r3, [r4, #2]
     616:	7866      	ldrb	r6, [r4, #1]
     618:	5c0a      	ldrb	r2, [r1, r0]
     61a:	041b      	lsls	r3, r3, #16
     61c:	78e1      	ldrb	r1, [r4, #3]
     61e:	ea43 2306 	orr.w	r3, r3, r6, lsl #8
     622:	4313      	orrs	r3, r2
     624:	ea43 6301 	orr.w	r3, r3, r1, lsl #24
     628:	3004      	adds	r0, #4
     62a:	616b      	str	r3, [r5, #20]
     62c:	b004      	add	sp, #16
     62e:	bcf0      	pop	{r4, r5, r6, r7}
     630:	4770      	bx	lr
     632:	bf00      	nop

00000634 <rosserial_msgs::RequestParamResponse::deserialize(unsigned char*)>:
     634:	e92d 41f0 	stmdb	sp!, {r4, r5, r6, r7, r8, lr}
     638:	7903      	ldrb	r3, [r0, #4]
     63a:	780c      	ldrb	r4, [r1, #0]
     63c:	b082      	sub	sp, #8
     63e:	42a3      	cmp	r3, r4
     640:	4605      	mov	r5, r0
     642:	460e      	mov	r6, r1
     644:	f0c0 8082 	bcc.w	74c <rosserial_msgs::RequestParamResponse::deserialize(unsigned char*)+0x118>
     648:	712c      	strb	r4, [r5, #4]
     64a:	2c00      	cmp	r4, #0
     64c:	f000 8087 	beq.w	75e <rosserial_msgs::RequestParamResponse::deserialize(unsigned char*)+0x12a>
     650:	4633      	mov	r3, r6
     652:	f105 0708 	add.w	r7, r5, #8
     656:	2000      	movs	r0, #0
     658:	2404      	movs	r4, #4
     65a:	799a      	ldrb	r2, [r3, #6]
     65c:	f893 e005 	ldrb.w	lr, [r3, #5]
     660:	7919      	ldrb	r1, [r3, #4]
     662:	0412      	lsls	r2, r2, #16
     664:	ea42 220e 	orr.w	r2, r2, lr, lsl #8
     668:	f893 e007 	ldrb.w	lr, [r3, #7]
     66c:	430a      	orrs	r2, r1
     66e:	ea42 620e 	orr.w	r2, r2, lr, lsl #24
     672:	60aa      	str	r2, [r5, #8]
     674:	f8d7 e000 	ldr.w	lr, [r7]
     678:	68ea      	ldr	r2, [r5, #12]
     67a:	1c41      	adds	r1, r0, #1
     67c:	f842 e020 	str.w	lr, [r2, r0, lsl #2]
     680:	792a      	ldrb	r2, [r5, #4]
     682:	b2c8      	uxtb	r0, r1
     684:	4282      	cmp	r2, r0
     686:	f104 0404 	add.w	r4, r4, #4
     68a:	f103 0304 	add.w	r3, r3, #4
     68e:	d8e4      	bhi.n	65a <rosserial_msgs::RequestParamResponse::deserialize(unsigned char*)+0x26>
     690:	4623      	mov	r3, r4
     692:	f816 8003 	ldrb.w	r8, [r6, r3]
     696:	7c2b      	ldrb	r3, [r5, #16]
     698:	1d27      	adds	r7, r4, #4
     69a:	4543      	cmp	r3, r8
     69c:	463c      	mov	r4, r7
     69e:	d366      	bcc.n	76e <rosserial_msgs::RequestParamResponse::deserialize(unsigned char*)+0x13a>
     6a0:	f885 8010 	strb.w	r8, [r5, #16]
     6a4:	f1b8 0f00 	cmp.w	r8, #0
     6a8:	d01f      	beq.n	6ea <rosserial_msgs::RequestParamResponse::deserialize(unsigned char*)+0xb6>
     6aa:	f105 0714 	add.w	r7, r5, #20
     6ae:	1933      	adds	r3, r6, r4
     6b0:	2000      	movs	r0, #0
     6b2:	789a      	ldrb	r2, [r3, #2]
     6b4:	f893 e001 	ldrb.w	lr, [r3, #1]
     6b8:	7819      	ldrb	r1, [r3, #0]
     6ba:	0412      	lsls	r2, r2, #16
     6bc:	ea42 220e 	orr.w	r2, r2, lr, lsl #8
     6c0:	f893 e003 	ldrb.w	lr, [r3, #3]
     6c4:	430a      	orrs	r2, r1
     6c6:	ea42 620e 	orr.w	r2, r2, lr, lsl #24
     6ca:	616a      	str	r2, [r5, #20]
     6cc:	f8d7 e000 	ldr.w	lr, [r7]
     6d0:	69aa      	ldr	r2, [r5, #24]
     6d2:	1c41      	adds	r1, r0, #1
     6d4:	f842 e020 	str.w	lr, [r2, r0, lsl #2]
     6d8:	7c2a      	ldrb	r2, [r5, #16]
     6da:	b2c8      	uxtb	r0, r1
     6dc:	4282      	cmp	r2, r0
     6de:	f104 0404 	add.w	r4, r4, #4
     6e2:	f103 0304 	add.w	r3, r3, #4
     6e6:	d8e4      	bhi.n	6b2 <rosserial_msgs::RequestParamResponse::deserialize(unsigned char*)+0x7e>
     6e8:	4627      	mov	r7, r4
     6ea:	5df7      	ldrb	r7, [r6, r7]
     6ec:	7f2b      	ldrb	r3, [r5, #28]
     6ee:	42bb      	cmp	r3, r7
     6f0:	d344      	bcc.n	77c <rosserial_msgs::RequestParamResponse::deserialize(unsigned char*)+0x148>
     6f2:	1d23      	adds	r3, r4, #4
     6f4:	772f      	strb	r7, [r5, #28]
     6f6:	b32f      	cbz	r7, 744 <rosserial_msgs::RequestParamResponse::deserialize(unsigned char*)+0x110>
     6f8:	2700      	movs	r7, #0
     6fa:	46bc      	mov	r12, r7
     6fc:	f105 0e20 	add.w	lr, r5, #32
     700:	58f0      	ldr	r0, [r6, r3]
     702:	1d1c      	adds	r4, r3, #4
     704:	9001      	str	r0, [sp, #4]
     706:	9801      	ldr	r0, [sp, #4]
     708:	4420      	add	r0, r4
     70a:	4284      	cmp	r4, r0
     70c:	d209      	bcs.n	722 <rosserial_msgs::RequestParamResponse::deserialize(unsigned char*)+0xee>
     70e:	4622      	mov	r2, r4
     710:	3303      	adds	r3, #3
     712:	4433      	add	r3, r6
     714:	f813 1f01 	ldrb.w	r1, [r3, #1]!
     718:	3201      	adds	r2, #1
     71a:	4282      	cmp	r2, r0
     71c:	f803 1c01 	strb.w	r1, [r3, #-1]
     720:	d3f8      	bcc.n	714 <rosserial_msgs::RequestParamResponse::deserialize(unsigned char*)+0xe0>
     722:	3c01      	subs	r4, #1
     724:	1833      	adds	r3, r6, r0
     726:	4434      	add	r4, r6
     728:	f803 cc01 	strb.w	r12, [r3, #-1]
     72c:	622c      	str	r4, [r5, #32]
     72e:	6a6a      	ldr	r2, [r5, #36]	; 0x24
     730:	f8de 1000 	ldr.w	r1, [lr]
     734:	1c7b      	adds	r3, r7, #1
     736:	f842 1027 	str.w	r1, [r2, r7, lsl #2]
     73a:	7f2a      	ldrb	r2, [r5, #28]
     73c:	b2df      	uxtb	r7, r3
     73e:	42ba      	cmp	r2, r7
     740:	4603      	mov	r3, r0
     742:	d8dd      	bhi.n	700 <rosserial_msgs::RequestParamResponse::deserialize(unsigned char*)+0xcc>
     744:	4618      	mov	r0, r3
     746:	b002      	add	sp, #8
     748:	e8bd 81f0 	ldmia.w	sp!, {r4, r5, r6, r7, r8, pc}
     74c:	00a1      	lsls	r1, r4, #2
     74e:	68c0      	ldr	r0, [r0, #12]
     750:	f005 fc34 	bl	5fbc <__wrap_realloc>
     754:	712c      	strb	r4, [r5, #4]
     756:	60e8      	str	r0, [r5, #12]
     758:	2c00      	cmp	r4, #0
     75a:	f47f af79 	bne.w	650 <rosserial_msgs::RequestParamResponse::deserialize(unsigned char*)+0x1c>
     75e:	2304      	movs	r3, #4
     760:	f816 8003 	ldrb.w	r8, [r6, r3]
     764:	7c2b      	ldrb	r3, [r5, #16]
     766:	2708      	movs	r7, #8
     768:	4543      	cmp	r3, r8
     76a:	463c      	mov	r4, r7
     76c:	d298      	bcs.n	6a0 <rosserial_msgs::RequestParamResponse::deserialize(unsigned char*)+0x6c>
     76e:	ea4f 0188 	mov.w	r1, r8, lsl #2
     772:	69a8      	ldr	r0, [r5, #24]
     774:	f005 fc22 	bl	5fbc <__wrap_realloc>
     778:	61a8      	str	r0, [r5, #24]
     77a:	e791      	b.n	6a0 <rosserial_msgs::RequestParamResponse::deserialize(unsigned char*)+0x6c>
     77c:	00b9      	lsls	r1, r7, #2
     77e:	6a68      	ldr	r0, [r5, #36]	; 0x24
     780:	f005 fc1c 	bl	5fbc <__wrap_realloc>
     784:	6268      	str	r0, [r5, #36]	; 0x24
     786:	e7b4      	b.n	6f2 <rosserial_msgs::RequestParamResponse::deserialize(unsigned char*)+0xbe>

00000788 <mbed::SerialBase::~SerialBase()>:
     788:	b510      	push	{r4, lr}
     78a:	4604      	mov	r4, r0
     78c:	f007 fa1f 	bl	7bce <operator delete(void*)>
     790:	4620      	mov	r0, r4
     792:	bd10      	pop	{r4, pc}

00000794 <std::vector<Dynamixel*, std::allocator<Dynamixel*> >::~vector()>:
     794:	b510      	push	{r4, lr}
     796:	4604      	mov	r4, r0
     798:	6800      	ldr	r0, [r0, #0]
     79a:	b108      	cbz	r0, 7a0 <std::vector<Dynamixel*, std::allocator<Dynamixel*> >::~vector()+0xc>
     79c:	f007 fa17 	bl	7bce <operator delete(void*)>
     7a0:	4620      	mov	r0, r4
     7a2:	bd10      	pop	{r4, pc}

000007a4 <mbed::Serial::~Serial()>:
     7a4:	b510      	push	{r4, lr}
     7a6:	4604      	mov	r4, r0
     7a8:	4b06      	ldr	r3, [pc, #24]	; (7c4 <mbed::Serial::~Serial()+0x20>)
     7aa:	3040      	adds	r0, #64	; 0x40
     7ac:	f103 0118 	add.w	r1, r3, #24
     7b0:	f103 024c 	add.w	r2, r3, #76	; 0x4c
     7b4:	6023      	str	r3, [r4, #0]
     7b6:	6421      	str	r1, [r4, #64]	; 0x40
     7b8:	6462      	str	r2, [r4, #68]	; 0x44
     7ba:	f007 f811 	bl	77e0 <mbed::Stream::~Stream()>
     7be:	4620      	mov	r0, r4
     7c0:	bd10      	pop	{r4, pc}
     7c2:	bf00      	nop
     7c4:	0000b410 	.word	0x0000b410

000007c8 <non-virtual thunk to mbed::Serial::~Serial()>:
     7c8:	f1a0 0040 	sub.w	r0, r0, #64	; 0x40
     7cc:	e7ea      	b.n	7a4 <mbed::Serial::~Serial()>
     7ce:	bf00      	nop

000007d0 <non-virtual thunk to mbed::Serial::~Serial()>:
     7d0:	f1a0 0044 	sub.w	r0, r0, #68	; 0x44
     7d4:	e7e6      	b.n	7a4 <mbed::Serial::~Serial()>
     7d6:	bf00      	nop

000007d8 <std_msgs::MultiArrayLayout::serialize(unsigned char*) const>:
     7d8:	e92d 4ff0 	stmdb	sp!, {r4, r5, r6, r7, r8, r9, r10, r11, lr}
     7dc:	7903      	ldrb	r3, [r0, #4]
     7de:	2600      	movs	r6, #0
     7e0:	700b      	strb	r3, [r1, #0]
     7e2:	704e      	strb	r6, [r1, #1]
     7e4:	708e      	strb	r6, [r1, #2]
     7e6:	70ce      	strb	r6, [r1, #3]
     7e8:	7903      	ldrb	r3, [r0, #4]
     7ea:	b083      	sub	sp, #12
     7ec:	4683      	mov	r11, r0
     7ee:	4689      	mov	r9, r1
     7f0:	2b00      	cmp	r3, #0
     7f2:	d059      	beq.n	8a8 <Heap_Size+0xa8>
     7f4:	f8df a0c0 	ldr.w	r10, [pc, #192]	; 8b8 <Heap_Size+0xb8>
     7f8:	f04f 0804 	mov.w	r8, #4
     7fc:	e02a      	b.n	854 <Heap_Size+0x54>
     7fe:	6860      	ldr	r0, [r4, #4]
     800:	f009 fcb5 	bl	a16e <strlen>
     804:	4607      	mov	r7, r0
     806:	ab02      	add	r3, sp, #8
     808:	f843 0d04 	str.w	r0, [r3, #-4]!
     80c:	6818      	ldr	r0, [r3, #0]
     80e:	463a      	mov	r2, r7
     810:	f849 0008 	str.w	r0, [r9, r8]
     814:	6861      	ldr	r1, [r4, #4]
     816:	1d28      	adds	r0, r5, #4
     818:	f008 fd22 	bl	9260 <memcpy>
     81c:	68a3      	ldr	r3, [r4, #8]
     81e:	19e9      	adds	r1, r5, r7
     820:	710b      	strb	r3, [r1, #4]
     822:	68a3      	ldr	r3, [r4, #8]
     824:	f107 000c 	add.w	r0, r7, #12
     828:	0a1b      	lsrs	r3, r3, #8
     82a:	714b      	strb	r3, [r1, #5]
     82c:	8963      	ldrh	r3, [r4, #10]
     82e:	718b      	strb	r3, [r1, #6]
     830:	7ae3      	ldrb	r3, [r4, #11]
     832:	71cb      	strb	r3, [r1, #7]
     834:	68e3      	ldr	r3, [r4, #12]
     836:	720b      	strb	r3, [r1, #8]
     838:	68e3      	ldr	r3, [r4, #12]
     83a:	0a1b      	lsrs	r3, r3, #8
     83c:	724b      	strb	r3, [r1, #9]
     83e:	89e3      	ldrh	r3, [r4, #14]
     840:	728b      	strb	r3, [r1, #10]
     842:	7be3      	ldrb	r3, [r4, #15]
     844:	72cb      	strb	r3, [r1, #11]
     846:	3601      	adds	r6, #1
     848:	f89b 3004 	ldrb.w	r3, [r11, #4]
     84c:	b2f6      	uxtb	r6, r6
     84e:	42b3      	cmp	r3, r6
     850:	4480      	add	r8, r0
     852:	d90d      	bls.n	870 <Heap_Size+0x70>
     854:	f8db 4018 	ldr.w	r4, [r11, #24]
     858:	0133      	lsls	r3, r6, #4
     85a:	58e2      	ldr	r2, [r4, r3]
     85c:	441c      	add	r4, r3
     85e:	6813      	ldr	r3, [r2, #0]
     860:	eb09 0508 	add.w	r5, r9, r8
     864:	4553      	cmp	r3, r10
     866:	d0ca      	beq.n	7fe <std_msgs::MultiArrayLayout::serialize(unsigned char*) const+0x26>
     868:	4629      	mov	r1, r5
     86a:	4620      	mov	r0, r4
     86c:	4798      	blx	r3
     86e:	e7ea      	b.n	846 <Heap_Size+0x46>
     870:	f108 0401 	add.w	r4, r8, #1
     874:	f108 0102 	add.w	r1, r8, #2
     878:	f108 0203 	add.w	r2, r8, #3
     87c:	f108 0004 	add.w	r0, r8, #4
     880:	f8db 301c 	ldr.w	r3, [r11, #28]
     884:	f809 3008 	strb.w	r3, [r9, r8]
     888:	f8db 301c 	ldr.w	r3, [r11, #28]
     88c:	0a1b      	lsrs	r3, r3, #8
     88e:	f809 3004 	strb.w	r3, [r9, r4]
     892:	f8bb 301e 	ldrh.w	r3, [r11, #30]
     896:	f809 3001 	strb.w	r3, [r9, r1]
     89a:	f89b 301f 	ldrb.w	r3, [r11, #31]
     89e:	f809 3002 	strb.w	r3, [r9, r2]
     8a2:	b003      	add	sp, #12
     8a4:	e8bd 8ff0 	ldmia.w	sp!, {r4, r5, r6, r7, r8, r9, r10, r11, pc}
     8a8:	2008      	movs	r0, #8
     8aa:	2207      	movs	r2, #7
     8ac:	2106      	movs	r1, #6
     8ae:	2405      	movs	r4, #5
     8b0:	f04f 0804 	mov.w	r8, #4
     8b4:	e7e4      	b.n	880 <Heap_Size+0x80>
     8b6:	bf00      	nop
     8b8:	000002b9 	.word	0x000002b9

000008bc <std_msgs::MultiArrayLayout::deserialize(unsigned char*)>:
     8bc:	e92d 47f0 	stmdb	sp!, {r4, r5, r6, r7, r8, r9, r10, lr}
     8c0:	7903      	ldrb	r3, [r0, #4]
     8c2:	780d      	ldrb	r5, [r1, #0]
     8c4:	b082      	sub	sp, #8
     8c6:	42ab      	cmp	r3, r5
     8c8:	4604      	mov	r4, r0
     8ca:	460e      	mov	r6, r1
     8cc:	d378      	bcc.n	9c0 <std_msgs::MultiArrayLayout::deserialize(unsigned char*)+0x104>
     8ce:	7125      	strb	r5, [r4, #4]
     8d0:	2d00      	cmp	r5, #0
     8d2:	d07d      	beq.n	9d0 <std_msgs::MultiArrayLayout::deserialize(unsigned char*)+0x114>
     8d4:	2500      	movs	r5, #0
     8d6:	46ac      	mov	r12, r5
     8d8:	f104 0708 	add.w	r7, r4, #8
     8dc:	f04f 0e04 	mov.w	lr, #4
     8e0:	eb06 080e 	add.w	r8, r6, lr
     8e4:	f8d8 0000 	ldr.w	r0, [r8]
     8e8:	f108 0a03 	add.w	r10, r8, #3
     8ec:	9001      	str	r0, [sp, #4]
     8ee:	9801      	ldr	r0, [sp, #4]
     8f0:	f100 0904 	add.w	r9, r0, #4
     8f4:	f1b9 0f04 	cmp.w	r9, #4
     8f8:	d908      	bls.n	90c <std_msgs::MultiArrayLayout::deserialize(unsigned char*)+0x50>
     8fa:	4653      	mov	r3, r10
     8fc:	1cc1      	adds	r1, r0, #3
     8fe:	4441      	add	r1, r8
     900:	f813 2f01 	ldrb.w	r2, [r3, #1]!
     904:	4299      	cmp	r1, r3
     906:	f803 2c01 	strb.w	r2, [r3, #-1]
     90a:	d1f9      	bne.n	900 <std_msgs::MultiArrayLayout::deserialize(unsigned char*)+0x44>
     90c:	eb08 0200 	add.w	r2, r8, r0
     910:	f882 c003 	strb.w	r12, [r2, #3]
     914:	f8c4 a00c 	str.w	r10, [r4, #12]
     918:	f818 3009 	ldrb.w	r3, [r8, r9]
     91c:	f8d4 8018 	ldr.w	r8, [r4, #24]
     920:	6123      	str	r3, [r4, #16]
     922:	f892 9005 	ldrb.w	r9, [r2, #5]
     926:	0129      	lsls	r1, r5, #4
     928:	ea43 2309 	orr.w	r3, r3, r9, lsl #8
     92c:	6123      	str	r3, [r4, #16]
     92e:	f892 9006 	ldrb.w	r9, [r2, #6]
     932:	300c      	adds	r0, #12
     934:	ea43 4309 	orr.w	r3, r3, r9, lsl #16
     938:	6123      	str	r3, [r4, #16]
     93a:	f892 9007 	ldrb.w	r9, [r2, #7]
     93e:	4486      	add	lr, r0
     940:	ea43 6309 	orr.w	r3, r3, r9, lsl #24
     944:	6123      	str	r3, [r4, #16]
     946:	7a13      	ldrb	r3, [r2, #8]
     948:	eb08 0001 	add.w	r0, r8, r1
     94c:	6163      	str	r3, [r4, #20]
     94e:	f892 9009 	ldrb.w	r9, [r2, #9]
     952:	3501      	adds	r5, #1
     954:	ea43 2309 	orr.w	r3, r3, r9, lsl #8
     958:	6163      	str	r3, [r4, #20]
     95a:	f892 900a 	ldrb.w	r9, [r2, #10]
     95e:	b2ed      	uxtb	r5, r5
     960:	ea43 4309 	orr.w	r3, r3, r9, lsl #16
     964:	6163      	str	r3, [r4, #20]
     966:	7ad2      	ldrb	r2, [r2, #11]
     968:	ea43 6302 	orr.w	r3, r3, r2, lsl #24
     96c:	6163      	str	r3, [r4, #20]
     96e:	68fb      	ldr	r3, [r7, #12]
     970:	f8d7 a000 	ldr.w	r10, [r7]
     974:	f8d7 9004 	ldr.w	r9, [r7, #4]
     978:	68ba      	ldr	r2, [r7, #8]
     97a:	f848 a001 	str.w	r10, [r8, r1]
     97e:	f8c0 9004 	str.w	r9, [r0, #4]
     982:	6082      	str	r2, [r0, #8]
     984:	60c3      	str	r3, [r0, #12]
     986:	7923      	ldrb	r3, [r4, #4]
     988:	42ab      	cmp	r3, r5
     98a:	d8a9      	bhi.n	8e0 <std_msgs::MultiArrayLayout::deserialize(unsigned char*)+0x24>
     98c:	f10e 0501 	add.w	r5, lr, #1
     990:	f10e 0102 	add.w	r1, lr, #2
     994:	f10e 0203 	add.w	r2, lr, #3
     998:	f10e 0004 	add.w	r0, lr, #4
     99c:	f816 300e 	ldrb.w	r3, [r6, lr]
     9a0:	61e3      	str	r3, [r4, #28]
     9a2:	5d75      	ldrb	r5, [r6, r5]
     9a4:	ea43 2305 	orr.w	r3, r3, r5, lsl #8
     9a8:	61e3      	str	r3, [r4, #28]
     9aa:	5c71      	ldrb	r1, [r6, r1]
     9ac:	ea43 4301 	orr.w	r3, r3, r1, lsl #16
     9b0:	61e3      	str	r3, [r4, #28]
     9b2:	5cb2      	ldrb	r2, [r6, r2]
     9b4:	ea43 6302 	orr.w	r3, r3, r2, lsl #24
     9b8:	61e3      	str	r3, [r4, #28]
     9ba:	b002      	add	sp, #8
     9bc:	e8bd 87f0 	ldmia.w	sp!, {r4, r5, r6, r7, r8, r9, r10, pc}
     9c0:	0129      	lsls	r1, r5, #4
     9c2:	6980      	ldr	r0, [r0, #24]
     9c4:	f005 fafa 	bl	5fbc <__wrap_realloc>
     9c8:	7125      	strb	r5, [r4, #4]
     9ca:	61a0      	str	r0, [r4, #24]
     9cc:	2d00      	cmp	r5, #0
     9ce:	d181      	bne.n	8d4 <std_msgs::MultiArrayLayout::deserialize(unsigned char*)+0x18>
     9d0:	2008      	movs	r0, #8
     9d2:	2207      	movs	r2, #7
     9d4:	2106      	movs	r1, #6
     9d6:	2505      	movs	r5, #5
     9d8:	f04f 0e04 	mov.w	lr, #4
     9dc:	e7de      	b.n	99c <std_msgs::MultiArrayLayout::deserialize(unsigned char*)+0xe0>
     9de:	bf00      	nop

000009e0 <std_msgs::Int16MultiArray::serialize(unsigned char*) const>:
     9e0:	e92d 4ff0 	stmdb	sp!, {r4, r5, r6, r7, r8, r9, r10, r11, lr}
     9e4:	7a03      	ldrb	r3, [r0, #8]
     9e6:	2600      	movs	r6, #0
     9e8:	700b      	strb	r3, [r1, #0]
     9ea:	704e      	strb	r6, [r1, #1]
     9ec:	708e      	strb	r6, [r1, #2]
     9ee:	70ce      	strb	r6, [r1, #3]
     9f0:	7a03      	ldrb	r3, [r0, #8]
     9f2:	b083      	sub	sp, #12
     9f4:	4680      	mov	r8, r0
     9f6:	460f      	mov	r7, r1
     9f8:	2b00      	cmp	r3, #0
     9fa:	d07b      	beq.n	af4 <std_msgs::Int16MultiArray::serialize(unsigned char*) const+0x114>
     9fc:	f8df a110 	ldr.w	r10, [pc, #272]	; b10 <std_msgs::Int16MultiArray::serialize(unsigned char*) const+0x130>
     a00:	f04f 0b04 	mov.w	r11, #4
     a04:	e02b      	b.n	a5e <std_msgs::Int16MultiArray::serialize(unsigned char*) const+0x7e>
     a06:	6860      	ldr	r0, [r4, #4]
     a08:	f009 fbb1 	bl	a16e <strlen>
     a0c:	4681      	mov	r9, r0
     a0e:	ab02      	add	r3, sp, #8
     a10:	f843 0d04 	str.w	r0, [r3, #-4]!
     a14:	6818      	ldr	r0, [r3, #0]
     a16:	464a      	mov	r2, r9
     a18:	f847 000b 	str.w	r0, [r7, r11]
     a1c:	6861      	ldr	r1, [r4, #4]
     a1e:	1d28      	adds	r0, r5, #4
     a20:	f008 fc1e 	bl	9260 <memcpy>
     a24:	68a3      	ldr	r3, [r4, #8]
     a26:	eb05 0109 	add.w	r1, r5, r9
     a2a:	710b      	strb	r3, [r1, #4]
     a2c:	68a3      	ldr	r3, [r4, #8]
     a2e:	f109 000c 	add.w	r0, r9, #12
     a32:	0a1b      	lsrs	r3, r3, #8
     a34:	714b      	strb	r3, [r1, #5]
     a36:	8963      	ldrh	r3, [r4, #10]
     a38:	718b      	strb	r3, [r1, #6]
     a3a:	7ae3      	ldrb	r3, [r4, #11]
     a3c:	71cb      	strb	r3, [r1, #7]
     a3e:	68e3      	ldr	r3, [r4, #12]
     a40:	720b      	strb	r3, [r1, #8]
     a42:	68e3      	ldr	r3, [r4, #12]
     a44:	0a1b      	lsrs	r3, r3, #8
     a46:	724b      	strb	r3, [r1, #9]
     a48:	89e3      	ldrh	r3, [r4, #14]
     a4a:	728b      	strb	r3, [r1, #10]
     a4c:	7be3      	ldrb	r3, [r4, #15]
     a4e:	72cb      	strb	r3, [r1, #11]
     a50:	3601      	adds	r6, #1
     a52:	f898 3008 	ldrb.w	r3, [r8, #8]
     a56:	b2f6      	uxtb	r6, r6
     a58:	42b3      	cmp	r3, r6
     a5a:	4483      	add	r11, r0
     a5c:	d90d      	bls.n	a7a <std_msgs::Int16MultiArray::serialize(unsigned char*) const+0x9a>
     a5e:	f8d8 401c 	ldr.w	r4, [r8, #28]
     a62:	0133      	lsls	r3, r6, #4
     a64:	58e2      	ldr	r2, [r4, r3]
     a66:	441c      	add	r4, r3
     a68:	6813      	ldr	r3, [r2, #0]
     a6a:	eb07 050b 	add.w	r5, r7, r11
     a6e:	4553      	cmp	r3, r10
     a70:	d0c9      	beq.n	a06 <std_msgs::Int16MultiArray::serialize(unsigned char*) const+0x26>
     a72:	4629      	mov	r1, r5
     a74:	4620      	mov	r0, r4
     a76:	4798      	blx	r3
     a78:	e7ea      	b.n	a50 <std_msgs::Int16MultiArray::serialize(unsigned char*) const+0x70>
     a7a:	f10b 0104 	add.w	r1, r11, #4
     a7e:	1d08      	adds	r0, r1, #4
     a80:	f10b 0605 	add.w	r6, r11, #5
     a84:	f10b 0506 	add.w	r5, r11, #6
     a88:	f10b 0407 	add.w	r4, r11, #7
     a8c:	f10b 0901 	add.w	r9, r11, #1
     a90:	f10b 0c02 	add.w	r12, r11, #2
     a94:	f10b 0e03 	add.w	lr, r11, #3
     a98:	f8d8 2020 	ldr.w	r2, [r8, #32]
     a9c:	2300      	movs	r3, #0
     a9e:	f807 200b 	strb.w	r2, [r7, r11]
     aa2:	f8d8 2020 	ldr.w	r2, [r8, #32]
     aa6:	0a12      	lsrs	r2, r2, #8
     aa8:	f807 2009 	strb.w	r2, [r7, r9]
     aac:	f8b8 2022 	ldrh.w	r2, [r8, #34]	; 0x22
     ab0:	f807 200c 	strb.w	r2, [r7, r12]
     ab4:	f898 2023 	ldrb.w	r2, [r8, #35]	; 0x23
     ab8:	f807 200e 	strb.w	r2, [r7, lr]
     abc:	f898 2024 	ldrb.w	r2, [r8, #36]	; 0x24
     ac0:	547a      	strb	r2, [r7, r1]
     ac2:	55bb      	strb	r3, [r7, r6]
     ac4:	557b      	strb	r3, [r7, r5]
     ac6:	553b      	strb	r3, [r7, r4]
     ac8:	f898 2024 	ldrb.w	r2, [r8, #36]	; 0x24
     acc:	b17a      	cbz	r2, aee <std_msgs::Int16MultiArray::serialize(unsigned char*) const+0x10e>
     ace:	f8d8 2028 	ldr.w	r2, [r8, #40]	; 0x28
     ad2:	1839      	adds	r1, r7, r0
     ad4:	f832 2013 	ldrh.w	r2, [r2, r3, lsl #1]
     ad8:	3301      	adds	r3, #1
     ada:	0a14      	lsrs	r4, r2, #8
     adc:	543a      	strb	r2, [r7, r0]
     ade:	704c      	strb	r4, [r1, #1]
     ae0:	f898 2024 	ldrb.w	r2, [r8, #36]	; 0x24
     ae4:	b2db      	uxtb	r3, r3
     ae6:	429a      	cmp	r2, r3
     ae8:	f100 0002 	add.w	r0, r0, #2
     aec:	d8ef      	bhi.n	ace <std_msgs::Int16MultiArray::serialize(unsigned char*) const+0xee>
     aee:	b003      	add	sp, #12
     af0:	e8bd 8ff0 	ldmia.w	sp!, {r4, r5, r6, r7, r8, r9, r10, r11, pc}
     af4:	2108      	movs	r1, #8
     af6:	f04f 0e07 	mov.w	lr, #7
     afa:	f04f 0c06 	mov.w	r12, #6
     afe:	f04f 0905 	mov.w	r9, #5
     b02:	f04f 0b04 	mov.w	r11, #4
     b06:	240b      	movs	r4, #11
     b08:	200c      	movs	r0, #12
     b0a:	250a      	movs	r5, #10
     b0c:	2609      	movs	r6, #9
     b0e:	e7c3      	b.n	a98 <std_msgs::Int16MultiArray::serialize(unsigned char*) const+0xb8>
     b10:	000002b9 	.word	0x000002b9

00000b14 <std_msgs::Float32MultiArray::serialize(unsigned char*) const>:
     b14:	e92d 4ff0 	stmdb	sp!, {r4, r5, r6, r7, r8, r9, r10, r11, lr}
     b18:	7a03      	ldrb	r3, [r0, #8]
     b1a:	2600      	movs	r6, #0
     b1c:	700b      	strb	r3, [r1, #0]
     b1e:	704e      	strb	r6, [r1, #1]
     b20:	708e      	strb	r6, [r1, #2]
     b22:	70ce      	strb	r6, [r1, #3]
     b24:	7a03      	ldrb	r3, [r0, #8]
     b26:	b083      	sub	sp, #12
     b28:	4680      	mov	r8, r0
     b2a:	4689      	mov	r9, r1
     b2c:	2b00      	cmp	r3, #0
     b2e:	f000 8086 	beq.w	c3e <Stack_Size+0x3e>
     b32:	f8df a124 	ldr.w	r10, [pc, #292]	; c58 <Stack_Size+0x58>
     b36:	f04f 0b04 	mov.w	r11, #4
     b3a:	e02a      	b.n	b92 <std_msgs::Float32MultiArray::serialize(unsigned char*) const+0x7e>
     b3c:	6860      	ldr	r0, [r4, #4]
     b3e:	f009 fb16 	bl	a16e <strlen>
     b42:	4607      	mov	r7, r0
     b44:	ab02      	add	r3, sp, #8
     b46:	f843 0d04 	str.w	r0, [r3, #-4]!
     b4a:	6818      	ldr	r0, [r3, #0]
     b4c:	463a      	mov	r2, r7
     b4e:	f849 000b 	str.w	r0, [r9, r11]
     b52:	6861      	ldr	r1, [r4, #4]
     b54:	1d28      	adds	r0, r5, #4
     b56:	f008 fb83 	bl	9260 <memcpy>
     b5a:	68a3      	ldr	r3, [r4, #8]
     b5c:	19e9      	adds	r1, r5, r7
     b5e:	710b      	strb	r3, [r1, #4]
     b60:	68a3      	ldr	r3, [r4, #8]
     b62:	f107 000c 	add.w	r0, r7, #12
     b66:	0a1b      	lsrs	r3, r3, #8
     b68:	714b      	strb	r3, [r1, #5]
     b6a:	8963      	ldrh	r3, [r4, #10]
     b6c:	718b      	strb	r3, [r1, #6]
     b6e:	7ae3      	ldrb	r3, [r4, #11]
     b70:	71cb      	strb	r3, [r1, #7]
     b72:	68e3      	ldr	r3, [r4, #12]
     b74:	720b      	strb	r3, [r1, #8]
     b76:	68e3      	ldr	r3, [r4, #12]
     b78:	0a1b      	lsrs	r3, r3, #8
     b7a:	724b      	strb	r3, [r1, #9]
     b7c:	89e3      	ldrh	r3, [r4, #14]
     b7e:	728b      	strb	r3, [r1, #10]
     b80:	7be3      	ldrb	r3, [r4, #15]
     b82:	72cb      	strb	r3, [r1, #11]
     b84:	3601      	adds	r6, #1
     b86:	f898 3008 	ldrb.w	r3, [r8, #8]
     b8a:	b2f6      	uxtb	r6, r6
     b8c:	42b3      	cmp	r3, r6
     b8e:	4483      	add	r11, r0
     b90:	d90d      	bls.n	bae <std_msgs::Float32MultiArray::serialize(unsigned char*) const+0x9a>
     b92:	f8d8 401c 	ldr.w	r4, [r8, #28]
     b96:	0133      	lsls	r3, r6, #4
     b98:	58e2      	ldr	r2, [r4, r3]
     b9a:	441c      	add	r4, r3
     b9c:	6813      	ldr	r3, [r2, #0]
     b9e:	eb09 050b 	add.w	r5, r9, r11
     ba2:	4553      	cmp	r3, r10
     ba4:	d0ca      	beq.n	b3c <std_msgs::Float32MultiArray::serialize(unsigned char*) const+0x28>
     ba6:	4629      	mov	r1, r5
     ba8:	4620      	mov	r0, r4
     baa:	4798      	blx	r3
     bac:	e7ea      	b.n	b84 <std_msgs::Float32MultiArray::serialize(unsigned char*) const+0x70>
     bae:	f10b 0204 	add.w	r2, r11, #4
     bb2:	1d10      	adds	r0, r2, #4
     bb4:	f10b 0605 	add.w	r6, r11, #5
     bb8:	f10b 0506 	add.w	r5, r11, #6
     bbc:	f10b 0407 	add.w	r4, r11, #7
     bc0:	f10b 0c01 	add.w	r12, r11, #1
     bc4:	f10b 0e02 	add.w	lr, r11, #2
     bc8:	f10b 0703 	add.w	r7, r11, #3
     bcc:	f8d8 3020 	ldr.w	r3, [r8, #32]
     bd0:	2100      	movs	r1, #0
     bd2:	f809 300b 	strb.w	r3, [r9, r11]
     bd6:	f8d8 3020 	ldr.w	r3, [r8, #32]
     bda:	0a1b      	lsrs	r3, r3, #8
     bdc:	f809 300c 	strb.w	r3, [r9, r12]
     be0:	f8b8 3022 	ldrh.w	r3, [r8, #34]	; 0x22
     be4:	f809 300e 	strb.w	r3, [r9, lr]
     be8:	f898 3023 	ldrb.w	r3, [r8, #35]	; 0x23
     bec:	f809 3007 	strb.w	r3, [r9, r7]
     bf0:	f898 3024 	ldrb.w	r3, [r8, #36]	; 0x24
     bf4:	f809 3002 	strb.w	r3, [r9, r2]
     bf8:	f809 1006 	strb.w	r1, [r9, r6]
     bfc:	f809 1005 	strb.w	r1, [r9, r5]
     c00:	f809 1004 	strb.w	r1, [r9, r4]
     c04:	f898 3024 	ldrb.w	r3, [r8, #36]	; 0x24
     c08:	b1b3      	cbz	r3, c38 <Stack_Size+0x38>
     c0a:	eb09 0300 	add.w	r3, r9, r0
     c0e:	f8d8 202c 	ldr.w	r2, [r8, #44]	; 0x2c
     c12:	1c4c      	adds	r4, r1, #1
     c14:	f852 2021 	ldr.w	r2, [r2, r1, lsl #2]
     c18:	b2e1      	uxtb	r1, r4
     c1a:	0a16      	lsrs	r6, r2, #8
     c1c:	0c15      	lsrs	r5, r2, #16
     c1e:	0e14      	lsrs	r4, r2, #24
     c20:	f809 2000 	strb.w	r2, [r9, r0]
     c24:	705e      	strb	r6, [r3, #1]
     c26:	709d      	strb	r5, [r3, #2]
     c28:	70dc      	strb	r4, [r3, #3]
     c2a:	f898 2024 	ldrb.w	r2, [r8, #36]	; 0x24
     c2e:	3004      	adds	r0, #4
     c30:	428a      	cmp	r2, r1
     c32:	f103 0304 	add.w	r3, r3, #4
     c36:	d8ea      	bhi.n	c0e <Stack_Size+0xe>
     c38:	b003      	add	sp, #12
     c3a:	e8bd 8ff0 	ldmia.w	sp!, {r4, r5, r6, r7, r8, r9, r10, r11, pc}
     c3e:	2208      	movs	r2, #8
     c40:	2707      	movs	r7, #7
     c42:	f04f 0e06 	mov.w	lr, #6
     c46:	f04f 0c05 	mov.w	r12, #5
     c4a:	f04f 0b04 	mov.w	r11, #4
     c4e:	240b      	movs	r4, #11
     c50:	200c      	movs	r0, #12
     c52:	250a      	movs	r5, #10
     c54:	2609      	movs	r6, #9
     c56:	e7b9      	b.n	bcc <std_msgs::Float32MultiArray::serialize(unsigned char*) const+0xb8>
     c58:	000002b9 	.word	0x000002b9

00000c5c <ros::Subscriber<std_msgs::Int16MultiArray>::callback(unsigned char*)>:
     c5c:	e92d 4ff0 	stmdb	sp!, {r4, r5, r6, r7, r8, r9, r10, r11, lr}
     c60:	7d03      	ldrb	r3, [r0, #20]
     c62:	780d      	ldrb	r5, [r1, #0]
     c64:	b083      	sub	sp, #12
     c66:	42ab      	cmp	r3, r5
     c68:	4604      	mov	r4, r0
     c6a:	4688      	mov	r8, r1
     c6c:	f100 090c 	add.w	r9, r0, #12
     c70:	f0c0 809b 	bcc.w	daa <ros::Subscriber<std_msgs::Int16MultiArray>::callback(unsigned char*)+0x14e>
     c74:	7525      	strb	r5, [r4, #20]
     c76:	2d00      	cmp	r5, #0
     c78:	f000 80a0 	beq.w	dbc <ros::Subscriber<std_msgs::Int16MultiArray>::callback(unsigned char*)+0x160>
     c7c:	2500      	movs	r5, #0
     c7e:	46aa      	mov	r10, r5
     c80:	f104 0718 	add.w	r7, r4, #24
     c84:	f04f 0e04 	mov.w	lr, #4
     c88:	eb08 060e 	add.w	r6, r8, lr
     c8c:	6830      	ldr	r0, [r6, #0]
     c8e:	f106 0b03 	add.w	r11, r6, #3
     c92:	9001      	str	r0, [sp, #4]
     c94:	9801      	ldr	r0, [sp, #4]
     c96:	f100 0c04 	add.w	r12, r0, #4
     c9a:	f1bc 0f04 	cmp.w	r12, #4
     c9e:	d908      	bls.n	cb2 <ros::Subscriber<std_msgs::Int16MultiArray>::callback(unsigned char*)+0x56>
     ca0:	465b      	mov	r3, r11
     ca2:	1cc1      	adds	r1, r0, #3
     ca4:	4431      	add	r1, r6
     ca6:	f813 2f01 	ldrb.w	r2, [r3, #1]!
     caa:	428b      	cmp	r3, r1
     cac:	f803 2c01 	strb.w	r2, [r3, #-1]
     cb0:	d1f9      	bne.n	ca6 <ros::Subscriber<std_msgs::Int16MultiArray>::callback(unsigned char*)+0x4a>
     cb2:	1832      	adds	r2, r6, r0
     cb4:	f882 a003 	strb.w	r10, [r2, #3]
     cb8:	f8c4 b01c 	str.w	r11, [r4, #28]
     cbc:	f816 300c 	ldrb.w	r3, [r6, r12]
     cc0:	6aa6      	ldr	r6, [r4, #40]	; 0x28
     cc2:	6223      	str	r3, [r4, #32]
     cc4:	f892 c005 	ldrb.w	r12, [r2, #5]
     cc8:	0129      	lsls	r1, r5, #4
     cca:	ea43 230c 	orr.w	r3, r3, r12, lsl #8
     cce:	6223      	str	r3, [r4, #32]
     cd0:	f892 c006 	ldrb.w	r12, [r2, #6]
     cd4:	300c      	adds	r0, #12
     cd6:	ea43 430c 	orr.w	r3, r3, r12, lsl #16
     cda:	6223      	str	r3, [r4, #32]
     cdc:	f892 c007 	ldrb.w	r12, [r2, #7]
     ce0:	4486      	add	lr, r0
     ce2:	ea43 630c 	orr.w	r3, r3, r12, lsl #24
     ce6:	6223      	str	r3, [r4, #32]
     ce8:	7a13      	ldrb	r3, [r2, #8]
     cea:	1870      	adds	r0, r6, r1
     cec:	6263      	str	r3, [r4, #36]	; 0x24
     cee:	f892 c009 	ldrb.w	r12, [r2, #9]
     cf2:	3501      	adds	r5, #1
     cf4:	ea43 230c 	orr.w	r3, r3, r12, lsl #8
     cf8:	6263      	str	r3, [r4, #36]	; 0x24
     cfa:	f892 c00a 	ldrb.w	r12, [r2, #10]
     cfe:	b2ed      	uxtb	r5, r5
     d00:	ea43 430c 	orr.w	r3, r3, r12, lsl #16
     d04:	6263      	str	r3, [r4, #36]	; 0x24
     d06:	7ad2      	ldrb	r2, [r2, #11]
     d08:	ea43 6302 	orr.w	r3, r3, r2, lsl #24
     d0c:	6263      	str	r3, [r4, #36]	; 0x24
     d0e:	68fb      	ldr	r3, [r7, #12]
     d10:	f8d7 b000 	ldr.w	r11, [r7]
     d14:	f8d7 c004 	ldr.w	r12, [r7, #4]
     d18:	68ba      	ldr	r2, [r7, #8]
     d1a:	f846 b001 	str.w	r11, [r6, r1]
     d1e:	f8c0 c004 	str.w	r12, [r0, #4]
     d22:	6082      	str	r2, [r0, #8]
     d24:	60c3      	str	r3, [r0, #12]
     d26:	7d23      	ldrb	r3, [r4, #20]
     d28:	42ab      	cmp	r3, r5
     d2a:	d8ad      	bhi.n	c88 <ros::Subscriber<std_msgs::Int16MultiArray>::callback(unsigned char*)+0x2c>
     d2c:	f10e 0204 	add.w	r2, lr, #4
     d30:	1d15      	adds	r5, r2, #4
     d32:	f10e 0601 	add.w	r6, lr, #1
     d36:	f10e 0002 	add.w	r0, lr, #2
     d3a:	f10e 0103 	add.w	r1, lr, #3
     d3e:	f818 300e 	ldrb.w	r3, [r8, lr]
     d42:	f894 7030 	ldrb.w	r7, [r4, #48]	; 0x30
     d46:	62e3      	str	r3, [r4, #44]	; 0x2c
     d48:	f818 6006 	ldrb.w	r6, [r8, r6]
     d4c:	ea43 2306 	orr.w	r3, r3, r6, lsl #8
     d50:	62e3      	str	r3, [r4, #44]	; 0x2c
     d52:	f818 0000 	ldrb.w	r0, [r8, r0]
     d56:	ea43 4300 	orr.w	r3, r3, r0, lsl #16
     d5a:	62e3      	str	r3, [r4, #44]	; 0x2c
     d5c:	f818 1001 	ldrb.w	r1, [r8, r1]
     d60:	ea43 6301 	orr.w	r3, r3, r1, lsl #24
     d64:	62e3      	str	r3, [r4, #44]	; 0x2c
     d66:	f818 6002 	ldrb.w	r6, [r8, r2]
     d6a:	42b7      	cmp	r7, r6
     d6c:	d32e      	bcc.n	dcc <ros::Subscriber<std_msgs::Int16MultiArray>::callback(unsigned char*)+0x170>
     d6e:	f884 6030 	strb.w	r6, [r4, #48]	; 0x30
     d72:	b1a6      	cbz	r6, d9e <ros::Subscriber<std_msgs::Int16MultiArray>::callback(unsigned char*)+0x142>
     d74:	44a8      	add	r8, r5
     d76:	2300      	movs	r3, #0
     d78:	f104 0532 	add.w	r5, r4, #50	; 0x32
     d7c:	f898 1001 	ldrb.w	r1, [r8, #1]
     d80:	f818 2b02 	ldrb.w	r2, [r8], #2
     d84:	6b60      	ldr	r0, [r4, #52]	; 0x34
     d86:	ea42 2201 	orr.w	r2, r2, r1, lsl #8
     d8a:	8662      	strh	r2, [r4, #50]	; 0x32
     d8c:	882a      	ldrh	r2, [r5, #0]
     d8e:	1c59      	adds	r1, r3, #1
     d90:	f820 2013 	strh.w	r2, [r0, r3, lsl #1]
     d94:	f894 2030 	ldrb.w	r2, [r4, #48]	; 0x30
     d98:	b2cb      	uxtb	r3, r1
     d9a:	429a      	cmp	r2, r3
     d9c:	d8ee      	bhi.n	d7c <ros::Subscriber<std_msgs::Int16MultiArray>::callback(unsigned char*)+0x120>
     d9e:	4648      	mov	r0, r9
     da0:	6ba3      	ldr	r3, [r4, #56]	; 0x38
     da2:	b003      	add	sp, #12
     da4:	e8bd 4ff0 	ldmia.w	sp!, {r4, r5, r6, r7, r8, r9, r10, r11, lr}
     da8:	4718      	bx	r3
     daa:	0129      	lsls	r1, r5, #4
     dac:	6a80      	ldr	r0, [r0, #40]	; 0x28
     dae:	f005 f905 	bl	5fbc <__wrap_realloc>
     db2:	7525      	strb	r5, [r4, #20]
     db4:	62a0      	str	r0, [r4, #40]	; 0x28
     db6:	2d00      	cmp	r5, #0
     db8:	f47f af60 	bne.w	c7c <ros::Subscriber<std_msgs::Int16MultiArray>::callback(unsigned char*)+0x20>
     dbc:	2208      	movs	r2, #8
     dbe:	2107      	movs	r1, #7
     dc0:	2006      	movs	r0, #6
     dc2:	2605      	movs	r6, #5
     dc4:	f04f 0e04 	mov.w	lr, #4
     dc8:	250c      	movs	r5, #12
     dca:	e7b8      	b.n	d3e <ros::Subscriber<std_msgs::Int16MultiArray>::callback(unsigned char*)+0xe2>
     dcc:	0071      	lsls	r1, r6, #1
     dce:	6b60      	ldr	r0, [r4, #52]	; 0x34
     dd0:	f005 f8f4 	bl	5fbc <__wrap_realloc>
     dd4:	6360      	str	r0, [r4, #52]	; 0x34
     dd6:	e7ca      	b.n	d6e <ros::Subscriber<std_msgs::Int16MultiArray>::callback(unsigned char*)+0x112>

00000dd8 <std_msgs::Int16MultiArray::deserialize(unsigned char*)>:
     dd8:	e92d 47f0 	stmdb	sp!, {r4, r5, r6, r7, r8, r9, r10, lr}
     ddc:	7a03      	ldrb	r3, [r0, #8]
     dde:	780d      	ldrb	r5, [r1, #0]
     de0:	b082      	sub	sp, #8
     de2:	42ab      	cmp	r3, r5
     de4:	4604      	mov	r4, r0
     de6:	460e      	mov	r6, r1
     de8:	f0c0 809a 	bcc.w	f20 <std_msgs::Int16MultiArray::deserialize(unsigned char*)+0x148>
     dec:	7225      	strb	r5, [r4, #8]
     dee:	2d00      	cmp	r5, #0
     df0:	f000 809f 	beq.w	f32 <std_msgs::Int16MultiArray::deserialize(unsigned char*)+0x15a>
     df4:	2500      	movs	r5, #0
     df6:	46ac      	mov	r12, r5
     df8:	f104 070c 	add.w	r7, r4, #12
     dfc:	f04f 0e04 	mov.w	lr, #4
     e00:	eb06 080e 	add.w	r8, r6, lr
     e04:	f8d8 0000 	ldr.w	r0, [r8]
     e08:	f108 0a03 	add.w	r10, r8, #3
     e0c:	9001      	str	r0, [sp, #4]
     e0e:	9801      	ldr	r0, [sp, #4]
     e10:	f100 0904 	add.w	r9, r0, #4
     e14:	f1b9 0f04 	cmp.w	r9, #4
     e18:	d908      	bls.n	e2c <std_msgs::Int16MultiArray::deserialize(unsigned char*)+0x54>
     e1a:	4653      	mov	r3, r10
     e1c:	1cc1      	adds	r1, r0, #3
     e1e:	4441      	add	r1, r8
     e20:	f813 2f01 	ldrb.w	r2, [r3, #1]!
     e24:	428b      	cmp	r3, r1
     e26:	f803 2c01 	strb.w	r2, [r3, #-1]
     e2a:	d1f9      	bne.n	e20 <std_msgs::Int16MultiArray::deserialize(unsigned char*)+0x48>
     e2c:	eb08 0200 	add.w	r2, r8, r0
     e30:	f882 c003 	strb.w	r12, [r2, #3]
     e34:	f8c4 a010 	str.w	r10, [r4, #16]
     e38:	f818 3009 	ldrb.w	r3, [r8, r9]
     e3c:	f8d4 801c 	ldr.w	r8, [r4, #28]
     e40:	6163      	str	r3, [r4, #20]
     e42:	f892 9005 	ldrb.w	r9, [r2, #5]
     e46:	0129      	lsls	r1, r5, #4
     e48:	ea43 2309 	orr.w	r3, r3, r9, lsl #8
     e4c:	6163      	str	r3, [r4, #20]
     e4e:	f892 9006 	ldrb.w	r9, [r2, #6]
     e52:	300c      	adds	r0, #12
     e54:	ea43 4309 	orr.w	r3, r3, r9, lsl #16
     e58:	6163      	str	r3, [r4, #20]
     e5a:	f892 9007 	ldrb.w	r9, [r2, #7]
     e5e:	4486      	add	lr, r0
     e60:	ea43 6309 	orr.w	r3, r3, r9, lsl #24
     e64:	6163      	str	r3, [r4, #20]
     e66:	7a13      	ldrb	r3, [r2, #8]
     e68:	eb08 0001 	add.w	r0, r8, r1
     e6c:	61a3      	str	r3, [r4, #24]
     e6e:	f892 9009 	ldrb.w	r9, [r2, #9]
     e72:	3501      	adds	r5, #1
     e74:	ea43 2309 	orr.w	r3, r3, r9, lsl #8
     e78:	61a3      	str	r3, [r4, #24]
     e7a:	f892 900a 	ldrb.w	r9, [r2, #10]
     e7e:	b2ed      	uxtb	r5, r5
     e80:	ea43 4309 	orr.w	r3, r3, r9, lsl #16
     e84:	61a3      	str	r3, [r4, #24]
     e86:	7ad2      	ldrb	r2, [r2, #11]
     e88:	ea43 6302 	orr.w	r3, r3, r2, lsl #24
     e8c:	61a3      	str	r3, [r4, #24]
     e8e:	68fb      	ldr	r3, [r7, #12]
     e90:	f8d7 a000 	ldr.w	r10, [r7]
     e94:	f8d7 9004 	ldr.w	r9, [r7, #4]
     e98:	68ba      	ldr	r2, [r7, #8]
     e9a:	f848 a001 	str.w	r10, [r8, r1]
     e9e:	f8c0 9004 	str.w	r9, [r0, #4]
     ea2:	6082      	str	r2, [r0, #8]
     ea4:	60c3      	str	r3, [r0, #12]
     ea6:	7a23      	ldrb	r3, [r4, #8]
     ea8:	42ab      	cmp	r3, r5
     eaa:	d8a9      	bhi.n	e00 <std_msgs::Int16MultiArray::deserialize(unsigned char*)+0x28>
     eac:	f10e 0204 	add.w	r2, lr, #4
     eb0:	1d15      	adds	r5, r2, #4
     eb2:	f10e 0701 	add.w	r7, lr, #1
     eb6:	f10e 0002 	add.w	r0, lr, #2
     eba:	f10e 0103 	add.w	r1, lr, #3
     ebe:	f816 300e 	ldrb.w	r3, [r6, lr]
     ec2:	f894 e024 	ldrb.w	lr, [r4, #36]	; 0x24
     ec6:	6223      	str	r3, [r4, #32]
     ec8:	5df7      	ldrb	r7, [r6, r7]
     eca:	ea43 2307 	orr.w	r3, r3, r7, lsl #8
     ece:	6223      	str	r3, [r4, #32]
     ed0:	5c30      	ldrb	r0, [r6, r0]
     ed2:	ea43 4300 	orr.w	r3, r3, r0, lsl #16
     ed6:	6223      	str	r3, [r4, #32]
     ed8:	5c71      	ldrb	r1, [r6, r1]
     eda:	ea43 6301 	orr.w	r3, r3, r1, lsl #24
     ede:	6223      	str	r3, [r4, #32]
     ee0:	5cb7      	ldrb	r7, [r6, r2]
     ee2:	45be      	cmp	lr, r7
     ee4:	d32d      	bcc.n	f42 <std_msgs::Int16MultiArray::deserialize(unsigned char*)+0x16a>
     ee6:	f884 7024 	strb.w	r7, [r4, #36]	; 0x24
     eea:	b1af      	cbz	r7, f18 <std_msgs::Int16MultiArray::deserialize(unsigned char*)+0x140>
     eec:	442e      	add	r6, r5
     eee:	f104 0726 	add.w	r7, r4, #38	; 0x26
     ef2:	2300      	movs	r3, #0
     ef4:	7871      	ldrb	r1, [r6, #1]
     ef6:	f816 2b02 	ldrb.w	r2, [r6], #2
     efa:	6aa0      	ldr	r0, [r4, #40]	; 0x28
     efc:	ea42 2201 	orr.w	r2, r2, r1, lsl #8
     f00:	84e2      	strh	r2, [r4, #38]	; 0x26
     f02:	883a      	ldrh	r2, [r7, #0]
     f04:	1c59      	adds	r1, r3, #1
     f06:	f820 2013 	strh.w	r2, [r0, r3, lsl #1]
     f0a:	f894 2024 	ldrb.w	r2, [r4, #36]	; 0x24
     f0e:	b2cb      	uxtb	r3, r1
     f10:	429a      	cmp	r2, r3
     f12:	f105 0502 	add.w	r5, r5, #2
     f16:	d8ed      	bhi.n	ef4 <std_msgs::Int16MultiArray::deserialize(unsigned char*)+0x11c>
     f18:	4628      	mov	r0, r5
     f1a:	b002      	add	sp, #8
     f1c:	e8bd 87f0 	ldmia.w	sp!, {r4, r5, r6, r7, r8, r9, r10, pc}
     f20:	0129      	lsls	r1, r5, #4
     f22:	69c0      	ldr	r0, [r0, #28]
     f24:	f005 f84a 	bl	5fbc <__wrap_realloc>
     f28:	7225      	strb	r5, [r4, #8]
     f2a:	61e0      	str	r0, [r4, #28]
     f2c:	2d00      	cmp	r5, #0
     f2e:	f47f af61 	bne.w	df4 <std_msgs::Int16MultiArray::deserialize(unsigned char*)+0x1c>
     f32:	2208      	movs	r2, #8
     f34:	2107      	movs	r1, #7
     f36:	2006      	movs	r0, #6
     f38:	2705      	movs	r7, #5
     f3a:	f04f 0e04 	mov.w	lr, #4
     f3e:	250c      	movs	r5, #12
     f40:	e7bd      	b.n	ebe <std_msgs::Int16MultiArray::deserialize(unsigned char*)+0xe6>
     f42:	0079      	lsls	r1, r7, #1
     f44:	6aa0      	ldr	r0, [r4, #40]	; 0x28
     f46:	f005 f839 	bl	5fbc <__wrap_realloc>
     f4a:	62a0      	str	r0, [r4, #40]	; 0x28
     f4c:	e7cb      	b.n	ee6 <std_msgs::Int16MultiArray::deserialize(unsigned char*)+0x10e>
     f4e:	bf00      	nop

00000f50 <std_msgs::Float32MultiArray::deserialize(unsigned char*)>:
     f50:	e92d 47f0 	stmdb	sp!, {r4, r5, r6, r7, r8, r9, r10, lr}
     f54:	7a03      	ldrb	r3, [r0, #8]
     f56:	780e      	ldrb	r6, [r1, #0]
     f58:	b082      	sub	sp, #8
     f5a:	42b3      	cmp	r3, r6
     f5c:	4604      	mov	r4, r0
     f5e:	460d      	mov	r5, r1
     f60:	f0c0 80a1 	bcc.w	10a6 <std_msgs::Float32MultiArray::deserialize(unsigned char*)+0x156>
     f64:	7226      	strb	r6, [r4, #8]
     f66:	2e00      	cmp	r6, #0
     f68:	f000 80a6 	beq.w	10b8 <std_msgs::Float32MultiArray::deserialize(unsigned char*)+0x168>
     f6c:	2600      	movs	r6, #0
     f6e:	46b4      	mov	r12, r6
     f70:	f104 070c 	add.w	r7, r4, #12
     f74:	f04f 0e04 	mov.w	lr, #4
     f78:	eb05 080e 	add.w	r8, r5, lr
     f7c:	f8d8 0000 	ldr.w	r0, [r8]
     f80:	f108 0a03 	add.w	r10, r8, #3
     f84:	9001      	str	r0, [sp, #4]
     f86:	9801      	ldr	r0, [sp, #4]
     f88:	f100 0904 	add.w	r9, r0, #4
     f8c:	f1b9 0f04 	cmp.w	r9, #4
     f90:	d908      	bls.n	fa4 <std_msgs::Float32MultiArray::deserialize(unsigned char*)+0x54>
     f92:	4653      	mov	r3, r10
     f94:	1cc1      	adds	r1, r0, #3
     f96:	4441      	add	r1, r8
     f98:	f813 2f01 	ldrb.w	r2, [r3, #1]!
     f9c:	4299      	cmp	r1, r3
     f9e:	f803 2c01 	strb.w	r2, [r3, #-1]
     fa2:	d1f9      	bne.n	f98 <std_msgs::Float32MultiArray::deserialize(unsigned char*)+0x48>
     fa4:	eb08 0200 	add.w	r2, r8, r0
     fa8:	f882 c003 	strb.w	r12, [r2, #3]
     fac:	f8c4 a010 	str.w	r10, [r4, #16]
     fb0:	f818 3009 	ldrb.w	r3, [r8, r9]
     fb4:	f8d4 801c 	ldr.w	r8, [r4, #28]
     fb8:	6163      	str	r3, [r4, #20]
     fba:	f892 9005 	ldrb.w	r9, [r2, #5]
     fbe:	0131      	lsls	r1, r6, #4
     fc0:	ea43 2309 	orr.w	r3, r3, r9, lsl #8
     fc4:	6163      	str	r3, [r4, #20]
     fc6:	f892 9006 	ldrb.w	r9, [r2, #6]
     fca:	300c      	adds	r0, #12
     fcc:	ea43 4309 	orr.w	r3, r3, r9, lsl #16
     fd0:	6163      	str	r3, [r4, #20]
     fd2:	f892 9007 	ldrb.w	r9, [r2, #7]
     fd6:	4486      	add	lr, r0
     fd8:	ea43 6309 	orr.w	r3, r3, r9, lsl #24
     fdc:	6163      	str	r3, [r4, #20]
     fde:	7a13      	ldrb	r3, [r2, #8]
     fe0:	eb08 0001 	add.w	r0, r8, r1
     fe4:	61a3      	str	r3, [r4, #24]
     fe6:	f892 9009 	ldrb.w	r9, [r2, #9]
     fea:	3601      	adds	r6, #1
     fec:	ea43 2309 	orr.w	r3, r3, r9, lsl #8
     ff0:	61a3      	str	r3, [r4, #24]
     ff2:	f892 900a 	ldrb.w	r9, [r2, #10]
     ff6:	b2f6      	uxtb	r6, r6
     ff8:	ea43 4309 	orr.w	r3, r3, r9, lsl #16
     ffc:	61a3      	str	r3, [r4, #24]
     ffe:	7ad2      	ldrb	r2, [r2, #11]
    1000:	ea43 6302 	orr.w	r3, r3, r2, lsl #24
    1004:	61a3      	str	r3, [r4, #24]
    1006:	68fb      	ldr	r3, [r7, #12]
    1008:	f8d7 a000 	ldr.w	r10, [r7]
    100c:	f8d7 9004 	ldr.w	r9, [r7, #4]
    1010:	68ba      	ldr	r2, [r7, #8]
    1012:	f848 a001 	str.w	r10, [r8, r1]
    1016:	f8c0 9004 	str.w	r9, [r0, #4]
    101a:	6082      	str	r2, [r0, #8]
    101c:	60c3      	str	r3, [r0, #12]
    101e:	7a23      	ldrb	r3, [r4, #8]
    1020:	42b3      	cmp	r3, r6
    1022:	d8a9      	bhi.n	f78 <std_msgs::Float32MultiArray::deserialize(unsigned char*)+0x28>
    1024:	f10e 0204 	add.w	r2, lr, #4
    1028:	1d16      	adds	r6, r2, #4
    102a:	f10e 0701 	add.w	r7, lr, #1
    102e:	f10e 0002 	add.w	r0, lr, #2
    1032:	f10e 0103 	add.w	r1, lr, #3
    1036:	f815 300e 	ldrb.w	r3, [r5, lr]
    103a:	f894 e024 	ldrb.w	lr, [r4, #36]	; 0x24
    103e:	6223      	str	r3, [r4, #32]
    1040:	5def      	ldrb	r7, [r5, r7]
    1042:	ea43 2307 	orr.w	r3, r3, r7, lsl #8
    1046:	6223      	str	r3, [r4, #32]
    1048:	5c28      	ldrb	r0, [r5, r0]
    104a:	ea43 4300 	orr.w	r3, r3, r0, lsl #16
    104e:	6223      	str	r3, [r4, #32]
    1050:	5c69      	ldrb	r1, [r5, r1]
    1052:	ea43 6301 	orr.w	r3, r3, r1, lsl #24
    1056:	6223      	str	r3, [r4, #32]
    1058:	5caf      	ldrb	r7, [r5, r2]
    105a:	45be      	cmp	lr, r7
    105c:	d334      	bcc.n	10c8 <std_msgs::Float32MultiArray::deserialize(unsigned char*)+0x178>
    105e:	f884 7024 	strb.w	r7, [r4, #36]	; 0x24
    1062:	b1e7      	cbz	r7, 109e <std_msgs::Float32MultiArray::deserialize(unsigned char*)+0x14e>
    1064:	4435      	add	r5, r6
    1066:	f104 0028 	add.w	r0, r4, #40	; 0x28
    106a:	2100      	movs	r1, #0
    106c:	78ab      	ldrb	r3, [r5, #2]
    106e:	786f      	ldrb	r7, [r5, #1]
    1070:	782a      	ldrb	r2, [r5, #0]
    1072:	041b      	lsls	r3, r3, #16
    1074:	ea43 2307 	orr.w	r3, r3, r7, lsl #8
    1078:	78ef      	ldrb	r7, [r5, #3]
    107a:	4313      	orrs	r3, r2
    107c:	ea43 6307 	orr.w	r3, r3, r7, lsl #24
    1080:	62a3      	str	r3, [r4, #40]	; 0x28
    1082:	6807      	ldr	r7, [r0, #0]
    1084:	6ae3      	ldr	r3, [r4, #44]	; 0x2c
    1086:	1c4a      	adds	r2, r1, #1
    1088:	f843 7021 	str.w	r7, [r3, r1, lsl #2]
    108c:	f894 3024 	ldrb.w	r3, [r4, #36]	; 0x24
    1090:	b2d1      	uxtb	r1, r2
    1092:	428b      	cmp	r3, r1
    1094:	f106 0604 	add.w	r6, r6, #4
    1098:	f105 0504 	add.w	r5, r5, #4
    109c:	d8e6      	bhi.n	106c <std_msgs::Float32MultiArray::deserialize(unsigned char*)+0x11c>
    109e:	4630      	mov	r0, r6
    10a0:	b002      	add	sp, #8
    10a2:	e8bd 87f0 	ldmia.w	sp!, {r4, r5, r6, r7, r8, r9, r10, pc}
    10a6:	0131      	lsls	r1, r6, #4
    10a8:	69c0      	ldr	r0, [r0, #28]
    10aa:	f004 ff87 	bl	5fbc <__wrap_realloc>
    10ae:	7226      	strb	r6, [r4, #8]
    10b0:	61e0      	str	r0, [r4, #28]
    10b2:	2e00      	cmp	r6, #0
    10b4:	f47f af5a 	bne.w	f6c <std_msgs::Float32MultiArray::deserialize(unsigned char*)+0x1c>
    10b8:	2208      	movs	r2, #8
    10ba:	2107      	movs	r1, #7
    10bc:	2006      	movs	r0, #6
    10be:	2705      	movs	r7, #5
    10c0:	f04f 0e04 	mov.w	lr, #4
    10c4:	260c      	movs	r6, #12
    10c6:	e7b6      	b.n	1036 <std_msgs::Float32MultiArray::deserialize(unsigned char*)+0xe6>
    10c8:	00b9      	lsls	r1, r7, #2
    10ca:	6ae0      	ldr	r0, [r4, #44]	; 0x2c
    10cc:	f004 ff76 	bl	5fbc <__wrap_realloc>
    10d0:	62e0      	str	r0, [r4, #44]	; 0x2c
    10d2:	e7c4      	b.n	105e <std_msgs::Float32MultiArray::deserialize(unsigned char*)+0x10e>

000010d4 <ros::NodeHandle_<MbedHardware, 25, 25, 512, 512>::publish(int, ros::Msg const*)>:
    10d4:	e92d 41f0 	stmdb	sp!, {r4, r5, r6, r7, r8, lr}
    10d8:	2963      	cmp	r1, #99	; 0x63
    10da:	b084      	sub	sp, #16
    10dc:	dd03      	ble.n	10e6 <ros::NodeHandle_<MbedHardware, 25, 25, 512, 512>::publish(int, ros::Msg const*)+0x12>
    10de:	f890 55fc 	ldrb.w	r5, [r0, #1532]	; 0x5fc
    10e2:	2d00      	cmp	r5, #0
    10e4:	d04a      	beq.n	117c <ros::NodeHandle_<MbedHardware, 25, 25, 512, 512>::publish(int, ros::Msg const*)+0xa8>
    10e6:	4606      	mov	r6, r0
    10e8:	6813      	ldr	r3, [r2, #0]
    10ea:	4688      	mov	r8, r1
    10ec:	4610      	mov	r0, r2
    10ee:	681b      	ldr	r3, [r3, #0]
    10f0:	f206 3127 	addw	r1, r6, #807	; 0x327
    10f4:	4798      	blx	r3
    10f6:	b2c4      	uxtb	r4, r0
    10f8:	f3c0 2107 	ubfx	r1, r0, #8, #8
    10fc:	1862      	adds	r2, r4, r1
    10fe:	43d2      	mvns	r2, r2
    1100:	b280      	uxth	r0, r0
    1102:	f886 4322 	strb.w	r4, [r6, #802]	; 0x322
    1106:	24ff      	movs	r4, #255	; 0xff
    1108:	f206 3725 	addw	r7, r6, #805	; 0x325
    110c:	f200 3526 	addw	r5, r0, #806	; 0x326
    1110:	f886 2324 	strb.w	r2, [r6, #804]	; 0x324
    1114:	f886 4320 	strb.w	r4, [r6, #800]	; 0x320
    1118:	22fe      	movs	r2, #254	; 0xfe
    111a:	fa5f f488 	uxtb.w	r4, r8
    111e:	f348 2807 	sbfx	r8, r8, #8, #8
    1122:	f886 2321 	strb.w	r2, [r6, #801]	; 0x321
    1126:	463b      	mov	r3, r7
    1128:	f886 1323 	strb.w	r1, [r6, #803]	; 0x323
    112c:	4435      	add	r5, r6
    112e:	f886 4325 	strb.w	r4, [r6, #805]	; 0x325
    1132:	f886 8326 	strb.w	r8, [r6, #806]	; 0x326
    1136:	2200      	movs	r2, #0
    1138:	e001      	b.n	113e <ros::NodeHandle_<MbedHardware, 25, 25, 512, 512>::publish(int, ros::Msg const*)+0x6a>
    113a:	f813 4f01 	ldrb.w	r4, [r3, #1]!
    113e:	42ab      	cmp	r3, r5
    1140:	4422      	add	r2, r4
    1142:	d1fa      	bne.n	113a <ros::NodeHandle_<MbedHardware, 25, 25, 512, 512>::publish(int, ros::Msg const*)+0x66>
    1144:	43d2      	mvns	r2, r2
    1146:	1dc3      	adds	r3, r0, #7
    1148:	f100 0508 	add.w	r5, r0, #8
    114c:	b29b      	uxth	r3, r3
    114e:	b2ad      	uxth	r5, r5
    1150:	4433      	add	r3, r6
    1152:	f5b5 7f00 	cmp.w	r5, #512	; 0x200
    1156:	f883 2320 	strb.w	r2, [r3, #800]	; 0x320
    115a:	d813      	bhi.n	1184 <ros::NodeHandle_<MbedHardware, 25, 25, 512, 512>::publish(int, ros::Msg const*)+0xb0>
    115c:	f506 7748 	add.w	r7, r6, #800	; 0x320
    1160:	b165      	cbz	r5, 117c <ros::NodeHandle_<MbedHardware, 25, 25, 512, 512>::publish(int, ros::Msg const*)+0xa8>
    1162:	1e6b      	subs	r3, r5, #1
    1164:	441f      	add	r7, r3
    1166:	f106 0844 	add.w	r8, r6, #68	; 0x44
    116a:	f206 341f 	addw	r4, r6, #799	; 0x31f
    116e:	f814 1f01 	ldrb.w	r1, [r4, #1]!
    1172:	4640      	mov	r0, r8
    1174:	f006 fb46 	bl	7804 <mbed::Stream::putc(int)>
    1178:	42a7      	cmp	r7, r4
    117a:	d1f8      	bne.n	116e <ros::NodeHandle_<MbedHardware, 25, 25, 512, 512>::publish(int, ros::Msg const*)+0x9a>
    117c:	4628      	mov	r0, r5
    117e:	b004      	add	sp, #16
    1180:	e8bd 81f0 	ldmia.w	sp!, {r4, r5, r6, r7, r8, pc}
    1184:	4930      	ldr	r1, [pc, #192]	; (1248 <ros::NodeHandle_<MbedHardware, 25, 25, 512, 512>::publish(int, ros::Msg const*)+0x174>)
    1186:	4c31      	ldr	r4, [pc, #196]	; (124c <ros::NodeHandle_<MbedHardware, 25, 25, 512, 512>::publish(int, ros::Msg const*)+0x178>)
    1188:	2203      	movs	r2, #3
    118a:	6833      	ldr	r3, [r6, #0]
    118c:	9101      	str	r1, [sp, #4]
    118e:	9403      	str	r4, [sp, #12]
    1190:	f88d 2008 	strb.w	r2, [sp, #8]
    1194:	681b      	ldr	r3, [r3, #0]
    1196:	492e      	ldr	r1, [pc, #184]	; (1250 <ros::NodeHandle_<MbedHardware, 25, 25, 512, 512>::publish(int, ros::Msg const*)+0x17c>)
    1198:	428b      	cmp	r3, r1
    119a:	d14d      	bne.n	1238 <ros::NodeHandle_<MbedHardware, 25, 25, 512, 512>::publish(int, ros::Msg const*)+0x164>
    119c:	ab04      	add	r3, sp, #16
    119e:	2138      	movs	r1, #56	; 0x38
    11a0:	f843 1d10 	str.w	r1, [r3, #-16]!
    11a4:	6818      	ldr	r0, [r3, #0]
    11a6:	f886 2327 	strb.w	r2, [r6, #807]	; 0x327
    11aa:	f8c6 0328 	str.w	r0, [r6, #808]	; 0x328
    11ae:	f104 0c30 	add.w	r12, r4, #48	; 0x30
    11b2:	f506 754b 	add.w	r5, r6, #812	; 0x32c
    11b6:	46a6      	mov	lr, r4
    11b8:	e8be 000f 	ldmia.w	lr!, {r0, r1, r2, r3}
    11bc:	45e6      	cmp	lr, r12
    11be:	6028      	str	r0, [r5, #0]
    11c0:	6069      	str	r1, [r5, #4]
    11c2:	60aa      	str	r2, [r5, #8]
    11c4:	60eb      	str	r3, [r5, #12]
    11c6:	f104 0410 	add.w	r4, r4, #16
    11ca:	f105 0510 	add.w	r5, r5, #16
    11ce:	d1f2      	bne.n	11b6 <ros::NodeHandle_<MbedHardware, 25, 25, 512, 512>::publish(int, ros::Msg const*)+0xe2>
    11d0:	cc03      	ldmia	r4!, {r0, r1}
    11d2:	f04f 0e00 	mov.w	lr, #0
    11d6:	6028      	str	r0, [r5, #0]
    11d8:	6069      	str	r1, [r5, #4]
    11da:	f04f 0c07 	mov.w	r12, #7
    11de:	21c2      	movs	r1, #194	; 0xc2
    11e0:	25ff      	movs	r5, #255	; 0xff
    11e2:	24fe      	movs	r4, #254	; 0xfe
    11e4:	203d      	movs	r0, #61	; 0x3d
    11e6:	f886 1324 	strb.w	r1, [r6, #804]	; 0x324
    11ea:	4673      	mov	r3, lr
    11ec:	4662      	mov	r2, r12
    11ee:	f886 e323 	strb.w	lr, [r6, #803]	; 0x323
    11f2:	f886 e326 	strb.w	lr, [r6, #806]	; 0x326
    11f6:	f886 c325 	strb.w	r12, [r6, #805]	; 0x325
    11fa:	f886 5320 	strb.w	r5, [r6, #800]	; 0x320
    11fe:	f886 4321 	strb.w	r4, [r6, #801]	; 0x321
    1202:	f886 0322 	strb.w	r0, [r6, #802]	; 0x322
    1206:	f206 3163 	addw	r1, r6, #867	; 0x363
    120a:	e001      	b.n	1210 <ros::NodeHandle_<MbedHardware, 25, 25, 512, 512>::publish(int, ros::Msg const*)+0x13c>
    120c:	f817 2f01 	ldrb.w	r2, [r7, #1]!
    1210:	428f      	cmp	r7, r1
    1212:	4413      	add	r3, r2
    1214:	d1fa      	bne.n	120c <ros::NodeHandle_<MbedHardware, 25, 25, 512, 512>::publish(int, ros::Msg const*)+0x138>
    1216:	43db      	mvns	r3, r3
    1218:	f106 0744 	add.w	r7, r6, #68	; 0x44
    121c:	f886 3364 	strb.w	r3, [r6, #868]	; 0x364
    1220:	f206 351f 	addw	r5, r6, #799	; 0x31f
    1224:	f506 7459 	add.w	r4, r6, #868	; 0x364
    1228:	f815 1f01 	ldrb.w	r1, [r5, #1]!
    122c:	4638      	mov	r0, r7
    122e:	f006 fae9 	bl	7804 <mbed::Stream::putc(int)>
    1232:	42ac      	cmp	r4, r5
    1234:	d1f8      	bne.n	1228 <ros::NodeHandle_<MbedHardware, 25, 25, 512, 512>::publish(int, ros::Msg const*)+0x154>
    1236:	e003      	b.n	1240 <ros::NodeHandle_<MbedHardware, 25, 25, 512, 512>::publish(int, ros::Msg const*)+0x16c>
    1238:	4630      	mov	r0, r6
    123a:	aa01      	add	r2, sp, #4
    123c:	2107      	movs	r1, #7
    123e:	4798      	blx	r3
    1240:	f04f 35ff 	mov.w	r5, #4294967295
    1244:	e79a      	b.n	117c <ros::NodeHandle_<MbedHardware, 25, 25, 512, 512>::publish(int, ros::Msg const*)+0xa8>
    1246:	bf00      	nop
    1248:	0000ad84 	.word	0x0000ad84
    124c:	0000b00c 	.word	0x0000b00c
    1250:	000010d5 	.word	0x000010d5

00001254 <GetPubPosition()>:
    1254:	e92d 4ff0 	stmdb	sp!, {r4, r5, r6, r7, r8, r9, r10, r11, lr}
    1258:	f8df 82e4 	ldr.w	r8, [pc, #740]	; 1540 <GetPubPosition()+0x2ec>
    125c:	4eb4      	ldr	r6, [pc, #720]	; (1530 <GetPubPosition()+0x2dc>)
    125e:	b087      	sub	sp, #28
    1260:	2400      	movs	r4, #0
    1262:	6833      	ldr	r3, [r6, #0]
    1264:	f8d8 502c 	ldr.w	r5, [r8, #44]	; 0x2c
    1268:	5918      	ldr	r0, [r3, r4]
    126a:	6803      	ldr	r3, [r0, #0]
    126c:	6a1b      	ldr	r3, [r3, #32]
    126e:	4798      	blx	r3
    1270:	5128      	str	r0, [r5, r4]
    1272:	3404      	adds	r4, #4
    1274:	2c14      	cmp	r4, #20
    1276:	d1f4      	bne.n	1262 <GetPubPosition()+0xe>
    1278:	4bae      	ldr	r3, [pc, #696]	; (1534 <GetPubPosition()+0x2e0>)
    127a:	49af      	ldr	r1, [pc, #700]	; (1538 <GetPubPosition()+0x2e4>)
    127c:	f8d3 900c 	ldr.w	r9, [r3, #12]
    1280:	689b      	ldr	r3, [r3, #8]
    1282:	461a      	mov	r2, r3
    1284:	9301      	str	r3, [sp, #4]
    1286:	f8d9 3000 	ldr.w	r3, [r9]
    128a:	681b      	ldr	r3, [r3, #0]
    128c:	428b      	cmp	r3, r1
    128e:	d152      	bne.n	1336 <GetPubPosition()+0xe2>
    1290:	2a63      	cmp	r2, #99	; 0x63
    1292:	dd03      	ble.n	129c <GetPubPosition()+0x48>
    1294:	f899 35fc 	ldrb.w	r3, [r9, #1532]	; 0x5fc
    1298:	2b00      	cmp	r3, #0
    129a:	d050      	beq.n	133e <GetPubPosition()+0xea>
    129c:	f898 2008 	ldrb.w	r2, [r8, #8]
    12a0:	2600      	movs	r6, #0
    12a2:	f889 2327 	strb.w	r2, [r9, #807]	; 0x327
    12a6:	f889 6328 	strb.w	r6, [r9, #808]	; 0x328
    12aa:	f889 6329 	strb.w	r6, [r9, #809]	; 0x329
    12ae:	f889 632a 	strb.w	r6, [r9, #810]	; 0x32a
    12b2:	f209 3b27 	addw	r11, r9, #807	; 0x327
    12b6:	2a00      	cmp	r2, #0
    12b8:	f000 80cf 	beq.w	145a <GetPubPosition()+0x206>
    12bc:	f04f 0a04 	mov.w	r10, #4
    12c0:	e02a      	b.n	1318 <GetPubPosition()+0xc4>
    12c2:	6860      	ldr	r0, [r4, #4]
    12c4:	f008 ff53 	bl	a16e <strlen>
    12c8:	4607      	mov	r7, r0
    12ca:	ab06      	add	r3, sp, #24
    12cc:	f843 0d0c 	str.w	r0, [r3, #-12]!
    12d0:	6818      	ldr	r0, [r3, #0]
    12d2:	463a      	mov	r2, r7
    12d4:	f84b 000a 	str.w	r0, [r11, r10]
    12d8:	6861      	ldr	r1, [r4, #4]
    12da:	1d28      	adds	r0, r5, #4
    12dc:	f007 ffc0 	bl	9260 <memcpy>
    12e0:	68a2      	ldr	r2, [r4, #8]
    12e2:	19eb      	adds	r3, r5, r7
    12e4:	711a      	strb	r2, [r3, #4]
    12e6:	68a2      	ldr	r2, [r4, #8]
    12e8:	f107 000c 	add.w	r0, r7, #12
    12ec:	0a12      	lsrs	r2, r2, #8
    12ee:	715a      	strb	r2, [r3, #5]
    12f0:	8962      	ldrh	r2, [r4, #10]
    12f2:	719a      	strb	r2, [r3, #6]
    12f4:	7ae2      	ldrb	r2, [r4, #11]
    12f6:	71da      	strb	r2, [r3, #7]
    12f8:	68e2      	ldr	r2, [r4, #12]
    12fa:	721a      	strb	r2, [r3, #8]
    12fc:	68e2      	ldr	r2, [r4, #12]
    12fe:	0a12      	lsrs	r2, r2, #8
    1300:	725a      	strb	r2, [r3, #9]
    1302:	89e2      	ldrh	r2, [r4, #14]
    1304:	729a      	strb	r2, [r3, #10]
    1306:	7be2      	ldrb	r2, [r4, #15]
    1308:	72da      	strb	r2, [r3, #11]
    130a:	3601      	adds	r6, #1
    130c:	f898 3008 	ldrb.w	r3, [r8, #8]
    1310:	b2f6      	uxtb	r6, r6
    1312:	42b3      	cmp	r3, r6
    1314:	4482      	add	r10, r0
    1316:	d915      	bls.n	1344 <GetPubPosition()+0xf0>
    1318:	f8d8 401c 	ldr.w	r4, [r8, #28]
    131c:	0133      	lsls	r3, r6, #4
    131e:	58e2      	ldr	r2, [r4, r3]
    1320:	441c      	add	r4, r3
    1322:	6813      	ldr	r3, [r2, #0]
    1324:	4a85      	ldr	r2, [pc, #532]	; (153c <GetPubPosition()+0x2e8>)
    1326:	eb0b 050a 	add.w	r5, r11, r10
    132a:	4293      	cmp	r3, r2
    132c:	d0c9      	beq.n	12c2 <GetPubPosition()+0x6e>
    132e:	4629      	mov	r1, r5
    1330:	4620      	mov	r0, r4
    1332:	4798      	blx	r3
    1334:	e7e9      	b.n	130a <GetPubPosition()+0xb6>
    1336:	9901      	ldr	r1, [sp, #4]
    1338:	4648      	mov	r0, r9
    133a:	4a81      	ldr	r2, [pc, #516]	; (1540 <GetPubPosition()+0x2ec>)
    133c:	4798      	blx	r3
    133e:	b007      	add	sp, #28
    1340:	e8bd 8ff0 	ldmia.w	sp!, {r4, r5, r6, r7, r8, r9, r10, r11, pc}
    1344:	f10a 0404 	add.w	r4, r10, #4
    1348:	1d22      	adds	r2, r4, #4
    134a:	f10a 0605 	add.w	r6, r10, #5
    134e:	f10a 0506 	add.w	r5, r10, #6
    1352:	f10a 0307 	add.w	r3, r10, #7
    1356:	f10a 0c01 	add.w	r12, r10, #1
    135a:	f10a 0e02 	add.w	lr, r10, #2
    135e:	f10a 0703 	add.w	r7, r10, #3
    1362:	f8d8 0020 	ldr.w	r0, [r8, #32]
    1366:	2100      	movs	r1, #0
    1368:	f80b 000a 	strb.w	r0, [r11, r10]
    136c:	f8d8 0020 	ldr.w	r0, [r8, #32]
    1370:	0a00      	lsrs	r0, r0, #8
    1372:	f80b 000c 	strb.w	r0, [r11, r12]
    1376:	f8b8 0022 	ldrh.w	r0, [r8, #34]	; 0x22
    137a:	f80b 000e 	strb.w	r0, [r11, lr]
    137e:	f898 0023 	ldrb.w	r0, [r8, #35]	; 0x23
    1382:	f80b 0007 	strb.w	r0, [r11, r7]
    1386:	f898 0024 	ldrb.w	r0, [r8, #36]	; 0x24
    138a:	f80b 0004 	strb.w	r0, [r11, r4]
    138e:	f80b 1006 	strb.w	r1, [r11, r6]
    1392:	f80b 1005 	strb.w	r1, [r11, r5]
    1396:	f80b 1003 	strb.w	r1, [r11, r3]
    139a:	f898 0024 	ldrb.w	r0, [r8, #36]	; 0x24
    139e:	b1b0      	cbz	r0, 13ce <GetPubPosition()+0x17a>
    13a0:	eb0b 0002 	add.w	r0, r11, r2
    13a4:	f8d8 302c 	ldr.w	r3, [r8, #44]	; 0x2c
    13a8:	1c4c      	adds	r4, r1, #1
    13aa:	f853 3021 	ldr.w	r3, [r3, r1, lsl #2]
    13ae:	b2e1      	uxtb	r1, r4
    13b0:	0a1e      	lsrs	r6, r3, #8
    13b2:	0c1d      	lsrs	r5, r3, #16
    13b4:	0e1c      	lsrs	r4, r3, #24
    13b6:	f80b 3002 	strb.w	r3, [r11, r2]
    13ba:	7046      	strb	r6, [r0, #1]
    13bc:	7085      	strb	r5, [r0, #2]
    13be:	70c4      	strb	r4, [r0, #3]
    13c0:	f898 3024 	ldrb.w	r3, [r8, #36]	; 0x24
    13c4:	3204      	adds	r2, #4
    13c6:	428b      	cmp	r3, r1
    13c8:	f100 0004 	add.w	r0, r0, #4
    13cc:	d8ea      	bhi.n	13a4 <GetPubPosition()+0x150>
    13ce:	b2d4      	uxtb	r4, r2
    13d0:	f3c2 2007 	ubfx	r0, r2, #8, #8
    13d4:	1821      	adds	r1, r4, r0
    13d6:	43c9      	mvns	r1, r1
    13d8:	f889 1324 	strb.w	r1, [r9, #804]	; 0x324
    13dc:	21ff      	movs	r1, #255	; 0xff
    13de:	f889 1320 	strb.w	r1, [r9, #800]	; 0x320
    13e2:	9901      	ldr	r1, [sp, #4]
    13e4:	b292      	uxth	r2, r2
    13e6:	f209 3525 	addw	r5, r9, #805	; 0x325
    13ea:	f889 4322 	strb.w	r4, [r9, #802]	; 0x322
    13ee:	f889 0323 	strb.w	r0, [r9, #803]	; 0x323
    13f2:	f202 3426 	addw	r4, r2, #806	; 0x326
    13f6:	b2c8      	uxtb	r0, r1
    13f8:	26fe      	movs	r6, #254	; 0xfe
    13fa:	f341 2107 	sbfx	r1, r1, #8, #8
    13fe:	f889 1326 	strb.w	r1, [r9, #806]	; 0x326
    1402:	462b      	mov	r3, r5
    1404:	444c      	add	r4, r9
    1406:	f889 6321 	strb.w	r6, [r9, #801]	; 0x321
    140a:	f889 0325 	strb.w	r0, [r9, #805]	; 0x325
    140e:	2100      	movs	r1, #0
    1410:	e001      	b.n	1416 <GetPubPosition()+0x1c2>
    1412:	f813 0f01 	ldrb.w	r0, [r3, #1]!
    1416:	42a3      	cmp	r3, r4
    1418:	4401      	add	r1, r0
    141a:	d1fa      	bne.n	1412 <GetPubPosition()+0x1be>
    141c:	43c9      	mvns	r1, r1
    141e:	1dd0      	adds	r0, r2, #7
    1420:	3208      	adds	r2, #8
    1422:	b280      	uxth	r0, r0
    1424:	b293      	uxth	r3, r2
    1426:	4448      	add	r0, r9
    1428:	f5b3 7f00 	cmp.w	r3, #512	; 0x200
    142c:	f880 1320 	strb.w	r1, [r0, #800]	; 0x320
    1430:	d820      	bhi.n	1474 <GetPubPosition()+0x220>
    1432:	f509 7448 	add.w	r4, r9, #800	; 0x320
    1436:	2b00      	cmp	r3, #0
    1438:	d081      	beq.n	133e <GetPubPosition()+0xea>
    143a:	3b01      	subs	r3, #1
    143c:	f109 0544 	add.w	r5, r9, #68	; 0x44
    1440:	441c      	add	r4, r3
    1442:	f209 391f 	addw	r9, r9, #799	; 0x31f
    1446:	f819 1f01 	ldrb.w	r1, [r9, #1]!
    144a:	4628      	mov	r0, r5
    144c:	f006 f9da 	bl	7804 <mbed::Stream::putc(int)>
    1450:	454c      	cmp	r4, r9
    1452:	d1f8      	bne.n	1446 <GetPubPosition()+0x1f2>
    1454:	b007      	add	sp, #28
    1456:	e8bd 8ff0 	ldmia.w	sp!, {r4, r5, r6, r7, r8, r9, r10, r11, pc}
    145a:	2408      	movs	r4, #8
    145c:	2707      	movs	r7, #7
    145e:	f04f 0e06 	mov.w	lr, #6
    1462:	f04f 0c05 	mov.w	r12, #5
    1466:	f04f 0a04 	mov.w	r10, #4
    146a:	230b      	movs	r3, #11
    146c:	220c      	movs	r2, #12
    146e:	250a      	movs	r5, #10
    1470:	2609      	movs	r6, #9
    1472:	e776      	b.n	1362 <GetPubPosition()+0x10e>
    1474:	4b33      	ldr	r3, [pc, #204]	; (1544 <GetPubPosition()+0x2f0>)
    1476:	4c34      	ldr	r4, [pc, #208]	; (1548 <GetPubPosition()+0x2f4>)
    1478:	2203      	movs	r2, #3
    147a:	9303      	str	r3, [sp, #12]
    147c:	9405      	str	r4, [sp, #20]
    147e:	f88d 2010 	strb.w	r2, [sp, #16]
    1482:	f8d9 3000 	ldr.w	r3, [r9]
    1486:	492c      	ldr	r1, [pc, #176]	; (1538 <GetPubPosition()+0x2e4>)
    1488:	681b      	ldr	r3, [r3, #0]
    148a:	428b      	cmp	r3, r1
    148c:	d14b      	bne.n	1526 <GetPubPosition()+0x2d2>
    148e:	ab06      	add	r3, sp, #24
    1490:	2138      	movs	r1, #56	; 0x38
    1492:	f843 1d10 	str.w	r1, [r3, #-16]!
    1496:	6818      	ldr	r0, [r3, #0]
    1498:	f889 2327 	strb.w	r2, [r9, #807]	; 0x327
    149c:	f8c9 0328 	str.w	r0, [r9, #808]	; 0x328
    14a0:	f104 0e30 	add.w	lr, r4, #48	; 0x30
    14a4:	f509 764b 	add.w	r6, r9, #812	; 0x32c
    14a8:	4627      	mov	r7, r4
    14aa:	cf0f      	ldmia	r7!, {r0, r1, r2, r3}
    14ac:	4577      	cmp	r7, lr
    14ae:	6030      	str	r0, [r6, #0]
    14b0:	6071      	str	r1, [r6, #4]
    14b2:	60b2      	str	r2, [r6, #8]
    14b4:	60f3      	str	r3, [r6, #12]
    14b6:	f104 0410 	add.w	r4, r4, #16
    14ba:	f106 0610 	add.w	r6, r6, #16
    14be:	d1f3      	bne.n	14a8 <GetPubPosition()+0x254>
    14c0:	cc03      	ldmia	r4!, {r0, r1}
    14c2:	2700      	movs	r7, #0
    14c4:	6030      	str	r0, [r6, #0]
    14c6:	6071      	str	r1, [r6, #4]
    14c8:	f04f 0e07 	mov.w	lr, #7
    14cc:	21c2      	movs	r1, #194	; 0xc2
    14ce:	26ff      	movs	r6, #255	; 0xff
    14d0:	24fe      	movs	r4, #254	; 0xfe
    14d2:	203d      	movs	r0, #61	; 0x3d
    14d4:	f889 1324 	strb.w	r1, [r9, #804]	; 0x324
    14d8:	463b      	mov	r3, r7
    14da:	4672      	mov	r2, lr
    14dc:	f889 7323 	strb.w	r7, [r9, #803]	; 0x323
    14e0:	f889 7326 	strb.w	r7, [r9, #806]	; 0x326
    14e4:	f889 e325 	strb.w	lr, [r9, #805]	; 0x325
    14e8:	f889 6320 	strb.w	r6, [r9, #800]	; 0x320
    14ec:	f889 4321 	strb.w	r4, [r9, #801]	; 0x321
    14f0:	f889 0322 	strb.w	r0, [r9, #802]	; 0x322
    14f4:	f209 3163 	addw	r1, r9, #867	; 0x363
    14f8:	e001      	b.n	14fe <GetPubPosition()+0x2aa>
    14fa:	f815 2f01 	ldrb.w	r2, [r5, #1]!
    14fe:	428d      	cmp	r5, r1
    1500:	4413      	add	r3, r2
    1502:	d1fa      	bne.n	14fa <GetPubPosition()+0x2a6>
    1504:	43db      	mvns	r3, r3
    1506:	f109 0544 	add.w	r5, r9, #68	; 0x44
    150a:	f889 3364 	strb.w	r3, [r9, #868]	; 0x364
    150e:	f209 341f 	addw	r4, r9, #799	; 0x31f
    1512:	f509 7959 	add.w	r9, r9, #868	; 0x364
    1516:	f814 1f01 	ldrb.w	r1, [r4, #1]!
    151a:	4628      	mov	r0, r5
    151c:	f006 f972 	bl	7804 <mbed::Stream::putc(int)>
    1520:	454c      	cmp	r4, r9
    1522:	d1f8      	bne.n	1516 <GetPubPosition()+0x2c2>
    1524:	e70b      	b.n	133e <GetPubPosition()+0xea>
    1526:	4648      	mov	r0, r9
    1528:	aa03      	add	r2, sp, #12
    152a:	2107      	movs	r1, #7
    152c:	4798      	blx	r3
    152e:	e706      	b.n	133e <GetPubPosition()+0xea>
    1530:	100001f8 	.word	0x100001f8
    1534:	10000988 	.word	0x10000988
    1538:	000010d5 	.word	0x000010d5
    153c:	000002b9 	.word	0x000002b9
    1540:	1000021c 	.word	0x1000021c
    1544:	0000ad84 	.word	0x0000ad84
    1548:	0000b00c 	.word	0x0000b00c

0000154c <DxResetTorque()>:
    154c:	e92d 41f0 	stmdb	sp!, {r4, r5, r6, r7, r8, lr}
    1550:	f7ff fe80 	bl	1254 <GetPubPosition()>
    1554:	4e0c      	ldr	r6, [pc, #48]	; (1588 <DxResetTorque()+0x3c>)
    1556:	f8df 8038 	ldr.w	r8, [pc, #56]	; 1590 <DxResetTorque()+0x44>
    155a:	4f0c      	ldr	r7, [pc, #48]	; (158c <DxResetTorque()+0x40>)
    155c:	2400      	movs	r4, #0
    155e:	f8d8 302c 	ldr.w	r3, [r8, #44]	; 0x2c
    1562:	683a      	ldr	r2, [r7, #0]
    1564:	591b      	ldr	r3, [r3, r4]
    1566:	5915      	ldr	r5, [r2, r4]
    1568:	4618      	mov	r0, r3
    156a:	f846 3b04 	str.w	r3, [r6], #4
    156e:	f007 fa5f 	bl	8a30 <__aeabi_f2iz>
    1572:	682b      	ldr	r3, [r5, #0]
    1574:	4601      	mov	r1, r0
    1576:	3404      	adds	r4, #4
    1578:	685b      	ldr	r3, [r3, #4]
    157a:	4628      	mov	r0, r5
    157c:	2200      	movs	r2, #0
    157e:	4798      	blx	r3
    1580:	2c14      	cmp	r4, #20
    1582:	d1ec      	bne.n	155e <DxResetTorque()+0x12>
    1584:	e8bd 81f0 	ldmia.w	sp!, {r4, r5, r6, r7, r8, pc}
    1588:	10000108 	.word	0x10000108
    158c:	100001f8 	.word	0x100001f8
    1590:	1000021c 	.word	0x1000021c

00001594 <DxInitialize()>:
    1594:	e92d 41f0 	stmdb	sp!, {r4, r5, r6, r7, r8, lr}
    1598:	f8df 8048 	ldr.w	r8, [pc, #72]	; 15e4 <DxInitialize()+0x50>
    159c:	4f0e      	ldr	r7, [pc, #56]	; (15d8 <DxInitialize()+0x44>)
    159e:	4e0f      	ldr	r6, [pc, #60]	; (15dc <DxInitialize()+0x48>)
    15a0:	4d0f      	ldr	r5, [pc, #60]	; (15e0 <DxInitialize()+0x4c>)
    15a2:	2400      	movs	r4, #0
    15a4:	682b      	ldr	r3, [r5, #0]
    15a6:	f858 1b04 	ldr.w	r1, [r8], #4
    15aa:	5918      	ldr	r0, [r3, r4]
    15ac:	6803      	ldr	r3, [r0, #0]
    15ae:	68db      	ldr	r3, [r3, #12]
    15b0:	4798      	blx	r3
    15b2:	682b      	ldr	r3, [r5, #0]
    15b4:	f857 1b04 	ldr.w	r1, [r7], #4
    15b8:	5918      	ldr	r0, [r3, r4]
    15ba:	6803      	ldr	r3, [r0, #0]
    15bc:	691b      	ldr	r3, [r3, #16]
    15be:	4798      	blx	r3
    15c0:	682b      	ldr	r3, [r5, #0]
    15c2:	f856 1b04 	ldr.w	r1, [r6], #4
    15c6:	5918      	ldr	r0, [r3, r4]
    15c8:	3404      	adds	r4, #4
    15ca:	6803      	ldr	r3, [r0, #0]
    15cc:	689b      	ldr	r3, [r3, #8]
    15ce:	4798      	blx	r3
    15d0:	2c14      	cmp	r4, #20
    15d2:	d1e7      	bne.n	15a4 <DxInitialize()+0x10>
    15d4:	e8bd 81f0 	ldmia.w	sp!, {r4, r5, r6, r7, r8, pc}
    15d8:	100000f4 	.word	0x100000f4
    15dc:	100000e0 	.word	0x100000e0
    15e0:	100001f8 	.word	0x100001f8
    15e4:	100000cc 	.word	0x100000cc

000015e8 <ros::NodeHandle_<MbedHardware, 25, 25, 512, 512>::requestSyncTime()>:
    15e8:	b5f0      	push	{r4, r5, r6, r7, lr}
    15ea:	4a2b      	ldr	r2, [pc, #172]	; (1698 <ros::NodeHandle_<MbedHardware, 25, 25, 512, 512>::requestSyncTime()+0xb0>)
    15ec:	b085      	sub	sp, #20
    15ee:	6803      	ldr	r3, [r0, #0]
    15f0:	9201      	str	r2, [sp, #4]
    15f2:	681c      	ldr	r4, [r3, #0]
    15f4:	4a29      	ldr	r2, [pc, #164]	; (169c <ros::NodeHandle_<MbedHardware, 25, 25, 512, 512>::requestSyncTime()+0xb4>)
    15f6:	2300      	movs	r3, #0
    15f8:	4294      	cmp	r4, r2
    15fa:	4605      	mov	r5, r0
    15fc:	9302      	str	r3, [sp, #8]
    15fe:	9303      	str	r3, [sp, #12]
    1600:	d146      	bne.n	1690 <ros::NodeHandle_<MbedHardware, 25, 25, 512, 512>::requestSyncTime()+0xa8>
    1602:	200a      	movs	r0, #10
    1604:	461a      	mov	r2, r3
    1606:	27ff      	movs	r7, #255	; 0xff
    1608:	26fe      	movs	r6, #254	; 0xfe
    160a:	2408      	movs	r4, #8
    160c:	f885 3327 	strb.w	r3, [r5, #807]	; 0x327
    1610:	f885 3328 	strb.w	r3, [r5, #808]	; 0x328
    1614:	f885 3329 	strb.w	r3, [r5, #809]	; 0x329
    1618:	f885 332a 	strb.w	r3, [r5, #810]	; 0x32a
    161c:	f885 332b 	strb.w	r3, [r5, #811]	; 0x32b
    1620:	f885 332c 	strb.w	r3, [r5, #812]	; 0x32c
    1624:	f885 332d 	strb.w	r3, [r5, #813]	; 0x32d
    1628:	f885 332e 	strb.w	r3, [r5, #814]	; 0x32e
    162c:	f885 3323 	strb.w	r3, [r5, #803]	; 0x323
    1630:	f885 3326 	strb.w	r3, [r5, #806]	; 0x326
    1634:	23f7      	movs	r3, #247	; 0xf7
    1636:	4601      	mov	r1, r0
    1638:	f885 0325 	strb.w	r0, [r5, #805]	; 0x325
    163c:	f885 3324 	strb.w	r3, [r5, #804]	; 0x324
    1640:	f885 7320 	strb.w	r7, [r5, #800]	; 0x320
    1644:	f885 6321 	strb.w	r6, [r5, #801]	; 0x321
    1648:	f885 4322 	strb.w	r4, [r5, #802]	; 0x322
    164c:	f205 3325 	addw	r3, r5, #805	; 0x325
    1650:	f205 302e 	addw	r0, r5, #814	; 0x32e
    1654:	e001      	b.n	165a <ros::NodeHandle_<MbedHardware, 25, 25, 512, 512>::requestSyncTime()+0x72>
    1656:	f813 1f01 	ldrb.w	r1, [r3, #1]!
    165a:	4298      	cmp	r0, r3
    165c:	440a      	add	r2, r1
    165e:	d1fa      	bne.n	1656 <ros::NodeHandle_<MbedHardware, 25, 25, 512, 512>::requestSyncTime()+0x6e>
    1660:	43d2      	mvns	r2, r2
    1662:	f105 0744 	add.w	r7, r5, #68	; 0x44
    1666:	f885 232f 	strb.w	r2, [r5, #815]	; 0x32f
    166a:	f205 341f 	addw	r4, r5, #799	; 0x31f
    166e:	f205 362f 	addw	r6, r5, #815	; 0x32f
    1672:	f814 1f01 	ldrb.w	r1, [r4, #1]!
    1676:	4638      	mov	r0, r7
    1678:	f006 f8c4 	bl	7804 <mbed::Stream::putc(int)>
    167c:	42b4      	cmp	r4, r6
    167e:	d1f8      	bne.n	1672 <ros::NodeHandle_<MbedHardware, 25, 25, 512, 512>::requestSyncTime()+0x8a>
    1680:	f505 7082 	add.w	r0, r5, #260	; 0x104
    1684:	f006 f8f8 	bl	7878 <mbed::Timer::read_ms()>
    1688:	f8c5 0114 	str.w	r0, [r5, #276]	; 0x114
    168c:	b005      	add	sp, #20
    168e:	bdf0      	pop	{r4, r5, r6, r7, pc}
    1690:	aa01      	add	r2, sp, #4
    1692:	210a      	movs	r1, #10
    1694:	47a0      	blx	r4
    1696:	e7f3      	b.n	1680 <ros::NodeHandle_<MbedHardware, 25, 25, 512, 512>::requestSyncTime()+0x98>
    1698:	0000ad54 	.word	0x0000ad54
    169c:	000010d5 	.word	0x000010d5

000016a0 <DxGoHome()>:
    16a0:	4b59      	ldr	r3, [pc, #356]	; (1808 <DxGoHome()+0x168>)
    16a2:	e92d 4ff0 	stmdb	sp!, {r4, r5, r6, r7, r8, r9, r10, r11, lr}
    16a6:	6818      	ldr	r0, [r3, #0]
    16a8:	f8df a188 	ldr.w	r10, [pc, #392]	; 1834 <DxGoHome()+0x194>
    16ac:	6803      	ldr	r3, [r0, #0]
    16ae:	f8df 9188 	ldr.w	r9, [pc, #392]	; 1838 <DxGoHome()+0x198>
    16b2:	b08f      	sub	sp, #60	; 0x3c
    16b4:	f8da 1010 	ldr.w	r1, [r10, #16]
    16b8:	685b      	ldr	r3, [r3, #4]
    16ba:	2200      	movs	r2, #0
    16bc:	4798      	blx	r3
    16be:	f7ff fdc9 	bl	1254 <GetPubPosition()>
    16c2:	f8d9 202c 	ldr.w	r2, [r9, #44]	; 0x2c
    16c6:	f8da 3004 	ldr.w	r3, [r10, #4]
    16ca:	f8da 400c 	ldr.w	r4, [r10, #12]
    16ce:	6850      	ldr	r0, [r2, #4]
    16d0:	441c      	add	r4, r3
    16d2:	f007 f9ad 	bl	8a30 <__aeabi_f2iz>
    16d6:	4b4d      	ldr	r3, [pc, #308]	; (180c <DxGoHome()+0x16c>)
    16d8:	1a21      	subs	r1, r4, r0
    16da:	6818      	ldr	r0, [r3, #0]
    16dc:	2200      	movs	r2, #0
    16de:	6803      	ldr	r3, [r0, #0]
    16e0:	685b      	ldr	r3, [r3, #4]
    16e2:	4798      	blx	r3
    16e4:	f8d9 302c 	ldr.w	r3, [r9, #44]	; 0x2c
    16e8:	4949      	ldr	r1, [pc, #292]	; (1810 <DxGoHome()+0x170>)
    16ea:	681c      	ldr	r4, [r3, #0]
    16ec:	4620      	mov	r0, r4
    16ee:	f007 f995 	bl	8a1c <__aeabi_fcmpgt>
    16f2:	b130      	cbz	r0, 1702 <DxGoHome()+0x62>
    16f4:	4620      	mov	r0, r4
    16f6:	4947      	ldr	r1, [pc, #284]	; (1814 <DxGoHome()+0x174>)
    16f8:	f007 f972 	bl	89e0 <__aeabi_fcmplt>
    16fc:	2800      	cmp	r0, #0
    16fe:	f040 8738 	bne.w	2572 <DxGoHome()+0xed2>
    1702:	4b45      	ldr	r3, [pc, #276]	; (1818 <DxGoHome()+0x178>)
    1704:	2200      	movs	r2, #0
    1706:	6818      	ldr	r0, [r3, #0]
    1708:	21dc      	movs	r1, #220	; 0xdc
    170a:	6803      	ldr	r3, [r0, #0]
    170c:	4c43      	ldr	r4, [pc, #268]	; (181c <DxGoHome()+0x17c>)
    170e:	685b      	ldr	r3, [r3, #4]
    1710:	4798      	blx	r3
    1712:	4b43      	ldr	r3, [pc, #268]	; (1820 <DxGoHome()+0x180>)
    1714:	2200      	movs	r2, #0
    1716:	6818      	ldr	r0, [r3, #0]
    1718:	21dc      	movs	r1, #220	; 0xdc
    171a:	6803      	ldr	r3, [r0, #0]
    171c:	9401      	str	r4, [sp, #4]
    171e:	685b      	ldr	r3, [r3, #4]
    1720:	4798      	blx	r3
    1722:	6823      	ldr	r3, [r4, #0]
    1724:	2b00      	cmp	r3, #0
    1726:	f040 8279 	bne.w	1c1c <DxGoHome()+0x57c>
    172a:	4c3e      	ldr	r4, [pc, #248]	; (1824 <DxGoHome()+0x184>)
    172c:	46a3      	mov	r11, r4
    172e:	e013      	b.n	1758 <DxGoHome()+0xb8>
    1730:	f894 35fc 	ldrb.w	r3, [r4, #1532]	; 0x5fc
    1734:	b143      	cbz	r3, 1748 <DxGoHome()+0xa8>
    1736:	f640 12c4 	movw	r2, #2500	; 0x9c4
    173a:	f8d4 3600 	ldr.w	r3, [r4, #1536]	; 0x600
    173e:	ebc3 0308 	rsb	r3, r3, r8
    1742:	4293      	cmp	r3, r2
    1744:	f200 8224 	bhi.w	1b90 <DxGoHome()+0x4f0>
    1748:	200a      	movs	r0, #10
    174a:	f005 f91f 	bl	698c <wait_ms>
    174e:	9b01      	ldr	r3, [sp, #4]
    1750:	681b      	ldr	r3, [r3, #0]
    1752:	2b00      	cmp	r3, #0
    1754:	f040 8262 	bne.w	1c1c <DxGoHome()+0x57c>
    1758:	f7ff fd7c 	bl	1254 <GetPubPosition()>
    175c:	f8d9 202c 	ldr.w	r2, [r9, #44]	; 0x2c
    1760:	f8da 3004 	ldr.w	r3, [r10, #4]
    1764:	f8da 500c 	ldr.w	r5, [r10, #12]
    1768:	6850      	ldr	r0, [r2, #4]
    176a:	441d      	add	r5, r3
    176c:	f007 f960 	bl	8a30 <__aeabi_f2iz>
    1770:	4b26      	ldr	r3, [pc, #152]	; (180c <DxGoHome()+0x16c>)
    1772:	1a29      	subs	r1, r5, r0
    1774:	681b      	ldr	r3, [r3, #0]
    1776:	681a      	ldr	r2, [r3, #0]
    1778:	4618      	mov	r0, r3
    177a:	6853      	ldr	r3, [r2, #4]
    177c:	2200      	movs	r2, #0
    177e:	4798      	blx	r3
    1780:	f8d9 302c 	ldr.w	r3, [r9, #44]	; 0x2c
    1784:	4928      	ldr	r1, [pc, #160]	; (1828 <DxGoHome()+0x188>)
    1786:	6858      	ldr	r0, [r3, #4]
    1788:	f007 f92a 	bl	89e0 <__aeabi_fcmplt>
    178c:	4605      	mov	r5, r0
    178e:	2800      	cmp	r0, #0
    1790:	f040 8252 	bne.w	1c38 <DxGoHome()+0x598>
    1794:	4825      	ldr	r0, [pc, #148]	; (182c <DxGoHome()+0x18c>)
    1796:	f006 f86f 	bl	7878 <mbed::Timer::read_ms()>
    179a:	f642 22f8 	movw	r2, #11000	; 0x2af8
    179e:	f8d4 3604 	ldr.w	r3, [r4, #1540]	; 0x604
    17a2:	4680      	mov	r8, r0
    17a4:	1ac3      	subs	r3, r0, r3
    17a6:	4293      	cmp	r3, r2
    17a8:	f8d4 35e8 	ldr.w	r3, [r4, #1512]	; 0x5e8
    17ac:	bf88      	it	hi
    17ae:	f88b 55fc 	strbhi.w	r5, [r11, #1532]	; 0x5fc
    17b2:	b133      	cbz	r3, 17c2 <DxGoHome()+0x122>
    17b4:	f8d4 3608 	ldr.w	r3, [r4, #1544]	; 0x608
    17b8:	4298      	cmp	r0, r3
    17ba:	d902      	bls.n	17c2 <DxGoHome()+0x122>
    17bc:	2300      	movs	r3, #0
    17be:	f8c4 35e8 	str.w	r3, [r4, #1512]	; 0x5e8
    17c2:	481b      	ldr	r0, [pc, #108]	; (1830 <DxGoHome()+0x190>)
    17c4:	f004 fd90 	bl	62e8 <AjK::MODSERIAL::rxBufferEmpty()>
    17c8:	4606      	mov	r6, r0
    17ca:	2800      	cmp	r0, #0
    17cc:	d1b0      	bne.n	1730 <DxGoHome()+0x90>
    17ce:	2101      	movs	r1, #1
    17d0:	4817      	ldr	r0, [pc, #92]	; (1830 <DxGoHome()+0x190>)
    17d2:	f004 fc07 	bl	5fe4 <AjK::MODSERIAL::__getc(bool)>
    17d6:	2800      	cmp	r0, #0
    17d8:	dbaa      	blt.n	1730 <DxGoHome()+0x90>
    17da:	f8d4 35f8 	ldr.w	r3, [r4, #1528]	; 0x5f8
    17de:	f8d4 55e8 	ldr.w	r5, [r4, #1512]	; 0x5e8
    17e2:	4403      	add	r3, r0
    17e4:	2d07      	cmp	r5, #7
    17e6:	f8c4 35f8 	str.w	r3, [r4, #1528]	; 0x5f8
    17ea:	f000 8118 	beq.w	1a1e <DxGoHome()+0x37e>
    17ee:	bb2d      	cbnz	r5, 183c <DxGoHome()+0x19c>
    17f0:	28ff      	cmp	r0, #255	; 0xff
    17f2:	f040 8128 	bne.w	1a46 <DxGoHome()+0x3a6>
    17f6:	2201      	movs	r2, #1
    17f8:	f108 0314 	add.w	r3, r8, #20
    17fc:	f8c4 25e8 	str.w	r2, [r4, #1512]	; 0x5e8
    1800:	f8c4 3608 	str.w	r3, [r4, #1544]	; 0x608
    1804:	e7dd      	b.n	17c2 <DxGoHome()+0x122>
    1806:	bf00      	nop
    1808:	1000089c 	.word	0x1000089c
    180c:	10000950 	.word	0x10000950
    1810:	c2880000 	.word	0xc2880000
    1814:	42880000 	.word	0x42880000
    1818:	1000099c 	.word	0x1000099c
    181c:	1000024c 	.word	0x1000024c
    1820:	10000204 	.word	0x10000204
    1824:	10000250 	.word	0x10000250
    1828:	43610000 	.word	0x43610000
    182c:	10000354 	.word	0x10000354
    1830:	10000254 	.word	0x10000254
    1834:	1000011c 	.word	0x1000011c
    1838:	1000021c 	.word	0x1000021c
    183c:	2d01      	cmp	r5, #1
    183e:	f000 810d 	beq.w	1a5c <DxGoHome()+0x3bc>
    1842:	2d02      	cmp	r5, #2
    1844:	f000 8156 	beq.w	1af4 <DxGoHome()+0x454>
    1848:	2d03      	cmp	r5, #3
    184a:	f000 815d 	beq.w	1b08 <DxGoHome()+0x468>
    184e:	2d04      	cmp	r5, #4
    1850:	f000 8164 	beq.w	1b1c <DxGoHome()+0x47c>
    1854:	2d05      	cmp	r5, #5
    1856:	f000 8170 	beq.w	1b3a <DxGoHome()+0x49a>
    185a:	2d06      	cmp	r5, #6
    185c:	f000 8175 	beq.w	1b4a <DxGoHome()+0x4aa>
    1860:	2d08      	cmp	r5, #8
    1862:	d1ae      	bne.n	17c2 <DxGoHome()+0x122>
    1864:	4ac3      	ldr	r2, [pc, #780]	; (1b74 <DxGoHome()+0x4d4>)
    1866:	2100      	movs	r1, #0
    1868:	401a      	ands	r2, r3
    186a:	428a      	cmp	r2, r1
    186c:	f8c4 15e8 	str.w	r1, [r4, #1512]	; 0x5e8
    1870:	f2c0 81d9 	blt.w	1c26 <DxGoHome()+0x586>
    1874:	2aff      	cmp	r2, #255	; 0xff
    1876:	d1a4      	bne.n	17c2 <DxGoHome()+0x122>
    1878:	f8d4 35f0 	ldr.w	r3, [r4, #1520]	; 0x5f0
    187c:	2b00      	cmp	r3, #0
    187e:	f000 870d 	beq.w	269c <DxGoHome()+0xffc>
    1882:	2b0a      	cmp	r3, #10
    1884:	f000 86ca 	beq.w	261c <DxGoHome()+0xf7c>
    1888:	2b06      	cmp	r3, #6
    188a:	f000 86fd 	beq.w	2688 <DxGoHome()+0xfe8>
    188e:	2b0b      	cmp	r3, #11
    1890:	f000 81ce 	beq.w	1c30 <DxGoHome()+0x590>
    1894:	eb04 0383 	add.w	r3, r4, r3, lsl #2
    1898:	f8d3 53f4 	ldr.w	r5, [r3, #1012]	; 0x3f4
    189c:	2d00      	cmp	r5, #0
    189e:	d090      	beq.n	17c2 <DxGoHome()+0x122>
    18a0:	682b      	ldr	r3, [r5, #0]
    18a2:	4ab5      	ldr	r2, [pc, #724]	; (1b78 <DxGoHome()+0x4d8>)
    18a4:	681b      	ldr	r3, [r3, #0]
    18a6:	4293      	cmp	r3, r2
    18a8:	f041 80f6 	bne.w	2a98 <DxGoHome()+0x13f8>
    18ac:	f894 6120 	ldrb.w	r6, [r4, #288]	; 0x120
    18b0:	7d2b      	ldrb	r3, [r5, #20]
    18b2:	f105 020c 	add.w	r2, r5, #12
    18b6:	42b3      	cmp	r3, r6
    18b8:	9205      	str	r2, [sp, #20]
    18ba:	d204      	bcs.n	18c6 <DxGoHome()+0x226>
    18bc:	0131      	lsls	r1, r6, #4
    18be:	6aa8      	ldr	r0, [r5, #40]	; 0x28
    18c0:	f004 fb7c 	bl	5fbc <__wrap_realloc>
    18c4:	62a8      	str	r0, [r5, #40]	; 0x28
    18c6:	752e      	strb	r6, [r5, #20]
    18c8:	2e00      	cmp	r6, #0
    18ca:	f001 8142 	beq.w	2b52 <DxGoHome()+0x14b2>
    18ce:	4bab      	ldr	r3, [pc, #684]	; (1b7c <DxGoHome()+0x4dc>)
    18d0:	2600      	movs	r6, #0
    18d2:	9304      	str	r3, [sp, #16]
    18d4:	2304      	movs	r3, #4
    18d6:	9302      	str	r3, [sp, #8]
    18d8:	ab0b      	add	r3, sp, #44	; 0x2c
    18da:	f105 0e18 	add.w	lr, r5, #24
    18de:	9303      	str	r3, [sp, #12]
    18e0:	f8cd 8018 	str.w	r8, [sp, #24]
    18e4:	9b04      	ldr	r3, [sp, #16]
    18e6:	9a02      	ldr	r2, [sp, #8]
    18e8:	189f      	adds	r7, r3, r2
    18ea:	6838      	ldr	r0, [r7, #0]
    18ec:	9b03      	ldr	r3, [sp, #12]
    18ee:	f107 0c03 	add.w	r12, r7, #3
    18f2:	6018      	str	r0, [r3, #0]
    18f4:	980b      	ldr	r0, [sp, #44]	; 0x2c
    18f6:	f100 0804 	add.w	r8, r0, #4
    18fa:	f1b8 0f04 	cmp.w	r8, #4
    18fe:	d908      	bls.n	1912 <DxGoHome()+0x272>
    1900:	4663      	mov	r3, r12
    1902:	1cc1      	adds	r1, r0, #3
    1904:	4439      	add	r1, r7
    1906:	f813 2f01 	ldrb.w	r2, [r3, #1]!
    190a:	428b      	cmp	r3, r1
    190c:	f803 2c01 	strb.w	r2, [r3, #-1]
    1910:	d1f9      	bne.n	1906 <DxGoHome()+0x266>
    1912:	f04f 0300 	mov.w	r3, #0
    1916:	183a      	adds	r2, r7, r0
    1918:	70d3      	strb	r3, [r2, #3]
    191a:	f8c5 c01c 	str.w	r12, [r5, #28]
    191e:	f817 3008 	ldrb.w	r3, [r7, r8]
    1922:	f100 0c0c 	add.w	r12, r0, #12
    1926:	622b      	str	r3, [r5, #32]
    1928:	7957      	ldrb	r7, [r2, #5]
    192a:	9802      	ldr	r0, [sp, #8]
    192c:	ea43 2307 	orr.w	r3, r3, r7, lsl #8
    1930:	622b      	str	r3, [r5, #32]
    1932:	7997      	ldrb	r7, [r2, #6]
    1934:	4460      	add	r0, r12
    1936:	ea43 4307 	orr.w	r3, r3, r7, lsl #16
    193a:	622b      	str	r3, [r5, #32]
    193c:	79d7      	ldrb	r7, [r2, #7]
    193e:	9002      	str	r0, [sp, #8]
    1940:	ea43 6307 	orr.w	r3, r3, r7, lsl #24
    1944:	622b      	str	r3, [r5, #32]
    1946:	7a13      	ldrb	r3, [r2, #8]
    1948:	f8d5 8028 	ldr.w	r8, [r5, #40]	; 0x28
    194c:	626b      	str	r3, [r5, #36]	; 0x24
    194e:	7a57      	ldrb	r7, [r2, #9]
    1950:	0131      	lsls	r1, r6, #4
    1952:	ea43 2007 	orr.w	r0, r3, r7, lsl #8
    1956:	6268      	str	r0, [r5, #36]	; 0x24
    1958:	7a97      	ldrb	r7, [r2, #10]
    195a:	eb08 0301 	add.w	r3, r8, r1
    195e:	ea40 4007 	orr.w	r0, r0, r7, lsl #16
    1962:	6268      	str	r0, [r5, #36]	; 0x24
    1964:	7ad2      	ldrb	r2, [r2, #11]
    1966:	3601      	adds	r6, #1
    1968:	ea40 6002 	orr.w	r0, r0, r2, lsl #24
    196c:	6268      	str	r0, [r5, #36]	; 0x24
    196e:	f8de c000 	ldr.w	r12, [lr]
    1972:	f8de 7004 	ldr.w	r7, [lr, #4]
    1976:	f8de 0008 	ldr.w	r0, [lr, #8]
    197a:	f8de 200c 	ldr.w	r2, [lr, #12]
    197e:	f848 c001 	str.w	r12, [r8, r1]
    1982:	605f      	str	r7, [r3, #4]
    1984:	6098      	str	r0, [r3, #8]
    1986:	60da      	str	r2, [r3, #12]
    1988:	7d2b      	ldrb	r3, [r5, #20]
    198a:	b2f6      	uxtb	r6, r6
    198c:	42b3      	cmp	r3, r6
    198e:	d8a9      	bhi.n	18e4 <DxGoHome()+0x244>
    1990:	9b02      	ldr	r3, [sp, #8]
    1992:	f8dd 8018 	ldr.w	r8, [sp, #24]
    1996:	1d1a      	adds	r2, r3, #4
    1998:	1d16      	adds	r6, r2, #4
    199a:	1c5f      	adds	r7, r3, #1
    199c:	1c98      	adds	r0, r3, #2
    199e:	1cd9      	adds	r1, r3, #3
    19a0:	4423      	add	r3, r4
    19a2:	f893 3120 	ldrb.w	r3, [r3, #288]	; 0x120
    19a6:	4427      	add	r7, r4
    19a8:	62eb      	str	r3, [r5, #44]	; 0x2c
    19aa:	f897 7120 	ldrb.w	r7, [r7, #288]	; 0x120
    19ae:	4420      	add	r0, r4
    19b0:	ea43 2307 	orr.w	r3, r3, r7, lsl #8
    19b4:	62eb      	str	r3, [r5, #44]	; 0x2c
    19b6:	f890 0120 	ldrb.w	r0, [r0, #288]	; 0x120
    19ba:	4421      	add	r1, r4
    19bc:	ea43 4300 	orr.w	r3, r3, r0, lsl #16
    19c0:	62eb      	str	r3, [r5, #44]	; 0x2c
    19c2:	f891 1120 	ldrb.w	r1, [r1, #288]	; 0x120
    19c6:	4422      	add	r2, r4
    19c8:	ea43 6301 	orr.w	r3, r3, r1, lsl #24
    19cc:	62eb      	str	r3, [r5, #44]	; 0x2c
    19ce:	f892 7120 	ldrb.w	r7, [r2, #288]	; 0x120
    19d2:	f895 3030 	ldrb.w	r3, [r5, #48]	; 0x30
    19d6:	42bb      	cmp	r3, r7
    19d8:	d204      	bcs.n	19e4 <DxGoHome()+0x344>
    19da:	0079      	lsls	r1, r7, #1
    19dc:	6b68      	ldr	r0, [r5, #52]	; 0x34
    19de:	f004 faed 	bl	5fbc <__wrap_realloc>
    19e2:	6368      	str	r0, [r5, #52]	; 0x34
    19e4:	f885 7030 	strb.w	r7, [r5, #48]	; 0x30
    19e8:	b1af      	cbz	r7, 1a16 <DxGoHome()+0x376>
    19ea:	19a0      	adds	r0, r4, r6
    19ec:	2100      	movs	r1, #0
    19ee:	f105 0632 	add.w	r6, r5, #50	; 0x32
    19f2:	f890 2121 	ldrb.w	r2, [r0, #289]	; 0x121
    19f6:	f890 3120 	ldrb.w	r3, [r0, #288]	; 0x120
    19fa:	3002      	adds	r0, #2
    19fc:	ea43 2302 	orr.w	r3, r3, r2, lsl #8
    1a00:	866b      	strh	r3, [r5, #50]	; 0x32
    1a02:	8837      	ldrh	r7, [r6, #0]
    1a04:	6b6b      	ldr	r3, [r5, #52]	; 0x34
    1a06:	1c4a      	adds	r2, r1, #1
    1a08:	f823 7011 	strh.w	r7, [r3, r1, lsl #1]
    1a0c:	f895 3030 	ldrb.w	r3, [r5, #48]	; 0x30
    1a10:	b2d1      	uxtb	r1, r2
    1a12:	428b      	cmp	r3, r1
    1a14:	d8ed      	bhi.n	19f2 <DxGoHome()+0x352>
    1a16:	6bab      	ldr	r3, [r5, #56]	; 0x38
    1a18:	9805      	ldr	r0, [sp, #20]
    1a1a:	4798      	blx	r3
    1a1c:	e6d1      	b.n	17c2 <DxGoHome()+0x122>
    1a1e:	f8d4 25f4 	ldr.w	r2, [r4, #1524]	; 0x5f4
    1a22:	f8d4 35ec 	ldr.w	r3, [r4, #1516]	; 0x5ec
    1a26:	1c51      	adds	r1, r2, #1
    1a28:	3b01      	subs	r3, #1
    1a2a:	4422      	add	r2, r4
    1a2c:	f8c4 15f4 	str.w	r1, [r4, #1524]	; 0x5f4
    1a30:	f882 0120 	strb.w	r0, [r2, #288]	; 0x120
    1a34:	f8c4 35ec 	str.w	r3, [r4, #1516]	; 0x5ec
    1a38:	2b00      	cmp	r3, #0
    1a3a:	f47f aec2 	bne.w	17c2 <DxGoHome()+0x122>
    1a3e:	2308      	movs	r3, #8
    1a40:	f8c4 35e8 	str.w	r3, [r4, #1512]	; 0x5e8
    1a44:	e6bd      	b.n	17c2 <DxGoHome()+0x122>
    1a46:	484e      	ldr	r0, [pc, #312]	; (1b80 <DxGoHome()+0x4e0>)
    1a48:	f005 ff16 	bl	7878 <mbed::Timer::read_ms()>
    1a4c:	ebc8 0000 	rsb	r0, r8, r0
    1a50:	2805      	cmp	r0, #5
    1a52:	f67f aeb6 	bls.w	17c2 <DxGoHome()+0x122>
    1a56:	f88b 55fc 	strb.w	r5, [r11, #1532]	; 0x5fc
    1a5a:	e675      	b.n	1748 <DxGoHome()+0xa8>
    1a5c:	28fe      	cmp	r0, #254	; 0xfe
    1a5e:	d068      	beq.n	1b32 <DxGoHome()+0x492>
    1a60:	f894 05fc 	ldrb.w	r0, [r4, #1532]	; 0x5fc
    1a64:	f8c4 65e8 	str.w	r6, [r4, #1512]	; 0x5e8
    1a68:	2800      	cmp	r0, #0
    1a6a:	f47f aeaa 	bne.w	17c2 <DxGoHome()+0x122>
    1a6e:	250a      	movs	r5, #10
    1a70:	26ff      	movs	r6, #255	; 0xff
    1a72:	4b44      	ldr	r3, [pc, #272]	; (1b84 <DxGoHome()+0x4e4>)
    1a74:	4629      	mov	r1, r5
    1a76:	27fe      	movs	r7, #254	; 0xfe
    1a78:	f884 5325 	strb.w	r5, [r4, #805]	; 0x325
    1a7c:	f884 6320 	strb.w	r6, [r4, #800]	; 0x320
    1a80:	25f7      	movs	r5, #247	; 0xf7
    1a82:	2608      	movs	r6, #8
    1a84:	4602      	mov	r2, r0
    1a86:	f884 0327 	strb.w	r0, [r4, #807]	; 0x327
    1a8a:	f884 0328 	strb.w	r0, [r4, #808]	; 0x328
    1a8e:	f884 0329 	strb.w	r0, [r4, #809]	; 0x329
    1a92:	f884 032a 	strb.w	r0, [r4, #810]	; 0x32a
    1a96:	f884 032b 	strb.w	r0, [r4, #811]	; 0x32b
    1a9a:	f884 032c 	strb.w	r0, [r4, #812]	; 0x32c
    1a9e:	f884 032d 	strb.w	r0, [r4, #813]	; 0x32d
    1aa2:	f884 032e 	strb.w	r0, [r4, #814]	; 0x32e
    1aa6:	f884 0323 	strb.w	r0, [r4, #803]	; 0x323
    1aaa:	f884 0326 	strb.w	r0, [r4, #806]	; 0x326
    1aae:	f884 7321 	strb.w	r7, [r4, #801]	; 0x321
    1ab2:	f103 0009 	add.w	r0, r3, #9
    1ab6:	f884 6322 	strb.w	r6, [r4, #802]	; 0x322
    1aba:	f884 5324 	strb.w	r5, [r4, #804]	; 0x324
    1abe:	e001      	b.n	1ac4 <DxGoHome()+0x424>
    1ac0:	f813 1f01 	ldrb.w	r1, [r3, #1]!
    1ac4:	4298      	cmp	r0, r3
    1ac6:	440a      	add	r2, r1
    1ac8:	d1fa      	bne.n	1ac0 <DxGoHome()+0x420>
    1aca:	43d2      	mvns	r2, r2
    1acc:	4d2e      	ldr	r5, [pc, #184]	; (1b88 <DxGoHome()+0x4e8>)
    1ace:	f884 232f 	strb.w	r2, [r4, #815]	; 0x32f
    1ad2:	f105 060f 	add.w	r6, r5, #15
    1ad6:	21ff      	movs	r1, #255	; 0xff
    1ad8:	e001      	b.n	1ade <DxGoHome()+0x43e>
    1ada:	f815 1f01 	ldrb.w	r1, [r5, #1]!
    1ade:	482b      	ldr	r0, [pc, #172]	; (1b8c <DxGoHome()+0x4ec>)
    1ae0:	f005 fe90 	bl	7804 <mbed::Stream::putc(int)>
    1ae4:	42b5      	cmp	r5, r6
    1ae6:	d1f8      	bne.n	1ada <DxGoHome()+0x43a>
    1ae8:	4825      	ldr	r0, [pc, #148]	; (1b80 <DxGoHome()+0x4e0>)
    1aea:	f005 fec5 	bl	7878 <mbed::Timer::read_ms()>
    1aee:	f8cb 0114 	str.w	r0, [r11, #276]	; 0x114
    1af2:	e666      	b.n	17c2 <DxGoHome()+0x122>
    1af4:	2303      	movs	r3, #3
    1af6:	f8c4 05ec 	str.w	r0, [r4, #1516]	; 0x5ec
    1afa:	f8c4 65f4 	str.w	r6, [r4, #1524]	; 0x5f4
    1afe:	f8c4 05f8 	str.w	r0, [r4, #1528]	; 0x5f8
    1b02:	f8c4 35e8 	str.w	r3, [r4, #1512]	; 0x5e8
    1b06:	e65c      	b.n	17c2 <DxGoHome()+0x122>
    1b08:	f8d4 35ec 	ldr.w	r3, [r4, #1516]	; 0x5ec
    1b0c:	2204      	movs	r2, #4
    1b0e:	eb03 2000 	add.w	r0, r3, r0, lsl #8
    1b12:	f8c4 05ec 	str.w	r0, [r4, #1516]	; 0x5ec
    1b16:	f8c4 25e8 	str.w	r2, [r4, #1512]	; 0x5e8
    1b1a:	e652      	b.n	17c2 <DxGoHome()+0x122>
    1b1c:	4a15      	ldr	r2, [pc, #84]	; (1b74 <DxGoHome()+0x4d4>)
    1b1e:	401a      	ands	r2, r3
    1b20:	2a00      	cmp	r2, #0
    1b22:	db21      	blt.n	1b68 <DxGoHome()+0x4c8>
    1b24:	2aff      	cmp	r2, #255	; 0xff
    1b26:	f47f ae49 	bne.w	17bc <DxGoHome()+0x11c>
    1b2a:	2305      	movs	r3, #5
    1b2c:	f8c4 35e8 	str.w	r3, [r4, #1512]	; 0x5e8
    1b30:	e647      	b.n	17c2 <DxGoHome()+0x122>
    1b32:	2302      	movs	r3, #2
    1b34:	f8c4 35e8 	str.w	r3, [r4, #1512]	; 0x5e8
    1b38:	e643      	b.n	17c2 <DxGoHome()+0x122>
    1b3a:	2306      	movs	r3, #6
    1b3c:	f8c4 05f0 	str.w	r0, [r4, #1520]	; 0x5f0
    1b40:	f8c4 05f8 	str.w	r0, [r4, #1528]	; 0x5f8
    1b44:	f8c4 35e8 	str.w	r3, [r4, #1512]	; 0x5e8
    1b48:	e63b      	b.n	17c2 <DxGoHome()+0x122>
    1b4a:	f8d4 35f0 	ldr.w	r3, [r4, #1520]	; 0x5f0
    1b4e:	f8d4 25ec 	ldr.w	r2, [r4, #1516]	; 0x5ec
    1b52:	eb03 2300 	add.w	r3, r3, r0, lsl #8
    1b56:	2107      	movs	r1, #7
    1b58:	f8c4 35f0 	str.w	r3, [r4, #1520]	; 0x5f0
    1b5c:	f8c4 15e8 	str.w	r1, [r4, #1512]	; 0x5e8
    1b60:	2a00      	cmp	r2, #0
    1b62:	f43f af6c 	beq.w	1a3e <DxGoHome()+0x39e>
    1b66:	e62c      	b.n	17c2 <DxGoHome()+0x122>
    1b68:	3a01      	subs	r2, #1
    1b6a:	f062 02ff 	orn	r2, r2, #255	; 0xff
    1b6e:	3201      	adds	r2, #1
    1b70:	e7d8      	b.n	1b24 <DxGoHome()+0x484>
    1b72:	bf00      	nop
    1b74:	800000ff 	.word	0x800000ff
    1b78:	00000c5d 	.word	0x00000c5d
    1b7c:	10000370 	.word	0x10000370
    1b80:	10000354 	.word	0x10000354
    1b84:	10000575 	.word	0x10000575
    1b88:	10000570 	.word	0x10000570
    1b8c:	10000294 	.word	0x10000294
    1b90:	250a      	movs	r5, #10
    1b92:	26ff      	movs	r6, #255	; 0xff
    1b94:	4b68      	ldr	r3, [pc, #416]	; (1d38 <DxGoHome()+0x698>)
    1b96:	2000      	movs	r0, #0
    1b98:	4629      	mov	r1, r5
    1b9a:	27fe      	movs	r7, #254	; 0xfe
    1b9c:	f884 5325 	strb.w	r5, [r4, #805]	; 0x325
    1ba0:	f884 6320 	strb.w	r6, [r4, #800]	; 0x320
    1ba4:	25f7      	movs	r5, #247	; 0xf7
    1ba6:	2608      	movs	r6, #8
    1ba8:	4602      	mov	r2, r0
    1baa:	f884 0327 	strb.w	r0, [r4, #807]	; 0x327
    1bae:	f884 0328 	strb.w	r0, [r4, #808]	; 0x328
    1bb2:	f884 0329 	strb.w	r0, [r4, #809]	; 0x329
    1bb6:	f884 032a 	strb.w	r0, [r4, #810]	; 0x32a
    1bba:	f884 032b 	strb.w	r0, [r4, #811]	; 0x32b
    1bbe:	f884 032c 	strb.w	r0, [r4, #812]	; 0x32c
    1bc2:	f884 032d 	strb.w	r0, [r4, #813]	; 0x32d
    1bc6:	f884 032e 	strb.w	r0, [r4, #814]	; 0x32e
    1bca:	f884 0323 	strb.w	r0, [r4, #803]	; 0x323
    1bce:	f884 0326 	strb.w	r0, [r4, #806]	; 0x326
    1bd2:	f884 7321 	strb.w	r7, [r4, #801]	; 0x321
    1bd6:	f103 0009 	add.w	r0, r3, #9
    1bda:	f884 6322 	strb.w	r6, [r4, #802]	; 0x322
    1bde:	f884 5324 	strb.w	r5, [r4, #804]	; 0x324
    1be2:	e001      	b.n	1be8 <DxGoHome()+0x548>
    1be4:	f813 1f01 	ldrb.w	r1, [r3, #1]!
    1be8:	4283      	cmp	r3, r0
    1bea:	440a      	add	r2, r1
    1bec:	d1fa      	bne.n	1be4 <DxGoHome()+0x544>
    1bee:	43d2      	mvns	r2, r2
    1bf0:	4d52      	ldr	r5, [pc, #328]	; (1d3c <DxGoHome()+0x69c>)
    1bf2:	f884 232f 	strb.w	r2, [r4, #815]	; 0x32f
    1bf6:	f105 060f 	add.w	r6, r5, #15
    1bfa:	21ff      	movs	r1, #255	; 0xff
    1bfc:	e001      	b.n	1c02 <DxGoHome()+0x562>
    1bfe:	f815 1f01 	ldrb.w	r1, [r5, #1]!
    1c02:	484f      	ldr	r0, [pc, #316]	; (1d40 <DxGoHome()+0x6a0>)
    1c04:	f005 fdfe 	bl	7804 <mbed::Stream::putc(int)>
    1c08:	42b5      	cmp	r5, r6
    1c0a:	d1f8      	bne.n	1bfe <DxGoHome()+0x55e>
    1c0c:	484d      	ldr	r0, [pc, #308]	; (1d44 <DxGoHome()+0x6a4>)
    1c0e:	f005 fe33 	bl	7878 <mbed::Timer::read_ms()>
    1c12:	f8cb 8600 	str.w	r8, [r11, #1536]	; 0x600
    1c16:	f8cb 0114 	str.w	r0, [r11, #276]	; 0x114
    1c1a:	e595      	b.n	1748 <DxGoHome()+0xa8>
    1c1c:	f7ff fc96 	bl	154c <DxResetTorque()>
    1c20:	b00f      	add	sp, #60	; 0x3c
    1c22:	e8bd 8ff0 	ldmia.w	sp!, {r4, r5, r6, r7, r8, r9, r10, r11, pc}
    1c26:	3a01      	subs	r2, #1
    1c28:	f062 02ff 	orn	r2, r2, #255	; 0xff
    1c2c:	3201      	adds	r2, #1
    1c2e:	e621      	b.n	1874 <DxGoHome()+0x1d4>
    1c30:	2300      	movs	r3, #0
    1c32:	f884 35fc 	strb.w	r3, [r4, #1532]	; 0x5fc
    1c36:	e5c4      	b.n	17c2 <DxGoHome()+0x122>
    1c38:	4c43      	ldr	r4, [pc, #268]	; (1d48 <DxGoHome()+0x6a8>)
    1c3a:	6820      	ldr	r0, [r4, #0]
    1c3c:	2200      	movs	r2, #0
    1c3e:	6803      	ldr	r3, [r0, #0]
    1c40:	f8da 1000 	ldr.w	r1, [r10]
    1c44:	685b      	ldr	r3, [r3, #4]
    1c46:	4798      	blx	r3
    1c48:	9b01      	ldr	r3, [sp, #4]
    1c4a:	681b      	ldr	r3, [r3, #0]
    1c4c:	2b00      	cmp	r3, #0
    1c4e:	d1e5      	bne.n	1c1c <DxGoHome()+0x57c>
    1c50:	4c3e      	ldr	r4, [pc, #248]	; (1d4c <DxGoHome()+0x6ac>)
    1c52:	46a3      	mov	r11, r4
    1c54:	e012      	b.n	1c7c <DxGoHome()+0x5dc>
    1c56:	f894 35fc 	ldrb.w	r3, [r4, #1532]	; 0x5fc
    1c5a:	b143      	cbz	r3, 1c6e <DxGoHome()+0x5ce>
    1c5c:	f640 12c4 	movw	r2, #2500	; 0x9c4
    1c60:	f8d4 3600 	ldr.w	r3, [r4, #1536]	; 0x600
    1c64:	ebc3 0308 	rsb	r3, r3, r8
    1c68:	4293      	cmp	r3, r2
    1c6a:	f200 821d 	bhi.w	20a8 <DxGoHome()+0xa08>
    1c6e:	200a      	movs	r0, #10
    1c70:	f004 fe8c 	bl	698c <wait_ms>
    1c74:	9b01      	ldr	r3, [sp, #4]
    1c76:	681b      	ldr	r3, [r3, #0]
    1c78:	2b00      	cmp	r3, #0
    1c7a:	d1cf      	bne.n	1c1c <DxGoHome()+0x57c>
    1c7c:	f7ff faea 	bl	1254 <GetPubPosition()>
    1c80:	f8d9 202c 	ldr.w	r2, [r9, #44]	; 0x2c
    1c84:	f8da 3004 	ldr.w	r3, [r10, #4]
    1c88:	f8da 500c 	ldr.w	r5, [r10, #12]
    1c8c:	6850      	ldr	r0, [r2, #4]
    1c8e:	441d      	add	r5, r3
    1c90:	f006 fece 	bl	8a30 <__aeabi_f2iz>
    1c94:	4b2e      	ldr	r3, [pc, #184]	; (1d50 <DxGoHome()+0x6b0>)
    1c96:	1a29      	subs	r1, r5, r0
    1c98:	681b      	ldr	r3, [r3, #0]
    1c9a:	4d2e      	ldr	r5, [pc, #184]	; (1d54 <DxGoHome()+0x6b4>)
    1c9c:	681a      	ldr	r2, [r3, #0]
    1c9e:	4618      	mov	r0, r3
    1ca0:	6853      	ldr	r3, [r2, #4]
    1ca2:	2200      	movs	r2, #0
    1ca4:	4798      	blx	r3
    1ca6:	f8d9 302c 	ldr.w	r3, [r9, #44]	; 0x2c
    1caa:	492b      	ldr	r1, [pc, #172]	; (1d58 <DxGoHome()+0x6b8>)
    1cac:	681e      	ldr	r6, [r3, #0]
    1cae:	4630      	mov	r0, r6
    1cb0:	f006 feb4 	bl	8a1c <__aeabi_fcmpgt>
    1cb4:	b130      	cbz	r0, 1cc4 <DxGoHome()+0x624>
    1cb6:	4630      	mov	r0, r6
    1cb8:	4928      	ldr	r1, [pc, #160]	; (1d5c <DxGoHome()+0x6bc>)
    1cba:	f006 fe91 	bl	89e0 <__aeabi_fcmplt>
    1cbe:	2800      	cmp	r0, #0
    1cc0:	f040 823d 	bne.w	213e <DxGoHome()+0xa9e>
    1cc4:	481f      	ldr	r0, [pc, #124]	; (1d44 <DxGoHome()+0x6a4>)
    1cc6:	f005 fdd7 	bl	7878 <mbed::Timer::read_ms()>
    1cca:	f642 22f8 	movw	r2, #11000	; 0x2af8
    1cce:	f8d4 3604 	ldr.w	r3, [r4, #1540]	; 0x604
    1cd2:	4680      	mov	r8, r0
    1cd4:	1ac3      	subs	r3, r0, r3
    1cd6:	4293      	cmp	r3, r2
    1cd8:	bf84      	itt	hi
    1cda:	2300      	movhi	r3, #0
    1cdc:	f88b 35fc 	strbhi.w	r3, [r11, #1532]	; 0x5fc
    1ce0:	f8d4 35e8 	ldr.w	r3, [r4, #1512]	; 0x5e8
    1ce4:	b133      	cbz	r3, 1cf4 <DxGoHome()+0x654>
    1ce6:	f8d4 3608 	ldr.w	r3, [r4, #1544]	; 0x608
    1cea:	4298      	cmp	r0, r3
    1cec:	d902      	bls.n	1cf4 <DxGoHome()+0x654>
    1cee:	2300      	movs	r3, #0
    1cf0:	f8c4 35e8 	str.w	r3, [r4, #1512]	; 0x5e8
    1cf4:	481a      	ldr	r0, [pc, #104]	; (1d60 <DxGoHome()+0x6c0>)
    1cf6:	f004 faf7 	bl	62e8 <AjK::MODSERIAL::rxBufferEmpty()>
    1cfa:	4606      	mov	r6, r0
    1cfc:	2800      	cmp	r0, #0
    1cfe:	d1aa      	bne.n	1c56 <DxGoHome()+0x5b6>
    1d00:	2101      	movs	r1, #1
    1d02:	4817      	ldr	r0, [pc, #92]	; (1d60 <DxGoHome()+0x6c0>)
    1d04:	f004 f96e 	bl	5fe4 <AjK::MODSERIAL::__getc(bool)>
    1d08:	2800      	cmp	r0, #0
    1d0a:	dba4      	blt.n	1c56 <DxGoHome()+0x5b6>
    1d0c:	f8d4 35f8 	ldr.w	r3, [r4, #1528]	; 0x5f8
    1d10:	f8d4 55e8 	ldr.w	r5, [r4, #1512]	; 0x5e8
    1d14:	4403      	add	r3, r0
    1d16:	2d07      	cmp	r5, #7
    1d18:	f8c4 35f8 	str.w	r3, [r4, #1528]	; 0x5f8
    1d1c:	f000 810b 	beq.w	1f36 <DxGoHome()+0x896>
    1d20:	bb05      	cbnz	r5, 1d64 <DxGoHome()+0x6c4>
    1d22:	28ff      	cmp	r0, #255	; 0xff
    1d24:	f040 811b 	bne.w	1f5e <DxGoHome()+0x8be>
    1d28:	2201      	movs	r2, #1
    1d2a:	f108 0314 	add.w	r3, r8, #20
    1d2e:	f8c4 25e8 	str.w	r2, [r4, #1512]	; 0x5e8
    1d32:	f8c4 3608 	str.w	r3, [r4, #1544]	; 0x608
    1d36:	e7dd      	b.n	1cf4 <DxGoHome()+0x654>
    1d38:	10000575 	.word	0x10000575
    1d3c:	10000570 	.word	0x10000570
    1d40:	10000294 	.word	0x10000294
    1d44:	10000354 	.word	0x10000354
    1d48:	1000094c 	.word	0x1000094c
    1d4c:	10000250 	.word	0x10000250
    1d50:	10000950 	.word	0x10000950
    1d54:	1000011c 	.word	0x1000011c
    1d58:	c2880000 	.word	0xc2880000
    1d5c:	42880000 	.word	0x42880000
    1d60:	10000254 	.word	0x10000254
    1d64:	2d01      	cmp	r5, #1
    1d66:	f000 8105 	beq.w	1f74 <DxGoHome()+0x8d4>
    1d6a:	2d02      	cmp	r5, #2
    1d6c:	f000 814e 	beq.w	200c <DxGoHome()+0x96c>
    1d70:	2d03      	cmp	r5, #3
    1d72:	f000 8155 	beq.w	2020 <DxGoHome()+0x980>
    1d76:	2d04      	cmp	r5, #4
    1d78:	f000 815c 	beq.w	2034 <DxGoHome()+0x994>
    1d7c:	2d05      	cmp	r5, #5
    1d7e:	f000 8168 	beq.w	2052 <DxGoHome()+0x9b2>
    1d82:	2d06      	cmp	r5, #6
    1d84:	f000 816d 	beq.w	2062 <DxGoHome()+0x9c2>
    1d88:	2d08      	cmp	r5, #8
    1d8a:	d1b3      	bne.n	1cf4 <DxGoHome()+0x654>
    1d8c:	4abf      	ldr	r2, [pc, #764]	; (208c <DxGoHome()+0x9ec>)
    1d8e:	2100      	movs	r1, #0
    1d90:	401a      	ands	r2, r3
    1d92:	428a      	cmp	r2, r1
    1d94:	f8c4 15e8 	str.w	r1, [r4, #1512]	; 0x5e8
    1d98:	f2c0 81cc 	blt.w	2134 <DxGoHome()+0xa94>
    1d9c:	2aff      	cmp	r2, #255	; 0xff
    1d9e:	d1a9      	bne.n	1cf4 <DxGoHome()+0x654>
    1da0:	f8d4 35f0 	ldr.w	r3, [r4, #1520]	; 0x5f0
    1da4:	2b00      	cmp	r3, #0
    1da6:	f000 86dc 	beq.w	2b62 <DxGoHome()+0x14c2>
    1daa:	2b0a      	cmp	r3, #10
    1dac:	f000 8400 	beq.w	25b0 <DxGoHome()+0xf10>
    1db0:	2b06      	cmp	r3, #6
    1db2:	f000 83f3 	beq.w	259c <DxGoHome()+0xefc>
    1db6:	2b0b      	cmp	r3, #11
    1db8:	f000 83eb 	beq.w	2592 <DxGoHome()+0xef2>
    1dbc:	eb04 0383 	add.w	r3, r4, r3, lsl #2
    1dc0:	f8d3 53f4 	ldr.w	r5, [r3, #1012]	; 0x3f4
    1dc4:	2d00      	cmp	r5, #0
    1dc6:	d095      	beq.n	1cf4 <DxGoHome()+0x654>
    1dc8:	682b      	ldr	r3, [r5, #0]
    1dca:	4ab1      	ldr	r2, [pc, #708]	; (2090 <DxGoHome()+0x9f0>)
    1dcc:	681b      	ldr	r3, [r3, #0]
    1dce:	4293      	cmp	r3, r2
    1dd0:	f040 8667 	bne.w	2aa2 <DxGoHome()+0x1402>
    1dd4:	f894 6120 	ldrb.w	r6, [r4, #288]	; 0x120
    1dd8:	7d2b      	ldrb	r3, [r5, #20]
    1dda:	f105 020c 	add.w	r2, r5, #12
    1dde:	42b3      	cmp	r3, r6
    1de0:	9205      	str	r2, [sp, #20]
    1de2:	f0c0 8663 	bcc.w	2aac <DxGoHome()+0x140c>
    1de6:	752e      	strb	r6, [r5, #20]
    1de8:	2e00      	cmp	r6, #0
    1dea:	f001 808a 	beq.w	2f02 <DxGoHome()+0x1862>
    1dee:	4ba9      	ldr	r3, [pc, #676]	; (2094 <DxGoHome()+0x9f4>)
    1df0:	2600      	movs	r6, #0
    1df2:	9303      	str	r3, [sp, #12]
    1df4:	2304      	movs	r3, #4
    1df6:	9302      	str	r3, [sp, #8]
    1df8:	ab0b      	add	r3, sp, #44	; 0x2c
    1dfa:	f105 0e18 	add.w	lr, r5, #24
    1dfe:	9304      	str	r3, [sp, #16]
    1e00:	f8cd 8018 	str.w	r8, [sp, #24]
    1e04:	9b03      	ldr	r3, [sp, #12]
    1e06:	9a02      	ldr	r2, [sp, #8]
    1e08:	189f      	adds	r7, r3, r2
    1e0a:	6838      	ldr	r0, [r7, #0]
    1e0c:	9b04      	ldr	r3, [sp, #16]
    1e0e:	f107 0c03 	add.w	r12, r7, #3
    1e12:	6018      	str	r0, [r3, #0]
    1e14:	980b      	ldr	r0, [sp, #44]	; 0x2c
    1e16:	f100 0804 	add.w	r8, r0, #4
    1e1a:	f1b8 0f04 	cmp.w	r8, #4
    1e1e:	d908      	bls.n	1e32 <DxGoHome()+0x792>
    1e20:	4663      	mov	r3, r12
    1e22:	1cc1      	adds	r1, r0, #3
    1e24:	4439      	add	r1, r7
    1e26:	f813 2f01 	ldrb.w	r2, [r3, #1]!
    1e2a:	428b      	cmp	r3, r1
    1e2c:	f803 2c01 	strb.w	r2, [r3, #-1]
    1e30:	d1f9      	bne.n	1e26 <DxGoHome()+0x786>
    1e32:	f04f 0300 	mov.w	r3, #0
    1e36:	183a      	adds	r2, r7, r0
    1e38:	70d3      	strb	r3, [r2, #3]
    1e3a:	f8c5 c01c 	str.w	r12, [r5, #28]
    1e3e:	f817 3008 	ldrb.w	r3, [r7, r8]
    1e42:	f100 0c0c 	add.w	r12, r0, #12
    1e46:	622b      	str	r3, [r5, #32]
    1e48:	7957      	ldrb	r7, [r2, #5]
    1e4a:	9802      	ldr	r0, [sp, #8]
    1e4c:	ea43 2307 	orr.w	r3, r3, r7, lsl #8
    1e50:	622b      	str	r3, [r5, #32]
    1e52:	7997      	ldrb	r7, [r2, #6]
    1e54:	4460      	add	r0, r12
    1e56:	ea43 4307 	orr.w	r3, r3, r7, lsl #16
    1e5a:	622b      	str	r3, [r5, #32]
    1e5c:	79d7      	ldrb	r7, [r2, #7]
    1e5e:	9002      	str	r0, [sp, #8]
    1e60:	ea43 6307 	orr.w	r3, r3, r7, lsl #24
    1e64:	622b      	str	r3, [r5, #32]
    1e66:	7a13      	ldrb	r3, [r2, #8]
    1e68:	f8d5 8028 	ldr.w	r8, [r5, #40]	; 0x28
    1e6c:	626b      	str	r3, [r5, #36]	; 0x24
    1e6e:	7a57      	ldrb	r7, [r2, #9]
    1e70:	0131      	lsls	r1, r6, #4
    1e72:	ea43 2007 	orr.w	r0, r3, r7, lsl #8
    1e76:	6268      	str	r0, [r5, #36]	; 0x24
    1e78:	7a97      	ldrb	r7, [r2, #10]
    1e7a:	eb08 0301 	add.w	r3, r8, r1
    1e7e:	ea40 4007 	orr.w	r0, r0, r7, lsl #16
    1e82:	6268      	str	r0, [r5, #36]	; 0x24
    1e84:	7ad2      	ldrb	r2, [r2, #11]
    1e86:	3601      	adds	r6, #1
    1e88:	ea40 6002 	orr.w	r0, r0, r2, lsl #24
    1e8c:	6268      	str	r0, [r5, #36]	; 0x24
    1e8e:	f8de c000 	ldr.w	r12, [lr]
    1e92:	f8de 7004 	ldr.w	r7, [lr, #4]
    1e96:	f8de 0008 	ldr.w	r0, [lr, #8]
    1e9a:	f8de 200c 	ldr.w	r2, [lr, #12]
    1e9e:	f848 c001 	str.w	r12, [r8, r1]
    1ea2:	605f      	str	r7, [r3, #4]
    1ea4:	6098      	str	r0, [r3, #8]
    1ea6:	60da      	str	r2, [r3, #12]
    1ea8:	7d2b      	ldrb	r3, [r5, #20]
    1eaa:	b2f6      	uxtb	r6, r6
    1eac:	42b3      	cmp	r3, r6
    1eae:	d8a9      	bhi.n	1e04 <DxGoHome()+0x764>
    1eb0:	9b02      	ldr	r3, [sp, #8]
    1eb2:	f8dd 8018 	ldr.w	r8, [sp, #24]
    1eb6:	1d1a      	adds	r2, r3, #4
    1eb8:	1d16      	adds	r6, r2, #4
    1eba:	1c5f      	adds	r7, r3, #1
    1ebc:	1c98      	adds	r0, r3, #2
    1ebe:	1cd9      	adds	r1, r3, #3
    1ec0:	4423      	add	r3, r4
    1ec2:	f893 3120 	ldrb.w	r3, [r3, #288]	; 0x120
    1ec6:	4427      	add	r7, r4
    1ec8:	62eb      	str	r3, [r5, #44]	; 0x2c
    1eca:	f897 7120 	ldrb.w	r7, [r7, #288]	; 0x120
    1ece:	4420      	add	r0, r4
    1ed0:	ea43 2307 	orr.w	r3, r3, r7, lsl #8
    1ed4:	62eb      	str	r3, [r5, #44]	; 0x2c
    1ed6:	f890 0120 	ldrb.w	r0, [r0, #288]	; 0x120
    1eda:	4421      	add	r1, r4
    1edc:	ea43 4300 	orr.w	r3, r3, r0, lsl #16
    1ee0:	62eb      	str	r3, [r5, #44]	; 0x2c
    1ee2:	f891 1120 	ldrb.w	r1, [r1, #288]	; 0x120
    1ee6:	4422      	add	r2, r4
    1ee8:	ea43 6301 	orr.w	r3, r3, r1, lsl #24
    1eec:	62eb      	str	r3, [r5, #44]	; 0x2c
    1eee:	f892 7120 	ldrb.w	r7, [r2, #288]	; 0x120
    1ef2:	f895 3030 	ldrb.w	r3, [r5, #48]	; 0x30
    1ef6:	42bb      	cmp	r3, r7
    1ef8:	f0c0 861f 	bcc.w	2b3a <DxGoHome()+0x149a>
    1efc:	f885 7030 	strb.w	r7, [r5, #48]	; 0x30
    1f00:	b1af      	cbz	r7, 1f2e <DxGoHome()+0x88e>
    1f02:	19a0      	adds	r0, r4, r6
    1f04:	2100      	movs	r1, #0
    1f06:	f105 0632 	add.w	r6, r5, #50	; 0x32
    1f0a:	f890 2121 	ldrb.w	r2, [r0, #289]	; 0x121
    1f0e:	f890 3120 	ldrb.w	r3, [r0, #288]	; 0x120
    1f12:	3002      	adds	r0, #2
    1f14:	ea43 2302 	orr.w	r3, r3, r2, lsl #8
    1f18:	866b      	strh	r3, [r5, #50]	; 0x32
    1f1a:	8837      	ldrh	r7, [r6, #0]
    1f1c:	6b6b      	ldr	r3, [r5, #52]	; 0x34
    1f1e:	1c4a      	adds	r2, r1, #1
    1f20:	f823 7011 	strh.w	r7, [r3, r1, lsl #1]
    1f24:	f895 3030 	ldrb.w	r3, [r5, #48]	; 0x30
    1f28:	b2d1      	uxtb	r1, r2
    1f2a:	428b      	cmp	r3, r1
    1f2c:	d8ed      	bhi.n	1f0a <DxGoHome()+0x86a>
    1f2e:	6bab      	ldr	r3, [r5, #56]	; 0x38
    1f30:	9805      	ldr	r0, [sp, #20]
    1f32:	4798      	blx	r3
    1f34:	e6de      	b.n	1cf4 <DxGoHome()+0x654>
    1f36:	f8d4 25f4 	ldr.w	r2, [r4, #1524]	; 0x5f4
    1f3a:	f8d4 35ec 	ldr.w	r3, [r4, #1516]	; 0x5ec
    1f3e:	1c51      	adds	r1, r2, #1
    1f40:	3b01      	subs	r3, #1
    1f42:	4422      	add	r2, r4
    1f44:	f8c4 15f4 	str.w	r1, [r4, #1524]	; 0x5f4
    1f48:	f882 0120 	strb.w	r0, [r2, #288]	; 0x120
    1f4c:	f8c4 35ec 	str.w	r3, [r4, #1516]	; 0x5ec
    1f50:	2b00      	cmp	r3, #0
    1f52:	f47f aecf 	bne.w	1cf4 <DxGoHome()+0x654>
    1f56:	2308      	movs	r3, #8
    1f58:	f8c4 35e8 	str.w	r3, [r4, #1512]	; 0x5e8
    1f5c:	e6ca      	b.n	1cf4 <DxGoHome()+0x654>
    1f5e:	484e      	ldr	r0, [pc, #312]	; (2098 <DxGoHome()+0x9f8>)
    1f60:	f005 fc8a 	bl	7878 <mbed::Timer::read_ms()>
    1f64:	ebc8 0000 	rsb	r0, r8, r0
    1f68:	2805      	cmp	r0, #5
    1f6a:	f67f aec3 	bls.w	1cf4 <DxGoHome()+0x654>
    1f6e:	f88b 55fc 	strb.w	r5, [r11, #1532]	; 0x5fc
    1f72:	e67c      	b.n	1c6e <DxGoHome()+0x5ce>
    1f74:	28fe      	cmp	r0, #254	; 0xfe
    1f76:	d068      	beq.n	204a <DxGoHome()+0x9aa>
    1f78:	f894 05fc 	ldrb.w	r0, [r4, #1532]	; 0x5fc
    1f7c:	f8c4 65e8 	str.w	r6, [r4, #1512]	; 0x5e8
    1f80:	2800      	cmp	r0, #0
    1f82:	f47f aeb7 	bne.w	1cf4 <DxGoHome()+0x654>
    1f86:	250a      	movs	r5, #10
    1f88:	26ff      	movs	r6, #255	; 0xff
    1f8a:	4b44      	ldr	r3, [pc, #272]	; (209c <DxGoHome()+0x9fc>)
    1f8c:	4629      	mov	r1, r5
    1f8e:	27fe      	movs	r7, #254	; 0xfe
    1f90:	f884 5325 	strb.w	r5, [r4, #805]	; 0x325
    1f94:	f884 6320 	strb.w	r6, [r4, #800]	; 0x320
    1f98:	25f7      	movs	r5, #247	; 0xf7
    1f9a:	2608      	movs	r6, #8
    1f9c:	4602      	mov	r2, r0
    1f9e:	f884 0327 	strb.w	r0, [r4, #807]	; 0x327
    1fa2:	f884 0328 	strb.w	r0, [r4, #808]	; 0x328
    1fa6:	f884 0329 	strb.w	r0, [r4, #809]	; 0x329
    1faa:	f884 032a 	strb.w	r0, [r4, #810]	; 0x32a
    1fae:	f884 032b 	strb.w	r0, [r4, #811]	; 0x32b
    1fb2:	f884 032c 	strb.w	r0, [r4, #812]	; 0x32c
    1fb6:	f884 032d 	strb.w	r0, [r4, #813]	; 0x32d
    1fba:	f884 032e 	strb.w	r0, [r4, #814]	; 0x32e
    1fbe:	f884 0323 	strb.w	r0, [r4, #803]	; 0x323
    1fc2:	f884 0326 	strb.w	r0, [r4, #806]	; 0x326
    1fc6:	f884 7321 	strb.w	r7, [r4, #801]	; 0x321
    1fca:	f103 0009 	add.w	r0, r3, #9
    1fce:	f884 6322 	strb.w	r6, [r4, #802]	; 0x322
    1fd2:	f884 5324 	strb.w	r5, [r4, #804]	; 0x324
    1fd6:	e001      	b.n	1fdc <DxGoHome()+0x93c>
    1fd8:	f813 1f01 	ldrb.w	r1, [r3, #1]!
    1fdc:	4283      	cmp	r3, r0
    1fde:	440a      	add	r2, r1
    1fe0:	d1fa      	bne.n	1fd8 <DxGoHome()+0x938>
    1fe2:	43d2      	mvns	r2, r2
    1fe4:	4d2e      	ldr	r5, [pc, #184]	; (20a0 <DxGoHome()+0xa00>)
    1fe6:	f884 232f 	strb.w	r2, [r4, #815]	; 0x32f
    1fea:	f105 060f 	add.w	r6, r5, #15
    1fee:	21ff      	movs	r1, #255	; 0xff
    1ff0:	e001      	b.n	1ff6 <DxGoHome()+0x956>
    1ff2:	f815 1f01 	ldrb.w	r1, [r5, #1]!
    1ff6:	482b      	ldr	r0, [pc, #172]	; (20a4 <DxGoHome()+0xa04>)
    1ff8:	f005 fc04 	bl	7804 <mbed::Stream::putc(int)>
    1ffc:	42b5      	cmp	r5, r6
    1ffe:	d1f8      	bne.n	1ff2 <DxGoHome()+0x952>
    2000:	4825      	ldr	r0, [pc, #148]	; (2098 <DxGoHome()+0x9f8>)
    2002:	f005 fc39 	bl	7878 <mbed::Timer::read_ms()>
    2006:	f8cb 0114 	str.w	r0, [r11, #276]	; 0x114
    200a:	e673      	b.n	1cf4 <DxGoHome()+0x654>
    200c:	2303      	movs	r3, #3
    200e:	f8c4 05ec 	str.w	r0, [r4, #1516]	; 0x5ec
    2012:	f8c4 65f4 	str.w	r6, [r4, #1524]	; 0x5f4
    2016:	f8c4 05f8 	str.w	r0, [r4, #1528]	; 0x5f8
    201a:	f8c4 35e8 	str.w	r3, [r4, #1512]	; 0x5e8
    201e:	e669      	b.n	1cf4 <DxGoHome()+0x654>
    2020:	f8d4 35ec 	ldr.w	r3, [r4, #1516]	; 0x5ec
    2024:	2204      	movs	r2, #4
    2026:	eb03 2000 	add.w	r0, r3, r0, lsl #8
    202a:	f8c4 05ec 	str.w	r0, [r4, #1516]	; 0x5ec
    202e:	f8c4 25e8 	str.w	r2, [r4, #1512]	; 0x5e8
    2032:	e65f      	b.n	1cf4 <DxGoHome()+0x654>
    2034:	4a15      	ldr	r2, [pc, #84]	; (208c <DxGoHome()+0x9ec>)
    2036:	401a      	ands	r2, r3
    2038:	2a00      	cmp	r2, #0
    203a:	db21      	blt.n	2080 <DxGoHome()+0x9e0>
    203c:	2aff      	cmp	r2, #255	; 0xff
    203e:	f47f ae56 	bne.w	1cee <DxGoHome()+0x64e>
    2042:	2305      	movs	r3, #5
    2044:	f8c4 35e8 	str.w	r3, [r4, #1512]	; 0x5e8
    2048:	e654      	b.n	1cf4 <DxGoHome()+0x654>
    204a:	2302      	movs	r3, #2
    204c:	f8c4 35e8 	str.w	r3, [r4, #1512]	; 0x5e8
    2050:	e650      	b.n	1cf4 <DxGoHome()+0x654>
    2052:	2306      	movs	r3, #6
    2054:	f8c4 05f0 	str.w	r0, [r4, #1520]	; 0x5f0
    2058:	f8c4 05f8 	str.w	r0, [r4, #1528]	; 0x5f8
    205c:	f8c4 35e8 	str.w	r3, [r4, #1512]	; 0x5e8
    2060:	e648      	b.n	1cf4 <DxGoHome()+0x654>
    2062:	f8d4 35f0 	ldr.w	r3, [r4, #1520]	; 0x5f0
    2066:	f8d4 25ec 	ldr.w	r2, [r4, #1516]	; 0x5ec
    206a:	eb03 2300 	add.w	r3, r3, r0, lsl #8
    206e:	2107      	movs	r1, #7
    2070:	f8c4 35f0 	str.w	r3, [r4, #1520]	; 0x5f0
    2074:	f8c4 15e8 	str.w	r1, [r4, #1512]	; 0x5e8
    2078:	2a00      	cmp	r2, #0
    207a:	f43f af6c 	beq.w	1f56 <DxGoHome()+0x8b6>
    207e:	e639      	b.n	1cf4 <DxGoHome()+0x654>
    2080:	3a01      	subs	r2, #1
    2082:	f062 02ff 	orn	r2, r2, #255	; 0xff
    2086:	3201      	adds	r2, #1
    2088:	e7d8      	b.n	203c <DxGoHome()+0x99c>
    208a:	bf00      	nop
    208c:	800000ff 	.word	0x800000ff
    2090:	00000c5d 	.word	0x00000c5d
    2094:	10000370 	.word	0x10000370
    2098:	10000354 	.word	0x10000354
    209c:	10000575 	.word	0x10000575
    20a0:	10000570 	.word	0x10000570
    20a4:	10000294 	.word	0x10000294
    20a8:	250a      	movs	r5, #10
    20aa:	26ff      	movs	r6, #255	; 0xff
    20ac:	4bb4      	ldr	r3, [pc, #720]	; (2380 <DxGoHome()+0xce0>)
    20ae:	2000      	movs	r0, #0
    20b0:	4629      	mov	r1, r5
    20b2:	27fe      	movs	r7, #254	; 0xfe
    20b4:	f884 5325 	strb.w	r5, [r4, #805]	; 0x325
    20b8:	f884 6320 	strb.w	r6, [r4, #800]	; 0x320
    20bc:	25f7      	movs	r5, #247	; 0xf7
    20be:	2608      	movs	r6, #8
    20c0:	4602      	mov	r2, r0
    20c2:	f884 0327 	strb.w	r0, [r4, #807]	; 0x327
    20c6:	f884 0328 	strb.w	r0, [r4, #808]	; 0x328
    20ca:	f884 0329 	strb.w	r0, [r4, #809]	; 0x329
    20ce:	f884 032a 	strb.w	r0, [r4, #810]	; 0x32a
    20d2:	f884 032b 	strb.w	r0, [r4, #811]	; 0x32b
    20d6:	f884 032c 	strb.w	r0, [r4, #812]	; 0x32c
    20da:	f884 032d 	strb.w	r0, [r4, #813]	; 0x32d
    20de:	f884 032e 	strb.w	r0, [r4, #814]	; 0x32e
    20e2:	f884 0323 	strb.w	r0, [r4, #803]	; 0x323
    20e6:	f884 0326 	strb.w	r0, [r4, #806]	; 0x326
    20ea:	f884 7321 	strb.w	r7, [r4, #801]	; 0x321
    20ee:	f103 0009 	add.w	r0, r3, #9
    20f2:	f884 6322 	strb.w	r6, [r4, #802]	; 0x322
    20f6:	f884 5324 	strb.w	r5, [r4, #804]	; 0x324
    20fa:	e001      	b.n	2100 <DxGoHome()+0xa60>
    20fc:	f813 1f01 	ldrb.w	r1, [r3, #1]!
    2100:	4298      	cmp	r0, r3
    2102:	440a      	add	r2, r1
    2104:	d1fa      	bne.n	20fc <DxGoHome()+0xa5c>
    2106:	43d2      	mvns	r2, r2
    2108:	4d9e      	ldr	r5, [pc, #632]	; (2384 <DxGoHome()+0xce4>)
    210a:	f884 232f 	strb.w	r2, [r4, #815]	; 0x32f
    210e:	f105 060f 	add.w	r6, r5, #15
    2112:	21ff      	movs	r1, #255	; 0xff
    2114:	e001      	b.n	211a <DxGoHome()+0xa7a>
    2116:	f815 1f01 	ldrb.w	r1, [r5, #1]!
    211a:	489b      	ldr	r0, [pc, #620]	; (2388 <DxGoHome()+0xce8>)
    211c:	f005 fb72 	bl	7804 <mbed::Stream::putc(int)>
    2120:	42b5      	cmp	r5, r6
    2122:	d1f8      	bne.n	2116 <DxGoHome()+0xa76>
    2124:	4899      	ldr	r0, [pc, #612]	; (238c <DxGoHome()+0xcec>)
    2126:	f005 fba7 	bl	7878 <mbed::Timer::read_ms()>
    212a:	f8cb 8600 	str.w	r8, [r11, #1536]	; 0x600
    212e:	f8cb 0114 	str.w	r0, [r11, #276]	; 0x114
    2132:	e59c      	b.n	1c6e <DxGoHome()+0x5ce>
    2134:	3a01      	subs	r2, #1
    2136:	f062 02ff 	orn	r2, r2, #255	; 0xff
    213a:	3201      	adds	r2, #1
    213c:	e62e      	b.n	1d9c <DxGoHome()+0x6fc>
    213e:	4e94      	ldr	r6, [pc, #592]	; (2390 <DxGoHome()+0xcf0>)
    2140:	4c94      	ldr	r4, [pc, #592]	; (2394 <DxGoHome()+0xcf4>)
    2142:	6830      	ldr	r0, [r6, #0]
    2144:	2200      	movs	r2, #0
    2146:	6803      	ldr	r3, [r0, #0]
    2148:	6869      	ldr	r1, [r5, #4]
    214a:	685b      	ldr	r3, [r3, #4]
    214c:	4798      	blx	r3
    214e:	6820      	ldr	r0, [r4, #0]
    2150:	2200      	movs	r2, #0
    2152:	6803      	ldr	r3, [r0, #0]
    2154:	68a9      	ldr	r1, [r5, #8]
    2156:	685b      	ldr	r3, [r3, #4]
    2158:	4798      	blx	r3
    215a:	6830      	ldr	r0, [r6, #0]
    215c:	2200      	movs	r2, #0
    215e:	6803      	ldr	r3, [r0, #0]
    2160:	6869      	ldr	r1, [r5, #4]
    2162:	685b      	ldr	r3, [r3, #4]
    2164:	4798      	blx	r3
    2166:	6820      	ldr	r0, [r4, #0]
    2168:	68a9      	ldr	r1, [r5, #8]
    216a:	6803      	ldr	r3, [r0, #0]
    216c:	2200      	movs	r2, #0
    216e:	685b      	ldr	r3, [r3, #4]
    2170:	4798      	blx	r3
    2172:	f8df 8230 	ldr.w	r8, [pc, #560]	; 23a4 <DxGoHome()+0xd04>
    2176:	f8df b23c 	ldr.w	r11, [pc, #572]	; 23b4 <DxGoHome()+0xd14>
    217a:	2400      	movs	r4, #0
    217c:	f8db 3000 	ldr.w	r3, [r11]
    2180:	5918      	ldr	r0, [r3, r4]
    2182:	3404      	adds	r4, #4
    2184:	6803      	ldr	r3, [r0, #0]
    2186:	699b      	ldr	r3, [r3, #24]
    2188:	4798      	blx	r3
    218a:	b980      	cbnz	r0, 21ae <DxGoHome()+0xb0e>
    218c:	2c14      	cmp	r4, #20
    218e:	d1f5      	bne.n	217c <DxGoHome()+0xadc>
    2190:	4c81      	ldr	r4, [pc, #516]	; (2398 <DxGoHome()+0xcf8>)
    2192:	4d82      	ldr	r5, [pc, #520]	; (239c <DxGoHome()+0xcfc>)
    2194:	f104 0614 	add.w	r6, r4, #20
    2198:	f854 0b04 	ldr.w	r0, [r4], #4
    219c:	f006 fa2e 	bl	85fc <__aeabi_i2f>
    21a0:	42b4      	cmp	r4, r6
    21a2:	f845 0b04 	str.w	r0, [r5], #4
    21a6:	d1f7      	bne.n	2198 <DxGoHome()+0xaf8>
    21a8:	b00f      	add	sp, #60	; 0x3c
    21aa:	e8bd 8ff0 	ldmia.w	sp!, {r4, r5, r6, r7, r8, r9, r10, r11, pc}
    21ae:	9b01      	ldr	r3, [sp, #4]
    21b0:	681c      	ldr	r4, [r3, #0]
    21b2:	2c00      	cmp	r4, #0
    21b4:	f47f ad32 	bne.w	1c1c <DxGoHome()+0x57c>
    21b8:	f7ff f84c 	bl	1254 <GetPubPosition()>
    21bc:	f8d9 202c 	ldr.w	r2, [r9, #44]	; 0x2c
    21c0:	f8da 3004 	ldr.w	r3, [r10, #4]
    21c4:	f8da 500c 	ldr.w	r5, [r10, #12]
    21c8:	6850      	ldr	r0, [r2, #4]
    21ca:	441d      	add	r5, r3
    21cc:	f006 fc30 	bl	8a30 <__aeabi_f2iz>
    21d0:	4b73      	ldr	r3, [pc, #460]	; (23a0 <DxGoHome()+0xd00>)
    21d2:	1a29      	subs	r1, r5, r0
    21d4:	681b      	ldr	r3, [r3, #0]
    21d6:	4d73      	ldr	r5, [pc, #460]	; (23a4 <DxGoHome()+0xd04>)
    21d8:	681a      	ldr	r2, [r3, #0]
    21da:	4618      	mov	r0, r3
    21dc:	6856      	ldr	r6, [r2, #4]
    21de:	4622      	mov	r2, r4
    21e0:	47b0      	blx	r6
    21e2:	f505 7082 	add.w	r0, r5, #260	; 0x104
    21e6:	f005 fb47 	bl	7878 <mbed::Timer::read_ms()>
    21ea:	f642 22f8 	movw	r2, #11000	; 0x2af8
    21ee:	f8d8 3604 	ldr.w	r3, [r8, #1540]	; 0x604
    21f2:	4607      	mov	r7, r0
    21f4:	1ac3      	subs	r3, r0, r3
    21f6:	4293      	cmp	r3, r2
    21f8:	f8d8 35e8 	ldr.w	r3, [r8, #1512]	; 0x5e8
    21fc:	bf88      	it	hi
    21fe:	f885 45fc 	strbhi.w	r4, [r5, #1532]	; 0x5fc
    2202:	b133      	cbz	r3, 2212 <DxGoHome()+0xb72>
    2204:	f8d8 3608 	ldr.w	r3, [r8, #1544]	; 0x608
    2208:	4298      	cmp	r0, r3
    220a:	d902      	bls.n	2212 <DxGoHome()+0xb72>
    220c:	2300      	movs	r3, #0
    220e:	f8c8 35e8 	str.w	r3, [r8, #1512]	; 0x5e8
    2212:	4c64      	ldr	r4, [pc, #400]	; (23a4 <DxGoHome()+0xd04>)
    2214:	1d20      	adds	r0, r4, #4
    2216:	f004 f867 	bl	62e8 <AjK::MODSERIAL::rxBufferEmpty()>
    221a:	4605      	mov	r5, r0
    221c:	b170      	cbz	r0, 223c <DxGoHome()+0xb9c>
    221e:	f898 35fc 	ldrb.w	r3, [r8, #1532]	; 0x5fc
    2222:	b13b      	cbz	r3, 2234 <DxGoHome()+0xb94>
    2224:	f640 12c4 	movw	r2, #2500	; 0x9c4
    2228:	f8d8 3600 	ldr.w	r3, [r8, #1536]	; 0x600
    222c:	1afb      	subs	r3, r7, r3
    222e:	4293      	cmp	r3, r2
    2230:	f200 8151 	bhi.w	24d6 <DxGoHome()+0xe36>
    2234:	200a      	movs	r0, #10
    2236:	f004 fba9 	bl	698c <wait_ms>
    223a:	e79e      	b.n	217a <DxGoHome()+0xada>
    223c:	2101      	movs	r1, #1
    223e:	1d20      	adds	r0, r4, #4
    2240:	f003 fed0 	bl	5fe4 <AjK::MODSERIAL::__getc(bool)>
    2244:	2800      	cmp	r0, #0
    2246:	dbea      	blt.n	221e <DxGoHome()+0xb7e>
    2248:	f8d8 35f8 	ldr.w	r3, [r8, #1528]	; 0x5f8
    224c:	f8d8 65e8 	ldr.w	r6, [r8, #1512]	; 0x5e8
    2250:	4403      	add	r3, r0
    2252:	2e07      	cmp	r6, #7
    2254:	f8c8 35f8 	str.w	r3, [r8, #1528]	; 0x5f8
    2258:	d073      	beq.n	2342 <DxGoHome()+0xca2>
    225a:	b956      	cbnz	r6, 2272 <DxGoHome()+0xbd2>
    225c:	28ff      	cmp	r0, #255	; 0xff
    225e:	f040 8084 	bne.w	236a <DxGoHome()+0xcca>
    2262:	2201      	movs	r2, #1
    2264:	f107 0314 	add.w	r3, r7, #20
    2268:	f8c8 25e8 	str.w	r2, [r8, #1512]	; 0x5e8
    226c:	f8c8 3608 	str.w	r3, [r8, #1544]	; 0x608
    2270:	e7cf      	b.n	2212 <DxGoHome()+0xb72>
    2272:	2e01      	cmp	r6, #1
    2274:	f000 80a0 	beq.w	23b8 <DxGoHome()+0xd18>
    2278:	2e02      	cmp	r6, #2
    227a:	f000 80ed 	beq.w	2458 <DxGoHome()+0xdb8>
    227e:	2e03      	cmp	r6, #3
    2280:	f000 80f4 	beq.w	246c <DxGoHome()+0xdcc>
    2284:	2e04      	cmp	r6, #4
    2286:	f000 80fb 	beq.w	2480 <DxGoHome()+0xde0>
    228a:	2e05      	cmp	r6, #5
    228c:	f000 8107 	beq.w	249e <DxGoHome()+0xdfe>
    2290:	2e06      	cmp	r6, #6
    2292:	f000 810c 	beq.w	24ae <DxGoHome()+0xe0e>
    2296:	2e08      	cmp	r6, #8
    2298:	d1bb      	bne.n	2212 <DxGoHome()+0xb72>
    229a:	4a43      	ldr	r2, [pc, #268]	; (23a8 <DxGoHome()+0xd08>)
    229c:	2100      	movs	r1, #0
    229e:	401a      	ands	r2, r3
    22a0:	428a      	cmp	r2, r1
    22a2:	f8c8 15e8 	str.w	r1, [r8, #1512]	; 0x5e8
    22a6:	f2c0 815f 	blt.w	2568 <DxGoHome()+0xec8>
    22aa:	2aff      	cmp	r2, #255	; 0xff
    22ac:	d1b1      	bne.n	2212 <DxGoHome()+0xb72>
    22ae:	f8d8 35f0 	ldr.w	r3, [r8, #1520]	; 0x5f0
    22b2:	2b00      	cmp	r3, #0
    22b4:	f000 8650 	beq.w	2f58 <DxGoHome()+0x18b8>
    22b8:	2b0a      	cmp	r3, #10
    22ba:	f000 8408 	beq.w	2ace <DxGoHome()+0x142e>
    22be:	2b06      	cmp	r3, #6
    22c0:	f000 83fb 	beq.w	2aba <DxGoHome()+0x141a>
    22c4:	2b0b      	cmp	r3, #11
    22c6:	f000 8160 	beq.w	258a <DxGoHome()+0xeea>
    22ca:	eb08 0383 	add.w	r3, r8, r3, lsl #2
    22ce:	f8d3 43f4 	ldr.w	r4, [r3, #1012]	; 0x3f4
    22d2:	2c00      	cmp	r4, #0
    22d4:	d09d      	beq.n	2212 <DxGoHome()+0xb72>
    22d6:	6823      	ldr	r3, [r4, #0]
    22d8:	4a34      	ldr	r2, [pc, #208]	; (23ac <DxGoHome()+0xd0c>)
    22da:	681b      	ldr	r3, [r3, #0]
    22dc:	4293      	cmp	r3, r2
    22de:	f040 8433 	bne.w	2b48 <DxGoHome()+0x14a8>
    22e2:	4933      	ldr	r1, [pc, #204]	; (23b0 <DxGoHome()+0xd10>)
    22e4:	f104 0010 	add.w	r0, r4, #16
    22e8:	f7fe fae8 	bl	8bc <std_msgs::MultiArrayLayout::deserialize(unsigned char*)>
    22ec:	eb08 0300 	add.w	r3, r8, r0
    22f0:	f893 3120 	ldrb.w	r3, [r3, #288]	; 0x120
    22f4:	f894 2030 	ldrb.w	r2, [r4, #48]	; 0x30
    22f8:	4606      	mov	r6, r0
    22fa:	429a      	cmp	r2, r3
    22fc:	f104 050c 	add.w	r5, r4, #12
    2300:	f0c0 8607 	bcc.w	2f12 <DxGoHome()+0x1872>
    2304:	f884 3030 	strb.w	r3, [r4, #48]	; 0x30
    2308:	b1bb      	cbz	r3, 233a <DxGoHome()+0xc9a>
    230a:	eb08 0006 	add.w	r0, r8, r6
    230e:	2100      	movs	r1, #0
    2310:	f104 0632 	add.w	r6, r4, #50	; 0x32
    2314:	f890 2125 	ldrb.w	r2, [r0, #293]	; 0x125
    2318:	f890 3124 	ldrb.w	r3, [r0, #292]	; 0x124
    231c:	3002      	adds	r0, #2
    231e:	ea43 2302 	orr.w	r3, r3, r2, lsl #8
    2322:	8663      	strh	r3, [r4, #50]	; 0x32
    2324:	f8b6 e000 	ldrh.w	lr, [r6]
    2328:	6b63      	ldr	r3, [r4, #52]	; 0x34
    232a:	1c4a      	adds	r2, r1, #1
    232c:	f823 e011 	strh.w	lr, [r3, r1, lsl #1]
    2330:	f894 3030 	ldrb.w	r3, [r4, #48]	; 0x30
    2334:	b2d1      	uxtb	r1, r2
    2336:	428b      	cmp	r3, r1
    2338:	d8ec      	bhi.n	2314 <DxGoHome()+0xc74>
    233a:	6ba3      	ldr	r3, [r4, #56]	; 0x38
    233c:	4628      	mov	r0, r5
    233e:	4798      	blx	r3
    2340:	e767      	b.n	2212 <DxGoHome()+0xb72>
    2342:	f8d8 25f4 	ldr.w	r2, [r8, #1524]	; 0x5f4
    2346:	f8d8 35ec 	ldr.w	r3, [r8, #1516]	; 0x5ec
    234a:	1c51      	adds	r1, r2, #1
    234c:	3b01      	subs	r3, #1
    234e:	4442      	add	r2, r8
    2350:	f8c8 15f4 	str.w	r1, [r8, #1524]	; 0x5f4
    2354:	f882 0120 	strb.w	r0, [r2, #288]	; 0x120
    2358:	f8c8 35ec 	str.w	r3, [r8, #1516]	; 0x5ec
    235c:	2b00      	cmp	r3, #0
    235e:	f47f af58 	bne.w	2212 <DxGoHome()+0xb72>
    2362:	2308      	movs	r3, #8
    2364:	f8c8 35e8 	str.w	r3, [r8, #1512]	; 0x5e8
    2368:	e753      	b.n	2212 <DxGoHome()+0xb72>
    236a:	f504 7082 	add.w	r0, r4, #260	; 0x104
    236e:	f005 fa83 	bl	7878 <mbed::Timer::read_ms()>
    2372:	1bc0      	subs	r0, r0, r7
    2374:	2805      	cmp	r0, #5
    2376:	f67f af4c 	bls.w	2212 <DxGoHome()+0xb72>
    237a:	f884 65fc 	strb.w	r6, [r4, #1532]	; 0x5fc
    237e:	e759      	b.n	2234 <DxGoHome()+0xb94>
    2380:	10000575 	.word	0x10000575
    2384:	10000570 	.word	0x10000570
    2388:	10000294 	.word	0x10000294
    238c:	10000354 	.word	0x10000354
    2390:	1000099c 	.word	0x1000099c
    2394:	10000204 	.word	0x10000204
    2398:	1000011c 	.word	0x1000011c
    239c:	10000108 	.word	0x10000108
    23a0:	10000950 	.word	0x10000950
    23a4:	10000250 	.word	0x10000250
    23a8:	800000ff 	.word	0x800000ff
    23ac:	00000c5d 	.word	0x00000c5d
    23b0:	10000370 	.word	0x10000370
    23b4:	100001f8 	.word	0x100001f8
    23b8:	28fe      	cmp	r0, #254	; 0xfe
    23ba:	d06c      	beq.n	2496 <DxGoHome()+0xdf6>
    23bc:	f898 35fc 	ldrb.w	r3, [r8, #1532]	; 0x5fc
    23c0:	f8c8 55e8 	str.w	r5, [r8, #1512]	; 0x5e8
    23c4:	2b00      	cmp	r3, #0
    23c6:	f47f af24 	bne.w	2212 <DxGoHome()+0xb72>
    23ca:	200a      	movs	r0, #10
    23cc:	461a      	mov	r2, r3
    23ce:	f888 3327 	strb.w	r3, [r8, #807]	; 0x327
    23d2:	f888 3328 	strb.w	r3, [r8, #808]	; 0x328
    23d6:	f888 3329 	strb.w	r3, [r8, #809]	; 0x329
    23da:	f888 332a 	strb.w	r3, [r8, #810]	; 0x32a
    23de:	f888 332b 	strb.w	r3, [r8, #811]	; 0x32b
    23e2:	f888 332c 	strb.w	r3, [r8, #812]	; 0x32c
    23e6:	f888 332d 	strb.w	r3, [r8, #813]	; 0x32d
    23ea:	f888 332e 	strb.w	r3, [r8, #814]	; 0x32e
    23ee:	f888 3323 	strb.w	r3, [r8, #803]	; 0x323
    23f2:	f888 3326 	strb.w	r3, [r8, #806]	; 0x326
    23f6:	23fe      	movs	r3, #254	; 0xfe
    23f8:	4601      	mov	r1, r0
    23fa:	25ff      	movs	r5, #255	; 0xff
    23fc:	f888 0325 	strb.w	r0, [r8, #805]	; 0x325
    2400:	f888 3321 	strb.w	r3, [r8, #801]	; 0x321
    2404:	2008      	movs	r0, #8
    2406:	23f7      	movs	r3, #247	; 0xf7
    2408:	f888 3324 	strb.w	r3, [r8, #804]	; 0x324
    240c:	f888 5320 	strb.w	r5, [r8, #800]	; 0x320
    2410:	f204 3325 	addw	r3, r4, #805	; 0x325
    2414:	f888 0322 	strb.w	r0, [r8, #802]	; 0x322
    2418:	f204 342e 	addw	r4, r4, #814	; 0x32e
    241c:	e001      	b.n	2422 <DxGoHome()+0xd82>
    241e:	f813 1f01 	ldrb.w	r1, [r3, #1]!
    2422:	429c      	cmp	r4, r3
    2424:	440a      	add	r2, r1
    2426:	d1fa      	bne.n	241e <DxGoHome()+0xd7e>
    2428:	43d2      	mvns	r2, r2
    242a:	4cb7      	ldr	r4, [pc, #732]	; (2708 <DxGoHome()+0x1068>)
    242c:	f888 232f 	strb.w	r2, [r8, #815]	; 0x32f
    2430:	f104 060f 	add.w	r6, r4, #15
    2434:	21ff      	movs	r1, #255	; 0xff
    2436:	e001      	b.n	243c <DxGoHome()+0xd9c>
    2438:	f814 1f01 	ldrb.w	r1, [r4, #1]!
    243c:	4db3      	ldr	r5, [pc, #716]	; (270c <DxGoHome()+0x106c>)
    243e:	f105 0044 	add.w	r0, r5, #68	; 0x44
    2442:	f005 f9df 	bl	7804 <mbed::Stream::putc(int)>
    2446:	42b4      	cmp	r4, r6
    2448:	d1f6      	bne.n	2438 <DxGoHome()+0xd98>
    244a:	f505 7082 	add.w	r0, r5, #260	; 0x104
    244e:	f005 fa13 	bl	7878 <mbed::Timer::read_ms()>
    2452:	f8c5 0114 	str.w	r0, [r5, #276]	; 0x114
    2456:	e6dc      	b.n	2212 <DxGoHome()+0xb72>
    2458:	2303      	movs	r3, #3
    245a:	f8c8 05ec 	str.w	r0, [r8, #1516]	; 0x5ec
    245e:	f8c8 55f4 	str.w	r5, [r8, #1524]	; 0x5f4
    2462:	f8c8 05f8 	str.w	r0, [r8, #1528]	; 0x5f8
    2466:	f8c8 35e8 	str.w	r3, [r8, #1512]	; 0x5e8
    246a:	e6d2      	b.n	2212 <DxGoHome()+0xb72>
    246c:	f8d8 35ec 	ldr.w	r3, [r8, #1516]	; 0x5ec
    2470:	2204      	movs	r2, #4
    2472:	eb03 2300 	add.w	r3, r3, r0, lsl #8
    2476:	f8c8 35ec 	str.w	r3, [r8, #1516]	; 0x5ec
    247a:	f8c8 25e8 	str.w	r2, [r8, #1512]	; 0x5e8
    247e:	e6c8      	b.n	2212 <DxGoHome()+0xb72>
    2480:	4aa3      	ldr	r2, [pc, #652]	; (2710 <DxGoHome()+0x1070>)
    2482:	401a      	ands	r2, r3
    2484:	2a00      	cmp	r2, #0
    2486:	db21      	blt.n	24cc <DxGoHome()+0xe2c>
    2488:	2aff      	cmp	r2, #255	; 0xff
    248a:	f47f aebf 	bne.w	220c <DxGoHome()+0xb6c>
    248e:	2305      	movs	r3, #5
    2490:	f8c8 35e8 	str.w	r3, [r8, #1512]	; 0x5e8
    2494:	e6bd      	b.n	2212 <DxGoHome()+0xb72>
    2496:	2302      	movs	r3, #2
    2498:	f8c8 35e8 	str.w	r3, [r8, #1512]	; 0x5e8
    249c:	e6b9      	b.n	2212 <DxGoHome()+0xb72>
    249e:	2306      	movs	r3, #6
    24a0:	f8c8 05f0 	str.w	r0, [r8, #1520]	; 0x5f0
    24a4:	f8c8 05f8 	str.w	r0, [r8, #1528]	; 0x5f8
    24a8:	f8c8 35e8 	str.w	r3, [r8, #1512]	; 0x5e8
    24ac:	e6b1      	b.n	2212 <DxGoHome()+0xb72>
    24ae:	f8d8 35f0 	ldr.w	r3, [r8, #1520]	; 0x5f0
    24b2:	f8d8 25ec 	ldr.w	r2, [r8, #1516]	; 0x5ec
    24b6:	eb03 2300 	add.w	r3, r3, r0, lsl #8
    24ba:	2107      	movs	r1, #7
    24bc:	f8c8 35f0 	str.w	r3, [r8, #1520]	; 0x5f0
    24c0:	f8c8 15e8 	str.w	r1, [r8, #1512]	; 0x5e8
    24c4:	2a00      	cmp	r2, #0
    24c6:	f43f af4c 	beq.w	2362 <DxGoHome()+0xcc2>
    24ca:	e6a2      	b.n	2212 <DxGoHome()+0xb72>
    24cc:	3a01      	subs	r2, #1
    24ce:	f062 02ff 	orn	r2, r2, #255	; 0xff
    24d2:	3201      	adds	r2, #1
    24d4:	e7d8      	b.n	2488 <DxGoHome()+0xde8>
    24d6:	240a      	movs	r4, #10
    24d8:	25ff      	movs	r5, #255	; 0xff
    24da:	4b8e      	ldr	r3, [pc, #568]	; (2714 <DxGoHome()+0x1074>)
    24dc:	2000      	movs	r0, #0
    24de:	4621      	mov	r1, r4
    24e0:	26fe      	movs	r6, #254	; 0xfe
    24e2:	f888 4325 	strb.w	r4, [r8, #805]	; 0x325
    24e6:	f888 5320 	strb.w	r5, [r8, #800]	; 0x320
    24ea:	24f7      	movs	r4, #247	; 0xf7
    24ec:	2508      	movs	r5, #8
    24ee:	4602      	mov	r2, r0
    24f0:	f888 0327 	strb.w	r0, [r8, #807]	; 0x327
    24f4:	f888 0328 	strb.w	r0, [r8, #808]	; 0x328
    24f8:	f888 0329 	strb.w	r0, [r8, #809]	; 0x329
    24fc:	f888 032a 	strb.w	r0, [r8, #810]	; 0x32a
    2500:	f888 032b 	strb.w	r0, [r8, #811]	; 0x32b
    2504:	f888 032c 	strb.w	r0, [r8, #812]	; 0x32c
    2508:	f888 032d 	strb.w	r0, [r8, #813]	; 0x32d
    250c:	f888 032e 	strb.w	r0, [r8, #814]	; 0x32e
    2510:	f888 0323 	strb.w	r0, [r8, #803]	; 0x323
    2514:	f888 0326 	strb.w	r0, [r8, #806]	; 0x326
    2518:	f888 6321 	strb.w	r6, [r8, #801]	; 0x321
    251c:	f103 0009 	add.w	r0, r3, #9
    2520:	f888 5322 	strb.w	r5, [r8, #802]	; 0x322
    2524:	f888 4324 	strb.w	r4, [r8, #804]	; 0x324
    2528:	e001      	b.n	252e <DxGoHome()+0xe8e>
    252a:	f813 1f01 	ldrb.w	r1, [r3, #1]!
    252e:	4283      	cmp	r3, r0
    2530:	440a      	add	r2, r1
    2532:	d1fa      	bne.n	252a <DxGoHome()+0xe8a>
    2534:	43d2      	mvns	r2, r2
    2536:	4c74      	ldr	r4, [pc, #464]	; (2708 <DxGoHome()+0x1068>)
    2538:	f888 232f 	strb.w	r2, [r8, #815]	; 0x32f
    253c:	f104 050f 	add.w	r5, r4, #15
    2540:	21ff      	movs	r1, #255	; 0xff
    2542:	e001      	b.n	2548 <DxGoHome()+0xea8>
    2544:	f814 1f01 	ldrb.w	r1, [r4, #1]!
    2548:	4e70      	ldr	r6, [pc, #448]	; (270c <DxGoHome()+0x106c>)
    254a:	f106 0044 	add.w	r0, r6, #68	; 0x44
    254e:	f005 f959 	bl	7804 <mbed::Stream::putc(int)>
    2552:	42ac      	cmp	r4, r5
    2554:	d1f6      	bne.n	2544 <DxGoHome()+0xea4>
    2556:	f506 7082 	add.w	r0, r6, #260	; 0x104
    255a:	f005 f98d 	bl	7878 <mbed::Timer::read_ms()>
    255e:	f8c6 7600 	str.w	r7, [r6, #1536]	; 0x600
    2562:	f8c6 0114 	str.w	r0, [r6, #276]	; 0x114
    2566:	e665      	b.n	2234 <DxGoHome()+0xb94>
    2568:	3a01      	subs	r2, #1
    256a:	f062 02ff 	orn	r2, r2, #255	; 0xff
    256e:	3201      	adds	r2, #1
    2570:	e69b      	b.n	22aa <DxGoHome()+0xc0a>
    2572:	4c69      	ldr	r4, [pc, #420]	; (2718 <DxGoHome()+0x1078>)
    2574:	2200      	movs	r2, #0
    2576:	6820      	ldr	r0, [r4, #0]
    2578:	f8da 1000 	ldr.w	r1, [r10]
    257c:	6803      	ldr	r3, [r0, #0]
    257e:	685b      	ldr	r3, [r3, #4]
    2580:	4798      	blx	r3
    2582:	4b66      	ldr	r3, [pc, #408]	; (271c <DxGoHome()+0x107c>)
    2584:	9301      	str	r3, [sp, #4]
    2586:	f7ff bb58 	b.w	1c3a <DxGoHome()+0x59a>
    258a:	2300      	movs	r3, #0
    258c:	f888 35fc 	strb.w	r3, [r8, #1532]	; 0x5fc
    2590:	e63f      	b.n	2212 <DxGoHome()+0xb72>
    2592:	2300      	movs	r3, #0
    2594:	f884 35fc 	strb.w	r3, [r4, #1532]	; 0x5fc
    2598:	f7ff bbac 	b.w	1cf4 <DxGoHome()+0x654>
    259c:	4960      	ldr	r1, [pc, #384]	; (2720 <DxGoHome()+0x1080>)
    259e:	f501 609e 	add.w	r0, r1, #1264	; 0x4f0
    25a2:	f7fe f847 	bl	634 <rosserial_msgs::RequestParamResponse::deserialize(unsigned char*)>
    25a6:	2301      	movs	r3, #1
    25a8:	f884 360c 	strb.w	r3, [r4, #1548]	; 0x60c
    25ac:	f7ff bba2 	b.w	1cf4 <DxGoHome()+0x654>
    25b0:	485c      	ldr	r0, [pc, #368]	; (2724 <DxGoHome()+0x1084>)
    25b2:	f005 f961 	bl	7878 <mbed::Timer::read_ms()>
    25b6:	f8d4 5114 	ldr.w	r5, [r4, #276]	; 0x114
    25ba:	f8d4 2120 	ldr.w	r2, [r4, #288]	; 0x120
    25be:	f8d4 3124 	ldr.w	r3, [r4, #292]	; 0x124
    25c2:	4f59      	ldr	r7, [pc, #356]	; (2728 <DxGoHome()+0x1088>)
    25c4:	1b45      	subs	r5, r0, r5
    25c6:	4857      	ldr	r0, [pc, #348]	; (2724 <DxGoHome()+0x1084>)
    25c8:	1e56      	subs	r6, r2, #1
    25ca:	441f      	add	r7, r3
    25cc:	f005 f954 	bl	7878 <mbed::Timer::read_ms()>
    25d0:	4b56      	ldr	r3, [pc, #344]	; (272c <DxGoHome()+0x108c>)
    25d2:	4956      	ldr	r1, [pc, #344]	; (272c <DxGoHome()+0x108c>)
    25d4:	fba3 3205 	umull	r3, r2, r3, r5
    25d8:	fba1 1e00 	umull	r1, lr, r1, r0
    25dc:	f44f 737a 	mov.w	r3, #1000	; 0x3e8
    25e0:	0992      	lsrs	r2, r2, #6
    25e2:	fb03 5112 	mls	r1, r3, r2, r5
    25e6:	ea4f 1e9e 	mov.w	lr, lr, lsr #6
    25ea:	fb03 031e 	mls	r3, r3, lr, r0
    25ee:	4850      	ldr	r0, [pc, #320]	; (2730 <DxGoHome()+0x1090>)
    25f0:	4432      	add	r2, r6
    25f2:	fb00 7101 	mla	r1, r0, r1, r7
    25f6:	fb00 1313 	mls	r3, r0, r3, r1
    25fa:	494e      	ldr	r1, [pc, #312]	; (2734 <DxGoHome()+0x1094>)
    25fc:	ebce 0202 	rsb	r2, lr, r2
    2600:	1f08      	subs	r0, r1, #4
    2602:	f8c4 311c 	str.w	r3, [r4, #284]	; 0x11c
    2606:	f8c4 2118 	str.w	r2, [r4, #280]	; 0x118
    260a:	f003 fef5 	bl	63f8 <ros::normalizeSecNSec(unsigned long&, unsigned long&)>
    260e:	4845      	ldr	r0, [pc, #276]	; (2724 <DxGoHome()+0x1084>)
    2610:	f005 f932 	bl	7878 <mbed::Timer::read_ms()>
    2614:	f8c4 0604 	str.w	r0, [r4, #1540]	; 0x604
    2618:	f7ff bb6c 	b.w	1cf4 <DxGoHome()+0x654>
    261c:	4841      	ldr	r0, [pc, #260]	; (2724 <DxGoHome()+0x1084>)
    261e:	f005 f92b 	bl	7878 <mbed::Timer::read_ms()>
    2622:	f8d4 5114 	ldr.w	r5, [r4, #276]	; 0x114
    2626:	f8d4 2120 	ldr.w	r2, [r4, #288]	; 0x120
    262a:	f8d4 3124 	ldr.w	r3, [r4, #292]	; 0x124
    262e:	4f3e      	ldr	r7, [pc, #248]	; (2728 <DxGoHome()+0x1088>)
    2630:	1b45      	subs	r5, r0, r5
    2632:	483c      	ldr	r0, [pc, #240]	; (2724 <DxGoHome()+0x1084>)
    2634:	1e56      	subs	r6, r2, #1
    2636:	441f      	add	r7, r3
    2638:	f005 f91e 	bl	7878 <mbed::Timer::read_ms()>
    263c:	4b3b      	ldr	r3, [pc, #236]	; (272c <DxGoHome()+0x108c>)
    263e:	493b      	ldr	r1, [pc, #236]	; (272c <DxGoHome()+0x108c>)
    2640:	fba3 3205 	umull	r3, r2, r3, r5
    2644:	fba1 1e00 	umull	r1, lr, r1, r0
    2648:	f44f 737a 	mov.w	r3, #1000	; 0x3e8
    264c:	0992      	lsrs	r2, r2, #6
    264e:	fb03 5112 	mls	r1, r3, r2, r5
    2652:	ea4f 1e9e 	mov.w	lr, lr, lsr #6
    2656:	fb03 031e 	mls	r3, r3, lr, r0
    265a:	4835      	ldr	r0, [pc, #212]	; (2730 <DxGoHome()+0x1090>)
    265c:	4432      	add	r2, r6
    265e:	fb00 7101 	mla	r1, r0, r1, r7
    2662:	fb00 1313 	mls	r3, r0, r3, r1
    2666:	4933      	ldr	r1, [pc, #204]	; (2734 <DxGoHome()+0x1094>)
    2668:	ebce 0202 	rsb	r2, lr, r2
    266c:	1f08      	subs	r0, r1, #4
    266e:	f8c4 311c 	str.w	r3, [r4, #284]	; 0x11c
    2672:	f8c4 2118 	str.w	r2, [r4, #280]	; 0x118
    2676:	f003 febf 	bl	63f8 <ros::normalizeSecNSec(unsigned long&, unsigned long&)>
    267a:	482a      	ldr	r0, [pc, #168]	; (2724 <DxGoHome()+0x1084>)
    267c:	f005 f8fc 	bl	7878 <mbed::Timer::read_ms()>
    2680:	f8c4 0604 	str.w	r0, [r4, #1540]	; 0x604
    2684:	f7ff b89d 	b.w	17c2 <DxGoHome()+0x122>
    2688:	4925      	ldr	r1, [pc, #148]	; (2720 <DxGoHome()+0x1080>)
    268a:	f501 609e 	add.w	r0, r1, #1264	; 0x4f0
    268e:	f7fd ffd1 	bl	634 <rosserial_msgs::RequestParamResponse::deserialize(unsigned char*)>
    2692:	2301      	movs	r3, #1
    2694:	f884 360c 	strb.w	r3, [r4, #1548]	; 0x60c
    2698:	f7ff b893 	b.w	17c2 <DxGoHome()+0x122>
    269c:	4d26      	ldr	r5, [pc, #152]	; (2738 <DxGoHome()+0x1098>)
    269e:	f88b 2320 	strb.w	r2, [r11, #800]	; 0x320
    26a2:	22fe      	movs	r2, #254	; 0xfe
    26a4:	260a      	movs	r6, #10
    26a6:	2708      	movs	r7, #8
    26a8:	f88b 2321 	strb.w	r2, [r11, #801]	; 0x321
    26ac:	22f7      	movs	r2, #247	; 0xf7
    26ae:	4619      	mov	r1, r3
    26b0:	f88b 3327 	strb.w	r3, [r11, #807]	; 0x327
    26b4:	f88b 3328 	strb.w	r3, [r11, #808]	; 0x328
    26b8:	f88b 3329 	strb.w	r3, [r11, #809]	; 0x329
    26bc:	f88b 332a 	strb.w	r3, [r11, #810]	; 0x32a
    26c0:	f88b 332b 	strb.w	r3, [r11, #811]	; 0x32b
    26c4:	f88b 332c 	strb.w	r3, [r11, #812]	; 0x32c
    26c8:	f88b 332d 	strb.w	r3, [r11, #813]	; 0x32d
    26cc:	f88b 332e 	strb.w	r3, [r11, #814]	; 0x32e
    26d0:	f88b 3323 	strb.w	r3, [r11, #803]	; 0x323
    26d4:	f88b 3326 	strb.w	r3, [r11, #806]	; 0x326
    26d8:	4630      	mov	r0, r6
    26da:	f88b 6325 	strb.w	r6, [r11, #805]	; 0x325
    26de:	f1a5 0309 	sub.w	r3, r5, #9
    26e2:	f88b 7322 	strb.w	r7, [r11, #802]	; 0x322
    26e6:	f88b 2324 	strb.w	r2, [r11, #804]	; 0x324
    26ea:	e001      	b.n	26f0 <DxGoHome()+0x1050>
    26ec:	f813 0f01 	ldrb.w	r0, [r3, #1]!
    26f0:	429d      	cmp	r5, r3
    26f2:	4401      	add	r1, r0
    26f4:	d1fa      	bne.n	26ec <DxGoHome()+0x104c>
    26f6:	43c9      	mvns	r1, r1
    26f8:	4d03      	ldr	r5, [pc, #12]	; (2708 <DxGoHome()+0x1068>)
    26fa:	f884 132f 	strb.w	r1, [r4, #815]	; 0x32f
    26fe:	f105 060f 	add.w	r6, r5, #15
    2702:	21ff      	movs	r1, #255	; 0xff
    2704:	e01c      	b.n	2740 <DxGoHome()+0x10a0>
    2706:	bf00      	nop
    2708:	10000570 	.word	0x10000570
    270c:	10000250 	.word	0x10000250
    2710:	800000ff 	.word	0x800000ff
    2714:	10000575 	.word	0x10000575
    2718:	1000094c 	.word	0x1000094c
    271c:	1000024c 	.word	0x1000024c
    2720:	10000370 	.word	0x10000370
    2724:	10000354 	.word	0x10000354
    2728:	3b9aca00 	.word	0x3b9aca00
    272c:	10624dd3 	.word	0x10624dd3
    2730:	000f4240 	.word	0x000f4240
    2734:	1000036c 	.word	0x1000036c
    2738:	1000057e 	.word	0x1000057e
    273c:	f815 1f01 	ldrb.w	r1, [r5, #1]!
    2740:	48c6      	ldr	r0, [pc, #792]	; (2a5c <DxGoHome()+0x13bc>)
    2742:	f005 f85f 	bl	7804 <mbed::Stream::putc(int)>
    2746:	42b5      	cmp	r5, r6
    2748:	d1f8      	bne.n	273c <DxGoHome()+0x109c>
    274a:	48c5      	ldr	r0, [pc, #788]	; (2a60 <DxGoHome()+0x13c0>)
    274c:	f005 f894 	bl	7878 <mbed::Timer::read_ms()>
    2750:	4bc4      	ldr	r3, [pc, #784]	; (2a64 <DxGoHome()+0x13c4>)
    2752:	f8cb 0114 	str.w	r0, [r11, #276]	; 0x114
    2756:	9303      	str	r3, [sp, #12]
    2758:	3364      	adds	r3, #100	; 0x64
    275a:	9302      	str	r3, [sp, #8]
    275c:	f8cd 8018 	str.w	r8, [sp, #24]
    2760:	9a03      	ldr	r2, [sp, #12]
    2762:	f852 3f04 	ldr.w	r3, [r2, #4]!
    2766:	9203      	str	r2, [sp, #12]
    2768:	2b00      	cmp	r3, #0
    276a:	f000 80a1 	beq.w	28b0 <DxGoHome()+0x1210>
    276e:	6858      	ldr	r0, [r3, #4]
    2770:	689e      	ldr	r6, [r3, #8]
    2772:	6802      	ldr	r2, [r0, #0]
    2774:	681d      	ldr	r5, [r3, #0]
    2776:	6892      	ldr	r2, [r2, #8]
    2778:	4790      	blx	r2
    277a:	9b03      	ldr	r3, [sp, #12]
    277c:	4607      	mov	r7, r0
    277e:	681b      	ldr	r3, [r3, #0]
    2780:	6858      	ldr	r0, [r3, #4]
    2782:	6803      	ldr	r3, [r0, #0]
    2784:	68db      	ldr	r3, [r3, #12]
    2786:	4798      	blx	r3
    2788:	9b03      	ldr	r3, [sp, #12]
    278a:	9004      	str	r0, [sp, #16]
    278c:	681b      	ldr	r3, [r3, #0]
    278e:	691b      	ldr	r3, [r3, #16]
    2790:	2b63      	cmp	r3, #99	; 0x63
    2792:	9305      	str	r3, [sp, #20]
    2794:	dd04      	ble.n	27a0 <DxGoHome()+0x1100>
    2796:	f894 35fc 	ldrb.w	r3, [r4, #1532]	; 0x5fc
    279a:	2b00      	cmp	r3, #0
    279c:	f000 8088 	beq.w	28b0 <DxGoHome()+0x1210>
    27a0:	f3c6 2307 	ubfx	r3, r6, #8, #8
    27a4:	f884 3328 	strb.w	r3, [r4, #808]	; 0x328
    27a8:	4628      	mov	r0, r5
    27aa:	f884 6327 	strb.w	r6, [r4, #807]	; 0x327
    27ae:	f007 fcde 	bl	a16e <strlen>
    27b2:	4606      	mov	r6, r0
    27b4:	ab0e      	add	r3, sp, #56	; 0x38
    27b6:	f843 0d14 	str.w	r0, [r3, #-20]!
    27ba:	6818      	ldr	r0, [r3, #0]
    27bc:	4baa      	ldr	r3, [pc, #680]	; (2a68 <DxGoHome()+0x13c8>)
    27be:	4632      	mov	r2, r6
    27c0:	4629      	mov	r1, r5
    27c2:	6018      	str	r0, [r3, #0]
    27c4:	1d18      	adds	r0, r3, #4
    27c6:	f006 fd4b 	bl	9260 <memcpy>
    27ca:	4638      	mov	r0, r7
    27cc:	f007 fccf 	bl	a16e <strlen>
    27d0:	4603      	mov	r3, r0
    27d2:	aa0e      	add	r2, sp, #56	; 0x38
    27d4:	f842 0d10 	str.w	r0, [r2, #-16]!
    27d8:	4da4      	ldr	r5, [pc, #656]	; (2a6c <DxGoHome()+0x13cc>)
    27da:	6810      	ldr	r0, [r2, #0]
    27dc:	1db2      	adds	r2, r6, #6
    27de:	360a      	adds	r6, #10
    27e0:	4639      	mov	r1, r7
    27e2:	50a8      	str	r0, [r5, r2]
    27e4:	461a      	mov	r2, r3
    27e6:	19a8      	adds	r0, r5, r6
    27e8:	9307      	str	r3, [sp, #28]
    27ea:	f006 fd39 	bl	9260 <memcpy>
    27ee:	9804      	ldr	r0, [sp, #16]
    27f0:	f007 fcbd 	bl	a16e <strlen>
    27f4:	4680      	mov	r8, r0
    27f6:	9b07      	ldr	r3, [sp, #28]
    27f8:	900b      	str	r0, [sp, #44]	; 0x2c
    27fa:	af0e      	add	r7, sp, #56	; 0x38
    27fc:	4433      	add	r3, r6
    27fe:	f857 0d0c 	ldr.w	r0, [r7, #-12]!
    2802:	1d1e      	adds	r6, r3, #4
    2804:	50e8      	str	r0, [r5, r3]
    2806:	4642      	mov	r2, r8
    2808:	19a8      	adds	r0, r5, r6
    280a:	9904      	ldr	r1, [sp, #16]
    280c:	f006 fd28 	bl	9260 <memcpy>
    2810:	eb08 0106 	add.w	r1, r8, r6
    2814:	1d0a      	adds	r2, r1, #4
    2816:	fa5f fe82 	uxtb.w	lr, r2
    281a:	f3c2 2807 	ubfx	r8, r2, #8, #8
    281e:	eb0e 0c08 	add.w	r12, lr, r8
    2822:	ea6f 0c0c 	mvn.w	r12, r12
    2826:	2000      	movs	r0, #0
    2828:	4421      	add	r1, r4
    282a:	f881 0327 	strb.w	r0, [r1, #807]	; 0x327
    282e:	f881 0329 	strb.w	r0, [r1, #809]	; 0x329
    2832:	f881 032a 	strb.w	r0, [r1, #810]	; 0x32a
    2836:	4603      	mov	r3, r0
    2838:	9805      	ldr	r0, [sp, #20]
    283a:	2602      	movs	r6, #2
    283c:	f881 6328 	strb.w	r6, [r1, #808]	; 0x328
    2840:	f884 c324 	strb.w	r12, [r4, #804]	; 0x324
    2844:	f884 e322 	strb.w	lr, [r4, #802]	; 0x322
    2848:	f340 2c07 	sbfx	r12, r0, #8, #8
    284c:	fa5f fe80 	uxtb.w	lr, r0
    2850:	f06f 0001 	mvn.w	r0, #1
    2854:	b292      	uxth	r2, r2
    2856:	f202 3126 	addw	r1, r2, #806	; 0x326
    285a:	26ff      	movs	r6, #255	; 0xff
    285c:	3d02      	subs	r5, #2
    285e:	f884 8323 	strb.w	r8, [r4, #803]	; 0x323
    2862:	4421      	add	r1, r4
    2864:	f884 6320 	strb.w	r6, [r4, #800]	; 0x320
    2868:	f884 0321 	strb.w	r0, [r4, #801]	; 0x321
    286c:	f884 e325 	strb.w	lr, [r4, #805]	; 0x325
    2870:	f884 c326 	strb.w	r12, [r4, #806]	; 0x326
    2874:	e001      	b.n	287a <DxGoHome()+0x11da>
    2876:	f815 ef01 	ldrb.w	lr, [r5, #1]!
    287a:	428d      	cmp	r5, r1
    287c:	4473      	add	r3, lr
    287e:	d1fa      	bne.n	2876 <DxGoHome()+0x11d6>
    2880:	43db      	mvns	r3, r3
    2882:	1dd1      	adds	r1, r2, #7
    2884:	3208      	adds	r2, #8
    2886:	b289      	uxth	r1, r1
    2888:	b292      	uxth	r2, r2
    288a:	4421      	add	r1, r4
    288c:	f5b2 7f00 	cmp.w	r2, #512	; 0x200
    2890:	f881 3320 	strb.w	r3, [r1, #800]	; 0x320
    2894:	f200 8353 	bhi.w	2f3e <DxGoHome()+0x189e>
    2898:	b152      	cbz	r2, 28b0 <DxGoHome()+0x1210>
    289a:	f202 321f 	addw	r2, r2, #799	; 0x31f
    289e:	4d74      	ldr	r5, [pc, #464]	; (2a70 <DxGoHome()+0x13d0>)
    28a0:	18a6      	adds	r6, r4, r2
    28a2:	f815 1f01 	ldrb.w	r1, [r5, #1]!
    28a6:	486d      	ldr	r0, [pc, #436]	; (2a5c <DxGoHome()+0x13bc>)
    28a8:	f004 ffac 	bl	7804 <mbed::Stream::putc(int)>
    28ac:	42b5      	cmp	r5, r6
    28ae:	d1f8      	bne.n	28a2 <DxGoHome()+0x1202>
    28b0:	9b03      	ldr	r3, [sp, #12]
    28b2:	9a02      	ldr	r2, [sp, #8]
    28b4:	4293      	cmp	r3, r2
    28b6:	f47f af53 	bne.w	2760 <DxGoHome()+0x10c0>
    28ba:	f8dd 8018 	ldr.w	r8, [sp, #24]
    28be:	f8cd 8014 	str.w	r8, [sp, #20]
    28c2:	9b02      	ldr	r3, [sp, #8]
    28c4:	f853 0f04 	ldr.w	r0, [r3, #4]!
    28c8:	9302      	str	r3, [sp, #8]
    28ca:	2800      	cmp	r0, #0
    28cc:	f000 80a7 	beq.w	2a1e <DxGoHome()+0x137e>
    28d0:	e890 0028 	ldmia.w	r0, {r3, r5}
    28d4:	6881      	ldr	r1, [r0, #8]
    28d6:	689a      	ldr	r2, [r3, #8]
    28d8:	9104      	str	r1, [sp, #16]
    28da:	4966      	ldr	r1, [pc, #408]	; (2a74 <DxGoHome()+0x13d4>)
    28dc:	428a      	cmp	r2, r1
    28de:	f040 80d5 	bne.w	2a8c <DxGoHome()+0x13ec>
    28e2:	f8df 81a4 	ldr.w	r8, [pc, #420]	; 2a88 <DxGoHome()+0x13e8>
    28e6:	68da      	ldr	r2, [r3, #12]
    28e8:	4963      	ldr	r1, [pc, #396]	; (2a78 <DxGoHome()+0x13d8>)
    28ea:	428a      	cmp	r2, r1
    28ec:	f040 80a8 	bne.w	2a40 <DxGoHome()+0x13a0>
    28f0:	4a62      	ldr	r2, [pc, #392]	; (2a7c <DxGoHome()+0x13dc>)
    28f2:	685b      	ldr	r3, [r3, #4]
    28f4:	9203      	str	r2, [sp, #12]
    28f6:	4a62      	ldr	r2, [pc, #392]	; (2a80 <DxGoHome()+0x13e0>)
    28f8:	4293      	cmp	r3, r2
    28fa:	f040 80ab 	bne.w	2a54 <DxGoHome()+0x13b4>
    28fe:	6bc7      	ldr	r7, [r0, #60]	; 0x3c
    2900:	2f63      	cmp	r7, #99	; 0x63
    2902:	dd04      	ble.n	290e <DxGoHome()+0x126e>
    2904:	f894 35fc 	ldrb.w	r3, [r4, #1532]	; 0x5fc
    2908:	2b00      	cmp	r3, #0
    290a:	f000 8088 	beq.w	2a1e <DxGoHome()+0x137e>
    290e:	f3c5 2307 	ubfx	r3, r5, #8, #8
    2912:	f884 3328 	strb.w	r3, [r4, #808]	; 0x328
    2916:	9804      	ldr	r0, [sp, #16]
    2918:	f884 5327 	strb.w	r5, [r4, #807]	; 0x327
    291c:	f007 fc27 	bl	a16e <strlen>
    2920:	4606      	mov	r6, r0
    2922:	ab0e      	add	r3, sp, #56	; 0x38
    2924:	f843 0d14 	str.w	r0, [r3, #-20]!
    2928:	6818      	ldr	r0, [r3, #0]
    292a:	4b4f      	ldr	r3, [pc, #316]	; (2a68 <DxGoHome()+0x13c8>)
    292c:	4632      	mov	r2, r6
    292e:	6018      	str	r0, [r3, #0]
    2930:	9904      	ldr	r1, [sp, #16]
    2932:	1d18      	adds	r0, r3, #4
    2934:	f006 fc94 	bl	9260 <memcpy>
    2938:	4640      	mov	r0, r8
    293a:	f007 fc18 	bl	a16e <strlen>
    293e:	4603      	mov	r3, r0
    2940:	aa0e      	add	r2, sp, #56	; 0x38
    2942:	f842 0d10 	str.w	r0, [r2, #-16]!
    2946:	4d49      	ldr	r5, [pc, #292]	; (2a6c <DxGoHome()+0x13cc>)
    2948:	6810      	ldr	r0, [r2, #0]
    294a:	1db2      	adds	r2, r6, #6
    294c:	360a      	adds	r6, #10
    294e:	4641      	mov	r1, r8
    2950:	50a8      	str	r0, [r5, r2]
    2952:	461a      	mov	r2, r3
    2954:	19a8      	adds	r0, r5, r6
    2956:	9304      	str	r3, [sp, #16]
    2958:	f006 fc82 	bl	9260 <memcpy>
    295c:	9803      	ldr	r0, [sp, #12]
    295e:	f007 fc06 	bl	a16e <strlen>
    2962:	ab0e      	add	r3, sp, #56	; 0x38
    2964:	461a      	mov	r2, r3
    2966:	4680      	mov	r8, r0
    2968:	9b04      	ldr	r3, [sp, #16]
    296a:	900b      	str	r0, [sp, #44]	; 0x2c
    296c:	f852 0d0c 	ldr.w	r0, [r2, #-12]!
    2970:	4433      	add	r3, r6
    2972:	1d1e      	adds	r6, r3, #4
    2974:	50e8      	str	r0, [r5, r3]
    2976:	9204      	str	r2, [sp, #16]
    2978:	19a8      	adds	r0, r5, r6
    297a:	4642      	mov	r2, r8
    297c:	9903      	ldr	r1, [sp, #12]
    297e:	f006 fc6f 	bl	9260 <memcpy>
    2982:	eb08 0106 	add.w	r1, r8, r6
    2986:	1d0a      	adds	r2, r1, #4
    2988:	fa5f fe82 	uxtb.w	lr, r2
    298c:	f3c2 2c07 	ubfx	r12, r2, #8, #8
    2990:	eb0e 080c 	add.w	r8, lr, r12
    2994:	ea6f 0808 	mvn.w	r8, r8
    2998:	2000      	movs	r0, #0
    299a:	4421      	add	r1, r4
    299c:	2602      	movs	r6, #2
    299e:	b292      	uxth	r2, r2
    29a0:	f881 6328 	strb.w	r6, [r1, #808]	; 0x328
    29a4:	f881 0327 	strb.w	r0, [r1, #807]	; 0x327
    29a8:	f881 0329 	strb.w	r0, [r1, #809]	; 0x329
    29ac:	f881 032a 	strb.w	r0, [r1, #810]	; 0x32a
    29b0:	4603      	mov	r3, r0
    29b2:	f202 3126 	addw	r1, r2, #806	; 0x326
    29b6:	26ff      	movs	r6, #255	; 0xff
    29b8:	20fe      	movs	r0, #254	; 0xfe
    29ba:	f884 e322 	strb.w	lr, [r4, #802]	; 0x322
    29be:	fa5f fe87 	uxtb.w	lr, r7
    29c2:	f347 2707 	sbfx	r7, r7, #8, #8
    29c6:	3d02      	subs	r5, #2
    29c8:	f884 8324 	strb.w	r8, [r4, #804]	; 0x324
    29cc:	f884 c323 	strb.w	r12, [r4, #803]	; 0x323
    29d0:	4421      	add	r1, r4
    29d2:	f884 6320 	strb.w	r6, [r4, #800]	; 0x320
    29d6:	f884 0321 	strb.w	r0, [r4, #801]	; 0x321
    29da:	f884 e325 	strb.w	lr, [r4, #805]	; 0x325
    29de:	f884 7326 	strb.w	r7, [r4, #806]	; 0x326
    29e2:	e001      	b.n	29e8 <DxGoHome()+0x1348>
    29e4:	f815 ef01 	ldrb.w	lr, [r5, #1]!
    29e8:	428d      	cmp	r5, r1
    29ea:	4473      	add	r3, lr
    29ec:	d1fa      	bne.n	29e4 <DxGoHome()+0x1344>
    29ee:	43db      	mvns	r3, r3
    29f0:	1dd1      	adds	r1, r2, #7
    29f2:	3208      	adds	r2, #8
    29f4:	b289      	uxth	r1, r1
    29f6:	b292      	uxth	r2, r2
    29f8:	4421      	add	r1, r4
    29fa:	f5b2 7f00 	cmp.w	r2, #512	; 0x200
    29fe:	f881 3320 	strb.w	r3, [r1, #800]	; 0x320
    2a02:	f200 828f 	bhi.w	2f24 <DxGoHome()+0x1884>
    2a06:	b152      	cbz	r2, 2a1e <DxGoHome()+0x137e>
    2a08:	f202 321f 	addw	r2, r2, #799	; 0x31f
    2a0c:	4d18      	ldr	r5, [pc, #96]	; (2a70 <DxGoHome()+0x13d0>)
    2a0e:	18a6      	adds	r6, r4, r2
    2a10:	f815 1f01 	ldrb.w	r1, [r5, #1]!
    2a14:	4811      	ldr	r0, [pc, #68]	; (2a5c <DxGoHome()+0x13bc>)
    2a16:	f004 fef5 	bl	7804 <mbed::Stream::putc(int)>
    2a1a:	42b5      	cmp	r5, r6
    2a1c:	d1f8      	bne.n	2a10 <DxGoHome()+0x1370>
    2a1e:	9b02      	ldr	r3, [sp, #8]
    2a20:	461a      	mov	r2, r3
    2a22:	4b18      	ldr	r3, [pc, #96]	; (2a84 <DxGoHome()+0x13e4>)
    2a24:	429a      	cmp	r2, r3
    2a26:	f47f af4c 	bne.w	28c2 <DxGoHome()+0x1222>
    2a2a:	f8dd 8014 	ldr.w	r8, [sp, #20]
    2a2e:	2301      	movs	r3, #1
    2a30:	f8c4 8600 	str.w	r8, [r4, #1536]	; 0x600
    2a34:	f8c4 8604 	str.w	r8, [r4, #1540]	; 0x604
    2a38:	f884 35fc 	strb.w	r3, [r4, #1532]	; 0x5fc
    2a3c:	f7fe be84 	b.w	1748 <DxGoHome()+0xa8>
    2a40:	4790      	blx	r2
    2a42:	9b02      	ldr	r3, [sp, #8]
    2a44:	9003      	str	r0, [sp, #12]
    2a46:	6818      	ldr	r0, [r3, #0]
    2a48:	4a0d      	ldr	r2, [pc, #52]	; (2a80 <DxGoHome()+0x13e0>)
    2a4a:	6803      	ldr	r3, [r0, #0]
    2a4c:	685b      	ldr	r3, [r3, #4]
    2a4e:	4293      	cmp	r3, r2
    2a50:	f43f af55 	beq.w	28fe <DxGoHome()+0x125e>
    2a54:	4798      	blx	r3
    2a56:	4607      	mov	r7, r0
    2a58:	e752      	b.n	2900 <DxGoHome()+0x1260>
    2a5a:	bf00      	nop
    2a5c:	10000294 	.word	0x10000294
    2a60:	10000354 	.word	0x10000354
    2a64:	1000076c 	.word	0x1000076c
    2a68:	10000579 	.word	0x10000579
    2a6c:	10000577 	.word	0x10000577
    2a70:	1000056f 	.word	0x1000056f
    2a74:	000002a1 	.word	0x000002a1
    2a78:	000002a9 	.word	0x000002a9
    2a7c:	0000afa8 	.word	0x0000afa8
    2a80:	0000029d 	.word	0x0000029d
    2a84:	10000834 	.word	0x10000834
    2a88:	0000af8c 	.word	0x0000af8c
    2a8c:	4790      	blx	r2
    2a8e:	9b02      	ldr	r3, [sp, #8]
    2a90:	4680      	mov	r8, r0
    2a92:	6818      	ldr	r0, [r3, #0]
    2a94:	6803      	ldr	r3, [r0, #0]
    2a96:	e726      	b.n	28e6 <DxGoHome()+0x1246>
    2a98:	4628      	mov	r0, r5
    2a9a:	499b      	ldr	r1, [pc, #620]	; (2d08 <DxGoHome()+0x1668>)
    2a9c:	4798      	blx	r3
    2a9e:	f7fe be90 	b.w	17c2 <DxGoHome()+0x122>
    2aa2:	4628      	mov	r0, r5
    2aa4:	4998      	ldr	r1, [pc, #608]	; (2d08 <DxGoHome()+0x1668>)
    2aa6:	4798      	blx	r3
    2aa8:	f7ff b924 	b.w	1cf4 <DxGoHome()+0x654>
    2aac:	0131      	lsls	r1, r6, #4
    2aae:	6aa8      	ldr	r0, [r5, #40]	; 0x28
    2ab0:	f003 fa84 	bl	5fbc <__wrap_realloc>
    2ab4:	62a8      	str	r0, [r5, #40]	; 0x28
    2ab6:	f7ff b996 	b.w	1de6 <DxGoHome()+0x746>
    2aba:	4993      	ldr	r1, [pc, #588]	; (2d08 <DxGoHome()+0x1668>)
    2abc:	f501 609e 	add.w	r0, r1, #1264	; 0x4f0
    2ac0:	f7fd fdb8 	bl	634 <rosserial_msgs::RequestParamResponse::deserialize(unsigned char*)>
    2ac4:	2301      	movs	r3, #1
    2ac6:	f888 360c 	strb.w	r3, [r8, #1548]	; 0x60c
    2aca:	f7ff bba2 	b.w	2212 <DxGoHome()+0xb72>
    2ace:	488f      	ldr	r0, [pc, #572]	; (2d0c <DxGoHome()+0x166c>)
    2ad0:	f004 fed2 	bl	7878 <mbed::Timer::read_ms()>
    2ad4:	f8d8 4114 	ldr.w	r4, [r8, #276]	; 0x114
    2ad8:	f8d8 2120 	ldr.w	r2, [r8, #288]	; 0x120
    2adc:	f8d8 3124 	ldr.w	r3, [r8, #292]	; 0x124
    2ae0:	4e8b      	ldr	r6, [pc, #556]	; (2d10 <DxGoHome()+0x1670>)
    2ae2:	1b04      	subs	r4, r0, r4
    2ae4:	4889      	ldr	r0, [pc, #548]	; (2d0c <DxGoHome()+0x166c>)
    2ae6:	1e55      	subs	r5, r2, #1
    2ae8:	441e      	add	r6, r3
    2aea:	f004 fec5 	bl	7878 <mbed::Timer::read_ms()>
    2aee:	4b89      	ldr	r3, [pc, #548]	; (2d14 <DxGoHome()+0x1674>)
    2af0:	4988      	ldr	r1, [pc, #544]	; (2d14 <DxGoHome()+0x1674>)
    2af2:	fba3 3204 	umull	r3, r2, r3, r4
    2af6:	fba1 1e00 	umull	r1, lr, r1, r0
    2afa:	f44f 737a 	mov.w	r3, #1000	; 0x3e8
    2afe:	0992      	lsrs	r2, r2, #6
    2b00:	fb03 4112 	mls	r1, r3, r2, r4
    2b04:	ea4f 1e9e 	mov.w	lr, lr, lsr #6
    2b08:	fb03 031e 	mls	r3, r3, lr, r0
    2b0c:	4882      	ldr	r0, [pc, #520]	; (2d18 <DxGoHome()+0x1678>)
    2b0e:	442a      	add	r2, r5
    2b10:	fb00 6101 	mla	r1, r0, r1, r6
    2b14:	fb00 1313 	mls	r3, r0, r3, r1
    2b18:	4980      	ldr	r1, [pc, #512]	; (2d1c <DxGoHome()+0x167c>)
    2b1a:	ebce 0202 	rsb	r2, lr, r2
    2b1e:	1f08      	subs	r0, r1, #4
    2b20:	f8c8 311c 	str.w	r3, [r8, #284]	; 0x11c
    2b24:	f8c8 2118 	str.w	r2, [r8, #280]	; 0x118
    2b28:	f003 fc66 	bl	63f8 <ros::normalizeSecNSec(unsigned long&, unsigned long&)>
    2b2c:	4877      	ldr	r0, [pc, #476]	; (2d0c <DxGoHome()+0x166c>)
    2b2e:	f004 fea3 	bl	7878 <mbed::Timer::read_ms()>
    2b32:	f8c8 0604 	str.w	r0, [r8, #1540]	; 0x604
    2b36:	f7ff bb6c 	b.w	2212 <DxGoHome()+0xb72>
    2b3a:	0079      	lsls	r1, r7, #1
    2b3c:	6b68      	ldr	r0, [r5, #52]	; 0x34
    2b3e:	f003 fa3d 	bl	5fbc <__wrap_realloc>
    2b42:	6368      	str	r0, [r5, #52]	; 0x34
    2b44:	f7ff b9da 	b.w	1efc <DxGoHome()+0x85c>
    2b48:	4620      	mov	r0, r4
    2b4a:	496f      	ldr	r1, [pc, #444]	; (2d08 <DxGoHome()+0x1668>)
    2b4c:	4798      	blx	r3
    2b4e:	f7ff bb60 	b.w	2212 <DxGoHome()+0xb72>
    2b52:	2208      	movs	r2, #8
    2b54:	2107      	movs	r1, #7
    2b56:	2006      	movs	r0, #6
    2b58:	2705      	movs	r7, #5
    2b5a:	2304      	movs	r3, #4
    2b5c:	260c      	movs	r6, #12
    2b5e:	f7fe bf1f 	b.w	19a0 <DxGoHome()+0x300>
    2b62:	4d6f      	ldr	r5, [pc, #444]	; (2d20 <DxGoHome()+0x1680>)
    2b64:	f88b 2320 	strb.w	r2, [r11, #800]	; 0x320
    2b68:	22fe      	movs	r2, #254	; 0xfe
    2b6a:	260a      	movs	r6, #10
    2b6c:	2708      	movs	r7, #8
    2b6e:	f88b 2321 	strb.w	r2, [r11, #801]	; 0x321
    2b72:	22f7      	movs	r2, #247	; 0xf7
    2b74:	4619      	mov	r1, r3
    2b76:	f88b 3327 	strb.w	r3, [r11, #807]	; 0x327
    2b7a:	f88b 3328 	strb.w	r3, [r11, #808]	; 0x328
    2b7e:	f88b 3329 	strb.w	r3, [r11, #809]	; 0x329
    2b82:	f88b 332a 	strb.w	r3, [r11, #810]	; 0x32a
    2b86:	f88b 332b 	strb.w	r3, [r11, #811]	; 0x32b
    2b8a:	f88b 332c 	strb.w	r3, [r11, #812]	; 0x32c
    2b8e:	f88b 332d 	strb.w	r3, [r11, #813]	; 0x32d
    2b92:	f88b 332e 	strb.w	r3, [r11, #814]	; 0x32e
    2b96:	f88b 3323 	strb.w	r3, [r11, #803]	; 0x323
    2b9a:	f88b 3326 	strb.w	r3, [r11, #806]	; 0x326
    2b9e:	4630      	mov	r0, r6
    2ba0:	f88b 6325 	strb.w	r6, [r11, #805]	; 0x325
    2ba4:	f1a5 0309 	sub.w	r3, r5, #9
    2ba8:	f88b 7322 	strb.w	r7, [r11, #802]	; 0x322
    2bac:	f88b 2324 	strb.w	r2, [r11, #804]	; 0x324
    2bb0:	e001      	b.n	2bb6 <DxGoHome()+0x1516>
    2bb2:	f813 0f01 	ldrb.w	r0, [r3, #1]!
    2bb6:	42ab      	cmp	r3, r5
    2bb8:	4401      	add	r1, r0
    2bba:	d1fa      	bne.n	2bb2 <DxGoHome()+0x1512>
    2bbc:	43c9      	mvns	r1, r1
    2bbe:	4d59      	ldr	r5, [pc, #356]	; (2d24 <DxGoHome()+0x1684>)
    2bc0:	f884 132f 	strb.w	r1, [r4, #815]	; 0x32f
    2bc4:	f105 060f 	add.w	r6, r5, #15
    2bc8:	21ff      	movs	r1, #255	; 0xff
    2bca:	e001      	b.n	2bd0 <DxGoHome()+0x1530>
    2bcc:	f815 1f01 	ldrb.w	r1, [r5, #1]!
    2bd0:	4855      	ldr	r0, [pc, #340]	; (2d28 <DxGoHome()+0x1688>)
    2bd2:	f004 fe17 	bl	7804 <mbed::Stream::putc(int)>
    2bd6:	42b5      	cmp	r5, r6
    2bd8:	d1f8      	bne.n	2bcc <DxGoHome()+0x152c>
    2bda:	484c      	ldr	r0, [pc, #304]	; (2d0c <DxGoHome()+0x166c>)
    2bdc:	f004 fe4c 	bl	7878 <mbed::Timer::read_ms()>
    2be0:	4b52      	ldr	r3, [pc, #328]	; (2d2c <DxGoHome()+0x168c>)
    2be2:	f8cb 0114 	str.w	r0, [r11, #276]	; 0x114
    2be6:	9303      	str	r3, [sp, #12]
    2be8:	3364      	adds	r3, #100	; 0x64
    2bea:	9302      	str	r3, [sp, #8]
    2bec:	f8cd 8018 	str.w	r8, [sp, #24]
    2bf0:	9a03      	ldr	r2, [sp, #12]
    2bf2:	f852 3f04 	ldr.w	r3, [r2, #4]!
    2bf6:	9203      	str	r2, [sp, #12]
    2bf8:	2b00      	cmp	r3, #0
    2bfa:	f000 80ba 	beq.w	2d72 <DxGoHome()+0x16d2>
    2bfe:	6858      	ldr	r0, [r3, #4]
    2c00:	689e      	ldr	r6, [r3, #8]
    2c02:	6802      	ldr	r2, [r0, #0]
    2c04:	681d      	ldr	r5, [r3, #0]
    2c06:	6892      	ldr	r2, [r2, #8]
    2c08:	4790      	blx	r2
    2c0a:	9b03      	ldr	r3, [sp, #12]
    2c0c:	4607      	mov	r7, r0
    2c0e:	681b      	ldr	r3, [r3, #0]
    2c10:	6858      	ldr	r0, [r3, #4]
    2c12:	6803      	ldr	r3, [r0, #0]
    2c14:	68db      	ldr	r3, [r3, #12]
    2c16:	4798      	blx	r3
    2c18:	9b03      	ldr	r3, [sp, #12]
    2c1a:	9004      	str	r0, [sp, #16]
    2c1c:	681b      	ldr	r3, [r3, #0]
    2c1e:	691b      	ldr	r3, [r3, #16]
    2c20:	2b63      	cmp	r3, #99	; 0x63
    2c22:	9305      	str	r3, [sp, #20]
    2c24:	dd04      	ble.n	2c30 <DxGoHome()+0x1590>
    2c26:	f894 35fc 	ldrb.w	r3, [r4, #1532]	; 0x5fc
    2c2a:	2b00      	cmp	r3, #0
    2c2c:	f000 80a1 	beq.w	2d72 <DxGoHome()+0x16d2>
    2c30:	f3c6 2307 	ubfx	r3, r6, #8, #8
    2c34:	f884 3328 	strb.w	r3, [r4, #808]	; 0x328
    2c38:	4628      	mov	r0, r5
    2c3a:	f884 6327 	strb.w	r6, [r4, #807]	; 0x327
    2c3e:	f007 fa96 	bl	a16e <strlen>
    2c42:	4606      	mov	r6, r0
    2c44:	ab0e      	add	r3, sp, #56	; 0x38
    2c46:	f843 0d14 	str.w	r0, [r3, #-20]!
    2c4a:	6818      	ldr	r0, [r3, #0]
    2c4c:	4b38      	ldr	r3, [pc, #224]	; (2d30 <DxGoHome()+0x1690>)
    2c4e:	4632      	mov	r2, r6
    2c50:	4629      	mov	r1, r5
    2c52:	6018      	str	r0, [r3, #0]
    2c54:	1d18      	adds	r0, r3, #4
    2c56:	f006 fb03 	bl	9260 <memcpy>
    2c5a:	4638      	mov	r0, r7
    2c5c:	f007 fa87 	bl	a16e <strlen>
    2c60:	4603      	mov	r3, r0
    2c62:	aa0e      	add	r2, sp, #56	; 0x38
    2c64:	f842 0d10 	str.w	r0, [r2, #-16]!
    2c68:	4d32      	ldr	r5, [pc, #200]	; (2d34 <DxGoHome()+0x1694>)
    2c6a:	6810      	ldr	r0, [r2, #0]
    2c6c:	1db2      	adds	r2, r6, #6
    2c6e:	360a      	adds	r6, #10
    2c70:	4639      	mov	r1, r7
    2c72:	50a8      	str	r0, [r5, r2]
    2c74:	461a      	mov	r2, r3
    2c76:	19a8      	adds	r0, r5, r6
    2c78:	9307      	str	r3, [sp, #28]
    2c7a:	f006 faf1 	bl	9260 <memcpy>
    2c7e:	9804      	ldr	r0, [sp, #16]
    2c80:	f007 fa75 	bl	a16e <strlen>
    2c84:	4680      	mov	r8, r0
    2c86:	9b07      	ldr	r3, [sp, #28]
    2c88:	900b      	str	r0, [sp, #44]	; 0x2c
    2c8a:	af0e      	add	r7, sp, #56	; 0x38
    2c8c:	4433      	add	r3, r6
    2c8e:	f857 0d0c 	ldr.w	r0, [r7, #-12]!
    2c92:	1d1e      	adds	r6, r3, #4
    2c94:	50e8      	str	r0, [r5, r3]
    2c96:	4642      	mov	r2, r8
    2c98:	19a8      	adds	r0, r5, r6
    2c9a:	9904      	ldr	r1, [sp, #16]
    2c9c:	f006 fae0 	bl	9260 <memcpy>
    2ca0:	eb08 0106 	add.w	r1, r8, r6
    2ca4:	1d0a      	adds	r2, r1, #4
    2ca6:	fa5f fe82 	uxtb.w	lr, r2
    2caa:	f3c2 2807 	ubfx	r8, r2, #8, #8
    2cae:	eb0e 0c08 	add.w	r12, lr, r8
    2cb2:	ea6f 0c0c 	mvn.w	r12, r12
    2cb6:	2000      	movs	r0, #0
    2cb8:	4421      	add	r1, r4
    2cba:	f881 0327 	strb.w	r0, [r1, #807]	; 0x327
    2cbe:	f881 0329 	strb.w	r0, [r1, #809]	; 0x329
    2cc2:	f881 032a 	strb.w	r0, [r1, #810]	; 0x32a
    2cc6:	4603      	mov	r3, r0
    2cc8:	9805      	ldr	r0, [sp, #20]
    2cca:	2602      	movs	r6, #2
    2ccc:	f881 6328 	strb.w	r6, [r1, #808]	; 0x328
    2cd0:	f884 c324 	strb.w	r12, [r4, #804]	; 0x324
    2cd4:	f884 e322 	strb.w	lr, [r4, #802]	; 0x322
    2cd8:	f340 2c07 	sbfx	r12, r0, #8, #8
    2cdc:	fa5f fe80 	uxtb.w	lr, r0
    2ce0:	f06f 0001 	mvn.w	r0, #1
    2ce4:	b292      	uxth	r2, r2
    2ce6:	f202 3126 	addw	r1, r2, #806	; 0x326
    2cea:	26ff      	movs	r6, #255	; 0xff
    2cec:	3d02      	subs	r5, #2
    2cee:	f884 8323 	strb.w	r8, [r4, #803]	; 0x323
    2cf2:	4421      	add	r1, r4
    2cf4:	f884 6320 	strb.w	r6, [r4, #800]	; 0x320
    2cf8:	f884 0321 	strb.w	r0, [r4, #801]	; 0x321
    2cfc:	f884 e325 	strb.w	lr, [r4, #805]	; 0x325
    2d00:	f884 c326 	strb.w	r12, [r4, #806]	; 0x326
    2d04:	e01a      	b.n	2d3c <DxGoHome()+0x169c>
    2d06:	bf00      	nop
    2d08:	10000370 	.word	0x10000370
    2d0c:	10000354 	.word	0x10000354
    2d10:	3b9aca00 	.word	0x3b9aca00
    2d14:	10624dd3 	.word	0x10624dd3
    2d18:	000f4240 	.word	0x000f4240
    2d1c:	1000036c 	.word	0x1000036c
    2d20:	1000057e 	.word	0x1000057e
    2d24:	10000570 	.word	0x10000570
    2d28:	10000294 	.word	0x10000294
    2d2c:	1000076c 	.word	0x1000076c
    2d30:	10000579 	.word	0x10000579
    2d34:	10000577 	.word	0x10000577
    2d38:	f815 ef01 	ldrb.w	lr, [r5, #1]!
    2d3c:	428d      	cmp	r5, r1
    2d3e:	4473      	add	r3, lr
    2d40:	d1fa      	bne.n	2d38 <DxGoHome()+0x1698>
    2d42:	43db      	mvns	r3, r3
    2d44:	1dd1      	adds	r1, r2, #7
    2d46:	3208      	adds	r2, #8
    2d48:	b289      	uxth	r1, r1
    2d4a:	b292      	uxth	r2, r2
    2d4c:	4421      	add	r1, r4
    2d4e:	f5b2 7f00 	cmp.w	r2, #512	; 0x200
    2d52:	f881 3320 	strb.w	r3, [r1, #800]	; 0x320
    2d56:	f200 82ce 	bhi.w	32f6 <DxGoHome()+0x1c56>
    2d5a:	b152      	cbz	r2, 2d72 <DxGoHome()+0x16d2>
    2d5c:	f202 321f 	addw	r2, r2, #799	; 0x31f
    2d60:	4ec5      	ldr	r6, [pc, #788]	; (3078 <DxGoHome()+0x19d8>)
    2d62:	18a5      	adds	r5, r4, r2
    2d64:	f816 1f01 	ldrb.w	r1, [r6, #1]!
    2d68:	48c4      	ldr	r0, [pc, #784]	; (307c <DxGoHome()+0x19dc>)
    2d6a:	f004 fd4b 	bl	7804 <mbed::Stream::putc(int)>
    2d6e:	42ae      	cmp	r6, r5
    2d70:	d1f8      	bne.n	2d64 <DxGoHome()+0x16c4>
    2d72:	9b03      	ldr	r3, [sp, #12]
    2d74:	9a02      	ldr	r2, [sp, #8]
    2d76:	4293      	cmp	r3, r2
    2d78:	f47f af3a 	bne.w	2bf0 <DxGoHome()+0x1550>
    2d7c:	f8dd 8018 	ldr.w	r8, [sp, #24]
    2d80:	f8cd 8014 	str.w	r8, [sp, #20]
    2d84:	9b02      	ldr	r3, [sp, #8]
    2d86:	f853 0f04 	ldr.w	r0, [r3, #4]!
    2d8a:	9302      	str	r3, [sp, #8]
    2d8c:	2800      	cmp	r0, #0
    2d8e:	f000 80a7 	beq.w	2ee0 <DxGoHome()+0x1840>
    2d92:	e890 0028 	ldmia.w	r0, {r3, r5}
    2d96:	6881      	ldr	r1, [r0, #8]
    2d98:	689a      	ldr	r2, [r3, #8]
    2d9a:	9104      	str	r1, [sp, #16]
    2d9c:	49b8      	ldr	r1, [pc, #736]	; (3080 <DxGoHome()+0x19e0>)
    2d9e:	428a      	cmp	r2, r1
    2da0:	f040 8289 	bne.w	32b6 <DxGoHome()+0x1c16>
    2da4:	f8df 8304 	ldr.w	r8, [pc, #772]	; 30ac <DxGoHome()+0x1a0c>
    2da8:	68da      	ldr	r2, [r3, #12]
    2daa:	49b6      	ldr	r1, [pc, #728]	; (3084 <DxGoHome()+0x19e4>)
    2dac:	428a      	cmp	r2, r1
    2dae:	f040 827c 	bne.w	32aa <DxGoHome()+0x1c0a>
    2db2:	4ab5      	ldr	r2, [pc, #724]	; (3088 <DxGoHome()+0x19e8>)
    2db4:	9203      	str	r2, [sp, #12]
    2db6:	685b      	ldr	r3, [r3, #4]
    2db8:	4ab4      	ldr	r2, [pc, #720]	; (308c <DxGoHome()+0x19ec>)
    2dba:	4293      	cmp	r3, r2
    2dbc:	f040 8272 	bne.w	32a4 <DxGoHome()+0x1c04>
    2dc0:	6bc7      	ldr	r7, [r0, #60]	; 0x3c
    2dc2:	2f63      	cmp	r7, #99	; 0x63
    2dc4:	dd04      	ble.n	2dd0 <DxGoHome()+0x1730>
    2dc6:	f894 35fc 	ldrb.w	r3, [r4, #1532]	; 0x5fc
    2dca:	2b00      	cmp	r3, #0
    2dcc:	f000 8088 	beq.w	2ee0 <DxGoHome()+0x1840>
    2dd0:	f3c5 2307 	ubfx	r3, r5, #8, #8
    2dd4:	f884 3328 	strb.w	r3, [r4, #808]	; 0x328
    2dd8:	9804      	ldr	r0, [sp, #16]
    2dda:	f884 5327 	strb.w	r5, [r4, #807]	; 0x327
    2dde:	f007 f9c6 	bl	a16e <strlen>
    2de2:	4606      	mov	r6, r0
    2de4:	ab0e      	add	r3, sp, #56	; 0x38
    2de6:	f843 0d14 	str.w	r0, [r3, #-20]!
    2dea:	6818      	ldr	r0, [r3, #0]
    2dec:	4ba8      	ldr	r3, [pc, #672]	; (3090 <DxGoHome()+0x19f0>)
    2dee:	4632      	mov	r2, r6
    2df0:	6018      	str	r0, [r3, #0]
    2df2:	9904      	ldr	r1, [sp, #16]
    2df4:	1d18      	adds	r0, r3, #4
    2df6:	f006 fa33 	bl	9260 <memcpy>
    2dfa:	4640      	mov	r0, r8
    2dfc:	f007 f9b7 	bl	a16e <strlen>
    2e00:	4603      	mov	r3, r0
    2e02:	aa0e      	add	r2, sp, #56	; 0x38
    2e04:	f842 0d10 	str.w	r0, [r2, #-16]!
    2e08:	4da2      	ldr	r5, [pc, #648]	; (3094 <DxGoHome()+0x19f4>)
    2e0a:	6810      	ldr	r0, [r2, #0]
    2e0c:	1db2      	adds	r2, r6, #6
    2e0e:	360a      	adds	r6, #10
    2e10:	4641      	mov	r1, r8
    2e12:	50a8      	str	r0, [r5, r2]
    2e14:	461a      	mov	r2, r3
    2e16:	19a8      	adds	r0, r5, r6
    2e18:	9304      	str	r3, [sp, #16]
    2e1a:	f006 fa21 	bl	9260 <memcpy>
    2e1e:	9803      	ldr	r0, [sp, #12]
    2e20:	f007 f9a5 	bl	a16e <strlen>
    2e24:	ab0e      	add	r3, sp, #56	; 0x38
    2e26:	461a      	mov	r2, r3
    2e28:	4680      	mov	r8, r0
    2e2a:	9b04      	ldr	r3, [sp, #16]
    2e2c:	900b      	str	r0, [sp, #44]	; 0x2c
    2e2e:	f852 0d0c 	ldr.w	r0, [r2, #-12]!
    2e32:	4433      	add	r3, r6
    2e34:	1d1e      	adds	r6, r3, #4
    2e36:	50e8      	str	r0, [r5, r3]
    2e38:	9204      	str	r2, [sp, #16]
    2e3a:	19a8      	adds	r0, r5, r6
    2e3c:	4642      	mov	r2, r8
    2e3e:	9903      	ldr	r1, [sp, #12]
    2e40:	f006 fa0e 	bl	9260 <memcpy>
    2e44:	eb08 0106 	add.w	r1, r8, r6
    2e48:	1d0a      	adds	r2, r1, #4
    2e4a:	fa5f fe82 	uxtb.w	lr, r2
    2e4e:	f3c2 2c07 	ubfx	r12, r2, #8, #8
    2e52:	eb0e 080c 	add.w	r8, lr, r12
    2e56:	ea6f 0808 	mvn.w	r8, r8
    2e5a:	2000      	movs	r0, #0
    2e5c:	4421      	add	r1, r4
    2e5e:	2602      	movs	r6, #2
    2e60:	b292      	uxth	r2, r2
    2e62:	f881 6328 	strb.w	r6, [r1, #808]	; 0x328
    2e66:	f881 0327 	strb.w	r0, [r1, #807]	; 0x327
    2e6a:	f881 0329 	strb.w	r0, [r1, #809]	; 0x329
    2e6e:	f881 032a 	strb.w	r0, [r1, #810]	; 0x32a
    2e72:	4603      	mov	r3, r0
    2e74:	f202 3126 	addw	r1, r2, #806	; 0x326
    2e78:	26ff      	movs	r6, #255	; 0xff
    2e7a:	20fe      	movs	r0, #254	; 0xfe
    2e7c:	f884 e322 	strb.w	lr, [r4, #802]	; 0x322
    2e80:	fa5f fe87 	uxtb.w	lr, r7
    2e84:	f347 2707 	sbfx	r7, r7, #8, #8
    2e88:	3d02      	subs	r5, #2
    2e8a:	f884 8324 	strb.w	r8, [r4, #804]	; 0x324
    2e8e:	f884 c323 	strb.w	r12, [r4, #803]	; 0x323
    2e92:	4421      	add	r1, r4
    2e94:	f884 6320 	strb.w	r6, [r4, #800]	; 0x320
    2e98:	f884 0321 	strb.w	r0, [r4, #801]	; 0x321
    2e9c:	f884 e325 	strb.w	lr, [r4, #805]	; 0x325
    2ea0:	f884 7326 	strb.w	r7, [r4, #806]	; 0x326
    2ea4:	e001      	b.n	2eaa <DxGoHome()+0x180a>
    2ea6:	f815 ef01 	ldrb.w	lr, [r5, #1]!
    2eaa:	42a9      	cmp	r1, r5
    2eac:	4473      	add	r3, lr
    2eae:	d1fa      	bne.n	2ea6 <DxGoHome()+0x1806>
    2eb0:	43db      	mvns	r3, r3
    2eb2:	1dd1      	adds	r1, r2, #7
    2eb4:	3208      	adds	r2, #8
    2eb6:	b289      	uxth	r1, r1
    2eb8:	b292      	uxth	r2, r2
    2eba:	4421      	add	r1, r4
    2ebc:	f5b2 7f00 	cmp.w	r2, #512	; 0x200
    2ec0:	f881 3320 	strb.w	r3, [r1, #800]	; 0x320
    2ec4:	f200 81fd 	bhi.w	32c2 <DxGoHome()+0x1c22>
    2ec8:	b152      	cbz	r2, 2ee0 <DxGoHome()+0x1840>
    2eca:	f202 321f 	addw	r2, r2, #799	; 0x31f
    2ece:	4e6a      	ldr	r6, [pc, #424]	; (3078 <DxGoHome()+0x19d8>)
    2ed0:	18a5      	adds	r5, r4, r2
    2ed2:	f816 1f01 	ldrb.w	r1, [r6, #1]!
    2ed6:	4869      	ldr	r0, [pc, #420]	; (307c <DxGoHome()+0x19dc>)
    2ed8:	f004 fc94 	bl	7804 <mbed::Stream::putc(int)>
    2edc:	42ae      	cmp	r6, r5
    2ede:	d1f8      	bne.n	2ed2 <DxGoHome()+0x1832>
    2ee0:	9b02      	ldr	r3, [sp, #8]
    2ee2:	461a      	mov	r2, r3
    2ee4:	4b6c      	ldr	r3, [pc, #432]	; (3098 <DxGoHome()+0x19f8>)
    2ee6:	429a      	cmp	r2, r3
    2ee8:	f47f af4c 	bne.w	2d84 <DxGoHome()+0x16e4>
    2eec:	f8dd 8014 	ldr.w	r8, [sp, #20]
    2ef0:	2301      	movs	r3, #1
    2ef2:	f8c4 8600 	str.w	r8, [r4, #1536]	; 0x600
    2ef6:	f8c4 8604 	str.w	r8, [r4, #1540]	; 0x604
    2efa:	f884 35fc 	strb.w	r3, [r4, #1532]	; 0x5fc
    2efe:	f7fe beb6 	b.w	1c6e <DxGoHome()+0x5ce>
    2f02:	2208      	movs	r2, #8
    2f04:	2107      	movs	r1, #7
    2f06:	2006      	movs	r0, #6
    2f08:	2705      	movs	r7, #5
    2f0a:	2304      	movs	r3, #4
    2f0c:	260c      	movs	r6, #12
    2f0e:	f7fe bfd7 	b.w	1ec0 <DxGoHome()+0x820>
    2f12:	0059      	lsls	r1, r3, #1
    2f14:	6b60      	ldr	r0, [r4, #52]	; 0x34
    2f16:	9302      	str	r3, [sp, #8]
    2f18:	f003 f850 	bl	5fbc <__wrap_realloc>
    2f1c:	9b02      	ldr	r3, [sp, #8]
    2f1e:	6360      	str	r0, [r4, #52]	; 0x34
    2f20:	f7ff b9f0 	b.w	2304 <DxGoHome()+0xc64>
    2f24:	495d      	ldr	r1, [pc, #372]	; (309c <DxGoHome()+0x19fc>)
    2f26:	485e      	ldr	r0, [pc, #376]	; (30a0 <DxGoHome()+0x1a00>)
    2f28:	2303      	movs	r3, #3
    2f2a:	910b      	str	r1, [sp, #44]	; 0x2c
    2f2c:	900d      	str	r0, [sp, #52]	; 0x34
    2f2e:	9a04      	ldr	r2, [sp, #16]
    2f30:	2107      	movs	r1, #7
    2f32:	485c      	ldr	r0, [pc, #368]	; (30a4 <DxGoHome()+0x1a04>)
    2f34:	f88d 3030 	strb.w	r3, [sp, #48]	; 0x30
    2f38:	f7fe f8cc 	bl	10d4 <ros::NodeHandle_<MbedHardware, 25, 25, 512, 512>::publish(int, ros::Msg const*)>
    2f3c:	e56f      	b.n	2a1e <DxGoHome()+0x137e>
    2f3e:	4957      	ldr	r1, [pc, #348]	; (309c <DxGoHome()+0x19fc>)
    2f40:	4857      	ldr	r0, [pc, #348]	; (30a0 <DxGoHome()+0x1a00>)
    2f42:	2303      	movs	r3, #3
    2f44:	910b      	str	r1, [sp, #44]	; 0x2c
    2f46:	900d      	str	r0, [sp, #52]	; 0x34
    2f48:	463a      	mov	r2, r7
    2f4a:	2107      	movs	r1, #7
    2f4c:	4855      	ldr	r0, [pc, #340]	; (30a4 <DxGoHome()+0x1a04>)
    2f4e:	f88d 3030 	strb.w	r3, [sp, #48]	; 0x30
    2f52:	f7fe f8bf 	bl	10d4 <ros::NodeHandle_<MbedHardware, 25, 25, 512, 512>::publish(int, ros::Msg const*)>
    2f56:	e4ab      	b.n	28b0 <DxGoHome()+0x1210>
    2f58:	4852      	ldr	r0, [pc, #328]	; (30a4 <DxGoHome()+0x1a04>)
    2f5a:	f7fe fb45 	bl	15e8 <ros::NodeHandle_<MbedHardware, 25, 25, 512, 512>::requestSyncTime()>
    2f5e:	4b52      	ldr	r3, [pc, #328]	; (30a8 <DxGoHome()+0x1a08>)
    2f60:	9706      	str	r7, [sp, #24]
    2f62:	9303      	str	r3, [sp, #12]
    2f64:	3364      	adds	r3, #100	; 0x64
    2f66:	9302      	str	r3, [sp, #8]
    2f68:	9a03      	ldr	r2, [sp, #12]
    2f6a:	f852 3f04 	ldr.w	r3, [r2, #4]!
    2f6e:	4617      	mov	r7, r2
    2f70:	9203      	str	r2, [sp, #12]
    2f72:	2b00      	cmp	r3, #0
    2f74:	f000 80ba 	beq.w	30ec <DxGoHome()+0x1a4c>
    2f78:	6858      	ldr	r0, [r3, #4]
    2f7a:	689d      	ldr	r5, [r3, #8]
    2f7c:	6802      	ldr	r2, [r0, #0]
    2f7e:	681c      	ldr	r4, [r3, #0]
    2f80:	6892      	ldr	r2, [r2, #8]
    2f82:	4790      	blx	r2
    2f84:	683b      	ldr	r3, [r7, #0]
    2f86:	4606      	mov	r6, r0
    2f88:	6858      	ldr	r0, [r3, #4]
    2f8a:	6803      	ldr	r3, [r0, #0]
    2f8c:	68db      	ldr	r3, [r3, #12]
    2f8e:	4798      	blx	r3
    2f90:	683b      	ldr	r3, [r7, #0]
    2f92:	9004      	str	r0, [sp, #16]
    2f94:	691b      	ldr	r3, [r3, #16]
    2f96:	2b63      	cmp	r3, #99	; 0x63
    2f98:	9305      	str	r3, [sp, #20]
    2f9a:	dd04      	ble.n	2fa6 <DxGoHome()+0x1906>
    2f9c:	f898 35fc 	ldrb.w	r3, [r8, #1532]	; 0x5fc
    2fa0:	2b00      	cmp	r3, #0
    2fa2:	f000 80a3 	beq.w	30ec <DxGoHome()+0x1a4c>
    2fa6:	f3c5 2307 	ubfx	r3, r5, #8, #8
    2faa:	f888 3328 	strb.w	r3, [r8, #808]	; 0x328
    2fae:	4620      	mov	r0, r4
    2fb0:	f888 5327 	strb.w	r5, [r8, #807]	; 0x327
    2fb4:	f007 f8db 	bl	a16e <strlen>
    2fb8:	4605      	mov	r5, r0
    2fba:	ab0e      	add	r3, sp, #56	; 0x38
    2fbc:	f843 0d14 	str.w	r0, [r3, #-20]!
    2fc0:	6818      	ldr	r0, [r3, #0]
    2fc2:	4b33      	ldr	r3, [pc, #204]	; (3090 <DxGoHome()+0x19f0>)
    2fc4:	462a      	mov	r2, r5
    2fc6:	4621      	mov	r1, r4
    2fc8:	6018      	str	r0, [r3, #0]
    2fca:	1d18      	adds	r0, r3, #4
    2fcc:	f006 f948 	bl	9260 <memcpy>
    2fd0:	4630      	mov	r0, r6
    2fd2:	f007 f8cc 	bl	a16e <strlen>
    2fd6:	4603      	mov	r3, r0
    2fd8:	aa0e      	add	r2, sp, #56	; 0x38
    2fda:	f842 0d10 	str.w	r0, [r2, #-16]!
    2fde:	4c2d      	ldr	r4, [pc, #180]	; (3094 <DxGoHome()+0x19f4>)
    2fe0:	6810      	ldr	r0, [r2, #0]
    2fe2:	1daa      	adds	r2, r5, #6
    2fe4:	350a      	adds	r5, #10
    2fe6:	4631      	mov	r1, r6
    2fe8:	50a0      	str	r0, [r4, r2]
    2fea:	461a      	mov	r2, r3
    2fec:	1960      	adds	r0, r4, r5
    2fee:	9307      	str	r3, [sp, #28]
    2ff0:	f006 f936 	bl	9260 <memcpy>
    2ff4:	9804      	ldr	r0, [sp, #16]
    2ff6:	f007 f8ba 	bl	a16e <strlen>
    2ffa:	4607      	mov	r7, r0
    2ffc:	9b07      	ldr	r3, [sp, #28]
    2ffe:	900b      	str	r0, [sp, #44]	; 0x2c
    3000:	ae0e      	add	r6, sp, #56	; 0x38
    3002:	442b      	add	r3, r5
    3004:	f856 0d0c 	ldr.w	r0, [r6, #-12]!
    3008:	1d1d      	adds	r5, r3, #4
    300a:	50e0      	str	r0, [r4, r3]
    300c:	463a      	mov	r2, r7
    300e:	1960      	adds	r0, r4, r5
    3010:	9904      	ldr	r1, [sp, #16]
    3012:	f006 f925 	bl	9260 <memcpy>
    3016:	1979      	adds	r1, r7, r5
    3018:	1d0a      	adds	r2, r1, #4
    301a:	fa5f fe82 	uxtb.w	lr, r2
    301e:	f3c2 2c07 	ubfx	r12, r2, #8, #8
    3022:	eb0e 070c 	add.w	r7, lr, r12
    3026:	43ff      	mvns	r7, r7
    3028:	2000      	movs	r0, #0
    302a:	4441      	add	r1, r8
    302c:	f881 0327 	strb.w	r0, [r1, #807]	; 0x327
    3030:	f881 0329 	strb.w	r0, [r1, #809]	; 0x329
    3034:	f881 032a 	strb.w	r0, [r1, #810]	; 0x32a
    3038:	4603      	mov	r3, r0
    303a:	9805      	ldr	r0, [sp, #20]
    303c:	2502      	movs	r5, #2
    303e:	f881 5328 	strb.w	r5, [r1, #808]	; 0x328
    3042:	f888 7324 	strb.w	r7, [r8, #804]	; 0x324
    3046:	f888 e322 	strb.w	lr, [r8, #802]	; 0x322
    304a:	b2c7      	uxtb	r7, r0
    304c:	f340 2e07 	sbfx	lr, r0, #8, #8
    3050:	f06f 0001 	mvn.w	r0, #1
    3054:	b292      	uxth	r2, r2
    3056:	f202 3126 	addw	r1, r2, #806	; 0x326
    305a:	25ff      	movs	r5, #255	; 0xff
    305c:	3c02      	subs	r4, #2
    305e:	f888 c323 	strb.w	r12, [r8, #803]	; 0x323
    3062:	4441      	add	r1, r8
    3064:	f888 5320 	strb.w	r5, [r8, #800]	; 0x320
    3068:	f888 0321 	strb.w	r0, [r8, #801]	; 0x321
    306c:	f888 7325 	strb.w	r7, [r8, #805]	; 0x325
    3070:	f888 e326 	strb.w	lr, [r8, #806]	; 0x326
    3074:	e01e      	b.n	30b4 <DxGoHome()+0x1a14>
    3076:	bf00      	nop
    3078:	1000056f 	.word	0x1000056f
    307c:	10000294 	.word	0x10000294
    3080:	000002a1 	.word	0x000002a1
    3084:	000002a9 	.word	0x000002a9
    3088:	0000afa8 	.word	0x0000afa8
    308c:	0000029d 	.word	0x0000029d
    3090:	10000579 	.word	0x10000579
    3094:	10000577 	.word	0x10000577
    3098:	10000834 	.word	0x10000834
    309c:	0000ad84 	.word	0x0000ad84
    30a0:	0000b00c 	.word	0x0000b00c
    30a4:	10000250 	.word	0x10000250
    30a8:	1000076c 	.word	0x1000076c
    30ac:	0000af8c 	.word	0x0000af8c
    30b0:	f814 7f01 	ldrb.w	r7, [r4, #1]!
    30b4:	42a1      	cmp	r1, r4
    30b6:	443b      	add	r3, r7
    30b8:	d1fa      	bne.n	30b0 <DxGoHome()+0x1a10>
    30ba:	43db      	mvns	r3, r3
    30bc:	1dd1      	adds	r1, r2, #7
    30be:	3208      	adds	r2, #8
    30c0:	b289      	uxth	r1, r1
    30c2:	b292      	uxth	r2, r2
    30c4:	4441      	add	r1, r8
    30c6:	f5b2 7f00 	cmp.w	r2, #512	; 0x200
    30ca:	f881 3320 	strb.w	r3, [r1, #800]	; 0x320
    30ce:	f200 8105 	bhi.w	32dc <DxGoHome()+0x1c3c>
    30d2:	b15a      	cbz	r2, 30ec <DxGoHome()+0x1a4c>
    30d4:	f202 321f 	addw	r2, r2, #799	; 0x31f
    30d8:	4d8d      	ldr	r5, [pc, #564]	; (3310 <DxGoHome()+0x1c70>)
    30da:	eb08 0402 	add.w	r4, r8, r2
    30de:	f815 1f01 	ldrb.w	r1, [r5, #1]!
    30e2:	488c      	ldr	r0, [pc, #560]	; (3314 <DxGoHome()+0x1c74>)
    30e4:	f004 fb8e 	bl	7804 <mbed::Stream::putc(int)>
    30e8:	42ac      	cmp	r4, r5
    30ea:	d1f8      	bne.n	30de <DxGoHome()+0x1a3e>
    30ec:	9b03      	ldr	r3, [sp, #12]
    30ee:	9a02      	ldr	r2, [sp, #8]
    30f0:	4293      	cmp	r3, r2
    30f2:	f47f af39 	bne.w	2f68 <DxGoHome()+0x18c8>
    30f6:	9f06      	ldr	r7, [sp, #24]
    30f8:	9705      	str	r7, [sp, #20]
    30fa:	9b02      	ldr	r3, [sp, #8]
    30fc:	f853 0f04 	ldr.w	r0, [r3, #4]!
    3100:	9302      	str	r3, [sp, #8]
    3102:	2800      	cmp	r0, #0
    3104:	f000 80a3 	beq.w	324e <DxGoHome()+0x1bae>
    3108:	e890 0018 	ldmia.w	r0, {r3, r4}
    310c:	6881      	ldr	r1, [r0, #8]
    310e:	689a      	ldr	r2, [r3, #8]
    3110:	9104      	str	r1, [sp, #16]
    3112:	4981      	ldr	r1, [pc, #516]	; (3318 <DxGoHome()+0x1c78>)
    3114:	428a      	cmp	r2, r1
    3116:	f040 80b2 	bne.w	327e <DxGoHome()+0x1bde>
    311a:	4f80      	ldr	r7, [pc, #512]	; (331c <DxGoHome()+0x1c7c>)
    311c:	68da      	ldr	r2, [r3, #12]
    311e:	4980      	ldr	r1, [pc, #512]	; (3320 <DxGoHome()+0x1c80>)
    3120:	428a      	cmp	r2, r1
    3122:	f040 80a6 	bne.w	3272 <DxGoHome()+0x1bd2>
    3126:	4a7f      	ldr	r2, [pc, #508]	; (3324 <DxGoHome()+0x1c84>)
    3128:	9203      	str	r2, [sp, #12]
    312a:	685b      	ldr	r3, [r3, #4]
    312c:	4a7e      	ldr	r2, [pc, #504]	; (3328 <DxGoHome()+0x1c88>)
    312e:	4293      	cmp	r3, r2
    3130:	f040 809c 	bne.w	326c <DxGoHome()+0x1bcc>
    3134:	6bc6      	ldr	r6, [r0, #60]	; 0x3c
    3136:	2e63      	cmp	r6, #99	; 0x63
    3138:	dd04      	ble.n	3144 <DxGoHome()+0x1aa4>
    313a:	f898 35fc 	ldrb.w	r3, [r8, #1532]	; 0x5fc
    313e:	2b00      	cmp	r3, #0
    3140:	f000 8085 	beq.w	324e <DxGoHome()+0x1bae>
    3144:	f3c4 2307 	ubfx	r3, r4, #8, #8
    3148:	f888 3328 	strb.w	r3, [r8, #808]	; 0x328
    314c:	9804      	ldr	r0, [sp, #16]
    314e:	f888 4327 	strb.w	r4, [r8, #807]	; 0x327
    3152:	f007 f80c 	bl	a16e <strlen>
    3156:	4605      	mov	r5, r0
    3158:	ab0e      	add	r3, sp, #56	; 0x38
    315a:	f843 0d14 	str.w	r0, [r3, #-20]!
    315e:	6818      	ldr	r0, [r3, #0]
    3160:	4b72      	ldr	r3, [pc, #456]	; (332c <DxGoHome()+0x1c8c>)
    3162:	462a      	mov	r2, r5
    3164:	6018      	str	r0, [r3, #0]
    3166:	9904      	ldr	r1, [sp, #16]
    3168:	1d18      	adds	r0, r3, #4
    316a:	f006 f879 	bl	9260 <memcpy>
    316e:	4638      	mov	r0, r7
    3170:	f006 fffd 	bl	a16e <strlen>
    3174:	4603      	mov	r3, r0
    3176:	aa0e      	add	r2, sp, #56	; 0x38
    3178:	f842 0d10 	str.w	r0, [r2, #-16]!
    317c:	4c6c      	ldr	r4, [pc, #432]	; (3330 <DxGoHome()+0x1c90>)
    317e:	6810      	ldr	r0, [r2, #0]
    3180:	1daa      	adds	r2, r5, #6
    3182:	350a      	adds	r5, #10
    3184:	4639      	mov	r1, r7
    3186:	50a0      	str	r0, [r4, r2]
    3188:	461a      	mov	r2, r3
    318a:	1960      	adds	r0, r4, r5
    318c:	9304      	str	r3, [sp, #16]
    318e:	f006 f867 	bl	9260 <memcpy>
    3192:	9803      	ldr	r0, [sp, #12]
    3194:	f006 ffeb 	bl	a16e <strlen>
    3198:	ab0e      	add	r3, sp, #56	; 0x38
    319a:	461a      	mov	r2, r3
    319c:	4607      	mov	r7, r0
    319e:	9b04      	ldr	r3, [sp, #16]
    31a0:	900b      	str	r0, [sp, #44]	; 0x2c
    31a2:	f852 0d0c 	ldr.w	r0, [r2, #-12]!
    31a6:	442b      	add	r3, r5
    31a8:	1d1d      	adds	r5, r3, #4
    31aa:	50e0      	str	r0, [r4, r3]
    31ac:	9204      	str	r2, [sp, #16]
    31ae:	1960      	adds	r0, r4, r5
    31b0:	463a      	mov	r2, r7
    31b2:	9903      	ldr	r1, [sp, #12]
    31b4:	f006 f854 	bl	9260 <memcpy>
    31b8:	1979      	adds	r1, r7, r5
    31ba:	1d0a      	adds	r2, r1, #4
    31bc:	fa5f fe82 	uxtb.w	lr, r2
    31c0:	f3c2 2c07 	ubfx	r12, r2, #8, #8
    31c4:	eb0e 070c 	add.w	r7, lr, r12
    31c8:	43ff      	mvns	r7, r7
    31ca:	2000      	movs	r0, #0
    31cc:	4441      	add	r1, r8
    31ce:	2502      	movs	r5, #2
    31d0:	b292      	uxth	r2, r2
    31d2:	f881 5328 	strb.w	r5, [r1, #808]	; 0x328
    31d6:	f881 0327 	strb.w	r0, [r1, #807]	; 0x327
    31da:	f881 0329 	strb.w	r0, [r1, #809]	; 0x329
    31de:	f881 032a 	strb.w	r0, [r1, #810]	; 0x32a
    31e2:	4603      	mov	r3, r0
    31e4:	f202 3126 	addw	r1, r2, #806	; 0x326
    31e8:	25ff      	movs	r5, #255	; 0xff
    31ea:	f888 7324 	strb.w	r7, [r8, #804]	; 0x324
    31ee:	20fe      	movs	r0, #254	; 0xfe
    31f0:	b2f7      	uxtb	r7, r6
    31f2:	f346 2607 	sbfx	r6, r6, #8, #8
    31f6:	3c02      	subs	r4, #2
    31f8:	f888 e322 	strb.w	lr, [r8, #802]	; 0x322
    31fc:	f888 c323 	strb.w	r12, [r8, #803]	; 0x323
    3200:	4441      	add	r1, r8
    3202:	f888 5320 	strb.w	r5, [r8, #800]	; 0x320
    3206:	f888 0321 	strb.w	r0, [r8, #801]	; 0x321
    320a:	f888 7325 	strb.w	r7, [r8, #805]	; 0x325
    320e:	f888 6326 	strb.w	r6, [r8, #806]	; 0x326
    3212:	e001      	b.n	3218 <DxGoHome()+0x1b78>
    3214:	f814 7f01 	ldrb.w	r7, [r4, #1]!
    3218:	428c      	cmp	r4, r1
    321a:	443b      	add	r3, r7
    321c:	d1fa      	bne.n	3214 <DxGoHome()+0x1b74>
    321e:	43db      	mvns	r3, r3
    3220:	1dd1      	adds	r1, r2, #7
    3222:	3208      	adds	r2, #8
    3224:	b289      	uxth	r1, r1
    3226:	b292      	uxth	r2, r2
    3228:	4441      	add	r1, r8
    322a:	f5b2 7f00 	cmp.w	r2, #512	; 0x200
    322e:	f881 3320 	strb.w	r3, [r1, #800]	; 0x320
    3232:	d82a      	bhi.n	328a <DxGoHome()+0x1bea>
    3234:	b15a      	cbz	r2, 324e <DxGoHome()+0x1bae>
    3236:	f202 321f 	addw	r2, r2, #799	; 0x31f
    323a:	4d35      	ldr	r5, [pc, #212]	; (3310 <DxGoHome()+0x1c70>)
    323c:	eb08 0402 	add.w	r4, r8, r2
    3240:	f815 1f01 	ldrb.w	r1, [r5, #1]!
    3244:	4833      	ldr	r0, [pc, #204]	; (3314 <DxGoHome()+0x1c74>)
    3246:	f004 fadd 	bl	7804 <mbed::Stream::putc(int)>
    324a:	42a5      	cmp	r5, r4
    324c:	d1f8      	bne.n	3240 <DxGoHome()+0x1ba0>
    324e:	4b39      	ldr	r3, [pc, #228]	; (3334 <DxGoHome()+0x1c94>)
    3250:	9a02      	ldr	r2, [sp, #8]
    3252:	4293      	cmp	r3, r2
    3254:	f47f af51 	bne.w	30fa <DxGoHome()+0x1a5a>
    3258:	9f05      	ldr	r7, [sp, #20]
    325a:	2301      	movs	r3, #1
    325c:	f8c8 7600 	str.w	r7, [r8, #1536]	; 0x600
    3260:	f8c8 7604 	str.w	r7, [r8, #1540]	; 0x604
    3264:	f888 35fc 	strb.w	r3, [r8, #1532]	; 0x5fc
    3268:	f7fe bfe4 	b.w	2234 <DxGoHome()+0xb94>
    326c:	4798      	blx	r3
    326e:	4606      	mov	r6, r0
    3270:	e761      	b.n	3136 <DxGoHome()+0x1a96>
    3272:	4790      	blx	r2
    3274:	9b02      	ldr	r3, [sp, #8]
    3276:	9003      	str	r0, [sp, #12]
    3278:	6818      	ldr	r0, [r3, #0]
    327a:	6803      	ldr	r3, [r0, #0]
    327c:	e755      	b.n	312a <DxGoHome()+0x1a8a>
    327e:	4790      	blx	r2
    3280:	9b02      	ldr	r3, [sp, #8]
    3282:	4607      	mov	r7, r0
    3284:	6818      	ldr	r0, [r3, #0]
    3286:	6803      	ldr	r3, [r0, #0]
    3288:	e748      	b.n	311c <DxGoHome()+0x1a7c>
    328a:	492b      	ldr	r1, [pc, #172]	; (3338 <DxGoHome()+0x1c98>)
    328c:	482b      	ldr	r0, [pc, #172]	; (333c <DxGoHome()+0x1c9c>)
    328e:	2303      	movs	r3, #3
    3290:	910b      	str	r1, [sp, #44]	; 0x2c
    3292:	900d      	str	r0, [sp, #52]	; 0x34
    3294:	9a04      	ldr	r2, [sp, #16]
    3296:	2107      	movs	r1, #7
    3298:	4829      	ldr	r0, [pc, #164]	; (3340 <DxGoHome()+0x1ca0>)
    329a:	f88d 3030 	strb.w	r3, [sp, #48]	; 0x30
    329e:	f7fd ff19 	bl	10d4 <ros::NodeHandle_<MbedHardware, 25, 25, 512, 512>::publish(int, ros::Msg const*)>
    32a2:	e7d4      	b.n	324e <DxGoHome()+0x1bae>
    32a4:	4798      	blx	r3
    32a6:	4607      	mov	r7, r0
    32a8:	e58b      	b.n	2dc2 <DxGoHome()+0x1722>
    32aa:	4790      	blx	r2
    32ac:	9b02      	ldr	r3, [sp, #8]
    32ae:	9003      	str	r0, [sp, #12]
    32b0:	6818      	ldr	r0, [r3, #0]
    32b2:	6803      	ldr	r3, [r0, #0]
    32b4:	e57f      	b.n	2db6 <DxGoHome()+0x1716>
    32b6:	4790      	blx	r2
    32b8:	9b02      	ldr	r3, [sp, #8]
    32ba:	4680      	mov	r8, r0
    32bc:	6818      	ldr	r0, [r3, #0]
    32be:	6803      	ldr	r3, [r0, #0]
    32c0:	e572      	b.n	2da8 <DxGoHome()+0x1708>
    32c2:	491d      	ldr	r1, [pc, #116]	; (3338 <DxGoHome()+0x1c98>)
    32c4:	481d      	ldr	r0, [pc, #116]	; (333c <DxGoHome()+0x1c9c>)
    32c6:	2303      	movs	r3, #3
    32c8:	910b      	str	r1, [sp, #44]	; 0x2c
    32ca:	900d      	str	r0, [sp, #52]	; 0x34
    32cc:	9a04      	ldr	r2, [sp, #16]
    32ce:	2107      	movs	r1, #7
    32d0:	481b      	ldr	r0, [pc, #108]	; (3340 <DxGoHome()+0x1ca0>)
    32d2:	f88d 3030 	strb.w	r3, [sp, #48]	; 0x30
    32d6:	f7fd fefd 	bl	10d4 <ros::NodeHandle_<MbedHardware, 25, 25, 512, 512>::publish(int, ros::Msg const*)>
    32da:	e601      	b.n	2ee0 <DxGoHome()+0x1840>
    32dc:	4916      	ldr	r1, [pc, #88]	; (3338 <DxGoHome()+0x1c98>)
    32de:	4817      	ldr	r0, [pc, #92]	; (333c <DxGoHome()+0x1c9c>)
    32e0:	2303      	movs	r3, #3
    32e2:	910b      	str	r1, [sp, #44]	; 0x2c
    32e4:	900d      	str	r0, [sp, #52]	; 0x34
    32e6:	4632      	mov	r2, r6
    32e8:	2107      	movs	r1, #7
    32ea:	4815      	ldr	r0, [pc, #84]	; (3340 <DxGoHome()+0x1ca0>)
    32ec:	f88d 3030 	strb.w	r3, [sp, #48]	; 0x30
    32f0:	f7fd fef0 	bl	10d4 <ros::NodeHandle_<MbedHardware, 25, 25, 512, 512>::publish(int, ros::Msg const*)>
    32f4:	e6fa      	b.n	30ec <DxGoHome()+0x1a4c>
    32f6:	4910      	ldr	r1, [pc, #64]	; (3338 <DxGoHome()+0x1c98>)
    32f8:	4810      	ldr	r0, [pc, #64]	; (333c <DxGoHome()+0x1c9c>)
    32fa:	2303      	movs	r3, #3
    32fc:	910b      	str	r1, [sp, #44]	; 0x2c
    32fe:	900d      	str	r0, [sp, #52]	; 0x34
    3300:	463a      	mov	r2, r7
    3302:	2107      	movs	r1, #7
    3304:	480e      	ldr	r0, [pc, #56]	; (3340 <DxGoHome()+0x1ca0>)
    3306:	f88d 3030 	strb.w	r3, [sp, #48]	; 0x30
    330a:	f7fd fee3 	bl	10d4 <ros::NodeHandle_<MbedHardware, 25, 25, 512, 512>::publish(int, ros::Msg const*)>
    330e:	e530      	b.n	2d72 <DxGoHome()+0x16d2>
    3310:	1000056f 	.word	0x1000056f
    3314:	10000294 	.word	0x10000294
    3318:	000002a1 	.word	0x000002a1
    331c:	0000af8c 	.word	0x0000af8c
    3320:	000002a9 	.word	0x000002a9
    3324:	0000afa8 	.word	0x0000afa8
    3328:	0000029d 	.word	0x0000029d
    332c:	10000579 	.word	0x10000579
    3330:	10000577 	.word	0x10000577
    3334:	10000834 	.word	0x10000834
    3338:	0000ad84 	.word	0x0000ad84
    333c:	0000b00c 	.word	0x0000b00c
    3340:	10000250 	.word	0x10000250

00003344 <ros::NodeHandle_<MbedHardware, 25, 25, 512, 512>::negotiateTopics()>:
    3344:	e92d 4ff0 	stmdb	sp!, {r4, r5, r6, r7, r8, r9, r10, r11, lr}
    3348:	4607      	mov	r7, r0
    334a:	4bc1      	ldr	r3, [pc, #772]	; (3650 <ros::NodeHandle_<MbedHardware, 25, 25, 512, 512>::negotiateTopics()+0x30c>)
    334c:	49c1      	ldr	r1, [pc, #772]	; (3654 <ros::NodeHandle_<MbedHardware, 25, 25, 512, 512>::negotiateTopics()+0x310>)
    334e:	b091      	sub	sp, #68	; 0x44
    3350:	2200      	movs	r2, #0
    3352:	f500 68b0 	add.w	r8, r0, #1408	; 0x580
    3356:	f200 5b1c 	addw	r11, r0, #1308	; 0x51c
    335a:	910a      	str	r1, [sp, #40]	; 0x28
    335c:	930c      	str	r3, [sp, #48]	; 0x30
    335e:	930d      	str	r3, [sp, #52]	; 0x34
    3360:	930e      	str	r3, [sp, #56]	; 0x38
    3362:	f8ad 202c 	strh.w	r2, [sp, #44]	; 0x2c
    3366:	920f      	str	r2, [sp, #60]	; 0x3c
    3368:	f8cd 8004 	str.w	r8, [sp, #4]
    336c:	f85b 3f04 	ldr.w	r3, [r11, #4]!
    3370:	2b00      	cmp	r3, #0
    3372:	f000 80bd 	beq.w	34f0 <ros::NodeHandle_<MbedHardware, 25, 25, 512, 512>::negotiateTopics()+0x1ac>
    3376:	6858      	ldr	r0, [r3, #4]
    3378:	681c      	ldr	r4, [r3, #0]
    337a:	6801      	ldr	r1, [r0, #0]
    337c:	689a      	ldr	r2, [r3, #8]
    337e:	940c      	str	r4, [sp, #48]	; 0x30
    3380:	688b      	ldr	r3, [r1, #8]
    3382:	f8ad 202c 	strh.w	r2, [sp, #44]	; 0x2c
    3386:	4798      	blx	r3
    3388:	f8db 3000 	ldr.w	r3, [r11]
    338c:	900d      	str	r0, [sp, #52]	; 0x34
    338e:	6858      	ldr	r0, [r3, #4]
    3390:	6803      	ldr	r3, [r0, #0]
    3392:	68db      	ldr	r3, [r3, #12]
    3394:	4798      	blx	r3
    3396:	683b      	ldr	r3, [r7, #0]
    3398:	f8db 1000 	ldr.w	r1, [r11]
    339c:	f44f 7200 	mov.w	r2, #512	; 0x200
    33a0:	900e      	str	r0, [sp, #56]	; 0x38
    33a2:	681b      	ldr	r3, [r3, #0]
    33a4:	690e      	ldr	r6, [r1, #16]
    33a6:	920f      	str	r2, [sp, #60]	; 0x3c
    33a8:	4aab      	ldr	r2, [pc, #684]	; (3658 <ros::NodeHandle_<MbedHardware, 25, 25, 512, 512>::negotiateTopics()+0x314>)
    33aa:	4681      	mov	r9, r0
    33ac:	4293      	cmp	r3, r2
    33ae:	f040 818b 	bne.w	36c8 <ros::NodeHandle_<MbedHardware, 25, 25, 512, 512>::negotiateTopics()+0x384>
    33b2:	2e63      	cmp	r6, #99	; 0x63
    33b4:	dd04      	ble.n	33c0 <ros::NodeHandle_<MbedHardware, 25, 25, 512, 512>::negotiateTopics()+0x7c>
    33b6:	f897 35fc 	ldrb.w	r3, [r7, #1532]	; 0x5fc
    33ba:	2b00      	cmp	r3, #0
    33bc:	f000 8098 	beq.w	34f0 <ros::NodeHandle_<MbedHardware, 25, 25, 512, 512>::negotiateTopics()+0x1ac>
    33c0:	f8bd 302c 	ldrh.w	r3, [sp, #44]	; 0x2c
    33c4:	9d0c      	ldr	r5, [sp, #48]	; 0x30
    33c6:	0a1a      	lsrs	r2, r3, #8
    33c8:	f887 3327 	strb.w	r3, [r7, #807]	; 0x327
    33cc:	f887 2328 	strb.w	r2, [r7, #808]	; 0x328
    33d0:	4628      	mov	r0, r5
    33d2:	f006 fecc 	bl	a16e <strlen>
    33d6:	4604      	mov	r4, r0
    33d8:	ab10      	add	r3, sp, #64	; 0x40
    33da:	f843 0d2c 	str.w	r0, [r3, #-44]!
    33de:	6818      	ldr	r0, [r3, #0]
    33e0:	4629      	mov	r1, r5
    33e2:	4622      	mov	r2, r4
    33e4:	f8c7 0329 	str.w	r0, [r7, #809]	; 0x329
    33e8:	f207 302d 	addw	r0, r7, #813	; 0x32d
    33ec:	f005 ff38 	bl	9260 <memcpy>
    33f0:	9d0d      	ldr	r5, [sp, #52]	; 0x34
    33f2:	ab10      	add	r3, sp, #64	; 0x40
    33f4:	4628      	mov	r0, r5
    33f6:	9300      	str	r3, [sp, #0]
    33f8:	f006 feb9 	bl	a16e <strlen>
    33fc:	f207 3e27 	addw	lr, r7, #807	; 0x327
    3400:	4603      	mov	r3, r0
    3402:	4629      	mov	r1, r5
    3404:	4675      	mov	r5, lr
    3406:	9a00      	ldr	r2, [sp, #0]
    3408:	9006      	str	r0, [sp, #24]
    340a:	f852 0d28 	ldr.w	r0, [r2, #-40]!
    340e:	9302      	str	r3, [sp, #8]
    3410:	9200      	str	r2, [sp, #0]
    3412:	1da2      	adds	r2, r4, #6
    3414:	340a      	adds	r4, #10
    3416:	f84e 0002 	str.w	r0, [lr, r2]
    341a:	461a      	mov	r2, r3
    341c:	1928      	adds	r0, r5, r4
    341e:	f005 ff1f 	bl	9260 <memcpy>
    3422:	4648      	mov	r0, r9
    3424:	f006 fea3 	bl	a16e <strlen>
    3428:	4682      	mov	r10, r0
    342a:	9b02      	ldr	r3, [sp, #8]
    342c:	9007      	str	r0, [sp, #28]
    342e:	f10d 0840 	add.w	r8, sp, #64	; 0x40
    3432:	4423      	add	r3, r4
    3434:	f858 0d24 	ldr.w	r0, [r8, #-36]!
    3438:	1d1c      	adds	r4, r3, #4
    343a:	50e8      	str	r0, [r5, r3]
    343c:	4649      	mov	r1, r9
    343e:	4652      	mov	r2, r10
    3440:	1928      	adds	r0, r5, r4
    3442:	f005 ff0d 	bl	9260 <memcpy>
    3446:	eb0a 0004 	add.w	r0, r10, r4
    344a:	1d01      	adds	r1, r0, #4
    344c:	fa5f fa81 	uxtb.w	r10, r1
    3450:	f3c1 2907 	ubfx	r9, r1, #8, #8
    3454:	eb0a 0e09 	add.w	lr, r10, r9
    3458:	ea6f 0e0e 	mvn.w	lr, lr
    345c:	2400      	movs	r4, #0
    345e:	542c      	strb	r4, [r5, r0]
    3460:	eb05 0c00 	add.w	r12, r5, r0
    3464:	b289      	uxth	r1, r1
    3466:	2002      	movs	r0, #2
    3468:	f88c 4002 	strb.w	r4, [r12, #2]
    346c:	f88c 4003 	strb.w	r4, [r12, #3]
    3470:	f88c 0001 	strb.w	r0, [r12, #1]
    3474:	f207 3325 	addw	r3, r7, #805	; 0x325
    3478:	4622      	mov	r2, r4
    347a:	f201 3026 	addw	r0, r1, #806	; 0x326
    347e:	24ff      	movs	r4, #255	; 0xff
    3480:	f887 e324 	strb.w	lr, [r7, #804]	; 0x324
    3484:	25fe      	movs	r5, #254	; 0xfe
    3486:	fa5f fe86 	uxtb.w	lr, r6
    348a:	f346 2607 	sbfx	r6, r6, #8, #8
    348e:	9302      	str	r3, [sp, #8]
    3490:	f887 a322 	strb.w	r10, [r7, #802]	; 0x322
    3494:	f887 9323 	strb.w	r9, [r7, #803]	; 0x323
    3498:	4438      	add	r0, r7
    349a:	f887 4320 	strb.w	r4, [r7, #800]	; 0x320
    349e:	f887 5321 	strb.w	r5, [r7, #801]	; 0x321
    34a2:	f887 e325 	strb.w	lr, [r7, #805]	; 0x325
    34a6:	f887 6326 	strb.w	r6, [r7, #806]	; 0x326
    34aa:	e001      	b.n	34b0 <ros::NodeHandle_<MbedHardware, 25, 25, 512, 512>::negotiateTopics()+0x16c>
    34ac:	f813 ef01 	ldrb.w	lr, [r3, #1]!
    34b0:	4298      	cmp	r0, r3
    34b2:	4472      	add	r2, lr
    34b4:	d1fa      	bne.n	34ac <ros::NodeHandle_<MbedHardware, 25, 25, 512, 512>::negotiateTopics()+0x168>
    34b6:	43d2      	mvns	r2, r2
    34b8:	1dc8      	adds	r0, r1, #7
    34ba:	f101 0308 	add.w	r3, r1, #8
    34be:	b280      	uxth	r0, r0
    34c0:	b29b      	uxth	r3, r3
    34c2:	1839      	adds	r1, r7, r0
    34c4:	f5b3 7f00 	cmp.w	r3, #512	; 0x200
    34c8:	f881 2320 	strb.w	r2, [r1, #800]	; 0x320
    34cc:	f200 811d 	bhi.w	370a <ros::NodeHandle_<MbedHardware, 25, 25, 512, 512>::negotiateTopics()+0x3c6>
    34d0:	f507 7548 	add.w	r5, r7, #800	; 0x320
    34d4:	b163      	cbz	r3, 34f0 <ros::NodeHandle_<MbedHardware, 25, 25, 512, 512>::negotiateTopics()+0x1ac>
    34d6:	3b01      	subs	r3, #1
    34d8:	441d      	add	r5, r3
    34da:	f107 0644 	add.w	r6, r7, #68	; 0x44
    34de:	f207 341f 	addw	r4, r7, #799	; 0x31f
    34e2:	f814 1f01 	ldrb.w	r1, [r4, #1]!
    34e6:	4630      	mov	r0, r6
    34e8:	f004 f98c 	bl	7804 <mbed::Stream::putc(int)>
    34ec:	42a5      	cmp	r5, r4
    34ee:	d1f8      	bne.n	34e2 <ros::NodeHandle_<MbedHardware, 25, 25, 512, 512>::negotiateTopics()+0x19e>
    34f0:	9b01      	ldr	r3, [sp, #4]
    34f2:	459b      	cmp	r11, r3
    34f4:	f47f af3a 	bne.w	336c <ros::NodeHandle_<MbedHardware, 25, 25, 512, 512>::negotiateTopics()+0x28>
    34f8:	4698      	mov	r8, r3
    34fa:	f207 53e4 	addw	r3, r7, #1508	; 0x5e4
    34fe:	9301      	str	r3, [sp, #4]
    3500:	f858 0f04 	ldr.w	r0, [r8, #4]!
    3504:	2800      	cmp	r0, #0
    3506:	f000 80d5 	beq.w	36b4 <ros::NodeHandle_<MbedHardware, 25, 25, 512, 512>::negotiateTopics()+0x370>
    350a:	6882      	ldr	r2, [r0, #8]
    350c:	6803      	ldr	r3, [r0, #0]
    350e:	6841      	ldr	r1, [r0, #4]
    3510:	920c      	str	r2, [sp, #48]	; 0x30
    3512:	689a      	ldr	r2, [r3, #8]
    3514:	f8ad 102c 	strh.w	r1, [sp, #44]	; 0x2c
    3518:	4950      	ldr	r1, [pc, #320]	; (365c <ros::NodeHandle_<MbedHardware, 25, 25, 512, 512>::negotiateTopics()+0x318>)
    351a:	428a      	cmp	r2, r1
    351c:	f040 80ef 	bne.w	36fe <ros::NodeHandle_<MbedHardware, 25, 25, 512, 512>::negotiateTopics()+0x3ba>
    3520:	4a4f      	ldr	r2, [pc, #316]	; (3660 <ros::NodeHandle_<MbedHardware, 25, 25, 512, 512>::negotiateTopics()+0x31c>)
    3522:	920d      	str	r2, [sp, #52]	; 0x34
    3524:	68da      	ldr	r2, [r3, #12]
    3526:	494f      	ldr	r1, [pc, #316]	; (3664 <ros::NodeHandle_<MbedHardware, 25, 25, 512, 512>::negotiateTopics()+0x320>)
    3528:	428a      	cmp	r2, r1
    352a:	f040 80e2 	bne.w	36f2 <ros::NodeHandle_<MbedHardware, 25, 25, 512, 512>::negotiateTopics()+0x3ae>
    352e:	4a4e      	ldr	r2, [pc, #312]	; (3668 <ros::NodeHandle_<MbedHardware, 25, 25, 512, 512>::negotiateTopics()+0x324>)
    3530:	6839      	ldr	r1, [r7, #0]
    3532:	920e      	str	r2, [sp, #56]	; 0x38
    3534:	f44f 7200 	mov.w	r2, #512	; 0x200
    3538:	685b      	ldr	r3, [r3, #4]
    353a:	680c      	ldr	r4, [r1, #0]
    353c:	920f      	str	r2, [sp, #60]	; 0x3c
    353e:	4a4b      	ldr	r2, [pc, #300]	; (366c <ros::NodeHandle_<MbedHardware, 25, 25, 512, 512>::negotiateTopics()+0x328>)
    3540:	4293      	cmp	r3, r2
    3542:	f040 80d3 	bne.w	36ec <ros::NodeHandle_<MbedHardware, 25, 25, 512, 512>::negotiateTopics()+0x3a8>
    3546:	6bc6      	ldr	r6, [r0, #60]	; 0x3c
    3548:	f8df a10c 	ldr.w	r10, [pc, #268]	; 3658 <ros::NodeHandle_<MbedHardware, 25, 25, 512, 512>::negotiateTopics()+0x314>
    354c:	4554      	cmp	r4, r10
    354e:	f040 80c4 	bne.w	36da <ros::NodeHandle_<MbedHardware, 25, 25, 512, 512>::negotiateTopics()+0x396>
    3552:	2e63      	cmp	r6, #99	; 0x63
    3554:	dd04      	ble.n	3560 <ros::NodeHandle_<MbedHardware, 25, 25, 512, 512>::negotiateTopics()+0x21c>
    3556:	f897 35fc 	ldrb.w	r3, [r7, #1532]	; 0x5fc
    355a:	2b00      	cmp	r3, #0
    355c:	f000 80aa 	beq.w	36b4 <ros::NodeHandle_<MbedHardware, 25, 25, 512, 512>::negotiateTopics()+0x370>
    3560:	f8bd 302c 	ldrh.w	r3, [sp, #44]	; 0x2c
    3564:	9d0c      	ldr	r5, [sp, #48]	; 0x30
    3566:	0a1a      	lsrs	r2, r3, #8
    3568:	f887 3327 	strb.w	r3, [r7, #807]	; 0x327
    356c:	f887 2328 	strb.w	r2, [r7, #808]	; 0x328
    3570:	4628      	mov	r0, r5
    3572:	f006 fdfc 	bl	a16e <strlen>
    3576:	4604      	mov	r4, r0
    3578:	ab10      	add	r3, sp, #64	; 0x40
    357a:	f843 0d2c 	str.w	r0, [r3, #-44]!
    357e:	6818      	ldr	r0, [r3, #0]
    3580:	4629      	mov	r1, r5
    3582:	4622      	mov	r2, r4
    3584:	f8c7 0329 	str.w	r0, [r7, #809]	; 0x329
    3588:	f207 302d 	addw	r0, r7, #813	; 0x32d
    358c:	f005 fe68 	bl	9260 <memcpy>
    3590:	9d0d      	ldr	r5, [sp, #52]	; 0x34
    3592:	ab10      	add	r3, sp, #64	; 0x40
    3594:	4628      	mov	r0, r5
    3596:	9300      	str	r3, [sp, #0]
    3598:	f006 fde9 	bl	a16e <strlen>
    359c:	f207 3e27 	addw	lr, r7, #807	; 0x327
    35a0:	4603      	mov	r3, r0
    35a2:	4629      	mov	r1, r5
    35a4:	4675      	mov	r5, lr
    35a6:	9a00      	ldr	r2, [sp, #0]
    35a8:	9006      	str	r0, [sp, #24]
    35aa:	f852 0d28 	ldr.w	r0, [r2, #-40]!
    35ae:	9303      	str	r3, [sp, #12]
    35b0:	9200      	str	r2, [sp, #0]
    35b2:	1da2      	adds	r2, r4, #6
    35b4:	340a      	adds	r4, #10
    35b6:	f84e 0002 	str.w	r0, [lr, r2]
    35ba:	461a      	mov	r2, r3
    35bc:	1928      	adds	r0, r5, r4
    35be:	f005 fe4f 	bl	9260 <memcpy>
    35c2:	990e      	ldr	r1, [sp, #56]	; 0x38
    35c4:	f10d 0940 	add.w	r9, sp, #64	; 0x40
    35c8:	4608      	mov	r0, r1
    35ca:	9102      	str	r1, [sp, #8]
    35cc:	f006 fdcf 	bl	a16e <strlen>
    35d0:	4683      	mov	r11, r0
    35d2:	9b03      	ldr	r3, [sp, #12]
    35d4:	9007      	str	r0, [sp, #28]
    35d6:	4423      	add	r3, r4
    35d8:	f859 0d24 	ldr.w	r0, [r9, #-36]!
    35dc:	1d1c      	adds	r4, r3, #4
    35de:	50e8      	str	r0, [r5, r3]
    35e0:	465a      	mov	r2, r11
    35e2:	1928      	adds	r0, r5, r4
    35e4:	9902      	ldr	r1, [sp, #8]
    35e6:	f005 fe3b 	bl	9260 <memcpy>
    35ea:	eb0b 0004 	add.w	r0, r11, r4
    35ee:	1d02      	adds	r2, r0, #4
    35f0:	fa5f fb82 	uxtb.w	r11, r2
    35f4:	f3c2 2c07 	ubfx	r12, r2, #8, #8
    35f8:	eb0b 040c 	add.w	r4, r11, r12
    35fc:	43e4      	mvns	r4, r4
    35fe:	990f      	ldr	r1, [sp, #60]	; 0x3c
    3600:	eb05 0e00 	add.w	lr, r5, r0
    3604:	5429      	strb	r1, [r5, r0]
    3606:	0a08      	lsrs	r0, r1, #8
    3608:	f88e 0001 	strb.w	r0, [lr, #1]
    360c:	b292      	uxth	r2, r2
    360e:	0c08      	lsrs	r0, r1, #16
    3610:	0e09      	lsrs	r1, r1, #24
    3612:	f88e 0002 	strb.w	r0, [lr, #2]
    3616:	f88e 1003 	strb.w	r1, [lr, #3]
    361a:	f207 3325 	addw	r3, r7, #805	; 0x325
    361e:	21fe      	movs	r1, #254	; 0xfe
    3620:	f202 3026 	addw	r0, r2, #806	; 0x326
    3624:	25ff      	movs	r5, #255	; 0xff
    3626:	f887 4324 	strb.w	r4, [r7, #804]	; 0x324
    362a:	b2f4      	uxtb	r4, r6
    362c:	f346 2607 	sbfx	r6, r6, #8, #8
    3630:	f887 1321 	strb.w	r1, [r7, #801]	; 0x321
    3634:	9302      	str	r3, [sp, #8]
    3636:	f887 b322 	strb.w	r11, [r7, #802]	; 0x322
    363a:	f887 c323 	strb.w	r12, [r7, #803]	; 0x323
    363e:	4438      	add	r0, r7
    3640:	f887 5320 	strb.w	r5, [r7, #800]	; 0x320
    3644:	f887 4325 	strb.w	r4, [r7, #805]	; 0x325
    3648:	f887 6326 	strb.w	r6, [r7, #806]	; 0x326
    364c:	2100      	movs	r1, #0
    364e:	e011      	b.n	3674 <ros::NodeHandle_<MbedHardware, 25, 25, 512, 512>::negotiateTopics()+0x330>
    3650:	0000b044 	.word	0x0000b044
    3654:	0000ad6c 	.word	0x0000ad6c
    3658:	000010d5 	.word	0x000010d5
    365c:	000002a1 	.word	0x000002a1
    3660:	0000af8c 	.word	0x0000af8c
    3664:	000002a9 	.word	0x000002a9
    3668:	0000afa8 	.word	0x0000afa8
    366c:	0000029d 	.word	0x0000029d
    3670:	f813 4f01 	ldrb.w	r4, [r3, #1]!
    3674:	4298      	cmp	r0, r3
    3676:	4421      	add	r1, r4
    3678:	d1fa      	bne.n	3670 <ros::NodeHandle_<MbedHardware, 25, 25, 512, 512>::negotiateTopics()+0x32c>
    367a:	43c9      	mvns	r1, r1
    367c:	1dd0      	adds	r0, r2, #7
    367e:	f102 0308 	add.w	r3, r2, #8
    3682:	b280      	uxth	r0, r0
    3684:	b29b      	uxth	r3, r3
    3686:	183a      	adds	r2, r7, r0
    3688:	f5b3 7f00 	cmp.w	r3, #512	; 0x200
    368c:	f882 1320 	strb.w	r1, [r2, #800]	; 0x320
    3690:	f200 8099 	bhi.w	37c6 <ros::NodeHandle_<MbedHardware, 25, 25, 512, 512>::negotiateTopics()+0x482>
    3694:	f507 7548 	add.w	r5, r7, #800	; 0x320
    3698:	b163      	cbz	r3, 36b4 <ros::NodeHandle_<MbedHardware, 25, 25, 512, 512>::negotiateTopics()+0x370>
    369a:	3b01      	subs	r3, #1
    369c:	441d      	add	r5, r3
    369e:	f107 0644 	add.w	r6, r7, #68	; 0x44
    36a2:	f207 341f 	addw	r4, r7, #799	; 0x31f
    36a6:	f814 1f01 	ldrb.w	r1, [r4, #1]!
    36aa:	4630      	mov	r0, r6
    36ac:	f004 f8aa 	bl	7804 <mbed::Stream::putc(int)>
    36b0:	42a5      	cmp	r5, r4
    36b2:	d1f8      	bne.n	36a6 <ros::NodeHandle_<MbedHardware, 25, 25, 512, 512>::negotiateTopics()+0x362>
    36b4:	9b01      	ldr	r3, [sp, #4]
    36b6:	4543      	cmp	r3, r8
    36b8:	f47f af22 	bne.w	3500 <ros::NodeHandle_<MbedHardware, 25, 25, 512, 512>::negotiateTopics()+0x1bc>
    36bc:	2301      	movs	r3, #1
    36be:	f887 35fc 	strb.w	r3, [r7, #1532]	; 0x5fc
    36c2:	b011      	add	sp, #68	; 0x44
    36c4:	e8bd 8ff0 	ldmia.w	sp!, {r4, r5, r6, r7, r8, r9, r10, r11, pc}
    36c8:	4631      	mov	r1, r6
    36ca:	aa0a      	add	r2, sp, #40	; 0x28
    36cc:	4638      	mov	r0, r7
    36ce:	4798      	blx	r3
    36d0:	9b01      	ldr	r3, [sp, #4]
    36d2:	459b      	cmp	r11, r3
    36d4:	f47f ae4a 	bne.w	336c <ros::NodeHandle_<MbedHardware, 25, 25, 512, 512>::negotiateTopics()+0x28>
    36d8:	e70e      	b.n	34f8 <ros::NodeHandle_<MbedHardware, 25, 25, 512, 512>::negotiateTopics()+0x1b4>
    36da:	4631      	mov	r1, r6
    36dc:	aa0a      	add	r2, sp, #40	; 0x28
    36de:	4638      	mov	r0, r7
    36e0:	47a0      	blx	r4
    36e2:	9b01      	ldr	r3, [sp, #4]
    36e4:	4543      	cmp	r3, r8
    36e6:	f47f af0b 	bne.w	3500 <ros::NodeHandle_<MbedHardware, 25, 25, 512, 512>::negotiateTopics()+0x1bc>
    36ea:	e7e7      	b.n	36bc <ros::NodeHandle_<MbedHardware, 25, 25, 512, 512>::negotiateTopics()+0x378>
    36ec:	4798      	blx	r3
    36ee:	4606      	mov	r6, r0
    36f0:	e72a      	b.n	3548 <ros::NodeHandle_<MbedHardware, 25, 25, 512, 512>::negotiateTopics()+0x204>
    36f2:	4790      	blx	r2
    36f4:	4602      	mov	r2, r0
    36f6:	f8d8 0000 	ldr.w	r0, [r8]
    36fa:	6803      	ldr	r3, [r0, #0]
    36fc:	e718      	b.n	3530 <ros::NodeHandle_<MbedHardware, 25, 25, 512, 512>::negotiateTopics()+0x1ec>
    36fe:	4790      	blx	r2
    3700:	4602      	mov	r2, r0
    3702:	f8d8 0000 	ldr.w	r0, [r8]
    3706:	6803      	ldr	r3, [r0, #0]
    3708:	e70b      	b.n	3522 <ros::NodeHandle_<MbedHardware, 25, 25, 512, 512>::negotiateTopics()+0x1de>
    370a:	4961      	ldr	r1, [pc, #388]	; (3890 <ros::NodeHandle_<MbedHardware, 25, 25, 512, 512>::negotiateTopics()+0x54c>)
    370c:	2203      	movs	r2, #3
    370e:	9107      	str	r1, [sp, #28]
    3710:	4960      	ldr	r1, [pc, #384]	; (3894 <ros::NodeHandle_<MbedHardware, 25, 25, 512, 512>::negotiateTopics()+0x550>)
    3712:	683b      	ldr	r3, [r7, #0]
    3714:	9109      	str	r1, [sp, #36]	; 0x24
    3716:	f88d 2020 	strb.w	r2, [sp, #32]
    371a:	681b      	ldr	r3, [r3, #0]
    371c:	495e      	ldr	r1, [pc, #376]	; (3898 <ros::NodeHandle_<MbedHardware, 25, 25, 512, 512>::negotiateTopics()+0x554>)
    371e:	428b      	cmp	r3, r1
    3720:	f040 80ac 	bne.w	387c <ros::NodeHandle_<MbedHardware, 25, 25, 512, 512>::negotiateTopics()+0x538>
    3724:	2338      	movs	r3, #56	; 0x38
    3726:	9306      	str	r3, [sp, #24]
    3728:	9b00      	ldr	r3, [sp, #0]
    372a:	4c5a      	ldr	r4, [pc, #360]	; (3894 <ros::NodeHandle_<MbedHardware, 25, 25, 512, 512>::negotiateTopics()+0x550>)
    372c:	6818      	ldr	r0, [r3, #0]
    372e:	f887 2327 	strb.w	r2, [r7, #807]	; 0x327
    3732:	f8c7 0328 	str.w	r0, [r7, #808]	; 0x328
    3736:	f104 0e30 	add.w	lr, r4, #48	; 0x30
    373a:	f507 754b 	add.w	r5, r7, #812	; 0x32c
    373e:	4626      	mov	r6, r4
    3740:	ce0f      	ldmia	r6!, {r0, r1, r2, r3}
    3742:	4576      	cmp	r6, lr
    3744:	6028      	str	r0, [r5, #0]
    3746:	6069      	str	r1, [r5, #4]
    3748:	60aa      	str	r2, [r5, #8]
    374a:	60eb      	str	r3, [r5, #12]
    374c:	f104 0410 	add.w	r4, r4, #16
    3750:	f105 0510 	add.w	r5, r5, #16
    3754:	d1f3      	bne.n	373e <ros::NodeHandle_<MbedHardware, 25, 25, 512, 512>::negotiateTopics()+0x3fa>
    3756:	cc03      	ldmia	r4!, {r0, r1}
    3758:	9b02      	ldr	r3, [sp, #8]
    375a:	6028      	str	r0, [r5, #0]
    375c:	6069      	str	r1, [r5, #4]
    375e:	20ff      	movs	r0, #255	; 0xff
    3760:	21fe      	movs	r1, #254	; 0xfe
    3762:	2600      	movs	r6, #0
    3764:	f04f 0e07 	mov.w	lr, #7
    3768:	f887 0320 	strb.w	r0, [r7, #800]	; 0x320
    376c:	f887 1321 	strb.w	r1, [r7, #801]	; 0x321
    3770:	203d      	movs	r0, #61	; 0x3d
    3772:	21c2      	movs	r1, #194	; 0xc2
    3774:	f887 1324 	strb.w	r1, [r7, #804]	; 0x324
    3778:	4632      	mov	r2, r6
    377a:	4674      	mov	r4, lr
    377c:	f887 6323 	strb.w	r6, [r7, #803]	; 0x323
    3780:	f887 6326 	strb.w	r6, [r7, #806]	; 0x326
    3784:	f887 e325 	strb.w	lr, [r7, #805]	; 0x325
    3788:	f887 0322 	strb.w	r0, [r7, #802]	; 0x322
    378c:	f207 3163 	addw	r1, r7, #867	; 0x363
    3790:	e001      	b.n	3796 <ros::NodeHandle_<MbedHardware, 25, 25, 512, 512>::negotiateTopics()+0x452>
    3792:	f813 4f01 	ldrb.w	r4, [r3, #1]!
    3796:	4299      	cmp	r1, r3
    3798:	4422      	add	r2, r4
    379a:	d1fa      	bne.n	3792 <ros::NodeHandle_<MbedHardware, 25, 25, 512, 512>::negotiateTopics()+0x44e>
    379c:	43d2      	mvns	r2, r2
    379e:	f107 0644 	add.w	r6, r7, #68	; 0x44
    37a2:	f887 2364 	strb.w	r2, [r7, #868]	; 0x364
    37a6:	f207 341f 	addw	r4, r7, #799	; 0x31f
    37aa:	f507 7559 	add.w	r5, r7, #868	; 0x364
    37ae:	f814 1f01 	ldrb.w	r1, [r4, #1]!
    37b2:	4630      	mov	r0, r6
    37b4:	f004 f826 	bl	7804 <mbed::Stream::putc(int)>
    37b8:	42ac      	cmp	r4, r5
    37ba:	d1f8      	bne.n	37ae <ros::NodeHandle_<MbedHardware, 25, 25, 512, 512>::negotiateTopics()+0x46a>
    37bc:	9b01      	ldr	r3, [sp, #4]
    37be:	459b      	cmp	r11, r3
    37c0:	f47f add4 	bne.w	336c <ros::NodeHandle_<MbedHardware, 25, 25, 512, 512>::negotiateTopics()+0x28>
    37c4:	e698      	b.n	34f8 <ros::NodeHandle_<MbedHardware, 25, 25, 512, 512>::negotiateTopics()+0x1b4>
    37c6:	4932      	ldr	r1, [pc, #200]	; (3890 <ros::NodeHandle_<MbedHardware, 25, 25, 512, 512>::negotiateTopics()+0x54c>)
    37c8:	4c32      	ldr	r4, [pc, #200]	; (3894 <ros::NodeHandle_<MbedHardware, 25, 25, 512, 512>::negotiateTopics()+0x550>)
    37ca:	2203      	movs	r2, #3
    37cc:	683b      	ldr	r3, [r7, #0]
    37ce:	9107      	str	r1, [sp, #28]
    37d0:	9409      	str	r4, [sp, #36]	; 0x24
    37d2:	f88d 2020 	strb.w	r2, [sp, #32]
    37d6:	681b      	ldr	r3, [r3, #0]
    37d8:	4553      	cmp	r3, r10
    37da:	d154      	bne.n	3886 <ros::NodeHandle_<MbedHardware, 25, 25, 512, 512>::negotiateTopics()+0x542>
    37dc:	2338      	movs	r3, #56	; 0x38
    37de:	9306      	str	r3, [sp, #24]
    37e0:	9b00      	ldr	r3, [sp, #0]
    37e2:	f887 2327 	strb.w	r2, [r7, #807]	; 0x327
    37e6:	6818      	ldr	r0, [r3, #0]
    37e8:	f104 0e30 	add.w	lr, r4, #48	; 0x30
    37ec:	f8c7 0328 	str.w	r0, [r7, #808]	; 0x328
    37f0:	f507 754b 	add.w	r5, r7, #812	; 0x32c
    37f4:	4626      	mov	r6, r4
    37f6:	ce0f      	ldmia	r6!, {r0, r1, r2, r3}
    37f8:	4576      	cmp	r6, lr
    37fa:	6028      	str	r0, [r5, #0]
    37fc:	6069      	str	r1, [r5, #4]
    37fe:	60aa      	str	r2, [r5, #8]
    3800:	60eb      	str	r3, [r5, #12]
    3802:	f104 0410 	add.w	r4, r4, #16
    3806:	f105 0510 	add.w	r5, r5, #16
    380a:	d1f3      	bne.n	37f4 <ros::NodeHandle_<MbedHardware, 25, 25, 512, 512>::negotiateTopics()+0x4b0>
    380c:	cc03      	ldmia	r4!, {r0, r1}
    380e:	9b02      	ldr	r3, [sp, #8]
    3810:	6028      	str	r0, [r5, #0]
    3812:	6069      	str	r1, [r5, #4]
    3814:	20ff      	movs	r0, #255	; 0xff
    3816:	21fe      	movs	r1, #254	; 0xfe
    3818:	2600      	movs	r6, #0
    381a:	f04f 0e07 	mov.w	lr, #7
    381e:	f887 0320 	strb.w	r0, [r7, #800]	; 0x320
    3822:	f887 1321 	strb.w	r1, [r7, #801]	; 0x321
    3826:	203d      	movs	r0, #61	; 0x3d
    3828:	21c2      	movs	r1, #194	; 0xc2
    382a:	f887 1324 	strb.w	r1, [r7, #804]	; 0x324
    382e:	4632      	mov	r2, r6
    3830:	4674      	mov	r4, lr
    3832:	f887 6323 	strb.w	r6, [r7, #803]	; 0x323
    3836:	f887 6326 	strb.w	r6, [r7, #806]	; 0x326
    383a:	f887 e325 	strb.w	lr, [r7, #805]	; 0x325
    383e:	f887 0322 	strb.w	r0, [r7, #802]	; 0x322
    3842:	f207 3163 	addw	r1, r7, #867	; 0x363
    3846:	e001      	b.n	384c <ros::NodeHandle_<MbedHardware, 25, 25, 512, 512>::negotiateTopics()+0x508>
    3848:	f813 4f01 	ldrb.w	r4, [r3, #1]!
    384c:	428b      	cmp	r3, r1
    384e:	4422      	add	r2, r4
    3850:	d1fa      	bne.n	3848 <ros::NodeHandle_<MbedHardware, 25, 25, 512, 512>::negotiateTopics()+0x504>
    3852:	43d2      	mvns	r2, r2
    3854:	f107 0644 	add.w	r6, r7, #68	; 0x44
    3858:	f887 2364 	strb.w	r2, [r7, #868]	; 0x364
    385c:	f207 341f 	addw	r4, r7, #799	; 0x31f
    3860:	f507 7559 	add.w	r5, r7, #868	; 0x364
    3864:	f814 1f01 	ldrb.w	r1, [r4, #1]!
    3868:	4630      	mov	r0, r6
    386a:	f003 ffcb 	bl	7804 <mbed::Stream::putc(int)>
    386e:	42a5      	cmp	r5, r4
    3870:	d1f8      	bne.n	3864 <ros::NodeHandle_<MbedHardware, 25, 25, 512, 512>::negotiateTopics()+0x520>
    3872:	9b01      	ldr	r3, [sp, #4]
    3874:	4543      	cmp	r3, r8
    3876:	f47f ae43 	bne.w	3500 <ros::NodeHandle_<MbedHardware, 25, 25, 512, 512>::negotiateTopics()+0x1bc>
    387a:	e71f      	b.n	36bc <ros::NodeHandle_<MbedHardware, 25, 25, 512, 512>::negotiateTopics()+0x378>
    387c:	4642      	mov	r2, r8
    387e:	2107      	movs	r1, #7
    3880:	4638      	mov	r0, r7
    3882:	4798      	blx	r3
    3884:	e634      	b.n	34f0 <ros::NodeHandle_<MbedHardware, 25, 25, 512, 512>::negotiateTopics()+0x1ac>
    3886:	464a      	mov	r2, r9
    3888:	2107      	movs	r1, #7
    388a:	4638      	mov	r0, r7
    388c:	4798      	blx	r3
    388e:	e711      	b.n	36b4 <ros::NodeHandle_<MbedHardware, 25, 25, 512, 512>::negotiateTopics()+0x370>
    3890:	0000ad84 	.word	0x0000ad84
    3894:	0000b00c 	.word	0x0000b00c
    3898:	000010d5 	.word	0x000010d5

0000389c <ros::NodeHandle_<MbedHardware, 25, 25, 512, 512>::spinOnce()>:
    389c:	e92d 4ff0 	stmdb	sp!, {r4, r5, r6, r7, r8, r9, r10, r11, lr}
    38a0:	4604      	mov	r4, r0
    38a2:	f500 7a82 	add.w	r10, r0, #260	; 0x104
    38a6:	b08b      	sub	sp, #44	; 0x2c
    38a8:	4650      	mov	r0, r10
    38aa:	f003 ffe5 	bl	7878 <mbed::Timer::read_ms()>
    38ae:	f642 22f8 	movw	r2, #11000	; 0x2af8
    38b2:	f8d4 3604 	ldr.w	r3, [r4, #1540]	; 0x604
    38b6:	4680      	mov	r8, r0
    38b8:	1ac3      	subs	r3, r0, r3
    38ba:	4293      	cmp	r3, r2
    38bc:	bf84      	itt	hi
    38be:	2300      	movhi	r3, #0
    38c0:	f884 35fc 	strbhi.w	r3, [r4, #1532]	; 0x5fc
    38c4:	f8d4 35e8 	ldr.w	r3, [r4, #1512]	; 0x5e8
    38c8:	b133      	cbz	r3, 38d8 <ros::NodeHandle_<MbedHardware, 25, 25, 512, 512>::spinOnce()+0x3c>
    38ca:	f8d4 3608 	ldr.w	r3, [r4, #1544]	; 0x608
    38ce:	4283      	cmp	r3, r0
    38d0:	bf3c      	itt	cc
    38d2:	2300      	movcc	r3, #0
    38d4:	f8c4 35e8 	strcc.w	r3, [r4, #1512]	; 0x5e8
    38d8:	f104 0b04 	add.w	r11, r4, #4
    38dc:	4658      	mov	r0, r11
    38de:	f002 fd03 	bl	62e8 <AjK::MODSERIAL::rxBufferEmpty()>
    38e2:	4605      	mov	r5, r0
    38e4:	b178      	cbz	r0, 3906 <ros::NodeHandle_<MbedHardware, 25, 25, 512, 512>::spinOnce()+0x6a>
    38e6:	f894 05fc 	ldrb.w	r0, [r4, #1532]	; 0x5fc
    38ea:	b148      	cbz	r0, 3900 <ros::NodeHandle_<MbedHardware, 25, 25, 512, 512>::spinOnce()+0x64>
    38ec:	f640 12c4 	movw	r2, #2500	; 0x9c4
    38f0:	f8d4 3600 	ldr.w	r3, [r4, #1536]	; 0x600
    38f4:	ebc3 0308 	rsb	r3, r3, r8
    38f8:	4293      	cmp	r3, r2
    38fa:	f200 81cf 	bhi.w	3c9c <ros::NodeHandle_<MbedHardware, 25, 25, 512, 512>::spinOnce()+0x400>
    38fe:	2000      	movs	r0, #0
    3900:	b00b      	add	sp, #44	; 0x2c
    3902:	e8bd 8ff0 	ldmia.w	sp!, {r4, r5, r6, r7, r8, r9, r10, r11, pc}
    3906:	2101      	movs	r1, #1
    3908:	4658      	mov	r0, r11
    390a:	f002 fb6b 	bl	5fe4 <AjK::MODSERIAL::__getc(bool)>
    390e:	2800      	cmp	r0, #0
    3910:	dbe9      	blt.n	38e6 <ros::NodeHandle_<MbedHardware, 25, 25, 512, 512>::spinOnce()+0x4a>
    3912:	f8d4 35f8 	ldr.w	r3, [r4, #1528]	; 0x5f8
    3916:	f8d4 65e8 	ldr.w	r6, [r4, #1512]	; 0x5e8
    391a:	4403      	add	r3, r0
    391c:	2e07      	cmp	r6, #7
    391e:	f8c4 35f8 	str.w	r3, [r4, #1528]	; 0x5f8
    3922:	f000 80fe 	beq.w	3b22 <ros::NodeHandle_<MbedHardware, 25, 25, 512, 512>::spinOnce()+0x286>
    3926:	b956      	cbnz	r6, 393e <ros::NodeHandle_<MbedHardware, 25, 25, 512, 512>::spinOnce()+0xa2>
    3928:	28ff      	cmp	r0, #255	; 0xff
    392a:	f040 810e 	bne.w	3b4a <ros::NodeHandle_<MbedHardware, 25, 25, 512, 512>::spinOnce()+0x2ae>
    392e:	2201      	movs	r2, #1
    3930:	f108 0314 	add.w	r3, r8, #20
    3934:	f8c4 25e8 	str.w	r2, [r4, #1512]	; 0x5e8
    3938:	f8c4 3608 	str.w	r3, [r4, #1544]	; 0x608
    393c:	e7ce      	b.n	38dc <ros::NodeHandle_<MbedHardware, 25, 25, 512, 512>::spinOnce()+0x40>
    393e:	2e01      	cmp	r6, #1
    3940:	f000 8112 	beq.w	3b68 <ros::NodeHandle_<MbedHardware, 25, 25, 512, 512>::spinOnce()+0x2cc>
    3944:	2e02      	cmp	r6, #2
    3946:	f000 8167 	beq.w	3c18 <ros::NodeHandle_<MbedHardware, 25, 25, 512, 512>::spinOnce()+0x37c>
    394a:	2e03      	cmp	r6, #3
    394c:	f000 816e 	beq.w	3c2c <ros::NodeHandle_<MbedHardware, 25, 25, 512, 512>::spinOnce()+0x390>
    3950:	2e04      	cmp	r6, #4
    3952:	f000 8175 	beq.w	3c40 <ros::NodeHandle_<MbedHardware, 25, 25, 512, 512>::spinOnce()+0x3a4>
    3956:	2e05      	cmp	r6, #5
    3958:	f000 8181 	beq.w	3c5e <ros::NodeHandle_<MbedHardware, 25, 25, 512, 512>::spinOnce()+0x3c2>
    395c:	2e06      	cmp	r6, #6
    395e:	f000 8186 	beq.w	3c6e <ros::NodeHandle_<MbedHardware, 25, 25, 512, 512>::spinOnce()+0x3d2>
    3962:	2e08      	cmp	r6, #8
    3964:	d1ba      	bne.n	38dc <ros::NodeHandle_<MbedHardware, 25, 25, 512, 512>::spinOnce()+0x40>
    3966:	4ac9      	ldr	r2, [pc, #804]	; (3c8c <ros::NodeHandle_<MbedHardware, 25, 25, 512, 512>::spinOnce()+0x3f0>)
    3968:	2100      	movs	r1, #0
    396a:	401a      	ands	r2, r3
    396c:	428a      	cmp	r2, r1
    396e:	f8c4 15e8 	str.w	r1, [r4, #1512]	; 0x5e8
    3972:	f2c0 81f6 	blt.w	3d62 <ros::NodeHandle_<MbedHardware, 25, 25, 512, 512>::spinOnce()+0x4c6>
    3976:	2aff      	cmp	r2, #255	; 0xff
    3978:	d1b0      	bne.n	38dc <ros::NodeHandle_<MbedHardware, 25, 25, 512, 512>::spinOnce()+0x40>
    397a:	f8d4 35f0 	ldr.w	r3, [r4, #1520]	; 0x5f0
    397e:	2b00      	cmp	r3, #0
    3980:	f000 82f9 	beq.w	3f76 <ros::NodeHandle_<MbedHardware, 25, 25, 512, 512>::spinOnce()+0x6da>
    3984:	2b0a      	cmp	r3, #10
    3986:	f000 82a5 	beq.w	3ed4 <ros::NodeHandle_<MbedHardware, 25, 25, 512, 512>::spinOnce()+0x638>
    398a:	2b06      	cmp	r3, #6
    398c:	f000 81f7 	beq.w	3d7e <ros::NodeHandle_<MbedHardware, 25, 25, 512, 512>::spinOnce()+0x4e2>
    3990:	2b0b      	cmp	r3, #11
    3992:	f000 81f0 	beq.w	3d76 <ros::NodeHandle_<MbedHardware, 25, 25, 512, 512>::spinOnce()+0x4da>
    3996:	eb04 0383 	add.w	r3, r4, r3, lsl #2
    399a:	f8d3 53f4 	ldr.w	r5, [r3, #1012]	; 0x3f4
    399e:	2d00      	cmp	r5, #0
    39a0:	d09c      	beq.n	38dc <ros::NodeHandle_<MbedHardware, 25, 25, 512, 512>::spinOnce()+0x40>
    39a2:	682b      	ldr	r3, [r5, #0]
    39a4:	f504 7290 	add.w	r2, r4, #288	; 0x120
    39a8:	9201      	str	r2, [sp, #4]
    39aa:	681b      	ldr	r3, [r3, #0]
    39ac:	4ab8      	ldr	r2, [pc, #736]	; (3c90 <ros::NodeHandle_<MbedHardware, 25, 25, 512, 512>::spinOnce()+0x3f4>)
    39ae:	4293      	cmp	r3, r2
    39b0:	f040 82d4 	bne.w	3f5c <ros::NodeHandle_<MbedHardware, 25, 25, 512, 512>::spinOnce()+0x6c0>
    39b4:	f894 6120 	ldrb.w	r6, [r4, #288]	; 0x120
    39b8:	7d2b      	ldrb	r3, [r5, #20]
    39ba:	f105 020c 	add.w	r2, r5, #12
    39be:	42b3      	cmp	r3, r6
    39c0:	9202      	str	r2, [sp, #8]
    39c2:	f0c0 82c5 	bcc.w	3f50 <ros::NodeHandle_<MbedHardware, 25, 25, 512, 512>::spinOnce()+0x6b4>
    39c6:	752e      	strb	r6, [r5, #20]
    39c8:	2e00      	cmp	r6, #0
    39ca:	f000 82cb 	beq.w	3f64 <ros::NodeHandle_<MbedHardware, 25, 25, 512, 512>::spinOnce()+0x6c8>
    39ce:	2304      	movs	r3, #4
    39d0:	aa07      	add	r2, sp, #28
    39d2:	f8cd 8010 	str.w	r8, [sp, #16]
    39d6:	469c      	mov	r12, r3
    39d8:	4690      	mov	r8, r2
    39da:	9405      	str	r4, [sp, #20]
    39dc:	9c01      	ldr	r4, [sp, #4]
    39de:	2700      	movs	r7, #0
    39e0:	f105 0618 	add.w	r6, r5, #24
    39e4:	f8cd a00c 	str.w	r10, [sp, #12]
    39e8:	eb04 0e0c 	add.w	lr, r4, r12
    39ec:	f8de 0000 	ldr.w	r0, [lr]
    39f0:	f10e 0903 	add.w	r9, lr, #3
    39f4:	f8c8 0000 	str.w	r0, [r8]
    39f8:	9807      	ldr	r0, [sp, #28]
    39fa:	f100 0a04 	add.w	r10, r0, #4
    39fe:	f1ba 0f04 	cmp.w	r10, #4
    3a02:	d908      	bls.n	3a16 <ros::NodeHandle_<MbedHardware, 25, 25, 512, 512>::spinOnce()+0x17a>
    3a04:	464b      	mov	r3, r9
    3a06:	1cc1      	adds	r1, r0, #3
    3a08:	4471      	add	r1, lr
    3a0a:	f813 2f01 	ldrb.w	r2, [r3, #1]!
    3a0e:	4299      	cmp	r1, r3
    3a10:	f803 2c01 	strb.w	r2, [r3, #-1]
    3a14:	d1f9      	bne.n	3a0a <ros::NodeHandle_<MbedHardware, 25, 25, 512, 512>::spinOnce()+0x16e>
    3a16:	f04f 0300 	mov.w	r3, #0
    3a1a:	eb0e 0200 	add.w	r2, lr, r0
    3a1e:	70d3      	strb	r3, [r2, #3]
    3a20:	f8c5 901c 	str.w	r9, [r5, #28]
    3a24:	f81e 300a 	ldrb.w	r3, [lr, r10]
    3a28:	300c      	adds	r0, #12
    3a2a:	622b      	str	r3, [r5, #32]
    3a2c:	f892 9005 	ldrb.w	r9, [r2, #5]
    3a30:	4484      	add	r12, r0
    3a32:	ea43 2309 	orr.w	r3, r3, r9, lsl #8
    3a36:	622b      	str	r3, [r5, #32]
    3a38:	f892 9006 	ldrb.w	r9, [r2, #6]
    3a3c:	f8d5 e028 	ldr.w	lr, [r5, #40]	; 0x28
    3a40:	ea43 4309 	orr.w	r3, r3, r9, lsl #16
    3a44:	622b      	str	r3, [r5, #32]
    3a46:	f892 9007 	ldrb.w	r9, [r2, #7]
    3a4a:	0139      	lsls	r1, r7, #4
    3a4c:	ea43 6309 	orr.w	r3, r3, r9, lsl #24
    3a50:	622b      	str	r3, [r5, #32]
    3a52:	7a13      	ldrb	r3, [r2, #8]
    3a54:	3701      	adds	r7, #1
    3a56:	626b      	str	r3, [r5, #36]	; 0x24
    3a58:	f892 9009 	ldrb.w	r9, [r2, #9]
    3a5c:	b2ff      	uxtb	r7, r7
    3a5e:	ea43 2009 	orr.w	r0, r3, r9, lsl #8
    3a62:	6268      	str	r0, [r5, #36]	; 0x24
    3a64:	f892 900a 	ldrb.w	r9, [r2, #10]
    3a68:	eb0e 0301 	add.w	r3, lr, r1
    3a6c:	ea40 4009 	orr.w	r0, r0, r9, lsl #16
    3a70:	6268      	str	r0, [r5, #36]	; 0x24
    3a72:	7ad2      	ldrb	r2, [r2, #11]
    3a74:	ea40 6002 	orr.w	r0, r0, r2, lsl #24
    3a78:	6268      	str	r0, [r5, #36]	; 0x24
    3a7a:	f8d6 a000 	ldr.w	r10, [r6]
    3a7e:	f8d6 9004 	ldr.w	r9, [r6, #4]
    3a82:	68b0      	ldr	r0, [r6, #8]
    3a84:	68f2      	ldr	r2, [r6, #12]
    3a86:	f84e a001 	str.w	r10, [lr, r1]
    3a8a:	f8c3 9004 	str.w	r9, [r3, #4]
    3a8e:	6098      	str	r0, [r3, #8]
    3a90:	60da      	str	r2, [r3, #12]
    3a92:	7d2b      	ldrb	r3, [r5, #20]
    3a94:	42bb      	cmp	r3, r7
    3a96:	d8a7      	bhi.n	39e8 <ros::NodeHandle_<MbedHardware, 25, 25, 512, 512>::spinOnce()+0x14c>
    3a98:	4663      	mov	r3, r12
    3a9a:	f8dd a00c 	ldr.w	r10, [sp, #12]
    3a9e:	1d1a      	adds	r2, r3, #4
    3aa0:	f8dd 8010 	ldr.w	r8, [sp, #16]
    3aa4:	9c05      	ldr	r4, [sp, #20]
    3aa6:	f10c 0e01 	add.w	lr, r12, #1
    3aaa:	1d16      	adds	r6, r2, #4
    3aac:	1c98      	adds	r0, r3, #2
    3aae:	f10c 0c03 	add.w	r12, r12, #3
    3ab2:	9901      	ldr	r1, [sp, #4]
    3ab4:	f895 7030 	ldrb.w	r7, [r5, #48]	; 0x30
    3ab8:	5ccb      	ldrb	r3, [r1, r3]
    3aba:	62eb      	str	r3, [r5, #44]	; 0x2c
    3abc:	f811 e00e 	ldrb.w	lr, [r1, lr]
    3ac0:	ea43 230e 	orr.w	r3, r3, lr, lsl #8
    3ac4:	62eb      	str	r3, [r5, #44]	; 0x2c
    3ac6:	5c08      	ldrb	r0, [r1, r0]
    3ac8:	ea43 4300 	orr.w	r3, r3, r0, lsl #16
    3acc:	4608      	mov	r0, r1
    3ace:	62eb      	str	r3, [r5, #44]	; 0x2c
    3ad0:	f811 100c 	ldrb.w	r1, [r1, r12]
    3ad4:	ea43 6301 	orr.w	r3, r3, r1, lsl #24
    3ad8:	62eb      	str	r3, [r5, #44]	; 0x2c
    3ada:	f810 9002 	ldrb.w	r9, [r0, r2]
    3ade:	454f      	cmp	r7, r9
    3ae0:	f0c0 822f 	bcc.w	3f42 <ros::NodeHandle_<MbedHardware, 25, 25, 512, 512>::spinOnce()+0x6a6>
    3ae4:	f885 9030 	strb.w	r9, [r5, #48]	; 0x30
    3ae8:	f1b9 0f00 	cmp.w	r9, #0
    3aec:	d015      	beq.n	3b1a <ros::NodeHandle_<MbedHardware, 25, 25, 512, 512>::spinOnce()+0x27e>
    3aee:	9b01      	ldr	r3, [sp, #4]
    3af0:	f105 0732 	add.w	r7, r5, #50	; 0x32
    3af4:	4433      	add	r3, r6
    3af6:	461e      	mov	r6, r3
    3af8:	2000      	movs	r0, #0
    3afa:	7872      	ldrb	r2, [r6, #1]
    3afc:	f816 3b02 	ldrb.w	r3, [r6], #2
    3b00:	6b69      	ldr	r1, [r5, #52]	; 0x34
    3b02:	ea43 2302 	orr.w	r3, r3, r2, lsl #8
    3b06:	866b      	strh	r3, [r5, #50]	; 0x32
    3b08:	883b      	ldrh	r3, [r7, #0]
    3b0a:	1c42      	adds	r2, r0, #1
    3b0c:	f821 3010 	strh.w	r3, [r1, r0, lsl #1]
    3b10:	f895 3030 	ldrb.w	r3, [r5, #48]	; 0x30
    3b14:	b2d0      	uxtb	r0, r2
    3b16:	4283      	cmp	r3, r0
    3b18:	d8ef      	bhi.n	3afa <ros::NodeHandle_<MbedHardware, 25, 25, 512, 512>::spinOnce()+0x25e>
    3b1a:	6bab      	ldr	r3, [r5, #56]	; 0x38
    3b1c:	9802      	ldr	r0, [sp, #8]
    3b1e:	4798      	blx	r3
    3b20:	e6dc      	b.n	38dc <ros::NodeHandle_<MbedHardware, 25, 25, 512, 512>::spinOnce()+0x40>
    3b22:	f8d4 35f4 	ldr.w	r3, [r4, #1524]	; 0x5f4
    3b26:	1c5a      	adds	r2, r3, #1
    3b28:	4423      	add	r3, r4
    3b2a:	f8c4 25f4 	str.w	r2, [r4, #1524]	; 0x5f4
    3b2e:	f883 0120 	strb.w	r0, [r3, #288]	; 0x120
    3b32:	f8d4 35ec 	ldr.w	r3, [r4, #1516]	; 0x5ec
    3b36:	3b01      	subs	r3, #1
    3b38:	f8c4 35ec 	str.w	r3, [r4, #1516]	; 0x5ec
    3b3c:	2b00      	cmp	r3, #0
    3b3e:	f47f aecd 	bne.w	38dc <ros::NodeHandle_<MbedHardware, 25, 25, 512, 512>::spinOnce()+0x40>
    3b42:	2308      	movs	r3, #8
    3b44:	f8c4 35e8 	str.w	r3, [r4, #1512]	; 0x5e8
    3b48:	e6c8      	b.n	38dc <ros::NodeHandle_<MbedHardware, 25, 25, 512, 512>::spinOnce()+0x40>
    3b4a:	4650      	mov	r0, r10
    3b4c:	f003 fe94 	bl	7878 <mbed::Timer::read_ms()>
    3b50:	ebc8 0000 	rsb	r0, r8, r0
    3b54:	2805      	cmp	r0, #5
    3b56:	f67f aec1 	bls.w	38dc <ros::NodeHandle_<MbedHardware, 25, 25, 512, 512>::spinOnce()+0x40>
    3b5a:	f06f 0001 	mvn.w	r0, #1
    3b5e:	f884 65fc 	strb.w	r6, [r4, #1532]	; 0x5fc
    3b62:	b00b      	add	sp, #44	; 0x2c
    3b64:	e8bd 8ff0 	ldmia.w	sp!, {r4, r5, r6, r7, r8, r9, r10, r11, pc}
    3b68:	28fe      	cmp	r0, #254	; 0xfe
    3b6a:	d074      	beq.n	3c56 <ros::NodeHandle_<MbedHardware, 25, 25, 512, 512>::spinOnce()+0x3ba>
    3b6c:	f894 35fc 	ldrb.w	r3, [r4, #1532]	; 0x5fc
    3b70:	f8c4 55e8 	str.w	r5, [r4, #1512]	; 0x5e8
    3b74:	2b00      	cmp	r3, #0
    3b76:	f47f aeb1 	bne.w	38dc <ros::NodeHandle_<MbedHardware, 25, 25, 512, 512>::spinOnce()+0x40>
    3b7a:	4946      	ldr	r1, [pc, #280]	; (3c94 <ros::NodeHandle_<MbedHardware, 25, 25, 512, 512>::spinOnce()+0x3f8>)
    3b7c:	6822      	ldr	r2, [r4, #0]
    3b7e:	9107      	str	r1, [sp, #28]
    3b80:	6815      	ldr	r5, [r2, #0]
    3b82:	4a45      	ldr	r2, [pc, #276]	; (3c98 <ros::NodeHandle_<MbedHardware, 25, 25, 512, 512>::spinOnce()+0x3fc>)
    3b84:	9308      	str	r3, [sp, #32]
    3b86:	4295      	cmp	r5, r2
    3b88:	9309      	str	r3, [sp, #36]	; 0x24
    3b8a:	f040 80e0 	bne.w	3d4e <ros::NodeHandle_<MbedHardware, 25, 25, 512, 512>::spinOnce()+0x4b2>
    3b8e:	200a      	movs	r0, #10
    3b90:	461a      	mov	r2, r3
    3b92:	4601      	mov	r1, r0
    3b94:	26ff      	movs	r6, #255	; 0xff
    3b96:	f884 3327 	strb.w	r3, [r4, #807]	; 0x327
    3b9a:	f884 3328 	strb.w	r3, [r4, #808]	; 0x328
    3b9e:	f884 3329 	strb.w	r3, [r4, #809]	; 0x329
    3ba2:	f884 332a 	strb.w	r3, [r4, #810]	; 0x32a
    3ba6:	f884 332b 	strb.w	r3, [r4, #811]	; 0x32b
    3baa:	f884 332c 	strb.w	r3, [r4, #812]	; 0x32c
    3bae:	f884 332d 	strb.w	r3, [r4, #813]	; 0x32d
    3bb2:	f884 332e 	strb.w	r3, [r4, #814]	; 0x32e
    3bb6:	f884 3323 	strb.w	r3, [r4, #803]	; 0x323
    3bba:	f884 3326 	strb.w	r3, [r4, #806]	; 0x326
    3bbe:	25fe      	movs	r5, #254	; 0xfe
    3bc0:	23f7      	movs	r3, #247	; 0xf7
    3bc2:	f884 0325 	strb.w	r0, [r4, #805]	; 0x325
    3bc6:	2008      	movs	r0, #8
    3bc8:	f884 0322 	strb.w	r0, [r4, #802]	; 0x322
    3bcc:	f884 3324 	strb.w	r3, [r4, #804]	; 0x324
    3bd0:	f884 6320 	strb.w	r6, [r4, #800]	; 0x320
    3bd4:	f884 5321 	strb.w	r5, [r4, #801]	; 0x321
    3bd8:	f204 3325 	addw	r3, r4, #805	; 0x325
    3bdc:	f204 302e 	addw	r0, r4, #814	; 0x32e
    3be0:	e001      	b.n	3be6 <ros::NodeHandle_<MbedHardware, 25, 25, 512, 512>::spinOnce()+0x34a>
    3be2:	f813 1f01 	ldrb.w	r1, [r3, #1]!
    3be6:	4298      	cmp	r0, r3
    3be8:	440a      	add	r2, r1
    3bea:	d1fa      	bne.n	3be2 <ros::NodeHandle_<MbedHardware, 25, 25, 512, 512>::spinOnce()+0x346>
    3bec:	43d2      	mvns	r2, r2
    3bee:	f104 0744 	add.w	r7, r4, #68	; 0x44
    3bf2:	f884 232f 	strb.w	r2, [r4, #815]	; 0x32f
    3bf6:	f204 351f 	addw	r5, r4, #799	; 0x31f
    3bfa:	f204 362f 	addw	r6, r4, #815	; 0x32f
    3bfe:	f815 1f01 	ldrb.w	r1, [r5, #1]!
    3c02:	4638      	mov	r0, r7
    3c04:	f003 fdfe 	bl	7804 <mbed::Stream::putc(int)>
    3c08:	42ae      	cmp	r6, r5
    3c0a:	d1f8      	bne.n	3bfe <ros::NodeHandle_<MbedHardware, 25, 25, 512, 512>::spinOnce()+0x362>
    3c0c:	4650      	mov	r0, r10
    3c0e:	f003 fe33 	bl	7878 <mbed::Timer::read_ms()>
    3c12:	f8c4 0114 	str.w	r0, [r4, #276]	; 0x114
    3c16:	e661      	b.n	38dc <ros::NodeHandle_<MbedHardware, 25, 25, 512, 512>::spinOnce()+0x40>
    3c18:	2303      	movs	r3, #3
    3c1a:	f8c4 05ec 	str.w	r0, [r4, #1516]	; 0x5ec
    3c1e:	f8c4 55f4 	str.w	r5, [r4, #1524]	; 0x5f4
    3c22:	f8c4 05f8 	str.w	r0, [r4, #1528]	; 0x5f8
    3c26:	f8c4 35e8 	str.w	r3, [r4, #1512]	; 0x5e8
    3c2a:	e657      	b.n	38dc <ros::NodeHandle_<MbedHardware, 25, 25, 512, 512>::spinOnce()+0x40>
    3c2c:	f8d4 35ec 	ldr.w	r3, [r4, #1516]	; 0x5ec
    3c30:	2204      	movs	r2, #4
    3c32:	eb03 2000 	add.w	r0, r3, r0, lsl #8
    3c36:	f8c4 05ec 	str.w	r0, [r4, #1516]	; 0x5ec
    3c3a:	f8c4 25e8 	str.w	r2, [r4, #1512]	; 0x5e8
    3c3e:	e64d      	b.n	38dc <ros::NodeHandle_<MbedHardware, 25, 25, 512, 512>::spinOnce()+0x40>
    3c40:	4a12      	ldr	r2, [pc, #72]	; (3c8c <ros::NodeHandle_<MbedHardware, 25, 25, 512, 512>::spinOnce()+0x3f0>)
    3c42:	401a      	ands	r2, r3
    3c44:	2a00      	cmp	r2, #0
